1	                          ;CODE MEMORY: (0x00000000-0x0000FFFF)
2	                          ;DATA MEMORY: (0x00010000-0x0001FFFF)
3	                          
4	                          org 0000
5	                          
6	                          _reset:
7	                          
8	0000  00000026             xor $0, $0, $0
9	0004  00210826             xor $1, $1, $1
10	0008  00421026             xor $2, $2, $2
11	000C  00631826             xor $3, $3, $3
12	0010  00842026             xor $4, $4, $4
13	0014  00A52826             xor $5, $5, $5
14	0018  00C63026             xor $6, $6, $6
15	001C  00E73826             xor $7, $7, $7
16	0020  01084026             xor $8, $8, $8
17	0024  01294826             xor $9, $9, $9
18	0028  014A5026             xor $10, $10, $10
19	002C  016B5826             xor $11, $11, $11
20	0030  018C6026             xor $12, $12, $12
21	0034  01AD6826             xor $13, $13, $13
22	0038  01CE7026             xor $14, $14, $14
23	003C  01EF7826             xor $15, $15, $15
24	0040  02108026             xor $16, $16, $16
25	0044  02318826             xor $17, $17, $17
26	0048  02529026             xor $18, $18, $18
27	004C  02739826             xor $19, $19, $19
28	0050  0294A026             xor $20, $20, $20
29	0054  02B5A826             xor $21, $21, $21
30	0058  02D6B026             xor $22, $22, $22
31	005C  02F7B826             xor $23, $23, $23
32	0060  0318C026             xor $24, $24, $24
33	0064  0339C826             xor $25, $25, $25
34	0068  035AD026             xor $26, $26, $26
35	006C  037BD826             xor $27, $27, $27
36	0070  039CE026             xor $28, $28, $28
37	0074  03BDE826             xor $29, $29, $29
38	0078  03DEF026             xor $30, $30, $30
39	007C  03FFF826             xor $31, $31, $31
40	                          
41	                          main:
42	0080  3C1C0000             lui $28, 0
43	0084  379C014C             ori $28, $28, 332
44	0088  3C1D0001             lui $29, 1
45	008C  37BD07D0             ori $29, $29, 2000
46	                          
47	0090  0C001074             jal reset_offsets
48	                          
49	0094  0C001082             jal init_patterns
50	                          
51	0098  0C001074            jal reset_offsets
52	                          operation_addu:
53	009C  0C001071             jal load_patterns
54	00A0  00439021             addu $18, $2, $3
55	00A4  AFB20000             sw $18, 0($29)
56	00A8  0C00107E             jal increment_offset
57	00AC  177CFFFC             bne $27, $28, operation_addu
58	                          
59	00B0  0C001074            jal reset_offsets
60	                          operation_and:
61	00B4  0C001071             jal load_patterns
62	00B8  00439024             and $18, $2, $3
63	00BC  AFB20000             sw $18, 0($29)
64	00C0  0C00107E             jal increment_offset
65	00C4  177CFFFC             bne $27, $28, operation_and
66	                          
67	00C8  0C001074            jal reset_offsets
68	                          operation_nor:
69	00CC  0C001071             jal load_patterns
70	00D0  00439027             nor $18, $2, $3
71	00D4  AFB20000             sw $18, 0($29)
72	00D8  0C00107E             jal increment_offset
73	00DC  177CFFFC             bne $27, $28, operation_nor
74	                          
75	00E0  0C001074            jal reset_offsets
76	                          operation_or:
77	00E4  0C001071             jal load_patterns
78	00E8  00439025             or $18, $2, $3
79	00EC  AFB20000             sw $18, 0($29)
80	00F0  0C00107E             jal increment_offset
81	00F4  177CFFFC             bne $27, $28, operation_or
82	                          
83	00F8  0C001074            jal reset_offsets
84	                          operation_subu:
85	00FC  0C001071             jal load_patterns
86	0100  00439023             subu $18, $2, $3
87	0104  AFB20000             sw $18, 0($29)
88	0108  0C00107E             jal increment_offset
89	010C  177CFFFC             bne $27, $28, operation_subu
90	                          
91	0110  0C001074            jal reset_offsets
92	                          operation_xor:
93	0114  0C001071             jal load_patterns
94	0118  00439026             xor $18, $2, $3
95	011C  AFB20000             sw $18, 0($29)
96	0120  0C00107E             jal increment_offset
97	0124  177CFFFC             bne $27, $28, operation_xor
98	                          
99	0128  0C001074            jal reset_offsets
100	                          operation_sllv:
101	012C  0C001071             jal load_patterns
102	0130  00629004             sllv $18, $2, $3
103	0134  AFB20000             sw $18, 0($29)
104	0138  0C00107E             jal increment_offset
105	013C  177CFFFC             bne $27, $28, operation_sllv
106	                          
107	0140  0C001074            jal reset_offsets
108	                          operation_slt:
109	0144  0C001071             jal load_patterns
110	0148  0043902A             slt $18, $2, $3
111	014C  AFB20000             sw $18, 0($29)
112	0150  0C00107E             jal increment_offset
113	0154  177CFFFC             bne $27, $28, operation_slt
114	                          
115	0158  0C001074            jal reset_offsets
116	                          operation_sltu:
117	015C  0C001071             jal load_patterns
118	0160  0043902B             sltu $18, $2, $3
119	0164  AFB20000             sw $18, 0($29)
120	0168  0C00107E             jal increment_offset
121	016C  177CFFFC             bne $27, $28, operation_sltu
122	                          
123	0170  0C001074            jal reset_offsets
124	                          operation_srav:
125	0174  0C001071             jal load_patterns
126	0178  00629007             srav $18, $2, $3
127	017C  AFB20000             sw $18, 0($29)
128	0180  0C00107E             jal increment_offset
129	0184  177CFFFC             bne $27, $28, operation_srav
130	                          
131	0188  0C001074            jal reset_offsets
132	                          operation_srlv:
133	018C  0C001071             jal load_patterns
134	0190  00629006             srlv $18, $2, $3
135	0194  AFB20000             sw $18, 0($29)
136	0198  0C00107E             jal increment_offset
137	019C  177CFFFC             bne $27, $28, operation_srlv
138	                          
139	01A0  0C001074            jal reset_offsets
140	                          operation_sll:
141	01A4  0C001071             jal load_patterns
142	01A8  00029140             sll $18 ,$2, 5
143	01AC  AFB20000             sw $18, 0($29)
144	01B0  0C00107E             jal increment_offset
145	01B4  177CFFFC             bne $27, $28, operation_sll
146	                          
147	01B8  0C001074            jal reset_offsets
148	                          operation_srl:
149	01BC  0C001071             jal load_patterns
150	01C0  00029142             srl $18 ,$2, 5
151	01C4  AFB20000             sw $18, 0($29)
152	01C8  0C00107E             jal increment_offset
153	01CC  177CFFFC             bne $27, $28, operation_srl
154	                          
155	01D0  0C001074            jal reset_offsets
156	                          operation_sra:
157	01D4  0C001071             jal load_patterns
158	01D8  00029143             sra $18 ,$2, 5
159	01DC  AFB20000             sw $18, 0($29)
160	01E0  0C00107E             jal increment_offset
161	01E4  177CFFFC             bne $27, $28, operation_sra
162	                          
163	01E8  0C001074            jal reset_offsets
164	                          operation_mult:
165	01EC  0C001071             jal load_patterns
166	01F0  00430018             mult $2, $3
167	01F4  AFB20000             sw $18, 0($29)
168	01F8  0C00107E             jal increment_offset
169	01FC  177CFFFC             bne $27, $28, operation_mult
170	                          
171	0200  0C001074            jal reset_offsets
172	                          operation_multu:
173	0204  0C001071             jal load_patterns
174	0208  00430018             mult $2, $3
175	020C  AFB20000             sw $18, 0($29)
176	0210  0C00107E             jal increment_offset
177	0214  177CFFFC             bne $27, $28, operation_multu
178	                          
179	0218  0C001074            jal reset_offsets
180	021C  0C001079            jal reset_hi_lo
181	                          operation_mfhi:
182	0220  0C001071             jal load_patterns
183	0224  00009010             mfhi $18
184	0228  AFB20000             sw $18, 0($29)
185	022C  0C00107E             jal increment_offset
186	0230  177CFFFC             bne $27, $28, operation_mfhi
187	                          
188	0234  0C001074            jal reset_offsets
189	0238  0C001079            jal reset_hi_lo
190	                          operation_mflo:
191	023C  0C001071             jal load_patterns
192	0240  00009012             mflo $18
193	0244  AFB20000             sw $18, 0($29)
194	0248  0C00107E             jal increment_offset
195	024C  177CFFFC             bne $27, $28, operation_mflo
196	                          
197	0250  0C001074            jal reset_offsets
198	                          operation_mthi:
199	0254  0C001071             jal load_patterns
200	0258  00400011             mthi $2
201	025C  AFB20000             sw $18, 0($29)
202	0260  0C00107E             jal increment_offset
203	0264  177CFFFC             bne $27, $28, operation_mthi
204	                          
205	0268  0C001074            jal reset_offsets
206	                          operation_mtlo:
207	026C  0C001071             jal load_patterns
208	0270  00400013             mtlo $2
209	0274  AFB20000             sw $18, 0($29)
210	0278  0C00107E             jal increment_offset
211	027C  177CFFFC             bne $27, $28, operation_mtlo
212	                          
213	0280  0C001074            jal reset_offsets
214	                          operation_mult_lo:
215	0284  0C001071             jal load_patterns
216	0288  00430018             mult $2, $3
217	028C  00009012             mflo $18
218	0290  AFB20000             sw $18, 0($29)
219	0294  0C00107E             jal increment_offset
220	0298  177CFFFB             bne $27, $28, operation_mult_lo
221	                          
222	029C  0C001074            jal reset_offsets
223	                          operation_mult_hi:
224	02A0  0C001071             jal load_patterns
225	02A4  00430018             mult $2, $3
226	02A8  00009010             mfhi $18
227	02AC  AFB20000             sw $18, 0($29)
228	02B0  0C00107E             jal increment_offset
229	02B4  177CFFFB             bne $27, $28, operation_mult_hi
230	                          
231	02B8  0C001074            jal reset_offsets
232	                          operation_multu_lo:
233	02BC  0C001071             jal load_patterns
234	02C0  00430018             mult $2, $3
235	02C4  00009012             mflo $18
236	02C8  AFB20000             sw $18, 0($29)
237	02CC  0C00107E             jal increment_offset
238	02D0  177CFFFB             bne $27, $28, operation_multu_lo
239	                          
240	02D4  0C001074            jal reset_offsets
241	                          operation_multu_hi:
242	02D8  0C001071             jal load_patterns
243	02DC  00430018             mult $2, $3
244	02E0  00009010             mfhi $18
245	02E4  AFB20000             sw $18, 0($29)
246	02E8  0C00107E             jal increment_offset
247	02EC  177CFFFB             bne $27, $28, operation_multu_hi
248	                          
249	02F0  0C001074            jal reset_offsets
250	                          operation_mthi_hi_lo:
251	02F4  0C001071             jal load_patterns
252	02F8  00400011             mthi $2
253	02FC  00009010             mfhi $18
254	0300  AFB20000             sw $18, 0($29)
255	0304  0C00107E             jal increment_offset
256	0308  177CFFFB             bne $27, $28, operation_mthi_hi_lo
257	                          
258	030C  0C001074            jal reset_offsets
259	                          operation_mtlo_hi_lo:
260	0310  0C001071             jal load_patterns
261	0314  00400013             mtlo $2
262	0318  00009012             mflo $18
263	031C  AFB20000             sw $18, 0($29)
264	0320  0C00107E             jal increment_offset
265	0324  177CFFFB             bne $27, $28, operation_mtlo_hi_lo
266	                          
267	0328  0C001074            jal reset_offsets
268	                          operation_addiu:
269	032C  0C001071             jal load_patterns
270	0330  24525882             addiu $18, $2, 22658
271	0334  AFB20000             sw $18, 0($29)
272	0338  0C00107E             jal increment_offset
273	033C  0C001071             jal load_patterns
274	0340  24528ACC             addiu $18, $2, 35532
275	0344  AFB20000             sw $18, 0($29)
276	0348  0C00107E             jal increment_offset
277	034C  0C001071             jal load_patterns
278	0350  2452B085             addiu $18, $2, 45189
279	0354  AFB20000             sw $18, 0($29)
280	0358  0C00107E             jal increment_offset
281	035C  0C001071             jal load_patterns
282	0360  2452D17E             addiu $18, $2, 53630
283	0364  AFB20000             sw $18, 0($29)
284	0368  0C00107E             jal increment_offset
285	036C  0C001071             jal load_patterns
286	0370  2452C2E1             addiu $18, $2, 49889
287	0374  AFB20000             sw $18, 0($29)
288	0378  0C00107E             jal increment_offset
289	037C  0C001071             jal load_patterns
290	0380  2452FC93             addiu $18, $2, 64659
291	0384  AFB20000             sw $18, 0($29)
292	0388  0C00107E             jal increment_offset
293	038C  0C001071             jal load_patterns
294	0390  2452716A             addiu $18, $2, 29034
295	0394  AFB20000             sw $18, 0($29)
296	0398  0C00107E             jal increment_offset
297	039C  0C001071             jal load_patterns
298	03A0  24520238             addiu $18, $2, 568
299	03A4  AFB20000             sw $18, 0($29)
300	03A8  0C00107E             jal increment_offset
301	03AC  0C001071             jal load_patterns
302	03B0  24522A22             addiu $18, $2, 10786
303	03B4  AFB20000             sw $18, 0($29)
304	03B8  0C00107E             jal increment_offset
305	03BC  0C001071             jal load_patterns
306	03C0  2452C4E8             addiu $18, $2, 50408
307	03C4  AFB20000             sw $18, 0($29)
308	03C8  0C00107E             jal increment_offset
309	03CC  0C001071             jal load_patterns
310	03D0  2452B14E             addiu $18, $2, 45390
311	03D4  AFB20000             sw $18, 0($29)
312	03D8  0C00107E             jal increment_offset
313	03DC  0C001071             jal load_patterns
314	03E0  2452BB05             addiu $18, $2, 47877
315	03E4  AFB20000             sw $18, 0($29)
316	03E8  0C00107E             jal increment_offset
317	03EC  0C001071             jal load_patterns
318	03F0  2452C7E4             addiu $18, $2, 51172
319	03F4  AFB20000             sw $18, 0($29)
320	03F8  0C00107E             jal increment_offset
321	03FC  0C001071             jal load_patterns
322	0400  24528748             addiu $18, $2, 34632
323	0404  AFB20000             sw $18, 0($29)
324	0408  0C00107E             jal increment_offset
325	040C  0C001071             jal load_patterns
326	0410  2452BD11             addiu $18, $2, 48401
327	0414  AFB20000             sw $18, 0($29)
328	0418  0C00107E             jal increment_offset
329	041C  0C001071             jal load_patterns
330	0420  24525773             addiu $18, $2, 22387
331	0424  AFB20000             sw $18, 0($29)
332	0428  0C00107E             jal increment_offset
333	042C  0C001071             jal load_patterns
334	0430  24525CE1             addiu $18, $2, 23777
335	0434  AFB20000             sw $18, 0($29)
336	0438  0C00107E             jal increment_offset
337	043C  0C001071             jal load_patterns
338	0440  2452A2BB             addiu $18, $2, 41659
339	0444  AFB20000             sw $18, 0($29)
340	0448  0C00107E             jal increment_offset
341	044C  0C001071             jal load_patterns
342	0450  24528A40             addiu $18, $2, 35392
343	0454  AFB20000             sw $18, 0($29)
344	0458  0C00107E             jal increment_offset
345	045C  0C001071             jal load_patterns
346	0460  2452BECB             addiu $18, $2, 48843
347	0464  AFB20000             sw $18, 0($29)
348	0468  0C00107E             jal increment_offset
349	046C  0C001071             jal load_patterns
350	0470  2452295F             addiu $18, $2, 10591
351	0474  AFB20000             sw $18, 0($29)
352	0478  0C00107E             jal increment_offset
353	047C  0C001071             jal load_patterns
354	0480  2452E5EC             addiu $18, $2, 58860
355	0484  AFB20000             sw $18, 0($29)
356	0488  0C00107E             jal increment_offset
357	048C  0C001071             jal load_patterns
358	0490  2452AF25             addiu $18, $2, 44837
359	0494  AFB20000             sw $18, 0($29)
360	0498  0C00107E             jal increment_offset
361	049C  0C001071             jal load_patterns
362	04A0  245231D0             addiu $18, $2, 12752
363	04A4  AFB20000             sw $18, 0($29)
364	04A8  0C00107E             jal increment_offset
365	04AC  0C001071             jal load_patterns
366	04B0  2452496F             addiu $18, $2, 18799
367	04B4  AFB20000             sw $18, 0($29)
368	04B8  0C00107E             jal increment_offset
369	04BC  0C001071             jal load_patterns
370	04C0  24525592             addiu $18, $2, 21906
371	04C4  AFB20000             sw $18, 0($29)
372	04C8  0C00107E             jal increment_offset
373	04CC  0C001071             jal load_patterns
374	04D0  24521900             addiu $18, $2, 6400
375	04D4  AFB20000             sw $18, 0($29)
376	04D8  0C00107E             jal increment_offset
377	04DC  0C001071             jal load_patterns
378	04E0  245226DA             addiu $18, $2, 9946
379	04E4  AFB20000             sw $18, 0($29)
380	04E8  0C00107E             jal increment_offset
381	04EC  0C001071             jal load_patterns
382	04F0  2452408A             addiu $18, $2, 16522
383	04F4  AFB20000             sw $18, 0($29)
384	04F8  0C00107E             jal increment_offset
385	04FC  0C001071             jal load_patterns
386	0500  2452297E             addiu $18, $2, 10622
387	0504  AFB20000             sw $18, 0($29)
388	0508  0C00107E             jal increment_offset
389	050C  0C001071             jal load_patterns
390	0510  24522961             addiu $18, $2, 10593
391	0514  AFB20000             sw $18, 0($29)
392	0518  0C00107E             jal increment_offset
393	051C  0C001071             jal load_patterns
394	0520  2452E80E             addiu $18, $2, 59406
395	0524  AFB20000             sw $18, 0($29)
396	0528  0C00107E             jal increment_offset
397	052C  0C001071             jal load_patterns
398	0530  2452B202             addiu $18, $2, 45570
399	0534  AFB20000             sw $18, 0($29)
400	0538  0C00107E             jal increment_offset
401	053C  0C001071             jal load_patterns
402	0540  24523388             addiu $18, $2, 13192
403	0544  AFB20000             sw $18, 0($29)
404	0548  0C00107E             jal increment_offset
405	054C  0C001071             jal load_patterns
406	0550  245208DC             addiu $18, $2, 2268
407	0554  AFB20000             sw $18, 0($29)
408	0558  0C00107E             jal increment_offset
409	055C  0C001071             jal load_patterns
410	0560  2452363B             addiu $18, $2, 13883
411	0564  AFB20000             sw $18, 0($29)
412	0568  0C00107E             jal increment_offset
413	056C  0C001071             jal load_patterns
414	0570  2452CFF9             addiu $18, $2, 53241
415	0574  AFB20000             sw $18, 0($29)
416	0578  0C00107E             jal increment_offset
417	057C  0C001071             jal load_patterns
418	0580  24524B2C             addiu $18, $2, 19244
419	0584  AFB20000             sw $18, 0($29)
420	0588  0C00107E             jal increment_offset
421	058C  0C001071             jal load_patterns
422	0590  2452BE61             addiu $18, $2, 48737
423	0594  AFB20000             sw $18, 0($29)
424	0598  0C00107E             jal increment_offset
425	059C  0C001071             jal load_patterns
426	05A0  245209C4             addiu $18, $2, 2500
427	05A4  AFB20000             sw $18, 0($29)
428	05A8  0C00107E             jal increment_offset
429	05AC  0C001071             jal load_patterns
430	05B0  245297A3             addiu $18, $2, 38819
431	05B4  AFB20000             sw $18, 0($29)
432	05B8  0C00107E             jal increment_offset
433	05BC  0C001071             jal load_patterns
434	05C0  2452718A             addiu $18, $2, 29066
435	05C4  AFB20000             sw $18, 0($29)
436	05C8  0C00107E             jal increment_offset
437	05CC  0C001071             jal load_patterns
438	05D0  2452E80D             addiu $18, $2, 59405
439	05D4  AFB20000             sw $18, 0($29)
440	05D8  0C00107E             jal increment_offset
441	05DC  0C001071             jal load_patterns
442	05E0  2452514B             addiu $18, $2, 20811
443	05E4  AFB20000             sw $18, 0($29)
444	05E8  0C00107E             jal increment_offset
445	05EC  0C001071             jal load_patterns
446	05F0  2452A44B             addiu $18, $2, 42059
447	05F4  AFB20000             sw $18, 0($29)
448	05F8  0C00107E             jal increment_offset
449	05FC  0C001071             jal load_patterns
450	0600  2452E758             addiu $18, $2, 59224
451	0604  AFB20000             sw $18, 0($29)
452	0608  0C00107E             jal increment_offset
453	060C  0C001071             jal load_patterns
454	0610  24520FB8             addiu $18, $2, 4024
455	0614  AFB20000             sw $18, 0($29)
456	0618  0C00107E             jal increment_offset
457	061C  0C001071             jal load_patterns
458	0620  24525C1B             addiu $18, $2, 23579
459	0624  AFB20000             sw $18, 0($29)
460	0628  0C00107E             jal increment_offset
461	062C  0C001071             jal load_patterns
462	0630  24524474             addiu $18, $2, 17524
463	0634  AFB20000             sw $18, 0($29)
464	0638  0C00107E             jal increment_offset
465	063C  0C001071             jal load_patterns
466	0640  2452EF1E             addiu $18, $2, 61214
467	0644  AFB20000             sw $18, 0($29)
468	0648  0C00107E             jal increment_offset
469	064C  0C001071             jal load_patterns
470	0650  24523BC4             addiu $18, $2, 15300
471	0654  AFB20000             sw $18, 0($29)
472	0658  0C00107E             jal increment_offset
473	065C  0C001071             jal load_patterns
474	0660  2452FD41             addiu $18, $2, 64833
475	0664  AFB20000             sw $18, 0($29)
476	0668  0C00107E             jal increment_offset
477	066C  0C001071             jal load_patterns
478	0670  2452D65A             addiu $18, $2, 54874
479	0674  AFB20000             sw $18, 0($29)
480	0678  0C00107E             jal increment_offset
481	067C  0C001071             jal load_patterns
482	0680  24520487             addiu $18, $2, 1159
483	0684  AFB20000             sw $18, 0($29)
484	0688  0C00107E             jal increment_offset
485	068C  0C001071             jal load_patterns
486	0690  2452EF65             addiu $18, $2, 61285
487	0694  AFB20000             sw $18, 0($29)
488	0698  0C00107E             jal increment_offset
489	069C  0C001071             jal load_patterns
490	06A0  2452F2C3             addiu $18, $2, 62147
491	06A4  AFB20000             sw $18, 0($29)
492	06A8  0C00107E             jal increment_offset
493	06AC  0C001071             jal load_patterns
494	06B0  24526076             addiu $18, $2, 24694
495	06B4  AFB20000             sw $18, 0($29)
496	06B8  0C00107E             jal increment_offset
497	06BC  0C001071             jal load_patterns
498	06C0  2452214A             addiu $18, $2, 8522
499	06C4  AFB20000             sw $18, 0($29)
500	06C8  0C00107E             jal increment_offset
501	06CC  0C001071             jal load_patterns
502	06D0  245268D6             addiu $18, $2, 26838
503	06D4  AFB20000             sw $18, 0($29)
504	06D8  0C00107E             jal increment_offset
505	06DC  0C001071             jal load_patterns
506	06E0  2452E735             addiu $18, $2, 59189
507	06E4  AFB20000             sw $18, 0($29)
508	06E8  0C00107E             jal increment_offset
509	06EC  0C001071             jal load_patterns
510	06F0  2452F756             addiu $18, $2, 63318
511	06F4  AFB20000             sw $18, 0($29)
512	06F8  0C00107E             jal increment_offset
513	06FC  0C001071             jal load_patterns
514	0700  2452E52D             addiu $18, $2, 58669
515	0704  AFB20000             sw $18, 0($29)
516	0708  0C00107E             jal increment_offset
517	070C  0C001071             jal load_patterns
518	0710  24522369             addiu $18, $2, 9065
519	0714  AFB20000             sw $18, 0($29)
520	0718  0C00107E             jal increment_offset
521	071C  0C001071             jal load_patterns
522	0720  2452DD91             addiu $18, $2, 56721
523	0724  AFB20000             sw $18, 0($29)
524	0728  0C00107E             jal increment_offset
525	072C  0C001071             jal load_patterns
526	0730  2452D796             addiu $18, $2, 55190
527	0734  AFB20000             sw $18, 0($29)
528	0738  0C00107E             jal increment_offset
529	073C  0C001071             jal load_patterns
530	0740  2452243B             addiu $18, $2, 9275
531	0744  AFB20000             sw $18, 0($29)
532	0748  0C00107E             jal increment_offset
533	074C  0C001071             jal load_patterns
534	0750  2452EE83             addiu $18, $2, 61059
535	0754  AFB20000             sw $18, 0($29)
536	0758  0C00107E             jal increment_offset
537	075C  0C001071             jal load_patterns
538	0760  24522678             addiu $18, $2, 9848
539	0764  AFB20000             sw $18, 0($29)
540	0768  0C00107E             jal increment_offset
541	076C  0C001071             jal load_patterns
542	0770  2452F1A4             addiu $18, $2, 61860
543	0774  AFB20000             sw $18, 0($29)
544	0778  0C00107E             jal increment_offset
545	077C  0C001071             jal load_patterns
546	0780  24520C78             addiu $18, $2, 3192
547	0784  AFB20000             sw $18, 0($29)
548	0788  0C00107E             jal increment_offset
549	078C  0C001071             jal load_patterns
550	0790  245216A0             addiu $18, $2, 5792
551	0794  AFB20000             sw $18, 0($29)
552	0798  0C00107E             jal increment_offset
553	079C  0C001071             jal load_patterns
554	07A0  245247AE             addiu $18, $2, 18350
555	07A4  AFB20000             sw $18, 0($29)
556	07A8  0C00107E             jal increment_offset
557	07AC  0C001071             jal load_patterns
558	07B0  24527FCF             addiu $18, $2, 32719
559	07B4  AFB20000             sw $18, 0($29)
560	07B8  0C00107E             jal increment_offset
561	07BC  0C001071             jal load_patterns
562	07C0  2452B2CA             addiu $18, $2, 45770
563	07C4  AFB20000             sw $18, 0($29)
564	07C8  0C00107E             jal increment_offset
565	07CC  0C001071             jal load_patterns
566	07D0  2452D7C2             addiu $18, $2, 55234
567	07D4  AFB20000             sw $18, 0($29)
568	07D8  0C00107E             jal increment_offset
569	07DC  0C001071             jal load_patterns
570	07E0  2452AB79             addiu $18, $2, 43897
571	07E4  AFB20000             sw $18, 0($29)
572	07E8  0C00107E             jal increment_offset
573	07EC  0C001071             jal load_patterns
574	07F0  24521694             addiu $18, $2, 5780
575	07F4  AFB20000             sw $18, 0($29)
576	07F8  0C00107E             jal increment_offset
577	07FC  0C001071             jal load_patterns
578	0800  24522705             addiu $18, $2, 9989
579	0804  AFB20000             sw $18, 0($29)
580	0808  0C00107E             jal increment_offset
581	080C  0C001071             jal load_patterns
582	0810  24525A79             addiu $18, $2, 23161
583	0814  AFB20000             sw $18, 0($29)
584	0818  0C00107E             jal increment_offset
585	081C  0C001071             jal load_patterns
586	0820  24520CA2             addiu $18, $2, 3234
587	0824  AFB20000             sw $18, 0($29)
588	0828  0C00107E             jal increment_offset
589	082C  0C001071             jal load_patterns
590	0830  24525B63             addiu $18, $2, 23395
591	0834  AFB20000             sw $18, 0($29)
592	0838  0C00107E             jal increment_offset
593	083C  0C001071             jal load_patterns
594	0840  24521960             addiu $18, $2, 6496
595	0844  AFB20000             sw $18, 0($29)
596	0848  0C00107E             jal increment_offset
597	084C  0C001071             jal load_patterns
598	0850  245242B3             addiu $18, $2, 17075
599	0854  AFB20000             sw $18, 0($29)
600	0858  0C00107E             jal increment_offset
601	085C  0C001071             jal load_patterns
602	0860  245209AE             addiu $18, $2, 2478
603	0864  AFB20000             sw $18, 0($29)
604	0868  0C00107E             jal increment_offset
605	086C  0C001071             jal load_patterns
606	0870  24520AD1             addiu $18, $2, 2769
607	0874  AFB20000             sw $18, 0($29)
608	0878  0C00107E             jal increment_offset
609	087C  0C001071             jal load_patterns
610	0880  2452862C             addiu $18, $2, 34348
611	0884  AFB20000             sw $18, 0($29)
612	0888  0C00107E             jal increment_offset
613	088C  0C001071             jal load_patterns
614	0890  2452BC7A             addiu $18, $2, 48250
615	0894  AFB20000             sw $18, 0($29)
616	0898  0C00107E             jal increment_offset
617	089C  0C001071             jal load_patterns
618	08A0  24520A38             addiu $18, $2, 2616
619	08A4  AFB20000             sw $18, 0($29)
620	08A8  0C00107E             jal increment_offset
621	08AC  0C001071             jal load_patterns
622	08B0  24526C0C             addiu $18, $2, 27660
623	08B4  AFB20000             sw $18, 0($29)
624	08B8  0C00107E             jal increment_offset
625	08BC  0C001071             jal load_patterns
626	08C0  24523752             addiu $18, $2, 14162
627	08C4  AFB20000             sw $18, 0($29)
628	08C8  0C00107E             jal increment_offset
629	08CC  0C001071             jal load_patterns
630	08D0  24520B96             addiu $18, $2, 2966
631	08D4  AFB20000             sw $18, 0($29)
632	08D8  0C00107E             jal increment_offset
633	08DC  0C001071             jal load_patterns
634	08E0  2452FF35             addiu $18, $2, 65333
635	08E4  AFB20000             sw $18, 0($29)
636	08E8  0C00107E             jal increment_offset
637	08EC  0C001071             jal load_patterns
638	08F0  2452C583             addiu $18, $2, 50563
639	08F4  AFB20000             sw $18, 0($29)
640	08F8  0C00107E             jal increment_offset
641	08FC  0C001071             jal load_patterns
642	0900  24528FC7             addiu $18, $2, 36807
643	0904  AFB20000             sw $18, 0($29)
644	0908  0C00107E             jal increment_offset
645	090C  0C001071             jal load_patterns
646	0910  2452AF83             addiu $18, $2, 44931
647	0914  AFB20000             sw $18, 0($29)
648	0918  0C00107E             jal increment_offset
649	091C  0C001071             jal load_patterns
650	0920  24520979             addiu $18, $2, 2425
651	0924  AFB20000             sw $18, 0($29)
652	0928  0C00107E             jal increment_offset
653	092C  0C001071             jal load_patterns
654	0930  245283DF             addiu $18, $2, 33759
655	0934  AFB20000             sw $18, 0($29)
656	0938  0C00107E             jal increment_offset
657	093C  0C001071             jal load_patterns
658	0940  245220AB             addiu $18, $2, 8363
659	0944  AFB20000             sw $18, 0($29)
660	0948  0C00107E             jal increment_offset
661	094C  0C001071             jal load_patterns
662	0950  245241D2             addiu $18, $2, 16850
663	0954  AFB20000             sw $18, 0($29)
664	0958  0C00107E             jal increment_offset
665	095C  0C001071             jal load_patterns
666	0960  2452136F             addiu $18, $2, 4975
667	0964  AFB20000             sw $18, 0($29)
668	0968  0C00107E             jal increment_offset
669	096C  0C001071             jal load_patterns
670	0970  2452C45C             addiu $18, $2, 50268
671	0974  AFB20000             sw $18, 0($29)
672	0978  0C00107E             jal increment_offset
673	097C  0C001071             jal load_patterns
674	0980  2452F089             addiu $18, $2, 61577
675	0984  AFB20000             sw $18, 0($29)
676	0988  0C00107E             jal increment_offset
677	098C  0C001071             jal load_patterns
678	0990  245221EF             addiu $18, $2, 8687
679	0994  AFB20000             sw $18, 0($29)
680	0998  0C00107E             jal increment_offset
681	099C  0C001071             jal load_patterns
682	09A0  245289F7             addiu $18, $2, 35319
683	09A4  AFB20000             sw $18, 0($29)
684	09A8  0C00107E             jal increment_offset
685	09AC  0C001071             jal load_patterns
686	09B0  2452E4A8             addiu $18, $2, 58536
687	09B4  AFB20000             sw $18, 0($29)
688	09B8  0C00107E             jal increment_offset
689	09BC  0C001071             jal load_patterns
690	09C0  245204C3             addiu $18, $2, 1219
691	09C4  AFB20000             sw $18, 0($29)
692	09C8  0C00107E             jal increment_offset
693	09CC  0C001071             jal load_patterns
694	09D0  2452F64F             addiu $18, $2, 63055
695	09D4  AFB20000             sw $18, 0($29)
696	09D8  0C00107E             jal increment_offset
697	09DC  0C001071             jal load_patterns
698	09E0  2452BF22             addiu $18, $2, 48930
699	09E4  AFB20000             sw $18, 0($29)
700	09E8  0C00107E             jal increment_offset
701	09EC  0C001071             jal load_patterns
702	09F0  24520E40             addiu $18, $2, 3648
703	09F4  AFB20000             sw $18, 0($29)
704	09F8  0C00107E             jal increment_offset
705	09FC  0C001071             jal load_patterns
706	0A00  2452FC4C             addiu $18, $2, 64588
707	0A04  AFB20000             sw $18, 0($29)
708	0A08  0C00107E             jal increment_offset
709	0A0C  0C001071             jal load_patterns
710	0A10  2452DFD6             addiu $18, $2, 57302
711	0A14  AFB20000             sw $18, 0($29)
712	0A18  0C00107E             jal increment_offset
713	0A1C  0C001071             jal load_patterns
714	0A20  245213F3             addiu $18, $2, 5107
715	0A24  AFB20000             sw $18, 0($29)
716	0A28  0C00107E             jal increment_offset
717	0A2C  0C001071             jal load_patterns
718	0A30  2452178C             addiu $18, $2, 6028
719	0A34  AFB20000             sw $18, 0($29)
720	0A38  0C00107E             jal increment_offset
721	0A3C  0C001071             jal load_patterns
722	0A40  24522820             addiu $18, $2, 10272
723	0A44  AFB20000             sw $18, 0($29)
724	0A48  0C00107E             jal increment_offset
725	0A4C  0C001071             jal load_patterns
726	0A50  245231BA             addiu $18, $2, 12730
727	0A54  AFB20000             sw $18, 0($29)
728	0A58  0C00107E             jal increment_offset
729	0A5C  0C001071             jal load_patterns
730	0A60  245235D9             addiu $18, $2, 13785
731	0A64  AFB20000             sw $18, 0($29)
732	0A68  0C00107E             jal increment_offset
733	0A6C  0C001071             jal load_patterns
734	0A70  24526840             addiu $18, $2, 26688
735	0A74  AFB20000             sw $18, 0($29)
736	0A78  0C00107E             jal increment_offset
737	0A7C  0C001071             jal load_patterns
738	0A80  245241A4             addiu $18, $2, 16804
739	0A84  AFB20000             sw $18, 0($29)
740	0A88  0C00107E             jal increment_offset
741	0A8C  0C001071             jal load_patterns
742	0A90  245209D8             addiu $18, $2, 2520
743	0A94  AFB20000             sw $18, 0($29)
744	0A98  0C00107E             jal increment_offset
745	0A9C  0C001071             jal load_patterns
746	0AA0  2452689A             addiu $18, $2, 26778
747	0AA4  AFB20000             sw $18, 0($29)
748	0AA8  0C00107E             jal increment_offset
749	0AAC  0C001071             jal load_patterns
750	0AB0  24523D60             addiu $18, $2, 15712
751	0AB4  AFB20000             sw $18, 0($29)
752	0AB8  0C00107E             jal increment_offset
753	0ABC  0C001071             jal load_patterns
754	0AC0  24523C13             addiu $18, $2, 15379
755	0AC4  AFB20000             sw $18, 0($29)
756	0AC8  0C00107E             jal increment_offset
757	0ACC  0C001071             jal load_patterns
758	0AD0  2452327E             addiu $18, $2, 12926
759	0AD4  AFB20000             sw $18, 0($29)
760	0AD8  0C00107E             jal increment_offset
761	0ADC  0C001071             jal load_patterns
762	0AE0  2452AC2A             addiu $18, $2, 44074
763	0AE4  AFB20000             sw $18, 0($29)
764	0AE8  0C00107E             jal increment_offset
765	0AEC  0C001071             jal load_patterns
766	0AF0  24528AB0             addiu $18, $2, 35504
767	0AF4  AFB20000             sw $18, 0($29)
768	0AF8  0C00107E             jal increment_offset
769	0AFC  0C001071             jal load_patterns
770	0B00  245267F0             addiu $18, $2, 26608
771	0B04  AFB20000             sw $18, 0($29)
772	0B08  0C00107E             jal increment_offset
773	0B0C  0C001071             jal load_patterns
774	0B10  2452E0BC             addiu $18, $2, 57532
775	0B14  AFB20000             sw $18, 0($29)
776	0B18  0C00107E             jal increment_offset
777	0B1C  0C001071             jal load_patterns
778	0B20  2452F069             addiu $18, $2, 61545
779	0B24  AFB20000             sw $18, 0($29)
780	0B28  0C00107E             jal increment_offset
781	0B2C  0C001071             jal load_patterns
782	0B30  2452A7C4             addiu $18, $2, 42948
783	0B34  AFB20000             sw $18, 0($29)
784	0B38  0C00107E             jal increment_offset
785	0B3C  0C001071             jal load_patterns
786	0B40  2452962D             addiu $18, $2, 38445
787	0B44  AFB20000             sw $18, 0($29)
788	0B48  0C00107E             jal increment_offset
789	0B4C  0C001071             jal load_patterns
790	0B50  24525F66             addiu $18, $2, 24422
791	0B54  AFB20000             sw $18, 0($29)
792	0B58  0C00107E             jal increment_offset
793	0B5C  0C001071             jal load_patterns
794	0B60  24527D0A             addiu $18, $2, 32010
795	0B64  AFB20000             sw $18, 0($29)
796	0B68  0C00107E             jal increment_offset
797	0B6C  0C001071             jal load_patterns
798	0B70  24526877             addiu $18, $2, 26743
799	0B74  AFB20000             sw $18, 0($29)
800	0B78  0C00107E             jal increment_offset
801	0B7C  0C001071             jal load_patterns
802	0B80  24520F02             addiu $18, $2, 3842
803	0B84  AFB20000             sw $18, 0($29)
804	0B88  0C00107E             jal increment_offset
805	0B8C  0C001071             jal load_patterns
806	0B90  2452C9FF             addiu $18, $2, 51711
807	0B94  AFB20000             sw $18, 0($29)
808	0B98  0C00107E             jal increment_offset
809	0B9C  0C001071             jal load_patterns
810	0BA0  2452CCC9             addiu $18, $2, 52425
811	0BA4  AFB20000             sw $18, 0($29)
812	0BA8  0C00107E             jal increment_offset
813	0BAC  0C001071             jal load_patterns
814	0BB0  245276A5             addiu $18, $2, 30373
815	0BB4  AFB20000             sw $18, 0($29)
816	0BB8  0C00107E             jal increment_offset
817	0BBC  0C001071             jal load_patterns
818	0BC0  2452481D             addiu $18, $2, 18461
819	0BC4  AFB20000             sw $18, 0($29)
820	0BC8  0C00107E             jal increment_offset
821	0BCC  0C001071             jal load_patterns
822	0BD0  24527869             addiu $18, $2, 30825
823	0BD4  AFB20000             sw $18, 0($29)
824	0BD8  0C00107E             jal increment_offset
825	0BDC  0C001071             jal load_patterns
826	0BE0  2452B7FC             addiu $18, $2, 47100
827	0BE4  AFB20000             sw $18, 0($29)
828	0BE8  0C00107E             jal increment_offset
829	0BEC  0C001071             jal load_patterns
830	0BF0  245222E0             addiu $18, $2, 8928
831	0BF4  AFB20000             sw $18, 0($29)
832	0BF8  0C00107E             jal increment_offset
833	0BFC  0C001071             jal load_patterns
834	0C00  24524F3B             addiu $18, $2, 20283
835	0C04  AFB20000             sw $18, 0($29)
836	0C08  0C00107E             jal increment_offset
837	0C0C  0C001071             jal load_patterns
838	0C10  245207A7             addiu $18, $2, 1959
839	0C14  AFB20000             sw $18, 0($29)
840	0C18  0C00107E             jal increment_offset
841	0C1C  0C001071             jal load_patterns
842	0C20  2452C18E             addiu $18, $2, 49550
843	0C24  AFB20000             sw $18, 0($29)
844	0C28  0C00107E             jal increment_offset
845	0C2C  0C001071             jal load_patterns
846	0C30  2452EDEF             addiu $18, $2, 60911
847	0C34  AFB20000             sw $18, 0($29)
848	0C38  0C00107E             jal increment_offset
849	0C3C  0C001071             jal load_patterns
850	0C40  2452143C             addiu $18, $2, 5180
851	0C44  AFB20000             sw $18, 0($29)
852	0C48  0C00107E             jal increment_offset
853	0C4C  0C001071             jal load_patterns
854	0C50  24524F69             addiu $18, $2, 20329
855	0C54  AFB20000             sw $18, 0($29)
856	0C58  0C00107E             jal increment_offset
857	0C5C  0C001071             jal load_patterns
858	0C60  245257D7             addiu $18, $2, 22487
859	0C64  AFB20000             sw $18, 0($29)
860	0C68  0C00107E             jal increment_offset
861	0C6C  0C001071             jal load_patterns
862	0C70  2452ED98             addiu $18, $2, 60824
863	0C74  AFB20000             sw $18, 0($29)
864	0C78  0C00107E             jal increment_offset
865	0C7C  0C001071             jal load_patterns
866	0C80  2452E7A5             addiu $18, $2, 59301
867	0C84  AFB20000             sw $18, 0($29)
868	0C88  0C00107E             jal increment_offset
869	0C8C  0C001071             jal load_patterns
870	0C90  24527B4F             addiu $18, $2, 31567
871	0C94  AFB20000             sw $18, 0($29)
872	0C98  0C00107E             jal increment_offset
873	0C9C  0C001071             jal load_patterns
874	0CA0  24522E95             addiu $18, $2, 11925
875	0CA4  AFB20000             sw $18, 0($29)
876	0CA8  0C00107E             jal increment_offset
877	0CAC  0C001071             jal load_patterns
878	0CB0  245273CF             addiu $18, $2, 29647
879	0CB4  AFB20000             sw $18, 0($29)
880	0CB8  0C00107E             jal increment_offset
881	0CBC  0C001071             jal load_patterns
882	0CC0  24526E7C             addiu $18, $2, 28284
883	0CC4  AFB20000             sw $18, 0($29)
884	0CC8  0C00107E             jal increment_offset
885	0CCC  0C001071             jal load_patterns
886	0CD0  2452DAE7             addiu $18, $2, 56039
887	0CD4  AFB20000             sw $18, 0($29)
888	0CD8  0C00107E             jal increment_offset
889	0CDC  0C001071             jal load_patterns
890	0CE0  24524CC2             addiu $18, $2, 19650
891	0CE4  AFB20000             sw $18, 0($29)
892	0CE8  0C00107E             jal increment_offset
893	0CEC  0C001071             jal load_patterns
894	0CF0  24524112             addiu $18, $2, 16658
895	0CF4  AFB20000             sw $18, 0($29)
896	0CF8  0C00107E             jal increment_offset
897	0CFC  0C001071             jal load_patterns
898	0D00  2452CDD5             addiu $18, $2, 52693
899	0D04  AFB20000             sw $18, 0($29)
900	0D08  0C00107E             jal increment_offset
901	0D0C  0C001071             jal load_patterns
902	0D10  24529EA8             addiu $18, $2, 40616
903	0D14  AFB20000             sw $18, 0($29)
904	0D18  0C00107E             jal increment_offset
905	0D1C  0C001071             jal load_patterns
906	0D20  24528FD0             addiu $18, $2, 36816
907	0D24  AFB20000             sw $18, 0($29)
908	0D28  0C00107E             jal increment_offset
909	0D2C  0C001071             jal load_patterns
910	0D30  24523149             addiu $18, $2, 12617
911	0D34  AFB20000             sw $18, 0($29)
912	0D38  0C00107E             jal increment_offset
913	0D3C  0C001071             jal load_patterns
914	0D40  2452B261             addiu $18, $2, 45665
915	0D44  AFB20000             sw $18, 0($29)
916	0D48  0C00107E             jal increment_offset
917	0D4C  0C001071             jal load_patterns
918	0D50  2452E219             addiu $18, $2, 57881
919	0D54  AFB20000             sw $18, 0($29)
920	0D58  0C00107E             jal increment_offset
921	0D5C  0C001071             jal load_patterns
922	0D60  2452A337             addiu $18, $2, 41783
923	0D64  AFB20000             sw $18, 0($29)
924	0D68  0C00107E             jal increment_offset
925	0D6C  0C001071             jal load_patterns
926	0D70  2452B60E             addiu $18, $2, 46606
927	0D74  AFB20000             sw $18, 0($29)
928	0D78  0C00107E             jal increment_offset
929	0D7C  0C001071             jal load_patterns
930	0D80  24527FBD             addiu $18, $2, 32701
931	0D84  AFB20000             sw $18, 0($29)
932	0D88  0C00107E             jal increment_offset
933	                          
934	0D8C  0C001074            jal reset_offsets
935	                          operation_andi:
936	0D90  0C001071             jal load_patterns
937	0D94  30525882             andi $18, $2, 22658
938	0D98  AFB20000             sw $18, 0($29)
939	0D9C  0C00107E             jal increment_offset
940	0DA0  0C001071             jal load_patterns
941	0DA4  30528ACC             andi $18, $2, 35532
942	0DA8  AFB20000             sw $18, 0($29)
943	0DAC  0C00107E             jal increment_offset
944	0DB0  0C001071             jal load_patterns
945	0DB4  3052B085             andi $18, $2, 45189
946	0DB8  AFB20000             sw $18, 0($29)
947	0DBC  0C00107E             jal increment_offset
948	0DC0  0C001071             jal load_patterns
949	0DC4  3052D17E             andi $18, $2, 53630
950	0DC8  AFB20000             sw $18, 0($29)
951	0DCC  0C00107E             jal increment_offset
952	0DD0  0C001071             jal load_patterns
953	0DD4  3052C2E1             andi $18, $2, 49889
954	0DD8  AFB20000             sw $18, 0($29)
955	0DDC  0C00107E             jal increment_offset
956	0DE0  0C001071             jal load_patterns
957	0DE4  3052FC93             andi $18, $2, 64659
958	0DE8  AFB20000             sw $18, 0($29)
959	0DEC  0C00107E             jal increment_offset
960	0DF0  0C001071             jal load_patterns
961	0DF4  3052716A             andi $18, $2, 29034
962	0DF8  AFB20000             sw $18, 0($29)
963	0DFC  0C00107E             jal increment_offset
964	0E00  0C001071             jal load_patterns
965	0E04  30520238             andi $18, $2, 568
966	0E08  AFB20000             sw $18, 0($29)
967	0E0C  0C00107E             jal increment_offset
968	0E10  0C001071             jal load_patterns
969	0E14  30522A22             andi $18, $2, 10786
970	0E18  AFB20000             sw $18, 0($29)
971	0E1C  0C00107E             jal increment_offset
972	0E20  0C001071             jal load_patterns
973	0E24  3052C4E8             andi $18, $2, 50408
974	0E28  AFB20000             sw $18, 0($29)
975	0E2C  0C00107E             jal increment_offset
976	0E30  0C001071             jal load_patterns
977	0E34  3052B14E             andi $18, $2, 45390
978	0E38  AFB20000             sw $18, 0($29)
979	0E3C  0C00107E             jal increment_offset
980	0E40  0C001071             jal load_patterns
981	0E44  3052BB05             andi $18, $2, 47877
982	0E48  AFB20000             sw $18, 0($29)
983	0E4C  0C00107E             jal increment_offset
984	0E50  0C001071             jal load_patterns
985	0E54  3052C7E4             andi $18, $2, 51172
986	0E58  AFB20000             sw $18, 0($29)
987	0E5C  0C00107E             jal increment_offset
988	0E60  0C001071             jal load_patterns
989	0E64  30528748             andi $18, $2, 34632
990	0E68  AFB20000             sw $18, 0($29)
991	0E6C  0C00107E             jal increment_offset
992	0E70  0C001071             jal load_patterns
993	0E74  3052BD11             andi $18, $2, 48401
994	0E78  AFB20000             sw $18, 0($29)
995	0E7C  0C00107E             jal increment_offset
996	0E80  0C001071             jal load_patterns
997	0E84  30525773             andi $18, $2, 22387
998	0E88  AFB20000             sw $18, 0($29)
999	0E8C  0C00107E             jal increment_offset
1000	0E90  0C001071             jal load_patterns
1001	0E94  30525CE1             andi $18, $2, 23777
1002	0E98  AFB20000             sw $18, 0($29)
1003	0E9C  0C00107E             jal increment_offset
1004	0EA0  0C001071             jal load_patterns
1005	0EA4  3052A2BB             andi $18, $2, 41659
1006	0EA8  AFB20000             sw $18, 0($29)
1007	0EAC  0C00107E             jal increment_offset
1008	0EB0  0C001071             jal load_patterns
1009	0EB4  30528A40             andi $18, $2, 35392
1010	0EB8  AFB20000             sw $18, 0($29)
1011	0EBC  0C00107E             jal increment_offset
1012	0EC0  0C001071             jal load_patterns
1013	0EC4  3052BECB             andi $18, $2, 48843
1014	0EC8  AFB20000             sw $18, 0($29)
1015	0ECC  0C00107E             jal increment_offset
1016	0ED0  0C001071             jal load_patterns
1017	0ED4  3052295F             andi $18, $2, 10591
1018	0ED8  AFB20000             sw $18, 0($29)
1019	0EDC  0C00107E             jal increment_offset
1020	0EE0  0C001071             jal load_patterns
1021	0EE4  3052E5EC             andi $18, $2, 58860
1022	0EE8  AFB20000             sw $18, 0($29)
1023	0EEC  0C00107E             jal increment_offset
1024	0EF0  0C001071             jal load_patterns
1025	0EF4  3052AF25             andi $18, $2, 44837
1026	0EF8  AFB20000             sw $18, 0($29)
1027	0EFC  0C00107E             jal increment_offset
1028	0F00  0C001071             jal load_patterns
1029	0F04  305231D0             andi $18, $2, 12752
1030	0F08  AFB20000             sw $18, 0($29)
1031	0F0C  0C00107E             jal increment_offset
1032	0F10  0C001071             jal load_patterns
1033	0F14  3052496F             andi $18, $2, 18799
1034	0F18  AFB20000             sw $18, 0($29)
1035	0F1C  0C00107E             jal increment_offset
1036	0F20  0C001071             jal load_patterns
1037	0F24  30525592             andi $18, $2, 21906
1038	0F28  AFB20000             sw $18, 0($29)
1039	0F2C  0C00107E             jal increment_offset
1040	0F30  0C001071             jal load_patterns
1041	0F34  30521900             andi $18, $2, 6400
1042	0F38  AFB20000             sw $18, 0($29)
1043	0F3C  0C00107E             jal increment_offset
1044	0F40  0C001071             jal load_patterns
1045	0F44  305226DA             andi $18, $2, 9946
1046	0F48  AFB20000             sw $18, 0($29)
1047	0F4C  0C00107E             jal increment_offset
1048	0F50  0C001071             jal load_patterns
1049	0F54  3052408A             andi $18, $2, 16522
1050	0F58  AFB20000             sw $18, 0($29)
1051	0F5C  0C00107E             jal increment_offset
1052	0F60  0C001071             jal load_patterns
1053	0F64  3052297E             andi $18, $2, 10622
1054	0F68  AFB20000             sw $18, 0($29)
1055	0F6C  0C00107E             jal increment_offset
1056	0F70  0C001071             jal load_patterns
1057	0F74  30522961             andi $18, $2, 10593
1058	0F78  AFB20000             sw $18, 0($29)
1059	0F7C  0C00107E             jal increment_offset
1060	0F80  0C001071             jal load_patterns
1061	0F84  3052E80E             andi $18, $2, 59406
1062	0F88  AFB20000             sw $18, 0($29)
1063	0F8C  0C00107E             jal increment_offset
1064	0F90  0C001071             jal load_patterns
1065	0F94  3052B202             andi $18, $2, 45570
1066	0F98  AFB20000             sw $18, 0($29)
1067	0F9C  0C00107E             jal increment_offset
1068	0FA0  0C001071             jal load_patterns
1069	0FA4  30523388             andi $18, $2, 13192
1070	0FA8  AFB20000             sw $18, 0($29)
1071	0FAC  0C00107E             jal increment_offset
1072	0FB0  0C001071             jal load_patterns
1073	0FB4  305208DC             andi $18, $2, 2268
1074	0FB8  AFB20000             sw $18, 0($29)
1075	0FBC  0C00107E             jal increment_offset
1076	0FC0  0C001071             jal load_patterns
1077	0FC4  3052363B             andi $18, $2, 13883
1078	0FC8  AFB20000             sw $18, 0($29)
1079	0FCC  0C00107E             jal increment_offset
1080	0FD0  0C001071             jal load_patterns
1081	0FD4  3052CFF9             andi $18, $2, 53241
1082	0FD8  AFB20000             sw $18, 0($29)
1083	0FDC  0C00107E             jal increment_offset
1084	0FE0  0C001071             jal load_patterns
1085	0FE4  30524B2C             andi $18, $2, 19244
1086	0FE8  AFB20000             sw $18, 0($29)
1087	0FEC  0C00107E             jal increment_offset
1088	0FF0  0C001071             jal load_patterns
1089	0FF4  3052BE61             andi $18, $2, 48737
1090	0FF8  AFB20000             sw $18, 0($29)
1091	0FFC  0C00107E             jal increment_offset
1092	1000  0C001071             jal load_patterns
1093	1004  305209C4             andi $18, $2, 2500
1094	1008  AFB20000             sw $18, 0($29)
1095	100C  0C00107E             jal increment_offset
1096	1010  0C001071             jal load_patterns
1097	1014  305297A3             andi $18, $2, 38819
1098	1018  AFB20000             sw $18, 0($29)
1099	101C  0C00107E             jal increment_offset
1100	1020  0C001071             jal load_patterns
1101	1024  3052718A             andi $18, $2, 29066
1102	1028  AFB20000             sw $18, 0($29)
1103	102C  0C00107E             jal increment_offset
1104	1030  0C001071             jal load_patterns
1105	1034  3052E80D             andi $18, $2, 59405
1106	1038  AFB20000             sw $18, 0($29)
1107	103C  0C00107E             jal increment_offset
1108	1040  0C001071             jal load_patterns
1109	1044  3052514B             andi $18, $2, 20811
1110	1048  AFB20000             sw $18, 0($29)
1111	104C  0C00107E             jal increment_offset
1112	1050  0C001071             jal load_patterns
1113	1054  3052A44B             andi $18, $2, 42059
1114	1058  AFB20000             sw $18, 0($29)
1115	105C  0C00107E             jal increment_offset
1116	1060  0C001071             jal load_patterns
1117	1064  3052E758             andi $18, $2, 59224
1118	1068  AFB20000             sw $18, 0($29)
1119	106C  0C00107E             jal increment_offset
1120	1070  0C001071             jal load_patterns
1121	1074  30520FB8             andi $18, $2, 4024
1122	1078  AFB20000             sw $18, 0($29)
1123	107C  0C00107E             jal increment_offset
1124	1080  0C001071             jal load_patterns
1125	1084  30525C1B             andi $18, $2, 23579
1126	1088  AFB20000             sw $18, 0($29)
1127	108C  0C00107E             jal increment_offset
1128	1090  0C001071             jal load_patterns
1129	1094  30524474             andi $18, $2, 17524
1130	1098  AFB20000             sw $18, 0($29)
1131	109C  0C00107E             jal increment_offset
1132	10A0  0C001071             jal load_patterns
1133	10A4  3052EF1E             andi $18, $2, 61214
1134	10A8  AFB20000             sw $18, 0($29)
1135	10AC  0C00107E             jal increment_offset
1136	10B0  0C001071             jal load_patterns
1137	10B4  30523BC4             andi $18, $2, 15300
1138	10B8  AFB20000             sw $18, 0($29)
1139	10BC  0C00107E             jal increment_offset
1140	10C0  0C001071             jal load_patterns
1141	10C4  3052FD41             andi $18, $2, 64833
1142	10C8  AFB20000             sw $18, 0($29)
1143	10CC  0C00107E             jal increment_offset
1144	10D0  0C001071             jal load_patterns
1145	10D4  3052D65A             andi $18, $2, 54874
1146	10D8  AFB20000             sw $18, 0($29)
1147	10DC  0C00107E             jal increment_offset
1148	10E0  0C001071             jal load_patterns
1149	10E4  30520487             andi $18, $2, 1159
1150	10E8  AFB20000             sw $18, 0($29)
1151	10EC  0C00107E             jal increment_offset
1152	10F0  0C001071             jal load_patterns
1153	10F4  3052EF65             andi $18, $2, 61285
1154	10F8  AFB20000             sw $18, 0($29)
1155	10FC  0C00107E             jal increment_offset
1156	1100  0C001071             jal load_patterns
1157	1104  3052F2C3             andi $18, $2, 62147
1158	1108  AFB20000             sw $18, 0($29)
1159	110C  0C00107E             jal increment_offset
1160	1110  0C001071             jal load_patterns
1161	1114  30526076             andi $18, $2, 24694
1162	1118  AFB20000             sw $18, 0($29)
1163	111C  0C00107E             jal increment_offset
1164	1120  0C001071             jal load_patterns
1165	1124  3052214A             andi $18, $2, 8522
1166	1128  AFB20000             sw $18, 0($29)
1167	112C  0C00107E             jal increment_offset
1168	1130  0C001071             jal load_patterns
1169	1134  305268D6             andi $18, $2, 26838
1170	1138  AFB20000             sw $18, 0($29)
1171	113C  0C00107E             jal increment_offset
1172	1140  0C001071             jal load_patterns
1173	1144  3052E735             andi $18, $2, 59189
1174	1148  AFB20000             sw $18, 0($29)
1175	114C  0C00107E             jal increment_offset
1176	1150  0C001071             jal load_patterns
1177	1154  3052F756             andi $18, $2, 63318
1178	1158  AFB20000             sw $18, 0($29)
1179	115C  0C00107E             jal increment_offset
1180	1160  0C001071             jal load_patterns
1181	1164  3052E52D             andi $18, $2, 58669
1182	1168  AFB20000             sw $18, 0($29)
1183	116C  0C00107E             jal increment_offset
1184	1170  0C001071             jal load_patterns
1185	1174  30522369             andi $18, $2, 9065
1186	1178  AFB20000             sw $18, 0($29)
1187	117C  0C00107E             jal increment_offset
1188	1180  0C001071             jal load_patterns
1189	1184  3052DD91             andi $18, $2, 56721
1190	1188  AFB20000             sw $18, 0($29)
1191	118C  0C00107E             jal increment_offset
1192	1190  0C001071             jal load_patterns
1193	1194  3052D796             andi $18, $2, 55190
1194	1198  AFB20000             sw $18, 0($29)
1195	119C  0C00107E             jal increment_offset
1196	11A0  0C001071             jal load_patterns
1197	11A4  3052243B             andi $18, $2, 9275
1198	11A8  AFB20000             sw $18, 0($29)
1199	11AC  0C00107E             jal increment_offset
1200	11B0  0C001071             jal load_patterns
1201	11B4  3052EE83             andi $18, $2, 61059
1202	11B8  AFB20000             sw $18, 0($29)
1203	11BC  0C00107E             jal increment_offset
1204	11C0  0C001071             jal load_patterns
1205	11C4  30522678             andi $18, $2, 9848
1206	11C8  AFB20000             sw $18, 0($29)
1207	11CC  0C00107E             jal increment_offset
1208	11D0  0C001071             jal load_patterns
1209	11D4  3052F1A4             andi $18, $2, 61860
1210	11D8  AFB20000             sw $18, 0($29)
1211	11DC  0C00107E             jal increment_offset
1212	11E0  0C001071             jal load_patterns
1213	11E4  30520C78             andi $18, $2, 3192
1214	11E8  AFB20000             sw $18, 0($29)
1215	11EC  0C00107E             jal increment_offset
1216	11F0  0C001071             jal load_patterns
1217	11F4  305216A0             andi $18, $2, 5792
1218	11F8  AFB20000             sw $18, 0($29)
1219	11FC  0C00107E             jal increment_offset
1220	1200  0C001071             jal load_patterns
1221	1204  305247AE             andi $18, $2, 18350
1222	1208  AFB20000             sw $18, 0($29)
1223	120C  0C00107E             jal increment_offset
1224	1210  0C001071             jal load_patterns
1225	1214  30527FCF             andi $18, $2, 32719
1226	1218  AFB20000             sw $18, 0($29)
1227	121C  0C00107E             jal increment_offset
1228	1220  0C001071             jal load_patterns
1229	1224  3052B2CA             andi $18, $2, 45770
1230	1228  AFB20000             sw $18, 0($29)
1231	122C  0C00107E             jal increment_offset
1232	1230  0C001071             jal load_patterns
1233	1234  3052D7C2             andi $18, $2, 55234
1234	1238  AFB20000             sw $18, 0($29)
1235	123C  0C00107E             jal increment_offset
1236	1240  0C001071             jal load_patterns
1237	1244  3052AB79             andi $18, $2, 43897
1238	1248  AFB20000             sw $18, 0($29)
1239	124C  0C00107E             jal increment_offset
1240	1250  0C001071             jal load_patterns
1241	1254  30521694             andi $18, $2, 5780
1242	1258  AFB20000             sw $18, 0($29)
1243	125C  0C00107E             jal increment_offset
1244	1260  0C001071             jal load_patterns
1245	1264  30522705             andi $18, $2, 9989
1246	1268  AFB20000             sw $18, 0($29)
1247	126C  0C00107E             jal increment_offset
1248	1270  0C001071             jal load_patterns
1249	1274  30525A79             andi $18, $2, 23161
1250	1278  AFB20000             sw $18, 0($29)
1251	127C  0C00107E             jal increment_offset
1252	1280  0C001071             jal load_patterns
1253	1284  30520CA2             andi $18, $2, 3234
1254	1288  AFB20000             sw $18, 0($29)
1255	128C  0C00107E             jal increment_offset
1256	1290  0C001071             jal load_patterns
1257	1294  30525B63             andi $18, $2, 23395
1258	1298  AFB20000             sw $18, 0($29)
1259	129C  0C00107E             jal increment_offset
1260	12A0  0C001071             jal load_patterns
1261	12A4  30521960             andi $18, $2, 6496
1262	12A8  AFB20000             sw $18, 0($29)
1263	12AC  0C00107E             jal increment_offset
1264	12B0  0C001071             jal load_patterns
1265	12B4  305242B3             andi $18, $2, 17075
1266	12B8  AFB20000             sw $18, 0($29)
1267	12BC  0C00107E             jal increment_offset
1268	12C0  0C001071             jal load_patterns
1269	12C4  305209AE             andi $18, $2, 2478
1270	12C8  AFB20000             sw $18, 0($29)
1271	12CC  0C00107E             jal increment_offset
1272	12D0  0C001071             jal load_patterns
1273	12D4  30520AD1             andi $18, $2, 2769
1274	12D8  AFB20000             sw $18, 0($29)
1275	12DC  0C00107E             jal increment_offset
1276	12E0  0C001071             jal load_patterns
1277	12E4  3052862C             andi $18, $2, 34348
1278	12E8  AFB20000             sw $18, 0($29)
1279	12EC  0C00107E             jal increment_offset
1280	12F0  0C001071             jal load_patterns
1281	12F4  3052BC7A             andi $18, $2, 48250
1282	12F8  AFB20000             sw $18, 0($29)
1283	12FC  0C00107E             jal increment_offset
1284	1300  0C001071             jal load_patterns
1285	1304  30520A38             andi $18, $2, 2616
1286	1308  AFB20000             sw $18, 0($29)
1287	130C  0C00107E             jal increment_offset
1288	1310  0C001071             jal load_patterns
1289	1314  30526C0C             andi $18, $2, 27660
1290	1318  AFB20000             sw $18, 0($29)
1291	131C  0C00107E             jal increment_offset
1292	1320  0C001071             jal load_patterns
1293	1324  30523752             andi $18, $2, 14162
1294	1328  AFB20000             sw $18, 0($29)
1295	132C  0C00107E             jal increment_offset
1296	1330  0C001071             jal load_patterns
1297	1334  30520B96             andi $18, $2, 2966
1298	1338  AFB20000             sw $18, 0($29)
1299	133C  0C00107E             jal increment_offset
1300	1340  0C001071             jal load_patterns
1301	1344  3052FF35             andi $18, $2, 65333
1302	1348  AFB20000             sw $18, 0($29)
1303	134C  0C00107E             jal increment_offset
1304	1350  0C001071             jal load_patterns
1305	1354  3052C583             andi $18, $2, 50563
1306	1358  AFB20000             sw $18, 0($29)
1307	135C  0C00107E             jal increment_offset
1308	1360  0C001071             jal load_patterns
1309	1364  30528FC7             andi $18, $2, 36807
1310	1368  AFB20000             sw $18, 0($29)
1311	136C  0C00107E             jal increment_offset
1312	1370  0C001071             jal load_patterns
1313	1374  3052AF83             andi $18, $2, 44931
1314	1378  AFB20000             sw $18, 0($29)
1315	137C  0C00107E             jal increment_offset
1316	1380  0C001071             jal load_patterns
1317	1384  30520979             andi $18, $2, 2425
1318	1388  AFB20000             sw $18, 0($29)
1319	138C  0C00107E             jal increment_offset
1320	1390  0C001071             jal load_patterns
1321	1394  305283DF             andi $18, $2, 33759
1322	1398  AFB20000             sw $18, 0($29)
1323	139C  0C00107E             jal increment_offset
1324	13A0  0C001071             jal load_patterns
1325	13A4  305220AB             andi $18, $2, 8363
1326	13A8  AFB20000             sw $18, 0($29)
1327	13AC  0C00107E             jal increment_offset
1328	13B0  0C001071             jal load_patterns
1329	13B4  305241D2             andi $18, $2, 16850
1330	13B8  AFB20000             sw $18, 0($29)
1331	13BC  0C00107E             jal increment_offset
1332	13C0  0C001071             jal load_patterns
1333	13C4  3052136F             andi $18, $2, 4975
1334	13C8  AFB20000             sw $18, 0($29)
1335	13CC  0C00107E             jal increment_offset
1336	13D0  0C001071             jal load_patterns
1337	13D4  3052C45C             andi $18, $2, 50268
1338	13D8  AFB20000             sw $18, 0($29)
1339	13DC  0C00107E             jal increment_offset
1340	13E0  0C001071             jal load_patterns
1341	13E4  3052F089             andi $18, $2, 61577
1342	13E8  AFB20000             sw $18, 0($29)
1343	13EC  0C00107E             jal increment_offset
1344	13F0  0C001071             jal load_patterns
1345	13F4  305221EF             andi $18, $2, 8687
1346	13F8  AFB20000             sw $18, 0($29)
1347	13FC  0C00107E             jal increment_offset
1348	1400  0C001071             jal load_patterns
1349	1404  305289F7             andi $18, $2, 35319
1350	1408  AFB20000             sw $18, 0($29)
1351	140C  0C00107E             jal increment_offset
1352	1410  0C001071             jal load_patterns
1353	1414  3052E4A8             andi $18, $2, 58536
1354	1418  AFB20000             sw $18, 0($29)
1355	141C  0C00107E             jal increment_offset
1356	1420  0C001071             jal load_patterns
1357	1424  305204C3             andi $18, $2, 1219
1358	1428  AFB20000             sw $18, 0($29)
1359	142C  0C00107E             jal increment_offset
1360	1430  0C001071             jal load_patterns
1361	1434  3052F64F             andi $18, $2, 63055
1362	1438  AFB20000             sw $18, 0($29)
1363	143C  0C00107E             jal increment_offset
1364	1440  0C001071             jal load_patterns
1365	1444  3052BF22             andi $18, $2, 48930
1366	1448  AFB20000             sw $18, 0($29)
1367	144C  0C00107E             jal increment_offset
1368	1450  0C001071             jal load_patterns
1369	1454  30520E40             andi $18, $2, 3648
1370	1458  AFB20000             sw $18, 0($29)
1371	145C  0C00107E             jal increment_offset
1372	1460  0C001071             jal load_patterns
1373	1464  3052FC4C             andi $18, $2, 64588
1374	1468  AFB20000             sw $18, 0($29)
1375	146C  0C00107E             jal increment_offset
1376	1470  0C001071             jal load_patterns
1377	1474  3052DFD6             andi $18, $2, 57302
1378	1478  AFB20000             sw $18, 0($29)
1379	147C  0C00107E             jal increment_offset
1380	1480  0C001071             jal load_patterns
1381	1484  305213F3             andi $18, $2, 5107
1382	1488  AFB20000             sw $18, 0($29)
1383	148C  0C00107E             jal increment_offset
1384	1490  0C001071             jal load_patterns
1385	1494  3052178C             andi $18, $2, 6028
1386	1498  AFB20000             sw $18, 0($29)
1387	149C  0C00107E             jal increment_offset
1388	14A0  0C001071             jal load_patterns
1389	14A4  30522820             andi $18, $2, 10272
1390	14A8  AFB20000             sw $18, 0($29)
1391	14AC  0C00107E             jal increment_offset
1392	14B0  0C001071             jal load_patterns
1393	14B4  305231BA             andi $18, $2, 12730
1394	14B8  AFB20000             sw $18, 0($29)
1395	14BC  0C00107E             jal increment_offset
1396	14C0  0C001071             jal load_patterns
1397	14C4  305235D9             andi $18, $2, 13785
1398	14C8  AFB20000             sw $18, 0($29)
1399	14CC  0C00107E             jal increment_offset
1400	14D0  0C001071             jal load_patterns
1401	14D4  30526840             andi $18, $2, 26688
1402	14D8  AFB20000             sw $18, 0($29)
1403	14DC  0C00107E             jal increment_offset
1404	14E0  0C001071             jal load_patterns
1405	14E4  305241A4             andi $18, $2, 16804
1406	14E8  AFB20000             sw $18, 0($29)
1407	14EC  0C00107E             jal increment_offset
1408	14F0  0C001071             jal load_patterns
1409	14F4  305209D8             andi $18, $2, 2520
1410	14F8  AFB20000             sw $18, 0($29)
1411	14FC  0C00107E             jal increment_offset
1412	1500  0C001071             jal load_patterns
1413	1504  3052689A             andi $18, $2, 26778
1414	1508  AFB20000             sw $18, 0($29)
1415	150C  0C00107E             jal increment_offset
1416	1510  0C001071             jal load_patterns
1417	1514  30523D60             andi $18, $2, 15712
1418	1518  AFB20000             sw $18, 0($29)
1419	151C  0C00107E             jal increment_offset
1420	1520  0C001071             jal load_patterns
1421	1524  30523C13             andi $18, $2, 15379
1422	1528  AFB20000             sw $18, 0($29)
1423	152C  0C00107E             jal increment_offset
1424	1530  0C001071             jal load_patterns
1425	1534  3052327E             andi $18, $2, 12926
1426	1538  AFB20000             sw $18, 0($29)
1427	153C  0C00107E             jal increment_offset
1428	1540  0C001071             jal load_patterns
1429	1544  3052AC2A             andi $18, $2, 44074
1430	1548  AFB20000             sw $18, 0($29)
1431	154C  0C00107E             jal increment_offset
1432	1550  0C001071             jal load_patterns
1433	1554  30528AB0             andi $18, $2, 35504
1434	1558  AFB20000             sw $18, 0($29)
1435	155C  0C00107E             jal increment_offset
1436	1560  0C001071             jal load_patterns
1437	1564  305267F0             andi $18, $2, 26608
1438	1568  AFB20000             sw $18, 0($29)
1439	156C  0C00107E             jal increment_offset
1440	1570  0C001071             jal load_patterns
1441	1574  3052E0BC             andi $18, $2, 57532
1442	1578  AFB20000             sw $18, 0($29)
1443	157C  0C00107E             jal increment_offset
1444	1580  0C001071             jal load_patterns
1445	1584  3052F069             andi $18, $2, 61545
1446	1588  AFB20000             sw $18, 0($29)
1447	158C  0C00107E             jal increment_offset
1448	1590  0C001071             jal load_patterns
1449	1594  3052A7C4             andi $18, $2, 42948
1450	1598  AFB20000             sw $18, 0($29)
1451	159C  0C00107E             jal increment_offset
1452	15A0  0C001071             jal load_patterns
1453	15A4  3052962D             andi $18, $2, 38445
1454	15A8  AFB20000             sw $18, 0($29)
1455	15AC  0C00107E             jal increment_offset
1456	15B0  0C001071             jal load_patterns
1457	15B4  30525F66             andi $18, $2, 24422
1458	15B8  AFB20000             sw $18, 0($29)
1459	15BC  0C00107E             jal increment_offset
1460	15C0  0C001071             jal load_patterns
1461	15C4  30527D0A             andi $18, $2, 32010
1462	15C8  AFB20000             sw $18, 0($29)
1463	15CC  0C00107E             jal increment_offset
1464	15D0  0C001071             jal load_patterns
1465	15D4  30526877             andi $18, $2, 26743
1466	15D8  AFB20000             sw $18, 0($29)
1467	15DC  0C00107E             jal increment_offset
1468	15E0  0C001071             jal load_patterns
1469	15E4  30520F02             andi $18, $2, 3842
1470	15E8  AFB20000             sw $18, 0($29)
1471	15EC  0C00107E             jal increment_offset
1472	15F0  0C001071             jal load_patterns
1473	15F4  3052C9FF             andi $18, $2, 51711
1474	15F8  AFB20000             sw $18, 0($29)
1475	15FC  0C00107E             jal increment_offset
1476	1600  0C001071             jal load_patterns
1477	1604  3052CCC9             andi $18, $2, 52425
1478	1608  AFB20000             sw $18, 0($29)
1479	160C  0C00107E             jal increment_offset
1480	1610  0C001071             jal load_patterns
1481	1614  305276A5             andi $18, $2, 30373
1482	1618  AFB20000             sw $18, 0($29)
1483	161C  0C00107E             jal increment_offset
1484	1620  0C001071             jal load_patterns
1485	1624  3052481D             andi $18, $2, 18461
1486	1628  AFB20000             sw $18, 0($29)
1487	162C  0C00107E             jal increment_offset
1488	1630  0C001071             jal load_patterns
1489	1634  30527869             andi $18, $2, 30825
1490	1638  AFB20000             sw $18, 0($29)
1491	163C  0C00107E             jal increment_offset
1492	1640  0C001071             jal load_patterns
1493	1644  3052B7FC             andi $18, $2, 47100
1494	1648  AFB20000             sw $18, 0($29)
1495	164C  0C00107E             jal increment_offset
1496	1650  0C001071             jal load_patterns
1497	1654  305222E0             andi $18, $2, 8928
1498	1658  AFB20000             sw $18, 0($29)
1499	165C  0C00107E             jal increment_offset
1500	1660  0C001071             jal load_patterns
1501	1664  30524F3B             andi $18, $2, 20283
1502	1668  AFB20000             sw $18, 0($29)
1503	166C  0C00107E             jal increment_offset
1504	1670  0C001071             jal load_patterns
1505	1674  305207A7             andi $18, $2, 1959
1506	1678  AFB20000             sw $18, 0($29)
1507	167C  0C00107E             jal increment_offset
1508	1680  0C001071             jal load_patterns
1509	1684  3052C18E             andi $18, $2, 49550
1510	1688  AFB20000             sw $18, 0($29)
1511	168C  0C00107E             jal increment_offset
1512	1690  0C001071             jal load_patterns
1513	1694  3052EDEF             andi $18, $2, 60911
1514	1698  AFB20000             sw $18, 0($29)
1515	169C  0C00107E             jal increment_offset
1516	16A0  0C001071             jal load_patterns
1517	16A4  3052143C             andi $18, $2, 5180
1518	16A8  AFB20000             sw $18, 0($29)
1519	16AC  0C00107E             jal increment_offset
1520	16B0  0C001071             jal load_patterns
1521	16B4  30524F69             andi $18, $2, 20329
1522	16B8  AFB20000             sw $18, 0($29)
1523	16BC  0C00107E             jal increment_offset
1524	16C0  0C001071             jal load_patterns
1525	16C4  305257D7             andi $18, $2, 22487
1526	16C8  AFB20000             sw $18, 0($29)
1527	16CC  0C00107E             jal increment_offset
1528	16D0  0C001071             jal load_patterns
1529	16D4  3052ED98             andi $18, $2, 60824
1530	16D8  AFB20000             sw $18, 0($29)
1531	16DC  0C00107E             jal increment_offset
1532	16E0  0C001071             jal load_patterns
1533	16E4  3052E7A5             andi $18, $2, 59301
1534	16E8  AFB20000             sw $18, 0($29)
1535	16EC  0C00107E             jal increment_offset
1536	16F0  0C001071             jal load_patterns
1537	16F4  30527B4F             andi $18, $2, 31567
1538	16F8  AFB20000             sw $18, 0($29)
1539	16FC  0C00107E             jal increment_offset
1540	1700  0C001071             jal load_patterns
1541	1704  30522E95             andi $18, $2, 11925
1542	1708  AFB20000             sw $18, 0($29)
1543	170C  0C00107E             jal increment_offset
1544	1710  0C001071             jal load_patterns
1545	1714  305273CF             andi $18, $2, 29647
1546	1718  AFB20000             sw $18, 0($29)
1547	171C  0C00107E             jal increment_offset
1548	1720  0C001071             jal load_patterns
1549	1724  30526E7C             andi $18, $2, 28284
1550	1728  AFB20000             sw $18, 0($29)
1551	172C  0C00107E             jal increment_offset
1552	1730  0C001071             jal load_patterns
1553	1734  3052DAE7             andi $18, $2, 56039
1554	1738  AFB20000             sw $18, 0($29)
1555	173C  0C00107E             jal increment_offset
1556	1740  0C001071             jal load_patterns
1557	1744  30524CC2             andi $18, $2, 19650
1558	1748  AFB20000             sw $18, 0($29)
1559	174C  0C00107E             jal increment_offset
1560	1750  0C001071             jal load_patterns
1561	1754  30524112             andi $18, $2, 16658
1562	1758  AFB20000             sw $18, 0($29)
1563	175C  0C00107E             jal increment_offset
1564	1760  0C001071             jal load_patterns
1565	1764  3052CDD5             andi $18, $2, 52693
1566	1768  AFB20000             sw $18, 0($29)
1567	176C  0C00107E             jal increment_offset
1568	1770  0C001071             jal load_patterns
1569	1774  30529EA8             andi $18, $2, 40616
1570	1778  AFB20000             sw $18, 0($29)
1571	177C  0C00107E             jal increment_offset
1572	1780  0C001071             jal load_patterns
1573	1784  30528FD0             andi $18, $2, 36816
1574	1788  AFB20000             sw $18, 0($29)
1575	178C  0C00107E             jal increment_offset
1576	1790  0C001071             jal load_patterns
1577	1794  30523149             andi $18, $2, 12617
1578	1798  AFB20000             sw $18, 0($29)
1579	179C  0C00107E             jal increment_offset
1580	17A0  0C001071             jal load_patterns
1581	17A4  3052B261             andi $18, $2, 45665
1582	17A8  AFB20000             sw $18, 0($29)
1583	17AC  0C00107E             jal increment_offset
1584	17B0  0C001071             jal load_patterns
1585	17B4  3052E219             andi $18, $2, 57881
1586	17B8  AFB20000             sw $18, 0($29)
1587	17BC  0C00107E             jal increment_offset
1588	17C0  0C001071             jal load_patterns
1589	17C4  3052A337             andi $18, $2, 41783
1590	17C8  AFB20000             sw $18, 0($29)
1591	17CC  0C00107E             jal increment_offset
1592	17D0  0C001071             jal load_patterns
1593	17D4  3052B60E             andi $18, $2, 46606
1594	17D8  AFB20000             sw $18, 0($29)
1595	17DC  0C00107E             jal increment_offset
1596	17E0  0C001071             jal load_patterns
1597	17E4  30527FBD             andi $18, $2, 32701
1598	17E8  AFB20000             sw $18, 0($29)
1599	17EC  0C00107E             jal increment_offset
1600	                          
1601	17F0  0C001074            jal reset_offsets
1602	                          operation_ori:
1603	17F4  0C001071             jal load_patterns
1604	17F8  34525882             ori $18, $2, 22658
1605	17FC  AFB20000             sw $18, 0($29)
1606	1800  0C00107E             jal increment_offset
1607	1804  0C001071             jal load_patterns
1608	1808  34528ACC             ori $18, $2, 35532
1609	180C  AFB20000             sw $18, 0($29)
1610	1810  0C00107E             jal increment_offset
1611	1814  0C001071             jal load_patterns
1612	1818  3452B085             ori $18, $2, 45189
1613	181C  AFB20000             sw $18, 0($29)
1614	1820  0C00107E             jal increment_offset
1615	1824  0C001071             jal load_patterns
1616	1828  3452D17E             ori $18, $2, 53630
1617	182C  AFB20000             sw $18, 0($29)
1618	1830  0C00107E             jal increment_offset
1619	1834  0C001071             jal load_patterns
1620	1838  3452C2E1             ori $18, $2, 49889
1621	183C  AFB20000             sw $18, 0($29)
1622	1840  0C00107E             jal increment_offset
1623	1844  0C001071             jal load_patterns
1624	1848  3452FC93             ori $18, $2, 64659
1625	184C  AFB20000             sw $18, 0($29)
1626	1850  0C00107E             jal increment_offset
1627	1854  0C001071             jal load_patterns
1628	1858  3452716A             ori $18, $2, 29034
1629	185C  AFB20000             sw $18, 0($29)
1630	1860  0C00107E             jal increment_offset
1631	1864  0C001071             jal load_patterns
1632	1868  34520238             ori $18, $2, 568
1633	186C  AFB20000             sw $18, 0($29)
1634	1870  0C00107E             jal increment_offset
1635	1874  0C001071             jal load_patterns
1636	1878  34522A22             ori $18, $2, 10786
1637	187C  AFB20000             sw $18, 0($29)
1638	1880  0C00107E             jal increment_offset
1639	1884  0C001071             jal load_patterns
1640	1888  3452C4E8             ori $18, $2, 50408
1641	188C  AFB20000             sw $18, 0($29)
1642	1890  0C00107E             jal increment_offset
1643	1894  0C001071             jal load_patterns
1644	1898  3452B14E             ori $18, $2, 45390
1645	189C  AFB20000             sw $18, 0($29)
1646	18A0  0C00107E             jal increment_offset
1647	18A4  0C001071             jal load_patterns
1648	18A8  3452BB05             ori $18, $2, 47877
1649	18AC  AFB20000             sw $18, 0($29)
1650	18B0  0C00107E             jal increment_offset
1651	18B4  0C001071             jal load_patterns
1652	18B8  3452C7E4             ori $18, $2, 51172
1653	18BC  AFB20000             sw $18, 0($29)
1654	18C0  0C00107E             jal increment_offset
1655	18C4  0C001071             jal load_patterns
1656	18C8  34528748             ori $18, $2, 34632
1657	18CC  AFB20000             sw $18, 0($29)
1658	18D0  0C00107E             jal increment_offset
1659	18D4  0C001071             jal load_patterns
1660	18D8  3452BD11             ori $18, $2, 48401
1661	18DC  AFB20000             sw $18, 0($29)
1662	18E0  0C00107E             jal increment_offset
1663	18E4  0C001071             jal load_patterns
1664	18E8  34525773             ori $18, $2, 22387
1665	18EC  AFB20000             sw $18, 0($29)
1666	18F0  0C00107E             jal increment_offset
1667	18F4  0C001071             jal load_patterns
1668	18F8  34525CE1             ori $18, $2, 23777
1669	18FC  AFB20000             sw $18, 0($29)
1670	1900  0C00107E             jal increment_offset
1671	1904  0C001071             jal load_patterns
1672	1908  3452A2BB             ori $18, $2, 41659
1673	190C  AFB20000             sw $18, 0($29)
1674	1910  0C00107E             jal increment_offset
1675	1914  0C001071             jal load_patterns
1676	1918  34528A40             ori $18, $2, 35392
1677	191C  AFB20000             sw $18, 0($29)
1678	1920  0C00107E             jal increment_offset
1679	1924  0C001071             jal load_patterns
1680	1928  3452BECB             ori $18, $2, 48843
1681	192C  AFB20000             sw $18, 0($29)
1682	1930  0C00107E             jal increment_offset
1683	1934  0C001071             jal load_patterns
1684	1938  3452295F             ori $18, $2, 10591
1685	193C  AFB20000             sw $18, 0($29)
1686	1940  0C00107E             jal increment_offset
1687	1944  0C001071             jal load_patterns
1688	1948  3452E5EC             ori $18, $2, 58860
1689	194C  AFB20000             sw $18, 0($29)
1690	1950  0C00107E             jal increment_offset
1691	1954  0C001071             jal load_patterns
1692	1958  3452AF25             ori $18, $2, 44837
1693	195C  AFB20000             sw $18, 0($29)
1694	1960  0C00107E             jal increment_offset
1695	1964  0C001071             jal load_patterns
1696	1968  345231D0             ori $18, $2, 12752
1697	196C  AFB20000             sw $18, 0($29)
1698	1970  0C00107E             jal increment_offset
1699	1974  0C001071             jal load_patterns
1700	1978  3452496F             ori $18, $2, 18799
1701	197C  AFB20000             sw $18, 0($29)
1702	1980  0C00107E             jal increment_offset
1703	1984  0C001071             jal load_patterns
1704	1988  34525592             ori $18, $2, 21906
1705	198C  AFB20000             sw $18, 0($29)
1706	1990  0C00107E             jal increment_offset
1707	1994  0C001071             jal load_patterns
1708	1998  34521900             ori $18, $2, 6400
1709	199C  AFB20000             sw $18, 0($29)
1710	19A0  0C00107E             jal increment_offset
1711	19A4  0C001071             jal load_patterns
1712	19A8  345226DA             ori $18, $2, 9946
1713	19AC  AFB20000             sw $18, 0($29)
1714	19B0  0C00107E             jal increment_offset
1715	19B4  0C001071             jal load_patterns
1716	19B8  3452408A             ori $18, $2, 16522
1717	19BC  AFB20000             sw $18, 0($29)
1718	19C0  0C00107E             jal increment_offset
1719	19C4  0C001071             jal load_patterns
1720	19C8  3452297E             ori $18, $2, 10622
1721	19CC  AFB20000             sw $18, 0($29)
1722	19D0  0C00107E             jal increment_offset
1723	19D4  0C001071             jal load_patterns
1724	19D8  34522961             ori $18, $2, 10593
1725	19DC  AFB20000             sw $18, 0($29)
1726	19E0  0C00107E             jal increment_offset
1727	19E4  0C001071             jal load_patterns
1728	19E8  3452E80E             ori $18, $2, 59406
1729	19EC  AFB20000             sw $18, 0($29)
1730	19F0  0C00107E             jal increment_offset
1731	19F4  0C001071             jal load_patterns
1732	19F8  3452B202             ori $18, $2, 45570
1733	19FC  AFB20000             sw $18, 0($29)
1734	1A00  0C00107E             jal increment_offset
1735	1A04  0C001071             jal load_patterns
1736	1A08  34523388             ori $18, $2, 13192
1737	1A0C  AFB20000             sw $18, 0($29)
1738	1A10  0C00107E             jal increment_offset
1739	1A14  0C001071             jal load_patterns
1740	1A18  345208DC             ori $18, $2, 2268
1741	1A1C  AFB20000             sw $18, 0($29)
1742	1A20  0C00107E             jal increment_offset
1743	1A24  0C001071             jal load_patterns
1744	1A28  3452363B             ori $18, $2, 13883
1745	1A2C  AFB20000             sw $18, 0($29)
1746	1A30  0C00107E             jal increment_offset
1747	1A34  0C001071             jal load_patterns
1748	1A38  3452CFF9             ori $18, $2, 53241
1749	1A3C  AFB20000             sw $18, 0($29)
1750	1A40  0C00107E             jal increment_offset
1751	1A44  0C001071             jal load_patterns
1752	1A48  34524B2C             ori $18, $2, 19244
1753	1A4C  AFB20000             sw $18, 0($29)
1754	1A50  0C00107E             jal increment_offset
1755	1A54  0C001071             jal load_patterns
1756	1A58  3452BE61             ori $18, $2, 48737
1757	1A5C  AFB20000             sw $18, 0($29)
1758	1A60  0C00107E             jal increment_offset
1759	1A64  0C001071             jal load_patterns
1760	1A68  345209C4             ori $18, $2, 2500
1761	1A6C  AFB20000             sw $18, 0($29)
1762	1A70  0C00107E             jal increment_offset
1763	1A74  0C001071             jal load_patterns
1764	1A78  345297A3             ori $18, $2, 38819
1765	1A7C  AFB20000             sw $18, 0($29)
1766	1A80  0C00107E             jal increment_offset
1767	1A84  0C001071             jal load_patterns
1768	1A88  3452718A             ori $18, $2, 29066
1769	1A8C  AFB20000             sw $18, 0($29)
1770	1A90  0C00107E             jal increment_offset
1771	1A94  0C001071             jal load_patterns
1772	1A98  3452E80D             ori $18, $2, 59405
1773	1A9C  AFB20000             sw $18, 0($29)
1774	1AA0  0C00107E             jal increment_offset
1775	1AA4  0C001071             jal load_patterns
1776	1AA8  3452514B             ori $18, $2, 20811
1777	1AAC  AFB20000             sw $18, 0($29)
1778	1AB0  0C00107E             jal increment_offset
1779	1AB4  0C001071             jal load_patterns
1780	1AB8  3452A44B             ori $18, $2, 42059
1781	1ABC  AFB20000             sw $18, 0($29)
1782	1AC0  0C00107E             jal increment_offset
1783	1AC4  0C001071             jal load_patterns
1784	1AC8  3452E758             ori $18, $2, 59224
1785	1ACC  AFB20000             sw $18, 0($29)
1786	1AD0  0C00107E             jal increment_offset
1787	1AD4  0C001071             jal load_patterns
1788	1AD8  34520FB8             ori $18, $2, 4024
1789	1ADC  AFB20000             sw $18, 0($29)
1790	1AE0  0C00107E             jal increment_offset
1791	1AE4  0C001071             jal load_patterns
1792	1AE8  34525C1B             ori $18, $2, 23579
1793	1AEC  AFB20000             sw $18, 0($29)
1794	1AF0  0C00107E             jal increment_offset
1795	1AF4  0C001071             jal load_patterns
1796	1AF8  34524474             ori $18, $2, 17524
1797	1AFC  AFB20000             sw $18, 0($29)
1798	1B00  0C00107E             jal increment_offset
1799	1B04  0C001071             jal load_patterns
1800	1B08  3452EF1E             ori $18, $2, 61214
1801	1B0C  AFB20000             sw $18, 0($29)
1802	1B10  0C00107E             jal increment_offset
1803	1B14  0C001071             jal load_patterns
1804	1B18  34523BC4             ori $18, $2, 15300
1805	1B1C  AFB20000             sw $18, 0($29)
1806	1B20  0C00107E             jal increment_offset
1807	1B24  0C001071             jal load_patterns
1808	1B28  3452FD41             ori $18, $2, 64833
1809	1B2C  AFB20000             sw $18, 0($29)
1810	1B30  0C00107E             jal increment_offset
1811	1B34  0C001071             jal load_patterns
1812	1B38  3452D65A             ori $18, $2, 54874
1813	1B3C  AFB20000             sw $18, 0($29)
1814	1B40  0C00107E             jal increment_offset
1815	1B44  0C001071             jal load_patterns
1816	1B48  34520487             ori $18, $2, 1159
1817	1B4C  AFB20000             sw $18, 0($29)
1818	1B50  0C00107E             jal increment_offset
1819	1B54  0C001071             jal load_patterns
1820	1B58  3452EF65             ori $18, $2, 61285
1821	1B5C  AFB20000             sw $18, 0($29)
1822	1B60  0C00107E             jal increment_offset
1823	1B64  0C001071             jal load_patterns
1824	1B68  3452F2C3             ori $18, $2, 62147
1825	1B6C  AFB20000             sw $18, 0($29)
1826	1B70  0C00107E             jal increment_offset
1827	1B74  0C001071             jal load_patterns
1828	1B78  34526076             ori $18, $2, 24694
1829	1B7C  AFB20000             sw $18, 0($29)
1830	1B80  0C00107E             jal increment_offset
1831	1B84  0C001071             jal load_patterns
1832	1B88  3452214A             ori $18, $2, 8522
1833	1B8C  AFB20000             sw $18, 0($29)
1834	1B90  0C00107E             jal increment_offset
1835	1B94  0C001071             jal load_patterns
1836	1B98  345268D6             ori $18, $2, 26838
1837	1B9C  AFB20000             sw $18, 0($29)
1838	1BA0  0C00107E             jal increment_offset
1839	1BA4  0C001071             jal load_patterns
1840	1BA8  3452E735             ori $18, $2, 59189
1841	1BAC  AFB20000             sw $18, 0($29)
1842	1BB0  0C00107E             jal increment_offset
1843	1BB4  0C001071             jal load_patterns
1844	1BB8  3452F756             ori $18, $2, 63318
1845	1BBC  AFB20000             sw $18, 0($29)
1846	1BC0  0C00107E             jal increment_offset
1847	1BC4  0C001071             jal load_patterns
1848	1BC8  3452E52D             ori $18, $2, 58669
1849	1BCC  AFB20000             sw $18, 0($29)
1850	1BD0  0C00107E             jal increment_offset
1851	1BD4  0C001071             jal load_patterns
1852	1BD8  34522369             ori $18, $2, 9065
1853	1BDC  AFB20000             sw $18, 0($29)
1854	1BE0  0C00107E             jal increment_offset
1855	1BE4  0C001071             jal load_patterns
1856	1BE8  3452DD91             ori $18, $2, 56721
1857	1BEC  AFB20000             sw $18, 0($29)
1858	1BF0  0C00107E             jal increment_offset
1859	1BF4  0C001071             jal load_patterns
1860	1BF8  3452D796             ori $18, $2, 55190
1861	1BFC  AFB20000             sw $18, 0($29)
1862	1C00  0C00107E             jal increment_offset
1863	1C04  0C001071             jal load_patterns
1864	1C08  3452243B             ori $18, $2, 9275
1865	1C0C  AFB20000             sw $18, 0($29)
1866	1C10  0C00107E             jal increment_offset
1867	1C14  0C001071             jal load_patterns
1868	1C18  3452EE83             ori $18, $2, 61059
1869	1C1C  AFB20000             sw $18, 0($29)
1870	1C20  0C00107E             jal increment_offset
1871	1C24  0C001071             jal load_patterns
1872	1C28  34522678             ori $18, $2, 9848
1873	1C2C  AFB20000             sw $18, 0($29)
1874	1C30  0C00107E             jal increment_offset
1875	1C34  0C001071             jal load_patterns
1876	1C38  3452F1A4             ori $18, $2, 61860
1877	1C3C  AFB20000             sw $18, 0($29)
1878	1C40  0C00107E             jal increment_offset
1879	1C44  0C001071             jal load_patterns
1880	1C48  34520C78             ori $18, $2, 3192
1881	1C4C  AFB20000             sw $18, 0($29)
1882	1C50  0C00107E             jal increment_offset
1883	1C54  0C001071             jal load_patterns
1884	1C58  345216A0             ori $18, $2, 5792
1885	1C5C  AFB20000             sw $18, 0($29)
1886	1C60  0C00107E             jal increment_offset
1887	1C64  0C001071             jal load_patterns
1888	1C68  345247AE             ori $18, $2, 18350
1889	1C6C  AFB20000             sw $18, 0($29)
1890	1C70  0C00107E             jal increment_offset
1891	1C74  0C001071             jal load_patterns
1892	1C78  34527FCF             ori $18, $2, 32719
1893	1C7C  AFB20000             sw $18, 0($29)
1894	1C80  0C00107E             jal increment_offset
1895	1C84  0C001071             jal load_patterns
1896	1C88  3452B2CA             ori $18, $2, 45770
1897	1C8C  AFB20000             sw $18, 0($29)
1898	1C90  0C00107E             jal increment_offset
1899	1C94  0C001071             jal load_patterns
1900	1C98  3452D7C2             ori $18, $2, 55234
1901	1C9C  AFB20000             sw $18, 0($29)
1902	1CA0  0C00107E             jal increment_offset
1903	1CA4  0C001071             jal load_patterns
1904	1CA8  3452AB79             ori $18, $2, 43897
1905	1CAC  AFB20000             sw $18, 0($29)
1906	1CB0  0C00107E             jal increment_offset
1907	1CB4  0C001071             jal load_patterns
1908	1CB8  34521694             ori $18, $2, 5780
1909	1CBC  AFB20000             sw $18, 0($29)
1910	1CC0  0C00107E             jal increment_offset
1911	1CC4  0C001071             jal load_patterns
1912	1CC8  34522705             ori $18, $2, 9989
1913	1CCC  AFB20000             sw $18, 0($29)
1914	1CD0  0C00107E             jal increment_offset
1915	1CD4  0C001071             jal load_patterns
1916	1CD8  34525A79             ori $18, $2, 23161
1917	1CDC  AFB20000             sw $18, 0($29)
1918	1CE0  0C00107E             jal increment_offset
1919	1CE4  0C001071             jal load_patterns
1920	1CE8  34520CA2             ori $18, $2, 3234
1921	1CEC  AFB20000             sw $18, 0($29)
1922	1CF0  0C00107E             jal increment_offset
1923	1CF4  0C001071             jal load_patterns
1924	1CF8  34525B63             ori $18, $2, 23395
1925	1CFC  AFB20000             sw $18, 0($29)
1926	1D00  0C00107E             jal increment_offset
1927	1D04  0C001071             jal load_patterns
1928	1D08  34521960             ori $18, $2, 6496
1929	1D0C  AFB20000             sw $18, 0($29)
1930	1D10  0C00107E             jal increment_offset
1931	1D14  0C001071             jal load_patterns
1932	1D18  345242B3             ori $18, $2, 17075
1933	1D1C  AFB20000             sw $18, 0($29)
1934	1D20  0C00107E             jal increment_offset
1935	1D24  0C001071             jal load_patterns
1936	1D28  345209AE             ori $18, $2, 2478
1937	1D2C  AFB20000             sw $18, 0($29)
1938	1D30  0C00107E             jal increment_offset
1939	1D34  0C001071             jal load_patterns
1940	1D38  34520AD1             ori $18, $2, 2769
1941	1D3C  AFB20000             sw $18, 0($29)
1942	1D40  0C00107E             jal increment_offset
1943	1D44  0C001071             jal load_patterns
1944	1D48  3452862C             ori $18, $2, 34348
1945	1D4C  AFB20000             sw $18, 0($29)
1946	1D50  0C00107E             jal increment_offset
1947	1D54  0C001071             jal load_patterns
1948	1D58  3452BC7A             ori $18, $2, 48250
1949	1D5C  AFB20000             sw $18, 0($29)
1950	1D60  0C00107E             jal increment_offset
1951	1D64  0C001071             jal load_patterns
1952	1D68  34520A38             ori $18, $2, 2616
1953	1D6C  AFB20000             sw $18, 0($29)
1954	1D70  0C00107E             jal increment_offset
1955	1D74  0C001071             jal load_patterns
1956	1D78  34526C0C             ori $18, $2, 27660
1957	1D7C  AFB20000             sw $18, 0($29)
1958	1D80  0C00107E             jal increment_offset
1959	1D84  0C001071             jal load_patterns
1960	1D88  34523752             ori $18, $2, 14162
1961	1D8C  AFB20000             sw $18, 0($29)
1962	1D90  0C00107E             jal increment_offset
1963	1D94  0C001071             jal load_patterns
1964	1D98  34520B96             ori $18, $2, 2966
1965	1D9C  AFB20000             sw $18, 0($29)
1966	1DA0  0C00107E             jal increment_offset
1967	1DA4  0C001071             jal load_patterns
1968	1DA8  3452FF35             ori $18, $2, 65333
1969	1DAC  AFB20000             sw $18, 0($29)
1970	1DB0  0C00107E             jal increment_offset
1971	1DB4  0C001071             jal load_patterns
1972	1DB8  3452C583             ori $18, $2, 50563
1973	1DBC  AFB20000             sw $18, 0($29)
1974	1DC0  0C00107E             jal increment_offset
1975	1DC4  0C001071             jal load_patterns
1976	1DC8  34528FC7             ori $18, $2, 36807
1977	1DCC  AFB20000             sw $18, 0($29)
1978	1DD0  0C00107E             jal increment_offset
1979	1DD4  0C001071             jal load_patterns
1980	1DD8  3452AF83             ori $18, $2, 44931
1981	1DDC  AFB20000             sw $18, 0($29)
1982	1DE0  0C00107E             jal increment_offset
1983	1DE4  0C001071             jal load_patterns
1984	1DE8  34520979             ori $18, $2, 2425
1985	1DEC  AFB20000             sw $18, 0($29)
1986	1DF0  0C00107E             jal increment_offset
1987	1DF4  0C001071             jal load_patterns
1988	1DF8  345283DF             ori $18, $2, 33759
1989	1DFC  AFB20000             sw $18, 0($29)
1990	1E00  0C00107E             jal increment_offset
1991	1E04  0C001071             jal load_patterns
1992	1E08  345220AB             ori $18, $2, 8363
1993	1E0C  AFB20000             sw $18, 0($29)
1994	1E10  0C00107E             jal increment_offset
1995	1E14  0C001071             jal load_patterns
1996	1E18  345241D2             ori $18, $2, 16850
1997	1E1C  AFB20000             sw $18, 0($29)
1998	1E20  0C00107E             jal increment_offset
1999	1E24  0C001071             jal load_patterns
2000	1E28  3452136F             ori $18, $2, 4975
2001	1E2C  AFB20000             sw $18, 0($29)
2002	1E30  0C00107E             jal increment_offset
2003	1E34  0C001071             jal load_patterns
2004	1E38  3452C45C             ori $18, $2, 50268
2005	1E3C  AFB20000             sw $18, 0($29)
2006	1E40  0C00107E             jal increment_offset
2007	1E44  0C001071             jal load_patterns
2008	1E48  3452F089             ori $18, $2, 61577
2009	1E4C  AFB20000             sw $18, 0($29)
2010	1E50  0C00107E             jal increment_offset
2011	1E54  0C001071             jal load_patterns
2012	1E58  345221EF             ori $18, $2, 8687
2013	1E5C  AFB20000             sw $18, 0($29)
2014	1E60  0C00107E             jal increment_offset
2015	1E64  0C001071             jal load_patterns
2016	1E68  345289F7             ori $18, $2, 35319
2017	1E6C  AFB20000             sw $18, 0($29)
2018	1E70  0C00107E             jal increment_offset
2019	1E74  0C001071             jal load_patterns
2020	1E78  3452E4A8             ori $18, $2, 58536
2021	1E7C  AFB20000             sw $18, 0($29)
2022	1E80  0C00107E             jal increment_offset
2023	1E84  0C001071             jal load_patterns
2024	1E88  345204C3             ori $18, $2, 1219
2025	1E8C  AFB20000             sw $18, 0($29)
2026	1E90  0C00107E             jal increment_offset
2027	1E94  0C001071             jal load_patterns
2028	1E98  3452F64F             ori $18, $2, 63055
2029	1E9C  AFB20000             sw $18, 0($29)
2030	1EA0  0C00107E             jal increment_offset
2031	1EA4  0C001071             jal load_patterns
2032	1EA8  3452BF22             ori $18, $2, 48930
2033	1EAC  AFB20000             sw $18, 0($29)
2034	1EB0  0C00107E             jal increment_offset
2035	1EB4  0C001071             jal load_patterns
2036	1EB8  34520E40             ori $18, $2, 3648
2037	1EBC  AFB20000             sw $18, 0($29)
2038	1EC0  0C00107E             jal increment_offset
2039	1EC4  0C001071             jal load_patterns
2040	1EC8  3452FC4C             ori $18, $2, 64588
2041	1ECC  AFB20000             sw $18, 0($29)
2042	1ED0  0C00107E             jal increment_offset
2043	1ED4  0C001071             jal load_patterns
2044	1ED8  3452DFD6             ori $18, $2, 57302
2045	1EDC  AFB20000             sw $18, 0($29)
2046	1EE0  0C00107E             jal increment_offset
2047	1EE4  0C001071             jal load_patterns
2048	1EE8  345213F3             ori $18, $2, 5107
2049	1EEC  AFB20000             sw $18, 0($29)
2050	1EF0  0C00107E             jal increment_offset
2051	1EF4  0C001071             jal load_patterns
2052	1EF8  3452178C             ori $18, $2, 6028
2053	1EFC  AFB20000             sw $18, 0($29)
2054	1F00  0C00107E             jal increment_offset
2055	1F04  0C001071             jal load_patterns
2056	1F08  34522820             ori $18, $2, 10272
2057	1F0C  AFB20000             sw $18, 0($29)
2058	1F10  0C00107E             jal increment_offset
2059	1F14  0C001071             jal load_patterns
2060	1F18  345231BA             ori $18, $2, 12730
2061	1F1C  AFB20000             sw $18, 0($29)
2062	1F20  0C00107E             jal increment_offset
2063	1F24  0C001071             jal load_patterns
2064	1F28  345235D9             ori $18, $2, 13785
2065	1F2C  AFB20000             sw $18, 0($29)
2066	1F30  0C00107E             jal increment_offset
2067	1F34  0C001071             jal load_patterns
2068	1F38  34526840             ori $18, $2, 26688
2069	1F3C  AFB20000             sw $18, 0($29)
2070	1F40  0C00107E             jal increment_offset
2071	1F44  0C001071             jal load_patterns
2072	1F48  345241A4             ori $18, $2, 16804
2073	1F4C  AFB20000             sw $18, 0($29)
2074	1F50  0C00107E             jal increment_offset
2075	1F54  0C001071             jal load_patterns
2076	1F58  345209D8             ori $18, $2, 2520
2077	1F5C  AFB20000             sw $18, 0($29)
2078	1F60  0C00107E             jal increment_offset
2079	1F64  0C001071             jal load_patterns
2080	1F68  3452689A             ori $18, $2, 26778
2081	1F6C  AFB20000             sw $18, 0($29)
2082	1F70  0C00107E             jal increment_offset
2083	1F74  0C001071             jal load_patterns
2084	1F78  34523D60             ori $18, $2, 15712
2085	1F7C  AFB20000             sw $18, 0($29)
2086	1F80  0C00107E             jal increment_offset
2087	1F84  0C001071             jal load_patterns
2088	1F88  34523C13             ori $18, $2, 15379
2089	1F8C  AFB20000             sw $18, 0($29)
2090	1F90  0C00107E             jal increment_offset
2091	1F94  0C001071             jal load_patterns
2092	1F98  3452327E             ori $18, $2, 12926
2093	1F9C  AFB20000             sw $18, 0($29)
2094	1FA0  0C00107E             jal increment_offset
2095	1FA4  0C001071             jal load_patterns
2096	1FA8  3452AC2A             ori $18, $2, 44074
2097	1FAC  AFB20000             sw $18, 0($29)
2098	1FB0  0C00107E             jal increment_offset
2099	1FB4  0C001071             jal load_patterns
2100	1FB8  34528AB0             ori $18, $2, 35504
2101	1FBC  AFB20000             sw $18, 0($29)
2102	1FC0  0C00107E             jal increment_offset
2103	1FC4  0C001071             jal load_patterns
2104	1FC8  345267F0             ori $18, $2, 26608
2105	1FCC  AFB20000             sw $18, 0($29)
2106	1FD0  0C00107E             jal increment_offset
2107	1FD4  0C001071             jal load_patterns
2108	1FD8  3452E0BC             ori $18, $2, 57532
2109	1FDC  AFB20000             sw $18, 0($29)
2110	1FE0  0C00107E             jal increment_offset
2111	1FE4  0C001071             jal load_patterns
2112	1FE8  3452F069             ori $18, $2, 61545
2113	1FEC  AFB20000             sw $18, 0($29)
2114	1FF0  0C00107E             jal increment_offset
2115	1FF4  0C001071             jal load_patterns
2116	1FF8  3452A7C4             ori $18, $2, 42948
2117	1FFC  AFB20000             sw $18, 0($29)
2118	2000  0C00107E             jal increment_offset
2119	2004  0C001071             jal load_patterns
2120	2008  3452962D             ori $18, $2, 38445
2121	200C  AFB20000             sw $18, 0($29)
2122	2010  0C00107E             jal increment_offset
2123	2014  0C001071             jal load_patterns
2124	2018  34525F66             ori $18, $2, 24422
2125	201C  AFB20000             sw $18, 0($29)
2126	2020  0C00107E             jal increment_offset
2127	2024  0C001071             jal load_patterns
2128	2028  34527D0A             ori $18, $2, 32010
2129	202C  AFB20000             sw $18, 0($29)
2130	2030  0C00107E             jal increment_offset
2131	2034  0C001071             jal load_patterns
2132	2038  34526877             ori $18, $2, 26743
2133	203C  AFB20000             sw $18, 0($29)
2134	2040  0C00107E             jal increment_offset
2135	2044  0C001071             jal load_patterns
2136	2048  34520F02             ori $18, $2, 3842
2137	204C  AFB20000             sw $18, 0($29)
2138	2050  0C00107E             jal increment_offset
2139	2054  0C001071             jal load_patterns
2140	2058  3452C9FF             ori $18, $2, 51711
2141	205C  AFB20000             sw $18, 0($29)
2142	2060  0C00107E             jal increment_offset
2143	2064  0C001071             jal load_patterns
2144	2068  3452CCC9             ori $18, $2, 52425
2145	206C  AFB20000             sw $18, 0($29)
2146	2070  0C00107E             jal increment_offset
2147	2074  0C001071             jal load_patterns
2148	2078  345276A5             ori $18, $2, 30373
2149	207C  AFB20000             sw $18, 0($29)
2150	2080  0C00107E             jal increment_offset
2151	2084  0C001071             jal load_patterns
2152	2088  3452481D             ori $18, $2, 18461
2153	208C  AFB20000             sw $18, 0($29)
2154	2090  0C00107E             jal increment_offset
2155	2094  0C001071             jal load_patterns
2156	2098  34527869             ori $18, $2, 30825
2157	209C  AFB20000             sw $18, 0($29)
2158	20A0  0C00107E             jal increment_offset
2159	20A4  0C001071             jal load_patterns
2160	20A8  3452B7FC             ori $18, $2, 47100
2161	20AC  AFB20000             sw $18, 0($29)
2162	20B0  0C00107E             jal increment_offset
2163	20B4  0C001071             jal load_patterns
2164	20B8  345222E0             ori $18, $2, 8928
2165	20BC  AFB20000             sw $18, 0($29)
2166	20C0  0C00107E             jal increment_offset
2167	20C4  0C001071             jal load_patterns
2168	20C8  34524F3B             ori $18, $2, 20283
2169	20CC  AFB20000             sw $18, 0($29)
2170	20D0  0C00107E             jal increment_offset
2171	20D4  0C001071             jal load_patterns
2172	20D8  345207A7             ori $18, $2, 1959
2173	20DC  AFB20000             sw $18, 0($29)
2174	20E0  0C00107E             jal increment_offset
2175	20E4  0C001071             jal load_patterns
2176	20E8  3452C18E             ori $18, $2, 49550
2177	20EC  AFB20000             sw $18, 0($29)
2178	20F0  0C00107E             jal increment_offset
2179	20F4  0C001071             jal load_patterns
2180	20F8  3452EDEF             ori $18, $2, 60911
2181	20FC  AFB20000             sw $18, 0($29)
2182	2100  0C00107E             jal increment_offset
2183	2104  0C001071             jal load_patterns
2184	2108  3452143C             ori $18, $2, 5180
2185	210C  AFB20000             sw $18, 0($29)
2186	2110  0C00107E             jal increment_offset
2187	2114  0C001071             jal load_patterns
2188	2118  34524F69             ori $18, $2, 20329
2189	211C  AFB20000             sw $18, 0($29)
2190	2120  0C00107E             jal increment_offset
2191	2124  0C001071             jal load_patterns
2192	2128  345257D7             ori $18, $2, 22487
2193	212C  AFB20000             sw $18, 0($29)
2194	2130  0C00107E             jal increment_offset
2195	2134  0C001071             jal load_patterns
2196	2138  3452ED98             ori $18, $2, 60824
2197	213C  AFB20000             sw $18, 0($29)
2198	2140  0C00107E             jal increment_offset
2199	2144  0C001071             jal load_patterns
2200	2148  3452E7A5             ori $18, $2, 59301
2201	214C  AFB20000             sw $18, 0($29)
2202	2150  0C00107E             jal increment_offset
2203	2154  0C001071             jal load_patterns
2204	2158  34527B4F             ori $18, $2, 31567
2205	215C  AFB20000             sw $18, 0($29)
2206	2160  0C00107E             jal increment_offset
2207	2164  0C001071             jal load_patterns
2208	2168  34522E95             ori $18, $2, 11925
2209	216C  AFB20000             sw $18, 0($29)
2210	2170  0C00107E             jal increment_offset
2211	2174  0C001071             jal load_patterns
2212	2178  345273CF             ori $18, $2, 29647
2213	217C  AFB20000             sw $18, 0($29)
2214	2180  0C00107E             jal increment_offset
2215	2184  0C001071             jal load_patterns
2216	2188  34526E7C             ori $18, $2, 28284
2217	218C  AFB20000             sw $18, 0($29)
2218	2190  0C00107E             jal increment_offset
2219	2194  0C001071             jal load_patterns
2220	2198  3452DAE7             ori $18, $2, 56039
2221	219C  AFB20000             sw $18, 0($29)
2222	21A0  0C00107E             jal increment_offset
2223	21A4  0C001071             jal load_patterns
2224	21A8  34524CC2             ori $18, $2, 19650
2225	21AC  AFB20000             sw $18, 0($29)
2226	21B0  0C00107E             jal increment_offset
2227	21B4  0C001071             jal load_patterns
2228	21B8  34524112             ori $18, $2, 16658
2229	21BC  AFB20000             sw $18, 0($29)
2230	21C0  0C00107E             jal increment_offset
2231	21C4  0C001071             jal load_patterns
2232	21C8  3452CDD5             ori $18, $2, 52693
2233	21CC  AFB20000             sw $18, 0($29)
2234	21D0  0C00107E             jal increment_offset
2235	21D4  0C001071             jal load_patterns
2236	21D8  34529EA8             ori $18, $2, 40616
2237	21DC  AFB20000             sw $18, 0($29)
2238	21E0  0C00107E             jal increment_offset
2239	21E4  0C001071             jal load_patterns
2240	21E8  34528FD0             ori $18, $2, 36816
2241	21EC  AFB20000             sw $18, 0($29)
2242	21F0  0C00107E             jal increment_offset
2243	21F4  0C001071             jal load_patterns
2244	21F8  34523149             ori $18, $2, 12617
2245	21FC  AFB20000             sw $18, 0($29)
2246	2200  0C00107E             jal increment_offset
2247	2204  0C001071             jal load_patterns
2248	2208  3452B261             ori $18, $2, 45665
2249	220C  AFB20000             sw $18, 0($29)
2250	2210  0C00107E             jal increment_offset
2251	2214  0C001071             jal load_patterns
2252	2218  3452E219             ori $18, $2, 57881
2253	221C  AFB20000             sw $18, 0($29)
2254	2220  0C00107E             jal increment_offset
2255	2224  0C001071             jal load_patterns
2256	2228  3452A337             ori $18, $2, 41783
2257	222C  AFB20000             sw $18, 0($29)
2258	2230  0C00107E             jal increment_offset
2259	2234  0C001071             jal load_patterns
2260	2238  3452B60E             ori $18, $2, 46606
2261	223C  AFB20000             sw $18, 0($29)
2262	2240  0C00107E             jal increment_offset
2263	2244  0C001071             jal load_patterns
2264	2248  34527FBD             ori $18, $2, 32701
2265	224C  AFB20000             sw $18, 0($29)
2266	2250  0C00107E             jal increment_offset
2267	                          
2268	2254  0C001074            jal reset_offsets
2269	                          operation_slti:
2270	2258  0C001071             jal load_patterns
2271	225C  28525882             slti $18, $2, 22658
2272	2260  AFB20000             sw $18, 0($29)
2273	2264  0C00107E             jal increment_offset
2274	2268  0C001071             jal load_patterns
2275	226C  28528ACC             slti $18, $2, 35532
2276	2270  AFB20000             sw $18, 0($29)
2277	2274  0C00107E             jal increment_offset
2278	2278  0C001071             jal load_patterns
2279	227C  2852B085             slti $18, $2, 45189
2280	2280  AFB20000             sw $18, 0($29)
2281	2284  0C00107E             jal increment_offset
2282	2288  0C001071             jal load_patterns
2283	228C  2852D17E             slti $18, $2, 53630
2284	2290  AFB20000             sw $18, 0($29)
2285	2294  0C00107E             jal increment_offset
2286	2298  0C001071             jal load_patterns
2287	229C  2852C2E1             slti $18, $2, 49889
2288	22A0  AFB20000             sw $18, 0($29)
2289	22A4  0C00107E             jal increment_offset
2290	22A8  0C001071             jal load_patterns
2291	22AC  2852FC93             slti $18, $2, 64659
2292	22B0  AFB20000             sw $18, 0($29)
2293	22B4  0C00107E             jal increment_offset
2294	22B8  0C001071             jal load_patterns
2295	22BC  2852716A             slti $18, $2, 29034
2296	22C0  AFB20000             sw $18, 0($29)
2297	22C4  0C00107E             jal increment_offset
2298	22C8  0C001071             jal load_patterns
2299	22CC  28520238             slti $18, $2, 568
2300	22D0  AFB20000             sw $18, 0($29)
2301	22D4  0C00107E             jal increment_offset
2302	22D8  0C001071             jal load_patterns
2303	22DC  28522A22             slti $18, $2, 10786
2304	22E0  AFB20000             sw $18, 0($29)
2305	22E4  0C00107E             jal increment_offset
2306	22E8  0C001071             jal load_patterns
2307	22EC  2852C4E8             slti $18, $2, 50408
2308	22F0  AFB20000             sw $18, 0($29)
2309	22F4  0C00107E             jal increment_offset
2310	22F8  0C001071             jal load_patterns
2311	22FC  2852B14E             slti $18, $2, 45390
2312	2300  AFB20000             sw $18, 0($29)
2313	2304  0C00107E             jal increment_offset
2314	2308  0C001071             jal load_patterns
2315	230C  2852BB05             slti $18, $2, 47877
2316	2310  AFB20000             sw $18, 0($29)
2317	2314  0C00107E             jal increment_offset
2318	2318  0C001071             jal load_patterns
2319	231C  2852C7E4             slti $18, $2, 51172
2320	2320  AFB20000             sw $18, 0($29)
2321	2324  0C00107E             jal increment_offset
2322	2328  0C001071             jal load_patterns
2323	232C  28528748             slti $18, $2, 34632
2324	2330  AFB20000             sw $18, 0($29)
2325	2334  0C00107E             jal increment_offset
2326	2338  0C001071             jal load_patterns
2327	233C  2852BD11             slti $18, $2, 48401
2328	2340  AFB20000             sw $18, 0($29)
2329	2344  0C00107E             jal increment_offset
2330	2348  0C001071             jal load_patterns
2331	234C  28525773             slti $18, $2, 22387
2332	2350  AFB20000             sw $18, 0($29)
2333	2354  0C00107E             jal increment_offset
2334	2358  0C001071             jal load_patterns
2335	235C  28525CE1             slti $18, $2, 23777
2336	2360  AFB20000             sw $18, 0($29)
2337	2364  0C00107E             jal increment_offset
2338	2368  0C001071             jal load_patterns
2339	236C  2852A2BB             slti $18, $2, 41659
2340	2370  AFB20000             sw $18, 0($29)
2341	2374  0C00107E             jal increment_offset
2342	2378  0C001071             jal load_patterns
2343	237C  28528A40             slti $18, $2, 35392
2344	2380  AFB20000             sw $18, 0($29)
2345	2384  0C00107E             jal increment_offset
2346	2388  0C001071             jal load_patterns
2347	238C  2852BECB             slti $18, $2, 48843
2348	2390  AFB20000             sw $18, 0($29)
2349	2394  0C00107E             jal increment_offset
2350	2398  0C001071             jal load_patterns
2351	239C  2852295F             slti $18, $2, 10591
2352	23A0  AFB20000             sw $18, 0($29)
2353	23A4  0C00107E             jal increment_offset
2354	23A8  0C001071             jal load_patterns
2355	23AC  2852E5EC             slti $18, $2, 58860
2356	23B0  AFB20000             sw $18, 0($29)
2357	23B4  0C00107E             jal increment_offset
2358	23B8  0C001071             jal load_patterns
2359	23BC  2852AF25             slti $18, $2, 44837
2360	23C0  AFB20000             sw $18, 0($29)
2361	23C4  0C00107E             jal increment_offset
2362	23C8  0C001071             jal load_patterns
2363	23CC  285231D0             slti $18, $2, 12752
2364	23D0  AFB20000             sw $18, 0($29)
2365	23D4  0C00107E             jal increment_offset
2366	23D8  0C001071             jal load_patterns
2367	23DC  2852496F             slti $18, $2, 18799
2368	23E0  AFB20000             sw $18, 0($29)
2369	23E4  0C00107E             jal increment_offset
2370	23E8  0C001071             jal load_patterns
2371	23EC  28525592             slti $18, $2, 21906
2372	23F0  AFB20000             sw $18, 0($29)
2373	23F4  0C00107E             jal increment_offset
2374	23F8  0C001071             jal load_patterns
2375	23FC  28521900             slti $18, $2, 6400
2376	2400  AFB20000             sw $18, 0($29)
2377	2404  0C00107E             jal increment_offset
2378	2408  0C001071             jal load_patterns
2379	240C  285226DA             slti $18, $2, 9946
2380	2410  AFB20000             sw $18, 0($29)
2381	2414  0C00107E             jal increment_offset
2382	2418  0C001071             jal load_patterns
2383	241C  2852408A             slti $18, $2, 16522
2384	2420  AFB20000             sw $18, 0($29)
2385	2424  0C00107E             jal increment_offset
2386	2428  0C001071             jal load_patterns
2387	242C  2852297E             slti $18, $2, 10622
2388	2430  AFB20000             sw $18, 0($29)
2389	2434  0C00107E             jal increment_offset
2390	2438  0C001071             jal load_patterns
2391	243C  28522961             slti $18, $2, 10593
2392	2440  AFB20000             sw $18, 0($29)
2393	2444  0C00107E             jal increment_offset
2394	2448  0C001071             jal load_patterns
2395	244C  2852E80E             slti $18, $2, 59406
2396	2450  AFB20000             sw $18, 0($29)
2397	2454  0C00107E             jal increment_offset
2398	2458  0C001071             jal load_patterns
2399	245C  2852B202             slti $18, $2, 45570
2400	2460  AFB20000             sw $18, 0($29)
2401	2464  0C00107E             jal increment_offset
2402	2468  0C001071             jal load_patterns
2403	246C  28523388             slti $18, $2, 13192
2404	2470  AFB20000             sw $18, 0($29)
2405	2474  0C00107E             jal increment_offset
2406	2478  0C001071             jal load_patterns
2407	247C  285208DC             slti $18, $2, 2268
2408	2480  AFB20000             sw $18, 0($29)
2409	2484  0C00107E             jal increment_offset
2410	2488  0C001071             jal load_patterns
2411	248C  2852363B             slti $18, $2, 13883
2412	2490  AFB20000             sw $18, 0($29)
2413	2494  0C00107E             jal increment_offset
2414	2498  0C001071             jal load_patterns
2415	249C  2852CFF9             slti $18, $2, 53241
2416	24A0  AFB20000             sw $18, 0($29)
2417	24A4  0C00107E             jal increment_offset
2418	24A8  0C001071             jal load_patterns
2419	24AC  28524B2C             slti $18, $2, 19244
2420	24B0  AFB20000             sw $18, 0($29)
2421	24B4  0C00107E             jal increment_offset
2422	24B8  0C001071             jal load_patterns
2423	24BC  2852BE61             slti $18, $2, 48737
2424	24C0  AFB20000             sw $18, 0($29)
2425	24C4  0C00107E             jal increment_offset
2426	24C8  0C001071             jal load_patterns
2427	24CC  285209C4             slti $18, $2, 2500
2428	24D0  AFB20000             sw $18, 0($29)
2429	24D4  0C00107E             jal increment_offset
2430	24D8  0C001071             jal load_patterns
2431	24DC  285297A3             slti $18, $2, 38819
2432	24E0  AFB20000             sw $18, 0($29)
2433	24E4  0C00107E             jal increment_offset
2434	24E8  0C001071             jal load_patterns
2435	24EC  2852718A             slti $18, $2, 29066
2436	24F0  AFB20000             sw $18, 0($29)
2437	24F4  0C00107E             jal increment_offset
2438	24F8  0C001071             jal load_patterns
2439	24FC  2852E80D             slti $18, $2, 59405
2440	2500  AFB20000             sw $18, 0($29)
2441	2504  0C00107E             jal increment_offset
2442	2508  0C001071             jal load_patterns
2443	250C  2852514B             slti $18, $2, 20811
2444	2510  AFB20000             sw $18, 0($29)
2445	2514  0C00107E             jal increment_offset
2446	2518  0C001071             jal load_patterns
2447	251C  2852A44B             slti $18, $2, 42059
2448	2520  AFB20000             sw $18, 0($29)
2449	2524  0C00107E             jal increment_offset
2450	2528  0C001071             jal load_patterns
2451	252C  2852E758             slti $18, $2, 59224
2452	2530  AFB20000             sw $18, 0($29)
2453	2534  0C00107E             jal increment_offset
2454	2538  0C001071             jal load_patterns
2455	253C  28520FB8             slti $18, $2, 4024
2456	2540  AFB20000             sw $18, 0($29)
2457	2544  0C00107E             jal increment_offset
2458	2548  0C001071             jal load_patterns
2459	254C  28525C1B             slti $18, $2, 23579
2460	2550  AFB20000             sw $18, 0($29)
2461	2554  0C00107E             jal increment_offset
2462	2558  0C001071             jal load_patterns
2463	255C  28524474             slti $18, $2, 17524
2464	2560  AFB20000             sw $18, 0($29)
2465	2564  0C00107E             jal increment_offset
2466	2568  0C001071             jal load_patterns
2467	256C  2852EF1E             slti $18, $2, 61214
2468	2570  AFB20000             sw $18, 0($29)
2469	2574  0C00107E             jal increment_offset
2470	2578  0C001071             jal load_patterns
2471	257C  28523BC4             slti $18, $2, 15300
2472	2580  AFB20000             sw $18, 0($29)
2473	2584  0C00107E             jal increment_offset
2474	2588  0C001071             jal load_patterns
2475	258C  2852FD41             slti $18, $2, 64833
2476	2590  AFB20000             sw $18, 0($29)
2477	2594  0C00107E             jal increment_offset
2478	2598  0C001071             jal load_patterns
2479	259C  2852D65A             slti $18, $2, 54874
2480	25A0  AFB20000             sw $18, 0($29)
2481	25A4  0C00107E             jal increment_offset
2482	25A8  0C001071             jal load_patterns
2483	25AC  28520487             slti $18, $2, 1159
2484	25B0  AFB20000             sw $18, 0($29)
2485	25B4  0C00107E             jal increment_offset
2486	25B8  0C001071             jal load_patterns
2487	25BC  2852EF65             slti $18, $2, 61285
2488	25C0  AFB20000             sw $18, 0($29)
2489	25C4  0C00107E             jal increment_offset
2490	25C8  0C001071             jal load_patterns
2491	25CC  2852F2C3             slti $18, $2, 62147
2492	25D0  AFB20000             sw $18, 0($29)
2493	25D4  0C00107E             jal increment_offset
2494	25D8  0C001071             jal load_patterns
2495	25DC  28526076             slti $18, $2, 24694
2496	25E0  AFB20000             sw $18, 0($29)
2497	25E4  0C00107E             jal increment_offset
2498	25E8  0C001071             jal load_patterns
2499	25EC  2852214A             slti $18, $2, 8522
2500	25F0  AFB20000             sw $18, 0($29)
2501	25F4  0C00107E             jal increment_offset
2502	25F8  0C001071             jal load_patterns
2503	25FC  285268D6             slti $18, $2, 26838
2504	2600  AFB20000             sw $18, 0($29)
2505	2604  0C00107E             jal increment_offset
2506	2608  0C001071             jal load_patterns
2507	260C  2852E735             slti $18, $2, 59189
2508	2610  AFB20000             sw $18, 0($29)
2509	2614  0C00107E             jal increment_offset
2510	2618  0C001071             jal load_patterns
2511	261C  2852F756             slti $18, $2, 63318
2512	2620  AFB20000             sw $18, 0($29)
2513	2624  0C00107E             jal increment_offset
2514	2628  0C001071             jal load_patterns
2515	262C  2852E52D             slti $18, $2, 58669
2516	2630  AFB20000             sw $18, 0($29)
2517	2634  0C00107E             jal increment_offset
2518	2638  0C001071             jal load_patterns
2519	263C  28522369             slti $18, $2, 9065
2520	2640  AFB20000             sw $18, 0($29)
2521	2644  0C00107E             jal increment_offset
2522	2648  0C001071             jal load_patterns
2523	264C  2852DD91             slti $18, $2, 56721
2524	2650  AFB20000             sw $18, 0($29)
2525	2654  0C00107E             jal increment_offset
2526	2658  0C001071             jal load_patterns
2527	265C  2852D796             slti $18, $2, 55190
2528	2660  AFB20000             sw $18, 0($29)
2529	2664  0C00107E             jal increment_offset
2530	2668  0C001071             jal load_patterns
2531	266C  2852243B             slti $18, $2, 9275
2532	2670  AFB20000             sw $18, 0($29)
2533	2674  0C00107E             jal increment_offset
2534	2678  0C001071             jal load_patterns
2535	267C  2852EE83             slti $18, $2, 61059
2536	2680  AFB20000             sw $18, 0($29)
2537	2684  0C00107E             jal increment_offset
2538	2688  0C001071             jal load_patterns
2539	268C  28522678             slti $18, $2, 9848
2540	2690  AFB20000             sw $18, 0($29)
2541	2694  0C00107E             jal increment_offset
2542	2698  0C001071             jal load_patterns
2543	269C  2852F1A4             slti $18, $2, 61860
2544	26A0  AFB20000             sw $18, 0($29)
2545	26A4  0C00107E             jal increment_offset
2546	26A8  0C001071             jal load_patterns
2547	26AC  28520C78             slti $18, $2, 3192
2548	26B0  AFB20000             sw $18, 0($29)
2549	26B4  0C00107E             jal increment_offset
2550	26B8  0C001071             jal load_patterns
2551	26BC  285216A0             slti $18, $2, 5792
2552	26C0  AFB20000             sw $18, 0($29)
2553	26C4  0C00107E             jal increment_offset
2554	26C8  0C001071             jal load_patterns
2555	26CC  285247AE             slti $18, $2, 18350
2556	26D0  AFB20000             sw $18, 0($29)
2557	26D4  0C00107E             jal increment_offset
2558	26D8  0C001071             jal load_patterns
2559	26DC  28527FCF             slti $18, $2, 32719
2560	26E0  AFB20000             sw $18, 0($29)
2561	26E4  0C00107E             jal increment_offset
2562	26E8  0C001071             jal load_patterns
2563	26EC  2852B2CA             slti $18, $2, 45770
2564	26F0  AFB20000             sw $18, 0($29)
2565	26F4  0C00107E             jal increment_offset
2566	26F8  0C001071             jal load_patterns
2567	26FC  2852D7C2             slti $18, $2, 55234
2568	2700  AFB20000             sw $18, 0($29)
2569	2704  0C00107E             jal increment_offset
2570	2708  0C001071             jal load_patterns
2571	270C  2852AB79             slti $18, $2, 43897
2572	2710  AFB20000             sw $18, 0($29)
2573	2714  0C00107E             jal increment_offset
2574	2718  0C001071             jal load_patterns
2575	271C  28521694             slti $18, $2, 5780
2576	2720  AFB20000             sw $18, 0($29)
2577	2724  0C00107E             jal increment_offset
2578	2728  0C001071             jal load_patterns
2579	272C  28522705             slti $18, $2, 9989
2580	2730  AFB20000             sw $18, 0($29)
2581	2734  0C00107E             jal increment_offset
2582	2738  0C001071             jal load_patterns
2583	273C  28525A79             slti $18, $2, 23161
2584	2740  AFB20000             sw $18, 0($29)
2585	2744  0C00107E             jal increment_offset
2586	2748  0C001071             jal load_patterns
2587	274C  28520CA2             slti $18, $2, 3234
2588	2750  AFB20000             sw $18, 0($29)
2589	2754  0C00107E             jal increment_offset
2590	2758  0C001071             jal load_patterns
2591	275C  28525B63             slti $18, $2, 23395
2592	2760  AFB20000             sw $18, 0($29)
2593	2764  0C00107E             jal increment_offset
2594	2768  0C001071             jal load_patterns
2595	276C  28521960             slti $18, $2, 6496
2596	2770  AFB20000             sw $18, 0($29)
2597	2774  0C00107E             jal increment_offset
2598	2778  0C001071             jal load_patterns
2599	277C  285242B3             slti $18, $2, 17075
2600	2780  AFB20000             sw $18, 0($29)
2601	2784  0C00107E             jal increment_offset
2602	2788  0C001071             jal load_patterns
2603	278C  285209AE             slti $18, $2, 2478
2604	2790  AFB20000             sw $18, 0($29)
2605	2794  0C00107E             jal increment_offset
2606	2798  0C001071             jal load_patterns
2607	279C  28520AD1             slti $18, $2, 2769
2608	27A0  AFB20000             sw $18, 0($29)
2609	27A4  0C00107E             jal increment_offset
2610	27A8  0C001071             jal load_patterns
2611	27AC  2852862C             slti $18, $2, 34348
2612	27B0  AFB20000             sw $18, 0($29)
2613	27B4  0C00107E             jal increment_offset
2614	27B8  0C001071             jal load_patterns
2615	27BC  2852BC7A             slti $18, $2, 48250
2616	27C0  AFB20000             sw $18, 0($29)
2617	27C4  0C00107E             jal increment_offset
2618	27C8  0C001071             jal load_patterns
2619	27CC  28520A38             slti $18, $2, 2616
2620	27D0  AFB20000             sw $18, 0($29)
2621	27D4  0C00107E             jal increment_offset
2622	27D8  0C001071             jal load_patterns
2623	27DC  28526C0C             slti $18, $2, 27660
2624	27E0  AFB20000             sw $18, 0($29)
2625	27E4  0C00107E             jal increment_offset
2626	27E8  0C001071             jal load_patterns
2627	27EC  28523752             slti $18, $2, 14162
2628	27F0  AFB20000             sw $18, 0($29)
2629	27F4  0C00107E             jal increment_offset
2630	27F8  0C001071             jal load_patterns
2631	27FC  28520B96             slti $18, $2, 2966
2632	2800  AFB20000             sw $18, 0($29)
2633	2804  0C00107E             jal increment_offset
2634	2808  0C001071             jal load_patterns
2635	280C  2852FF35             slti $18, $2, 65333
2636	2810  AFB20000             sw $18, 0($29)
2637	2814  0C00107E             jal increment_offset
2638	2818  0C001071             jal load_patterns
2639	281C  2852C583             slti $18, $2, 50563
2640	2820  AFB20000             sw $18, 0($29)
2641	2824  0C00107E             jal increment_offset
2642	2828  0C001071             jal load_patterns
2643	282C  28528FC7             slti $18, $2, 36807
2644	2830  AFB20000             sw $18, 0($29)
2645	2834  0C00107E             jal increment_offset
2646	2838  0C001071             jal load_patterns
2647	283C  2852AF83             slti $18, $2, 44931
2648	2840  AFB20000             sw $18, 0($29)
2649	2844  0C00107E             jal increment_offset
2650	2848  0C001071             jal load_patterns
2651	284C  28520979             slti $18, $2, 2425
2652	2850  AFB20000             sw $18, 0($29)
2653	2854  0C00107E             jal increment_offset
2654	2858  0C001071             jal load_patterns
2655	285C  285283DF             slti $18, $2, 33759
2656	2860  AFB20000             sw $18, 0($29)
2657	2864  0C00107E             jal increment_offset
2658	2868  0C001071             jal load_patterns
2659	286C  285220AB             slti $18, $2, 8363
2660	2870  AFB20000             sw $18, 0($29)
2661	2874  0C00107E             jal increment_offset
2662	2878  0C001071             jal load_patterns
2663	287C  285241D2             slti $18, $2, 16850
2664	2880  AFB20000             sw $18, 0($29)
2665	2884  0C00107E             jal increment_offset
2666	2888  0C001071             jal load_patterns
2667	288C  2852136F             slti $18, $2, 4975
2668	2890  AFB20000             sw $18, 0($29)
2669	2894  0C00107E             jal increment_offset
2670	2898  0C001071             jal load_patterns
2671	289C  2852C45C             slti $18, $2, 50268
2672	28A0  AFB20000             sw $18, 0($29)
2673	28A4  0C00107E             jal increment_offset
2674	28A8  0C001071             jal load_patterns
2675	28AC  2852F089             slti $18, $2, 61577
2676	28B0  AFB20000             sw $18, 0($29)
2677	28B4  0C00107E             jal increment_offset
2678	28B8  0C001071             jal load_patterns
2679	28BC  285221EF             slti $18, $2, 8687
2680	28C0  AFB20000             sw $18, 0($29)
2681	28C4  0C00107E             jal increment_offset
2682	28C8  0C001071             jal load_patterns
2683	28CC  285289F7             slti $18, $2, 35319
2684	28D0  AFB20000             sw $18, 0($29)
2685	28D4  0C00107E             jal increment_offset
2686	28D8  0C001071             jal load_patterns
2687	28DC  2852E4A8             slti $18, $2, 58536
2688	28E0  AFB20000             sw $18, 0($29)
2689	28E4  0C00107E             jal increment_offset
2690	28E8  0C001071             jal load_patterns
2691	28EC  285204C3             slti $18, $2, 1219
2692	28F0  AFB20000             sw $18, 0($29)
2693	28F4  0C00107E             jal increment_offset
2694	28F8  0C001071             jal load_patterns
2695	28FC  2852F64F             slti $18, $2, 63055
2696	2900  AFB20000             sw $18, 0($29)
2697	2904  0C00107E             jal increment_offset
2698	2908  0C001071             jal load_patterns
2699	290C  2852BF22             slti $18, $2, 48930
2700	2910  AFB20000             sw $18, 0($29)
2701	2914  0C00107E             jal increment_offset
2702	2918  0C001071             jal load_patterns
2703	291C  28520E40             slti $18, $2, 3648
2704	2920  AFB20000             sw $18, 0($29)
2705	2924  0C00107E             jal increment_offset
2706	2928  0C001071             jal load_patterns
2707	292C  2852FC4C             slti $18, $2, 64588
2708	2930  AFB20000             sw $18, 0($29)
2709	2934  0C00107E             jal increment_offset
2710	2938  0C001071             jal load_patterns
2711	293C  2852DFD6             slti $18, $2, 57302
2712	2940  AFB20000             sw $18, 0($29)
2713	2944  0C00107E             jal increment_offset
2714	2948  0C001071             jal load_patterns
2715	294C  285213F3             slti $18, $2, 5107
2716	2950  AFB20000             sw $18, 0($29)
2717	2954  0C00107E             jal increment_offset
2718	2958  0C001071             jal load_patterns
2719	295C  2852178C             slti $18, $2, 6028
2720	2960  AFB20000             sw $18, 0($29)
2721	2964  0C00107E             jal increment_offset
2722	2968  0C001071             jal load_patterns
2723	296C  28522820             slti $18, $2, 10272
2724	2970  AFB20000             sw $18, 0($29)
2725	2974  0C00107E             jal increment_offset
2726	2978  0C001071             jal load_patterns
2727	297C  285231BA             slti $18, $2, 12730
2728	2980  AFB20000             sw $18, 0($29)
2729	2984  0C00107E             jal increment_offset
2730	2988  0C001071             jal load_patterns
2731	298C  285235D9             slti $18, $2, 13785
2732	2990  AFB20000             sw $18, 0($29)
2733	2994  0C00107E             jal increment_offset
2734	2998  0C001071             jal load_patterns
2735	299C  28526840             slti $18, $2, 26688
2736	29A0  AFB20000             sw $18, 0($29)
2737	29A4  0C00107E             jal increment_offset
2738	29A8  0C001071             jal load_patterns
2739	29AC  285241A4             slti $18, $2, 16804
2740	29B0  AFB20000             sw $18, 0($29)
2741	29B4  0C00107E             jal increment_offset
2742	29B8  0C001071             jal load_patterns
2743	29BC  285209D8             slti $18, $2, 2520
2744	29C0  AFB20000             sw $18, 0($29)
2745	29C4  0C00107E             jal increment_offset
2746	29C8  0C001071             jal load_patterns
2747	29CC  2852689A             slti $18, $2, 26778
2748	29D0  AFB20000             sw $18, 0($29)
2749	29D4  0C00107E             jal increment_offset
2750	29D8  0C001071             jal load_patterns
2751	29DC  28523D60             slti $18, $2, 15712
2752	29E0  AFB20000             sw $18, 0($29)
2753	29E4  0C00107E             jal increment_offset
2754	29E8  0C001071             jal load_patterns
2755	29EC  28523C13             slti $18, $2, 15379
2756	29F0  AFB20000             sw $18, 0($29)
2757	29F4  0C00107E             jal increment_offset
2758	29F8  0C001071             jal load_patterns
2759	29FC  2852327E             slti $18, $2, 12926
2760	2A00  AFB20000             sw $18, 0($29)
2761	2A04  0C00107E             jal increment_offset
2762	2A08  0C001071             jal load_patterns
2763	2A0C  2852AC2A             slti $18, $2, 44074
2764	2A10  AFB20000             sw $18, 0($29)
2765	2A14  0C00107E             jal increment_offset
2766	2A18  0C001071             jal load_patterns
2767	2A1C  28528AB0             slti $18, $2, 35504
2768	2A20  AFB20000             sw $18, 0($29)
2769	2A24  0C00107E             jal increment_offset
2770	2A28  0C001071             jal load_patterns
2771	2A2C  285267F0             slti $18, $2, 26608
2772	2A30  AFB20000             sw $18, 0($29)
2773	2A34  0C00107E             jal increment_offset
2774	2A38  0C001071             jal load_patterns
2775	2A3C  2852E0BC             slti $18, $2, 57532
2776	2A40  AFB20000             sw $18, 0($29)
2777	2A44  0C00107E             jal increment_offset
2778	2A48  0C001071             jal load_patterns
2779	2A4C  2852F069             slti $18, $2, 61545
2780	2A50  AFB20000             sw $18, 0($29)
2781	2A54  0C00107E             jal increment_offset
2782	2A58  0C001071             jal load_patterns
2783	2A5C  2852A7C4             slti $18, $2, 42948
2784	2A60  AFB20000             sw $18, 0($29)
2785	2A64  0C00107E             jal increment_offset
2786	2A68  0C001071             jal load_patterns
2787	2A6C  2852962D             slti $18, $2, 38445
2788	2A70  AFB20000             sw $18, 0($29)
2789	2A74  0C00107E             jal increment_offset
2790	2A78  0C001071             jal load_patterns
2791	2A7C  28525F66             slti $18, $2, 24422
2792	2A80  AFB20000             sw $18, 0($29)
2793	2A84  0C00107E             jal increment_offset
2794	2A88  0C001071             jal load_patterns
2795	2A8C  28527D0A             slti $18, $2, 32010
2796	2A90  AFB20000             sw $18, 0($29)
2797	2A94  0C00107E             jal increment_offset
2798	2A98  0C001071             jal load_patterns
2799	2A9C  28526877             slti $18, $2, 26743
2800	2AA0  AFB20000             sw $18, 0($29)
2801	2AA4  0C00107E             jal increment_offset
2802	2AA8  0C001071             jal load_patterns
2803	2AAC  28520F02             slti $18, $2, 3842
2804	2AB0  AFB20000             sw $18, 0($29)
2805	2AB4  0C00107E             jal increment_offset
2806	2AB8  0C001071             jal load_patterns
2807	2ABC  2852C9FF             slti $18, $2, 51711
2808	2AC0  AFB20000             sw $18, 0($29)
2809	2AC4  0C00107E             jal increment_offset
2810	2AC8  0C001071             jal load_patterns
2811	2ACC  2852CCC9             slti $18, $2, 52425
2812	2AD0  AFB20000             sw $18, 0($29)
2813	2AD4  0C00107E             jal increment_offset
2814	2AD8  0C001071             jal load_patterns
2815	2ADC  285276A5             slti $18, $2, 30373
2816	2AE0  AFB20000             sw $18, 0($29)
2817	2AE4  0C00107E             jal increment_offset
2818	2AE8  0C001071             jal load_patterns
2819	2AEC  2852481D             slti $18, $2, 18461
2820	2AF0  AFB20000             sw $18, 0($29)
2821	2AF4  0C00107E             jal increment_offset
2822	2AF8  0C001071             jal load_patterns
2823	2AFC  28527869             slti $18, $2, 30825
2824	2B00  AFB20000             sw $18, 0($29)
2825	2B04  0C00107E             jal increment_offset
2826	2B08  0C001071             jal load_patterns
2827	2B0C  2852B7FC             slti $18, $2, 47100
2828	2B10  AFB20000             sw $18, 0($29)
2829	2B14  0C00107E             jal increment_offset
2830	2B18  0C001071             jal load_patterns
2831	2B1C  285222E0             slti $18, $2, 8928
2832	2B20  AFB20000             sw $18, 0($29)
2833	2B24  0C00107E             jal increment_offset
2834	2B28  0C001071             jal load_patterns
2835	2B2C  28524F3B             slti $18, $2, 20283
2836	2B30  AFB20000             sw $18, 0($29)
2837	2B34  0C00107E             jal increment_offset
2838	2B38  0C001071             jal load_patterns
2839	2B3C  285207A7             slti $18, $2, 1959
2840	2B40  AFB20000             sw $18, 0($29)
2841	2B44  0C00107E             jal increment_offset
2842	2B48  0C001071             jal load_patterns
2843	2B4C  2852C18E             slti $18, $2, 49550
2844	2B50  AFB20000             sw $18, 0($29)
2845	2B54  0C00107E             jal increment_offset
2846	2B58  0C001071             jal load_patterns
2847	2B5C  2852EDEF             slti $18, $2, 60911
2848	2B60  AFB20000             sw $18, 0($29)
2849	2B64  0C00107E             jal increment_offset
2850	2B68  0C001071             jal load_patterns
2851	2B6C  2852143C             slti $18, $2, 5180
2852	2B70  AFB20000             sw $18, 0($29)
2853	2B74  0C00107E             jal increment_offset
2854	2B78  0C001071             jal load_patterns
2855	2B7C  28524F69             slti $18, $2, 20329
2856	2B80  AFB20000             sw $18, 0($29)
2857	2B84  0C00107E             jal increment_offset
2858	2B88  0C001071             jal load_patterns
2859	2B8C  285257D7             slti $18, $2, 22487
2860	2B90  AFB20000             sw $18, 0($29)
2861	2B94  0C00107E             jal increment_offset
2862	2B98  0C001071             jal load_patterns
2863	2B9C  2852ED98             slti $18, $2, 60824
2864	2BA0  AFB20000             sw $18, 0($29)
2865	2BA4  0C00107E             jal increment_offset
2866	2BA8  0C001071             jal load_patterns
2867	2BAC  2852E7A5             slti $18, $2, 59301
2868	2BB0  AFB20000             sw $18, 0($29)
2869	2BB4  0C00107E             jal increment_offset
2870	2BB8  0C001071             jal load_patterns
2871	2BBC  28527B4F             slti $18, $2, 31567
2872	2BC0  AFB20000             sw $18, 0($29)
2873	2BC4  0C00107E             jal increment_offset
2874	2BC8  0C001071             jal load_patterns
2875	2BCC  28522E95             slti $18, $2, 11925
2876	2BD0  AFB20000             sw $18, 0($29)
2877	2BD4  0C00107E             jal increment_offset
2878	2BD8  0C001071             jal load_patterns
2879	2BDC  285273CF             slti $18, $2, 29647
2880	2BE0  AFB20000             sw $18, 0($29)
2881	2BE4  0C00107E             jal increment_offset
2882	2BE8  0C001071             jal load_patterns
2883	2BEC  28526E7C             slti $18, $2, 28284
2884	2BF0  AFB20000             sw $18, 0($29)
2885	2BF4  0C00107E             jal increment_offset
2886	2BF8  0C001071             jal load_patterns
2887	2BFC  2852DAE7             slti $18, $2, 56039
2888	2C00  AFB20000             sw $18, 0($29)
2889	2C04  0C00107E             jal increment_offset
2890	2C08  0C001071             jal load_patterns
2891	2C0C  28524CC2             slti $18, $2, 19650
2892	2C10  AFB20000             sw $18, 0($29)
2893	2C14  0C00107E             jal increment_offset
2894	2C18  0C001071             jal load_patterns
2895	2C1C  28524112             slti $18, $2, 16658
2896	2C20  AFB20000             sw $18, 0($29)
2897	2C24  0C00107E             jal increment_offset
2898	2C28  0C001071             jal load_patterns
2899	2C2C  2852CDD5             slti $18, $2, 52693
2900	2C30  AFB20000             sw $18, 0($29)
2901	2C34  0C00107E             jal increment_offset
2902	2C38  0C001071             jal load_patterns
2903	2C3C  28529EA8             slti $18, $2, 40616
2904	2C40  AFB20000             sw $18, 0($29)
2905	2C44  0C00107E             jal increment_offset
2906	2C48  0C001071             jal load_patterns
2907	2C4C  28528FD0             slti $18, $2, 36816
2908	2C50  AFB20000             sw $18, 0($29)
2909	2C54  0C00107E             jal increment_offset
2910	2C58  0C001071             jal load_patterns
2911	2C5C  28523149             slti $18, $2, 12617
2912	2C60  AFB20000             sw $18, 0($29)
2913	2C64  0C00107E             jal increment_offset
2914	2C68  0C001071             jal load_patterns
2915	2C6C  2852B261             slti $18, $2, 45665
2916	2C70  AFB20000             sw $18, 0($29)
2917	2C74  0C00107E             jal increment_offset
2918	2C78  0C001071             jal load_patterns
2919	2C7C  2852E219             slti $18, $2, 57881
2920	2C80  AFB20000             sw $18, 0($29)
2921	2C84  0C00107E             jal increment_offset
2922	2C88  0C001071             jal load_patterns
2923	2C8C  2852A337             slti $18, $2, 41783
2924	2C90  AFB20000             sw $18, 0($29)
2925	2C94  0C00107E             jal increment_offset
2926	2C98  0C001071             jal load_patterns
2927	2C9C  2852B60E             slti $18, $2, 46606
2928	2CA0  AFB20000             sw $18, 0($29)
2929	2CA4  0C00107E             jal increment_offset
2930	2CA8  0C001071             jal load_patterns
2931	2CAC  28527FBD             slti $18, $2, 32701
2932	2CB0  AFB20000             sw $18, 0($29)
2933	2CB4  0C00107E             jal increment_offset
2934	                          
2935	2CB8  0C001074            jal reset_offsets
2936	                          operation_sltiu:
2937	2CBC  0C001071             jal load_patterns
2938	2CC0  28525882             sltiu $18, $2, 22658
2939	2CC4  AFB20000             sw $18, 0($29)
2940	2CC8  0C00107E             jal increment_offset
2941	2CCC  0C001071             jal load_patterns
2942	2CD0  28528ACC             sltiu $18, $2, 35532
2943	2CD4  AFB20000             sw $18, 0($29)
2944	2CD8  0C00107E             jal increment_offset
2945	2CDC  0C001071             jal load_patterns
2946	2CE0  2852B085             sltiu $18, $2, 45189
2947	2CE4  AFB20000             sw $18, 0($29)
2948	2CE8  0C00107E             jal increment_offset
2949	2CEC  0C001071             jal load_patterns
2950	2CF0  2852D17E             sltiu $18, $2, 53630
2951	2CF4  AFB20000             sw $18, 0($29)
2952	2CF8  0C00107E             jal increment_offset
2953	2CFC  0C001071             jal load_patterns
2954	2D00  2852C2E1             sltiu $18, $2, 49889
2955	2D04  AFB20000             sw $18, 0($29)
2956	2D08  0C00107E             jal increment_offset
2957	2D0C  0C001071             jal load_patterns
2958	2D10  2852FC93             sltiu $18, $2, 64659
2959	2D14  AFB20000             sw $18, 0($29)
2960	2D18  0C00107E             jal increment_offset
2961	2D1C  0C001071             jal load_patterns
2962	2D20  2852716A             sltiu $18, $2, 29034
2963	2D24  AFB20000             sw $18, 0($29)
2964	2D28  0C00107E             jal increment_offset
2965	2D2C  0C001071             jal load_patterns
2966	2D30  28520238             sltiu $18, $2, 568
2967	2D34  AFB20000             sw $18, 0($29)
2968	2D38  0C00107E             jal increment_offset
2969	2D3C  0C001071             jal load_patterns
2970	2D40  28522A22             sltiu $18, $2, 10786
2971	2D44  AFB20000             sw $18, 0($29)
2972	2D48  0C00107E             jal increment_offset
2973	2D4C  0C001071             jal load_patterns
2974	2D50  2852C4E8             sltiu $18, $2, 50408
2975	2D54  AFB20000             sw $18, 0($29)
2976	2D58  0C00107E             jal increment_offset
2977	2D5C  0C001071             jal load_patterns
2978	2D60  2852B14E             sltiu $18, $2, 45390
2979	2D64  AFB20000             sw $18, 0($29)
2980	2D68  0C00107E             jal increment_offset
2981	2D6C  0C001071             jal load_patterns
2982	2D70  2852BB05             sltiu $18, $2, 47877
2983	2D74  AFB20000             sw $18, 0($29)
2984	2D78  0C00107E             jal increment_offset
2985	2D7C  0C001071             jal load_patterns
2986	2D80  2852C7E4             sltiu $18, $2, 51172
2987	2D84  AFB20000             sw $18, 0($29)
2988	2D88  0C00107E             jal increment_offset
2989	2D8C  0C001071             jal load_patterns
2990	2D90  28528748             sltiu $18, $2, 34632
2991	2D94  AFB20000             sw $18, 0($29)
2992	2D98  0C00107E             jal increment_offset
2993	2D9C  0C001071             jal load_patterns
2994	2DA0  2852BD11             sltiu $18, $2, 48401
2995	2DA4  AFB20000             sw $18, 0($29)
2996	2DA8  0C00107E             jal increment_offset
2997	2DAC  0C001071             jal load_patterns
2998	2DB0  28525773             sltiu $18, $2, 22387
2999	2DB4  AFB20000             sw $18, 0($29)
3000	2DB8  0C00107E             jal increment_offset
3001	2DBC  0C001071             jal load_patterns
3002	2DC0  28525CE1             sltiu $18, $2, 23777
3003	2DC4  AFB20000             sw $18, 0($29)
3004	2DC8  0C00107E             jal increment_offset
3005	2DCC  0C001071             jal load_patterns
3006	2DD0  2852A2BB             sltiu $18, $2, 41659
3007	2DD4  AFB20000             sw $18, 0($29)
3008	2DD8  0C00107E             jal increment_offset
3009	2DDC  0C001071             jal load_patterns
3010	2DE0  28528A40             sltiu $18, $2, 35392
3011	2DE4  AFB20000             sw $18, 0($29)
3012	2DE8  0C00107E             jal increment_offset
3013	2DEC  0C001071             jal load_patterns
3014	2DF0  2852BECB             sltiu $18, $2, 48843
3015	2DF4  AFB20000             sw $18, 0($29)
3016	2DF8  0C00107E             jal increment_offset
3017	2DFC  0C001071             jal load_patterns
3018	2E00  2852295F             sltiu $18, $2, 10591
3019	2E04  AFB20000             sw $18, 0($29)
3020	2E08  0C00107E             jal increment_offset
3021	2E0C  0C001071             jal load_patterns
3022	2E10  2852E5EC             sltiu $18, $2, 58860
3023	2E14  AFB20000             sw $18, 0($29)
3024	2E18  0C00107E             jal increment_offset
3025	2E1C  0C001071             jal load_patterns
3026	2E20  2852AF25             sltiu $18, $2, 44837
3027	2E24  AFB20000             sw $18, 0($29)
3028	2E28  0C00107E             jal increment_offset
3029	2E2C  0C001071             jal load_patterns
3030	2E30  285231D0             sltiu $18, $2, 12752
3031	2E34  AFB20000             sw $18, 0($29)
3032	2E38  0C00107E             jal increment_offset
3033	2E3C  0C001071             jal load_patterns
3034	2E40  2852496F             sltiu $18, $2, 18799
3035	2E44  AFB20000             sw $18, 0($29)
3036	2E48  0C00107E             jal increment_offset
3037	2E4C  0C001071             jal load_patterns
3038	2E50  28525592             sltiu $18, $2, 21906
3039	2E54  AFB20000             sw $18, 0($29)
3040	2E58  0C00107E             jal increment_offset
3041	2E5C  0C001071             jal load_patterns
3042	2E60  28521900             sltiu $18, $2, 6400
3043	2E64  AFB20000             sw $18, 0($29)
3044	2E68  0C00107E             jal increment_offset
3045	2E6C  0C001071             jal load_patterns
3046	2E70  285226DA             sltiu $18, $2, 9946
3047	2E74  AFB20000             sw $18, 0($29)
3048	2E78  0C00107E             jal increment_offset
3049	2E7C  0C001071             jal load_patterns
3050	2E80  2852408A             sltiu $18, $2, 16522
3051	2E84  AFB20000             sw $18, 0($29)
3052	2E88  0C00107E             jal increment_offset
3053	2E8C  0C001071             jal load_patterns
3054	2E90  2852297E             sltiu $18, $2, 10622
3055	2E94  AFB20000             sw $18, 0($29)
3056	2E98  0C00107E             jal increment_offset
3057	2E9C  0C001071             jal load_patterns
3058	2EA0  28522961             sltiu $18, $2, 10593
3059	2EA4  AFB20000             sw $18, 0($29)
3060	2EA8  0C00107E             jal increment_offset
3061	2EAC  0C001071             jal load_patterns
3062	2EB0  2852E80E             sltiu $18, $2, 59406
3063	2EB4  AFB20000             sw $18, 0($29)
3064	2EB8  0C00107E             jal increment_offset
3065	2EBC  0C001071             jal load_patterns
3066	2EC0  2852B202             sltiu $18, $2, 45570
3067	2EC4  AFB20000             sw $18, 0($29)
3068	2EC8  0C00107E             jal increment_offset
3069	2ECC  0C001071             jal load_patterns
3070	2ED0  28523388             sltiu $18, $2, 13192
3071	2ED4  AFB20000             sw $18, 0($29)
3072	2ED8  0C00107E             jal increment_offset
3073	2EDC  0C001071             jal load_patterns
3074	2EE0  285208DC             sltiu $18, $2, 2268
3075	2EE4  AFB20000             sw $18, 0($29)
3076	2EE8  0C00107E             jal increment_offset
3077	2EEC  0C001071             jal load_patterns
3078	2EF0  2852363B             sltiu $18, $2, 13883
3079	2EF4  AFB20000             sw $18, 0($29)
3080	2EF8  0C00107E             jal increment_offset
3081	2EFC  0C001071             jal load_patterns
3082	2F00  2852CFF9             sltiu $18, $2, 53241
3083	2F04  AFB20000             sw $18, 0($29)
3084	2F08  0C00107E             jal increment_offset
3085	2F0C  0C001071             jal load_patterns
3086	2F10  28524B2C             sltiu $18, $2, 19244
3087	2F14  AFB20000             sw $18, 0($29)
3088	2F18  0C00107E             jal increment_offset
3089	2F1C  0C001071             jal load_patterns
3090	2F20  2852BE61             sltiu $18, $2, 48737
3091	2F24  AFB20000             sw $18, 0($29)
3092	2F28  0C00107E             jal increment_offset
3093	2F2C  0C001071             jal load_patterns
3094	2F30  285209C4             sltiu $18, $2, 2500
3095	2F34  AFB20000             sw $18, 0($29)
3096	2F38  0C00107E             jal increment_offset
3097	2F3C  0C001071             jal load_patterns
3098	2F40  285297A3             sltiu $18, $2, 38819
3099	2F44  AFB20000             sw $18, 0($29)
3100	2F48  0C00107E             jal increment_offset
3101	2F4C  0C001071             jal load_patterns
3102	2F50  2852718A             sltiu $18, $2, 29066
3103	2F54  AFB20000             sw $18, 0($29)
3104	2F58  0C00107E             jal increment_offset
3105	2F5C  0C001071             jal load_patterns
3106	2F60  2852E80D             sltiu $18, $2, 59405
3107	2F64  AFB20000             sw $18, 0($29)
3108	2F68  0C00107E             jal increment_offset
3109	2F6C  0C001071             jal load_patterns
3110	2F70  2852514B             sltiu $18, $2, 20811
3111	2F74  AFB20000             sw $18, 0($29)
3112	2F78  0C00107E             jal increment_offset
3113	2F7C  0C001071             jal load_patterns
3114	2F80  2852A44B             sltiu $18, $2, 42059
3115	2F84  AFB20000             sw $18, 0($29)
3116	2F88  0C00107E             jal increment_offset
3117	2F8C  0C001071             jal load_patterns
3118	2F90  2852E758             sltiu $18, $2, 59224
3119	2F94  AFB20000             sw $18, 0($29)
3120	2F98  0C00107E             jal increment_offset
3121	2F9C  0C001071             jal load_patterns
3122	2FA0  28520FB8             sltiu $18, $2, 4024
3123	2FA4  AFB20000             sw $18, 0($29)
3124	2FA8  0C00107E             jal increment_offset
3125	2FAC  0C001071             jal load_patterns
3126	2FB0  28525C1B             sltiu $18, $2, 23579
3127	2FB4  AFB20000             sw $18, 0($29)
3128	2FB8  0C00107E             jal increment_offset
3129	2FBC  0C001071             jal load_patterns
3130	2FC0  28524474             sltiu $18, $2, 17524
3131	2FC4  AFB20000             sw $18, 0($29)
3132	2FC8  0C00107E             jal increment_offset
3133	2FCC  0C001071             jal load_patterns
3134	2FD0  2852EF1E             sltiu $18, $2, 61214
3135	2FD4  AFB20000             sw $18, 0($29)
3136	2FD8  0C00107E             jal increment_offset
3137	2FDC  0C001071             jal load_patterns
3138	2FE0  28523BC4             sltiu $18, $2, 15300
3139	2FE4  AFB20000             sw $18, 0($29)
3140	2FE8  0C00107E             jal increment_offset
3141	2FEC  0C001071             jal load_patterns
3142	2FF0  2852FD41             sltiu $18, $2, 64833
3143	2FF4  AFB20000             sw $18, 0($29)
3144	2FF8  0C00107E             jal increment_offset
3145	2FFC  0C001071             jal load_patterns
3146	3000  2852D65A             sltiu $18, $2, 54874
3147	3004  AFB20000             sw $18, 0($29)
3148	3008  0C00107E             jal increment_offset
3149	300C  0C001071             jal load_patterns
3150	3010  28520487             sltiu $18, $2, 1159
3151	3014  AFB20000             sw $18, 0($29)
3152	3018  0C00107E             jal increment_offset
3153	301C  0C001071             jal load_patterns
3154	3020  2852EF65             sltiu $18, $2, 61285
3155	3024  AFB20000             sw $18, 0($29)
3156	3028  0C00107E             jal increment_offset
3157	302C  0C001071             jal load_patterns
3158	3030  2852F2C3             sltiu $18, $2, 62147
3159	3034  AFB20000             sw $18, 0($29)
3160	3038  0C00107E             jal increment_offset
3161	303C  0C001071             jal load_patterns
3162	3040  28526076             sltiu $18, $2, 24694
3163	3044  AFB20000             sw $18, 0($29)
3164	3048  0C00107E             jal increment_offset
3165	304C  0C001071             jal load_patterns
3166	3050  2852214A             sltiu $18, $2, 8522
3167	3054  AFB20000             sw $18, 0($29)
3168	3058  0C00107E             jal increment_offset
3169	305C  0C001071             jal load_patterns
3170	3060  285268D6             sltiu $18, $2, 26838
3171	3064  AFB20000             sw $18, 0($29)
3172	3068  0C00107E             jal increment_offset
3173	306C  0C001071             jal load_patterns
3174	3070  2852E735             sltiu $18, $2, 59189
3175	3074  AFB20000             sw $18, 0($29)
3176	3078  0C00107E             jal increment_offset
3177	307C  0C001071             jal load_patterns
3178	3080  2852F756             sltiu $18, $2, 63318
3179	3084  AFB20000             sw $18, 0($29)
3180	3088  0C00107E             jal increment_offset
3181	308C  0C001071             jal load_patterns
3182	3090  2852E52D             sltiu $18, $2, 58669
3183	3094  AFB20000             sw $18, 0($29)
3184	3098  0C00107E             jal increment_offset
3185	309C  0C001071             jal load_patterns
3186	30A0  28522369             sltiu $18, $2, 9065
3187	30A4  AFB20000             sw $18, 0($29)
3188	30A8  0C00107E             jal increment_offset
3189	30AC  0C001071             jal load_patterns
3190	30B0  2852DD91             sltiu $18, $2, 56721
3191	30B4  AFB20000             sw $18, 0($29)
3192	30B8  0C00107E             jal increment_offset
3193	30BC  0C001071             jal load_patterns
3194	30C0  2852D796             sltiu $18, $2, 55190
3195	30C4  AFB20000             sw $18, 0($29)
3196	30C8  0C00107E             jal increment_offset
3197	30CC  0C001071             jal load_patterns
3198	30D0  2852243B             sltiu $18, $2, 9275
3199	30D4  AFB20000             sw $18, 0($29)
3200	30D8  0C00107E             jal increment_offset
3201	30DC  0C001071             jal load_patterns
3202	30E0  2852EE83             sltiu $18, $2, 61059
3203	30E4  AFB20000             sw $18, 0($29)
3204	30E8  0C00107E             jal increment_offset
3205	30EC  0C001071             jal load_patterns
3206	30F0  28522678             sltiu $18, $2, 9848
3207	30F4  AFB20000             sw $18, 0($29)
3208	30F8  0C00107E             jal increment_offset
3209	30FC  0C001071             jal load_patterns
3210	3100  2852F1A4             sltiu $18, $2, 61860
3211	3104  AFB20000             sw $18, 0($29)
3212	3108  0C00107E             jal increment_offset
3213	310C  0C001071             jal load_patterns
3214	3110  28520C78             sltiu $18, $2, 3192
3215	3114  AFB20000             sw $18, 0($29)
3216	3118  0C00107E             jal increment_offset
3217	311C  0C001071             jal load_patterns
3218	3120  285216A0             sltiu $18, $2, 5792
3219	3124  AFB20000             sw $18, 0($29)
3220	3128  0C00107E             jal increment_offset
3221	312C  0C001071             jal load_patterns
3222	3130  285247AE             sltiu $18, $2, 18350
3223	3134  AFB20000             sw $18, 0($29)
3224	3138  0C00107E             jal increment_offset
3225	313C  0C001071             jal load_patterns
3226	3140  28527FCF             sltiu $18, $2, 32719
3227	3144  AFB20000             sw $18, 0($29)
3228	3148  0C00107E             jal increment_offset
3229	314C  0C001071             jal load_patterns
3230	3150  2852B2CA             sltiu $18, $2, 45770
3231	3154  AFB20000             sw $18, 0($29)
3232	3158  0C00107E             jal increment_offset
3233	315C  0C001071             jal load_patterns
3234	3160  2852D7C2             sltiu $18, $2, 55234
3235	3164  AFB20000             sw $18, 0($29)
3236	3168  0C00107E             jal increment_offset
3237	316C  0C001071             jal load_patterns
3238	3170  2852AB79             sltiu $18, $2, 43897
3239	3174  AFB20000             sw $18, 0($29)
3240	3178  0C00107E             jal increment_offset
3241	317C  0C001071             jal load_patterns
3242	3180  28521694             sltiu $18, $2, 5780
3243	3184  AFB20000             sw $18, 0($29)
3244	3188  0C00107E             jal increment_offset
3245	318C  0C001071             jal load_patterns
3246	3190  28522705             sltiu $18, $2, 9989
3247	3194  AFB20000             sw $18, 0($29)
3248	3198  0C00107E             jal increment_offset
3249	319C  0C001071             jal load_patterns
3250	31A0  28525A79             sltiu $18, $2, 23161
3251	31A4  AFB20000             sw $18, 0($29)
3252	31A8  0C00107E             jal increment_offset
3253	31AC  0C001071             jal load_patterns
3254	31B0  28520CA2             sltiu $18, $2, 3234
3255	31B4  AFB20000             sw $18, 0($29)
3256	31B8  0C00107E             jal increment_offset
3257	31BC  0C001071             jal load_patterns
3258	31C0  28525B63             sltiu $18, $2, 23395
3259	31C4  AFB20000             sw $18, 0($29)
3260	31C8  0C00107E             jal increment_offset
3261	31CC  0C001071             jal load_patterns
3262	31D0  28521960             sltiu $18, $2, 6496
3263	31D4  AFB20000             sw $18, 0($29)
3264	31D8  0C00107E             jal increment_offset
3265	31DC  0C001071             jal load_patterns
3266	31E0  285242B3             sltiu $18, $2, 17075
3267	31E4  AFB20000             sw $18, 0($29)
3268	31E8  0C00107E             jal increment_offset
3269	31EC  0C001071             jal load_patterns
3270	31F0  285209AE             sltiu $18, $2, 2478
3271	31F4  AFB20000             sw $18, 0($29)
3272	31F8  0C00107E             jal increment_offset
3273	31FC  0C001071             jal load_patterns
3274	3200  28520AD1             sltiu $18, $2, 2769
3275	3204  AFB20000             sw $18, 0($29)
3276	3208  0C00107E             jal increment_offset
3277	320C  0C001071             jal load_patterns
3278	3210  2852862C             sltiu $18, $2, 34348
3279	3214  AFB20000             sw $18, 0($29)
3280	3218  0C00107E             jal increment_offset
3281	321C  0C001071             jal load_patterns
3282	3220  2852BC7A             sltiu $18, $2, 48250
3283	3224  AFB20000             sw $18, 0($29)
3284	3228  0C00107E             jal increment_offset
3285	322C  0C001071             jal load_patterns
3286	3230  28520A38             sltiu $18, $2, 2616
3287	3234  AFB20000             sw $18, 0($29)
3288	3238  0C00107E             jal increment_offset
3289	323C  0C001071             jal load_patterns
3290	3240  28526C0C             sltiu $18, $2, 27660
3291	3244  AFB20000             sw $18, 0($29)
3292	3248  0C00107E             jal increment_offset
3293	324C  0C001071             jal load_patterns
3294	3250  28523752             sltiu $18, $2, 14162
3295	3254  AFB20000             sw $18, 0($29)
3296	3258  0C00107E             jal increment_offset
3297	325C  0C001071             jal load_patterns
3298	3260  28520B96             sltiu $18, $2, 2966
3299	3264  AFB20000             sw $18, 0($29)
3300	3268  0C00107E             jal increment_offset
3301	326C  0C001071             jal load_patterns
3302	3270  2852FF35             sltiu $18, $2, 65333
3303	3274  AFB20000             sw $18, 0($29)
3304	3278  0C00107E             jal increment_offset
3305	327C  0C001071             jal load_patterns
3306	3280  2852C583             sltiu $18, $2, 50563
3307	3284  AFB20000             sw $18, 0($29)
3308	3288  0C00107E             jal increment_offset
3309	328C  0C001071             jal load_patterns
3310	3290  28528FC7             sltiu $18, $2, 36807
3311	3294  AFB20000             sw $18, 0($29)
3312	3298  0C00107E             jal increment_offset
3313	329C  0C001071             jal load_patterns
3314	32A0  2852AF83             sltiu $18, $2, 44931
3315	32A4  AFB20000             sw $18, 0($29)
3316	32A8  0C00107E             jal increment_offset
3317	32AC  0C001071             jal load_patterns
3318	32B0  28520979             sltiu $18, $2, 2425
3319	32B4  AFB20000             sw $18, 0($29)
3320	32B8  0C00107E             jal increment_offset
3321	32BC  0C001071             jal load_patterns
3322	32C0  285283DF             sltiu $18, $2, 33759
3323	32C4  AFB20000             sw $18, 0($29)
3324	32C8  0C00107E             jal increment_offset
3325	32CC  0C001071             jal load_patterns
3326	32D0  285220AB             sltiu $18, $2, 8363
3327	32D4  AFB20000             sw $18, 0($29)
3328	32D8  0C00107E             jal increment_offset
3329	32DC  0C001071             jal load_patterns
3330	32E0  285241D2             sltiu $18, $2, 16850
3331	32E4  AFB20000             sw $18, 0($29)
3332	32E8  0C00107E             jal increment_offset
3333	32EC  0C001071             jal load_patterns
3334	32F0  2852136F             sltiu $18, $2, 4975
3335	32F4  AFB20000             sw $18, 0($29)
3336	32F8  0C00107E             jal increment_offset
3337	32FC  0C001071             jal load_patterns
3338	3300  2852C45C             sltiu $18, $2, 50268
3339	3304  AFB20000             sw $18, 0($29)
3340	3308  0C00107E             jal increment_offset
3341	330C  0C001071             jal load_patterns
3342	3310  2852F089             sltiu $18, $2, 61577
3343	3314  AFB20000             sw $18, 0($29)
3344	3318  0C00107E             jal increment_offset
3345	331C  0C001071             jal load_patterns
3346	3320  285221EF             sltiu $18, $2, 8687
3347	3324  AFB20000             sw $18, 0($29)
3348	3328  0C00107E             jal increment_offset
3349	332C  0C001071             jal load_patterns
3350	3330  285289F7             sltiu $18, $2, 35319
3351	3334  AFB20000             sw $18, 0($29)
3352	3338  0C00107E             jal increment_offset
3353	333C  0C001071             jal load_patterns
3354	3340  2852E4A8             sltiu $18, $2, 58536
3355	3344  AFB20000             sw $18, 0($29)
3356	3348  0C00107E             jal increment_offset
3357	334C  0C001071             jal load_patterns
3358	3350  285204C3             sltiu $18, $2, 1219
3359	3354  AFB20000             sw $18, 0($29)
3360	3358  0C00107E             jal increment_offset
3361	335C  0C001071             jal load_patterns
3362	3360  2852F64F             sltiu $18, $2, 63055
3363	3364  AFB20000             sw $18, 0($29)
3364	3368  0C00107E             jal increment_offset
3365	336C  0C001071             jal load_patterns
3366	3370  2852BF22             sltiu $18, $2, 48930
3367	3374  AFB20000             sw $18, 0($29)
3368	3378  0C00107E             jal increment_offset
3369	337C  0C001071             jal load_patterns
3370	3380  28520E40             sltiu $18, $2, 3648
3371	3384  AFB20000             sw $18, 0($29)
3372	3388  0C00107E             jal increment_offset
3373	338C  0C001071             jal load_patterns
3374	3390  2852FC4C             sltiu $18, $2, 64588
3375	3394  AFB20000             sw $18, 0($29)
3376	3398  0C00107E             jal increment_offset
3377	339C  0C001071             jal load_patterns
3378	33A0  2852DFD6             sltiu $18, $2, 57302
3379	33A4  AFB20000             sw $18, 0($29)
3380	33A8  0C00107E             jal increment_offset
3381	33AC  0C001071             jal load_patterns
3382	33B0  285213F3             sltiu $18, $2, 5107
3383	33B4  AFB20000             sw $18, 0($29)
3384	33B8  0C00107E             jal increment_offset
3385	33BC  0C001071             jal load_patterns
3386	33C0  2852178C             sltiu $18, $2, 6028
3387	33C4  AFB20000             sw $18, 0($29)
3388	33C8  0C00107E             jal increment_offset
3389	33CC  0C001071             jal load_patterns
3390	33D0  28522820             sltiu $18, $2, 10272
3391	33D4  AFB20000             sw $18, 0($29)
3392	33D8  0C00107E             jal increment_offset
3393	33DC  0C001071             jal load_patterns
3394	33E0  285231BA             sltiu $18, $2, 12730
3395	33E4  AFB20000             sw $18, 0($29)
3396	33E8  0C00107E             jal increment_offset
3397	33EC  0C001071             jal load_patterns
3398	33F0  285235D9             sltiu $18, $2, 13785
3399	33F4  AFB20000             sw $18, 0($29)
3400	33F8  0C00107E             jal increment_offset
3401	33FC  0C001071             jal load_patterns
3402	3400  28526840             sltiu $18, $2, 26688
3403	3404  AFB20000             sw $18, 0($29)
3404	3408  0C00107E             jal increment_offset
3405	340C  0C001071             jal load_patterns
3406	3410  285241A4             sltiu $18, $2, 16804
3407	3414  AFB20000             sw $18, 0($29)
3408	3418  0C00107E             jal increment_offset
3409	341C  0C001071             jal load_patterns
3410	3420  285209D8             sltiu $18, $2, 2520
3411	3424  AFB20000             sw $18, 0($29)
3412	3428  0C00107E             jal increment_offset
3413	342C  0C001071             jal load_patterns
3414	3430  2852689A             sltiu $18, $2, 26778
3415	3434  AFB20000             sw $18, 0($29)
3416	3438  0C00107E             jal increment_offset
3417	343C  0C001071             jal load_patterns
3418	3440  28523D60             sltiu $18, $2, 15712
3419	3444  AFB20000             sw $18, 0($29)
3420	3448  0C00107E             jal increment_offset
3421	344C  0C001071             jal load_patterns
3422	3450  28523C13             sltiu $18, $2, 15379
3423	3454  AFB20000             sw $18, 0($29)
3424	3458  0C00107E             jal increment_offset
3425	345C  0C001071             jal load_patterns
3426	3460  2852327E             sltiu $18, $2, 12926
3427	3464  AFB20000             sw $18, 0($29)
3428	3468  0C00107E             jal increment_offset
3429	346C  0C001071             jal load_patterns
3430	3470  2852AC2A             sltiu $18, $2, 44074
3431	3474  AFB20000             sw $18, 0($29)
3432	3478  0C00107E             jal increment_offset
3433	347C  0C001071             jal load_patterns
3434	3480  28528AB0             sltiu $18, $2, 35504
3435	3484  AFB20000             sw $18, 0($29)
3436	3488  0C00107E             jal increment_offset
3437	348C  0C001071             jal load_patterns
3438	3490  285267F0             sltiu $18, $2, 26608
3439	3494  AFB20000             sw $18, 0($29)
3440	3498  0C00107E             jal increment_offset
3441	349C  0C001071             jal load_patterns
3442	34A0  2852E0BC             sltiu $18, $2, 57532
3443	34A4  AFB20000             sw $18, 0($29)
3444	34A8  0C00107E             jal increment_offset
3445	34AC  0C001071             jal load_patterns
3446	34B0  2852F069             sltiu $18, $2, 61545
3447	34B4  AFB20000             sw $18, 0($29)
3448	34B8  0C00107E             jal increment_offset
3449	34BC  0C001071             jal load_patterns
3450	34C0  2852A7C4             sltiu $18, $2, 42948
3451	34C4  AFB20000             sw $18, 0($29)
3452	34C8  0C00107E             jal increment_offset
3453	34CC  0C001071             jal load_patterns
3454	34D0  2852962D             sltiu $18, $2, 38445
3455	34D4  AFB20000             sw $18, 0($29)
3456	34D8  0C00107E             jal increment_offset
3457	34DC  0C001071             jal load_patterns
3458	34E0  28525F66             sltiu $18, $2, 24422
3459	34E4  AFB20000             sw $18, 0($29)
3460	34E8  0C00107E             jal increment_offset
3461	34EC  0C001071             jal load_patterns
3462	34F0  28527D0A             sltiu $18, $2, 32010
3463	34F4  AFB20000             sw $18, 0($29)
3464	34F8  0C00107E             jal increment_offset
3465	34FC  0C001071             jal load_patterns
3466	3500  28526877             sltiu $18, $2, 26743
3467	3504  AFB20000             sw $18, 0($29)
3468	3508  0C00107E             jal increment_offset
3469	350C  0C001071             jal load_patterns
3470	3510  28520F02             sltiu $18, $2, 3842
3471	3514  AFB20000             sw $18, 0($29)
3472	3518  0C00107E             jal increment_offset
3473	351C  0C001071             jal load_patterns
3474	3520  2852C9FF             sltiu $18, $2, 51711
3475	3524  AFB20000             sw $18, 0($29)
3476	3528  0C00107E             jal increment_offset
3477	352C  0C001071             jal load_patterns
3478	3530  2852CCC9             sltiu $18, $2, 52425
3479	3534  AFB20000             sw $18, 0($29)
3480	3538  0C00107E             jal increment_offset
3481	353C  0C001071             jal load_patterns
3482	3540  285276A5             sltiu $18, $2, 30373
3483	3544  AFB20000             sw $18, 0($29)
3484	3548  0C00107E             jal increment_offset
3485	354C  0C001071             jal load_patterns
3486	3550  2852481D             sltiu $18, $2, 18461
3487	3554  AFB20000             sw $18, 0($29)
3488	3558  0C00107E             jal increment_offset
3489	355C  0C001071             jal load_patterns
3490	3560  28527869             sltiu $18, $2, 30825
3491	3564  AFB20000             sw $18, 0($29)
3492	3568  0C00107E             jal increment_offset
3493	356C  0C001071             jal load_patterns
3494	3570  2852B7FC             sltiu $18, $2, 47100
3495	3574  AFB20000             sw $18, 0($29)
3496	3578  0C00107E             jal increment_offset
3497	357C  0C001071             jal load_patterns
3498	3580  285222E0             sltiu $18, $2, 8928
3499	3584  AFB20000             sw $18, 0($29)
3500	3588  0C00107E             jal increment_offset
3501	358C  0C001071             jal load_patterns
3502	3590  28524F3B             sltiu $18, $2, 20283
3503	3594  AFB20000             sw $18, 0($29)
3504	3598  0C00107E             jal increment_offset
3505	359C  0C001071             jal load_patterns
3506	35A0  285207A7             sltiu $18, $2, 1959
3507	35A4  AFB20000             sw $18, 0($29)
3508	35A8  0C00107E             jal increment_offset
3509	35AC  0C001071             jal load_patterns
3510	35B0  2852C18E             sltiu $18, $2, 49550
3511	35B4  AFB20000             sw $18, 0($29)
3512	35B8  0C00107E             jal increment_offset
3513	35BC  0C001071             jal load_patterns
3514	35C0  2852EDEF             sltiu $18, $2, 60911
3515	35C4  AFB20000             sw $18, 0($29)
3516	35C8  0C00107E             jal increment_offset
3517	35CC  0C001071             jal load_patterns
3518	35D0  2852143C             sltiu $18, $2, 5180
3519	35D4  AFB20000             sw $18, 0($29)
3520	35D8  0C00107E             jal increment_offset
3521	35DC  0C001071             jal load_patterns
3522	35E0  28524F69             sltiu $18, $2, 20329
3523	35E4  AFB20000             sw $18, 0($29)
3524	35E8  0C00107E             jal increment_offset
3525	35EC  0C001071             jal load_patterns
3526	35F0  285257D7             sltiu $18, $2, 22487
3527	35F4  AFB20000             sw $18, 0($29)
3528	35F8  0C00107E             jal increment_offset
3529	35FC  0C001071             jal load_patterns
3530	3600  2852ED98             sltiu $18, $2, 60824
3531	3604  AFB20000             sw $18, 0($29)
3532	3608  0C00107E             jal increment_offset
3533	360C  0C001071             jal load_patterns
3534	3610  2852E7A5             sltiu $18, $2, 59301
3535	3614  AFB20000             sw $18, 0($29)
3536	3618  0C00107E             jal increment_offset
3537	361C  0C001071             jal load_patterns
3538	3620  28527B4F             sltiu $18, $2, 31567
3539	3624  AFB20000             sw $18, 0($29)
3540	3628  0C00107E             jal increment_offset
3541	362C  0C001071             jal load_patterns
3542	3630  28522E95             sltiu $18, $2, 11925
3543	3634  AFB20000             sw $18, 0($29)
3544	3638  0C00107E             jal increment_offset
3545	363C  0C001071             jal load_patterns
3546	3640  285273CF             sltiu $18, $2, 29647
3547	3644  AFB20000             sw $18, 0($29)
3548	3648  0C00107E             jal increment_offset
3549	364C  0C001071             jal load_patterns
3550	3650  28526E7C             sltiu $18, $2, 28284
3551	3654  AFB20000             sw $18, 0($29)
3552	3658  0C00107E             jal increment_offset
3553	365C  0C001071             jal load_patterns
3554	3660  2852DAE7             sltiu $18, $2, 56039
3555	3664  AFB20000             sw $18, 0($29)
3556	3668  0C00107E             jal increment_offset
3557	366C  0C001071             jal load_patterns
3558	3670  28524CC2             sltiu $18, $2, 19650
3559	3674  AFB20000             sw $18, 0($29)
3560	3678  0C00107E             jal increment_offset
3561	367C  0C001071             jal load_patterns
3562	3680  28524112             sltiu $18, $2, 16658
3563	3684  AFB20000             sw $18, 0($29)
3564	3688  0C00107E             jal increment_offset
3565	368C  0C001071             jal load_patterns
3566	3690  2852CDD5             sltiu $18, $2, 52693
3567	3694  AFB20000             sw $18, 0($29)
3568	3698  0C00107E             jal increment_offset
3569	369C  0C001071             jal load_patterns
3570	36A0  28529EA8             sltiu $18, $2, 40616
3571	36A4  AFB20000             sw $18, 0($29)
3572	36A8  0C00107E             jal increment_offset
3573	36AC  0C001071             jal load_patterns
3574	36B0  28528FD0             sltiu $18, $2, 36816
3575	36B4  AFB20000             sw $18, 0($29)
3576	36B8  0C00107E             jal increment_offset
3577	36BC  0C001071             jal load_patterns
3578	36C0  28523149             sltiu $18, $2, 12617
3579	36C4  AFB20000             sw $18, 0($29)
3580	36C8  0C00107E             jal increment_offset
3581	36CC  0C001071             jal load_patterns
3582	36D0  2852B261             sltiu $18, $2, 45665
3583	36D4  AFB20000             sw $18, 0($29)
3584	36D8  0C00107E             jal increment_offset
3585	36DC  0C001071             jal load_patterns
3586	36E0  2852E219             sltiu $18, $2, 57881
3587	36E4  AFB20000             sw $18, 0($29)
3588	36E8  0C00107E             jal increment_offset
3589	36EC  0C001071             jal load_patterns
3590	36F0  2852A337             sltiu $18, $2, 41783
3591	36F4  AFB20000             sw $18, 0($29)
3592	36F8  0C00107E             jal increment_offset
3593	36FC  0C001071             jal load_patterns
3594	3700  2852B60E             sltiu $18, $2, 46606
3595	3704  AFB20000             sw $18, 0($29)
3596	3708  0C00107E             jal increment_offset
3597	370C  0C001071             jal load_patterns
3598	3710  28527FBD             sltiu $18, $2, 32701
3599	3714  AFB20000             sw $18, 0($29)
3600	3718  0C00107E             jal increment_offset
3601	                          
3602	371C  0C001074            jal reset_offsets
3603	                          operation_xori:
3604	3720  0C001071             jal load_patterns
3605	3724  38525882             xori $18, $2, 22658
3606	3728  AFB20000             sw $18, 0($29)
3607	372C  0C00107E             jal increment_offset
3608	3730  0C001071             jal load_patterns
3609	3734  38528ACC             xori $18, $2, 35532
3610	3738  AFB20000             sw $18, 0($29)
3611	373C  0C00107E             jal increment_offset
3612	3740  0C001071             jal load_patterns
3613	3744  3852B085             xori $18, $2, 45189
3614	3748  AFB20000             sw $18, 0($29)
3615	374C  0C00107E             jal increment_offset
3616	3750  0C001071             jal load_patterns
3617	3754  3852D17E             xori $18, $2, 53630
3618	3758  AFB20000             sw $18, 0($29)
3619	375C  0C00107E             jal increment_offset
3620	3760  0C001071             jal load_patterns
3621	3764  3852C2E1             xori $18, $2, 49889
3622	3768  AFB20000             sw $18, 0($29)
3623	376C  0C00107E             jal increment_offset
3624	3770  0C001071             jal load_patterns
3625	3774  3852FC93             xori $18, $2, 64659
3626	3778  AFB20000             sw $18, 0($29)
3627	377C  0C00107E             jal increment_offset
3628	3780  0C001071             jal load_patterns
3629	3784  3852716A             xori $18, $2, 29034
3630	3788  AFB20000             sw $18, 0($29)
3631	378C  0C00107E             jal increment_offset
3632	3790  0C001071             jal load_patterns
3633	3794  38520238             xori $18, $2, 568
3634	3798  AFB20000             sw $18, 0($29)
3635	379C  0C00107E             jal increment_offset
3636	37A0  0C001071             jal load_patterns
3637	37A4  38522A22             xori $18, $2, 10786
3638	37A8  AFB20000             sw $18, 0($29)
3639	37AC  0C00107E             jal increment_offset
3640	37B0  0C001071             jal load_patterns
3641	37B4  3852C4E8             xori $18, $2, 50408
3642	37B8  AFB20000             sw $18, 0($29)
3643	37BC  0C00107E             jal increment_offset
3644	37C0  0C001071             jal load_patterns
3645	37C4  3852B14E             xori $18, $2, 45390
3646	37C8  AFB20000             sw $18, 0($29)
3647	37CC  0C00107E             jal increment_offset
3648	37D0  0C001071             jal load_patterns
3649	37D4  3852BB05             xori $18, $2, 47877
3650	37D8  AFB20000             sw $18, 0($29)
3651	37DC  0C00107E             jal increment_offset
3652	37E0  0C001071             jal load_patterns
3653	37E4  3852C7E4             xori $18, $2, 51172
3654	37E8  AFB20000             sw $18, 0($29)
3655	37EC  0C00107E             jal increment_offset
3656	37F0  0C001071             jal load_patterns
3657	37F4  38528748             xori $18, $2, 34632
3658	37F8  AFB20000             sw $18, 0($29)
3659	37FC  0C00107E             jal increment_offset
3660	3800  0C001071             jal load_patterns
3661	3804  3852BD11             xori $18, $2, 48401
3662	3808  AFB20000             sw $18, 0($29)
3663	380C  0C00107E             jal increment_offset
3664	3810  0C001071             jal load_patterns
3665	3814  38525773             xori $18, $2, 22387
3666	3818  AFB20000             sw $18, 0($29)
3667	381C  0C00107E             jal increment_offset
3668	3820  0C001071             jal load_patterns
3669	3824  38525CE1             xori $18, $2, 23777
3670	3828  AFB20000             sw $18, 0($29)
3671	382C  0C00107E             jal increment_offset
3672	3830  0C001071             jal load_patterns
3673	3834  3852A2BB             xori $18, $2, 41659
3674	3838  AFB20000             sw $18, 0($29)
3675	383C  0C00107E             jal increment_offset
3676	3840  0C001071             jal load_patterns
3677	3844  38528A40             xori $18, $2, 35392
3678	3848  AFB20000             sw $18, 0($29)
3679	384C  0C00107E             jal increment_offset
3680	3850  0C001071             jal load_patterns
3681	3854  3852BECB             xori $18, $2, 48843
3682	3858  AFB20000             sw $18, 0($29)
3683	385C  0C00107E             jal increment_offset
3684	3860  0C001071             jal load_patterns
3685	3864  3852295F             xori $18, $2, 10591
3686	3868  AFB20000             sw $18, 0($29)
3687	386C  0C00107E             jal increment_offset
3688	3870  0C001071             jal load_patterns
3689	3874  3852E5EC             xori $18, $2, 58860
3690	3878  AFB20000             sw $18, 0($29)
3691	387C  0C00107E             jal increment_offset
3692	3880  0C001071             jal load_patterns
3693	3884  3852AF25             xori $18, $2, 44837
3694	3888  AFB20000             sw $18, 0($29)
3695	388C  0C00107E             jal increment_offset
3696	3890  0C001071             jal load_patterns
3697	3894  385231D0             xori $18, $2, 12752
3698	3898  AFB20000             sw $18, 0($29)
3699	389C  0C00107E             jal increment_offset
3700	38A0  0C001071             jal load_patterns
3701	38A4  3852496F             xori $18, $2, 18799
3702	38A8  AFB20000             sw $18, 0($29)
3703	38AC  0C00107E             jal increment_offset
3704	38B0  0C001071             jal load_patterns
3705	38B4  38525592             xori $18, $2, 21906
3706	38B8  AFB20000             sw $18, 0($29)
3707	38BC  0C00107E             jal increment_offset
3708	38C0  0C001071             jal load_patterns
3709	38C4  38521900             xori $18, $2, 6400
3710	38C8  AFB20000             sw $18, 0($29)
3711	38CC  0C00107E             jal increment_offset
3712	38D0  0C001071             jal load_patterns
3713	38D4  385226DA             xori $18, $2, 9946
3714	38D8  AFB20000             sw $18, 0($29)
3715	38DC  0C00107E             jal increment_offset
3716	38E0  0C001071             jal load_patterns
3717	38E4  3852408A             xori $18, $2, 16522
3718	38E8  AFB20000             sw $18, 0($29)
3719	38EC  0C00107E             jal increment_offset
3720	38F0  0C001071             jal load_patterns
3721	38F4  3852297E             xori $18, $2, 10622
3722	38F8  AFB20000             sw $18, 0($29)
3723	38FC  0C00107E             jal increment_offset
3724	3900  0C001071             jal load_patterns
3725	3904  38522961             xori $18, $2, 10593
3726	3908  AFB20000             sw $18, 0($29)
3727	390C  0C00107E             jal increment_offset
3728	3910  0C001071             jal load_patterns
3729	3914  3852E80E             xori $18, $2, 59406
3730	3918  AFB20000             sw $18, 0($29)
3731	391C  0C00107E             jal increment_offset
3732	3920  0C001071             jal load_patterns
3733	3924  3852B202             xori $18, $2, 45570
3734	3928  AFB20000             sw $18, 0($29)
3735	392C  0C00107E             jal increment_offset
3736	3930  0C001071             jal load_patterns
3737	3934  38523388             xori $18, $2, 13192
3738	3938  AFB20000             sw $18, 0($29)
3739	393C  0C00107E             jal increment_offset
3740	3940  0C001071             jal load_patterns
3741	3944  385208DC             xori $18, $2, 2268
3742	3948  AFB20000             sw $18, 0($29)
3743	394C  0C00107E             jal increment_offset
3744	3950  0C001071             jal load_patterns
3745	3954  3852363B             xori $18, $2, 13883
3746	3958  AFB20000             sw $18, 0($29)
3747	395C  0C00107E             jal increment_offset
3748	3960  0C001071             jal load_patterns
3749	3964  3852CFF9             xori $18, $2, 53241
3750	3968  AFB20000             sw $18, 0($29)
3751	396C  0C00107E             jal increment_offset
3752	3970  0C001071             jal load_patterns
3753	3974  38524B2C             xori $18, $2, 19244
3754	3978  AFB20000             sw $18, 0($29)
3755	397C  0C00107E             jal increment_offset
3756	3980  0C001071             jal load_patterns
3757	3984  3852BE61             xori $18, $2, 48737
3758	3988  AFB20000             sw $18, 0($29)
3759	398C  0C00107E             jal increment_offset
3760	3990  0C001071             jal load_patterns
3761	3994  385209C4             xori $18, $2, 2500
3762	3998  AFB20000             sw $18, 0($29)
3763	399C  0C00107E             jal increment_offset
3764	39A0  0C001071             jal load_patterns
3765	39A4  385297A3             xori $18, $2, 38819
3766	39A8  AFB20000             sw $18, 0($29)
3767	39AC  0C00107E             jal increment_offset
3768	39B0  0C001071             jal load_patterns
3769	39B4  3852718A             xori $18, $2, 29066
3770	39B8  AFB20000             sw $18, 0($29)
3771	39BC  0C00107E             jal increment_offset
3772	39C0  0C001071             jal load_patterns
3773	39C4  3852E80D             xori $18, $2, 59405
3774	39C8  AFB20000             sw $18, 0($29)
3775	39CC  0C00107E             jal increment_offset
3776	39D0  0C001071             jal load_patterns
3777	39D4  3852514B             xori $18, $2, 20811
3778	39D8  AFB20000             sw $18, 0($29)
3779	39DC  0C00107E             jal increment_offset
3780	39E0  0C001071             jal load_patterns
3781	39E4  3852A44B             xori $18, $2, 42059
3782	39E8  AFB20000             sw $18, 0($29)
3783	39EC  0C00107E             jal increment_offset
3784	39F0  0C001071             jal load_patterns
3785	39F4  3852E758             xori $18, $2, 59224
3786	39F8  AFB20000             sw $18, 0($29)
3787	39FC  0C00107E             jal increment_offset
3788	3A00  0C001071             jal load_patterns
3789	3A04  38520FB8             xori $18, $2, 4024
3790	3A08  AFB20000             sw $18, 0($29)
3791	3A0C  0C00107E             jal increment_offset
3792	3A10  0C001071             jal load_patterns
3793	3A14  38525C1B             xori $18, $2, 23579
3794	3A18  AFB20000             sw $18, 0($29)
3795	3A1C  0C00107E             jal increment_offset
3796	3A20  0C001071             jal load_patterns
3797	3A24  38524474             xori $18, $2, 17524
3798	3A28  AFB20000             sw $18, 0($29)
3799	3A2C  0C00107E             jal increment_offset
3800	3A30  0C001071             jal load_patterns
3801	3A34  3852EF1E             xori $18, $2, 61214
3802	3A38  AFB20000             sw $18, 0($29)
3803	3A3C  0C00107E             jal increment_offset
3804	3A40  0C001071             jal load_patterns
3805	3A44  38523BC4             xori $18, $2, 15300
3806	3A48  AFB20000             sw $18, 0($29)
3807	3A4C  0C00107E             jal increment_offset
3808	3A50  0C001071             jal load_patterns
3809	3A54  3852FD41             xori $18, $2, 64833
3810	3A58  AFB20000             sw $18, 0($29)
3811	3A5C  0C00107E             jal increment_offset
3812	3A60  0C001071             jal load_patterns
3813	3A64  3852D65A             xori $18, $2, 54874
3814	3A68  AFB20000             sw $18, 0($29)
3815	3A6C  0C00107E             jal increment_offset
3816	3A70  0C001071             jal load_patterns
3817	3A74  38520487             xori $18, $2, 1159
3818	3A78  AFB20000             sw $18, 0($29)
3819	3A7C  0C00107E             jal increment_offset
3820	3A80  0C001071             jal load_patterns
3821	3A84  3852EF65             xori $18, $2, 61285
3822	3A88  AFB20000             sw $18, 0($29)
3823	3A8C  0C00107E             jal increment_offset
3824	3A90  0C001071             jal load_patterns
3825	3A94  3852F2C3             xori $18, $2, 62147
3826	3A98  AFB20000             sw $18, 0($29)
3827	3A9C  0C00107E             jal increment_offset
3828	3AA0  0C001071             jal load_patterns
3829	3AA4  38526076             xori $18, $2, 24694
3830	3AA8  AFB20000             sw $18, 0($29)
3831	3AAC  0C00107E             jal increment_offset
3832	3AB0  0C001071             jal load_patterns
3833	3AB4  3852214A             xori $18, $2, 8522
3834	3AB8  AFB20000             sw $18, 0($29)
3835	3ABC  0C00107E             jal increment_offset
3836	3AC0  0C001071             jal load_patterns
3837	3AC4  385268D6             xori $18, $2, 26838
3838	3AC8  AFB20000             sw $18, 0($29)
3839	3ACC  0C00107E             jal increment_offset
3840	3AD0  0C001071             jal load_patterns
3841	3AD4  3852E735             xori $18, $2, 59189
3842	3AD8  AFB20000             sw $18, 0($29)
3843	3ADC  0C00107E             jal increment_offset
3844	3AE0  0C001071             jal load_patterns
3845	3AE4  3852F756             xori $18, $2, 63318
3846	3AE8  AFB20000             sw $18, 0($29)
3847	3AEC  0C00107E             jal increment_offset
3848	3AF0  0C001071             jal load_patterns
3849	3AF4  3852E52D             xori $18, $2, 58669
3850	3AF8  AFB20000             sw $18, 0($29)
3851	3AFC  0C00107E             jal increment_offset
3852	3B00  0C001071             jal load_patterns
3853	3B04  38522369             xori $18, $2, 9065
3854	3B08  AFB20000             sw $18, 0($29)
3855	3B0C  0C00107E             jal increment_offset
3856	3B10  0C001071             jal load_patterns
3857	3B14  3852DD91             xori $18, $2, 56721
3858	3B18  AFB20000             sw $18, 0($29)
3859	3B1C  0C00107E             jal increment_offset
3860	3B20  0C001071             jal load_patterns
3861	3B24  3852D796             xori $18, $2, 55190
3862	3B28  AFB20000             sw $18, 0($29)
3863	3B2C  0C00107E             jal increment_offset
3864	3B30  0C001071             jal load_patterns
3865	3B34  3852243B             xori $18, $2, 9275
3866	3B38  AFB20000             sw $18, 0($29)
3867	3B3C  0C00107E             jal increment_offset
3868	3B40  0C001071             jal load_patterns
3869	3B44  3852EE83             xori $18, $2, 61059
3870	3B48  AFB20000             sw $18, 0($29)
3871	3B4C  0C00107E             jal increment_offset
3872	3B50  0C001071             jal load_patterns
3873	3B54  38522678             xori $18, $2, 9848
3874	3B58  AFB20000             sw $18, 0($29)
3875	3B5C  0C00107E             jal increment_offset
3876	3B60  0C001071             jal load_patterns
3877	3B64  3852F1A4             xori $18, $2, 61860
3878	3B68  AFB20000             sw $18, 0($29)
3879	3B6C  0C00107E             jal increment_offset
3880	3B70  0C001071             jal load_patterns
3881	3B74  38520C78             xori $18, $2, 3192
3882	3B78  AFB20000             sw $18, 0($29)
3883	3B7C  0C00107E             jal increment_offset
3884	3B80  0C001071             jal load_patterns
3885	3B84  385216A0             xori $18, $2, 5792
3886	3B88  AFB20000             sw $18, 0($29)
3887	3B8C  0C00107E             jal increment_offset
3888	3B90  0C001071             jal load_patterns
3889	3B94  385247AE             xori $18, $2, 18350
3890	3B98  AFB20000             sw $18, 0($29)
3891	3B9C  0C00107E             jal increment_offset
3892	3BA0  0C001071             jal load_patterns
3893	3BA4  38527FCF             xori $18, $2, 32719
3894	3BA8  AFB20000             sw $18, 0($29)
3895	3BAC  0C00107E             jal increment_offset
3896	3BB0  0C001071             jal load_patterns
3897	3BB4  3852B2CA             xori $18, $2, 45770
3898	3BB8  AFB20000             sw $18, 0($29)
3899	3BBC  0C00107E             jal increment_offset
3900	3BC0  0C001071             jal load_patterns
3901	3BC4  3852D7C2             xori $18, $2, 55234
3902	3BC8  AFB20000             sw $18, 0($29)
3903	3BCC  0C00107E             jal increment_offset
3904	3BD0  0C001071             jal load_patterns
3905	3BD4  3852AB79             xori $18, $2, 43897
3906	3BD8  AFB20000             sw $18, 0($29)
3907	3BDC  0C00107E             jal increment_offset
3908	3BE0  0C001071             jal load_patterns
3909	3BE4  38521694             xori $18, $2, 5780
3910	3BE8  AFB20000             sw $18, 0($29)
3911	3BEC  0C00107E             jal increment_offset
3912	3BF0  0C001071             jal load_patterns
3913	3BF4  38522705             xori $18, $2, 9989
3914	3BF8  AFB20000             sw $18, 0($29)
3915	3BFC  0C00107E             jal increment_offset
3916	3C00  0C001071             jal load_patterns
3917	3C04  38525A79             xori $18, $2, 23161
3918	3C08  AFB20000             sw $18, 0($29)
3919	3C0C  0C00107E             jal increment_offset
3920	3C10  0C001071             jal load_patterns
3921	3C14  38520CA2             xori $18, $2, 3234
3922	3C18  AFB20000             sw $18, 0($29)
3923	3C1C  0C00107E             jal increment_offset
3924	3C20  0C001071             jal load_patterns
3925	3C24  38525B63             xori $18, $2, 23395
3926	3C28  AFB20000             sw $18, 0($29)
3927	3C2C  0C00107E             jal increment_offset
3928	3C30  0C001071             jal load_patterns
3929	3C34  38521960             xori $18, $2, 6496
3930	3C38  AFB20000             sw $18, 0($29)
3931	3C3C  0C00107E             jal increment_offset
3932	3C40  0C001071             jal load_patterns
3933	3C44  385242B3             xori $18, $2, 17075
3934	3C48  AFB20000             sw $18, 0($29)
3935	3C4C  0C00107E             jal increment_offset
3936	3C50  0C001071             jal load_patterns
3937	3C54  385209AE             xori $18, $2, 2478
3938	3C58  AFB20000             sw $18, 0($29)
3939	3C5C  0C00107E             jal increment_offset
3940	3C60  0C001071             jal load_patterns
3941	3C64  38520AD1             xori $18, $2, 2769
3942	3C68  AFB20000             sw $18, 0($29)
3943	3C6C  0C00107E             jal increment_offset
3944	3C70  0C001071             jal load_patterns
3945	3C74  3852862C             xori $18, $2, 34348
3946	3C78  AFB20000             sw $18, 0($29)
3947	3C7C  0C00107E             jal increment_offset
3948	3C80  0C001071             jal load_patterns
3949	3C84  3852BC7A             xori $18, $2, 48250
3950	3C88  AFB20000             sw $18, 0($29)
3951	3C8C  0C00107E             jal increment_offset
3952	3C90  0C001071             jal load_patterns
3953	3C94  38520A38             xori $18, $2, 2616
3954	3C98  AFB20000             sw $18, 0($29)
3955	3C9C  0C00107E             jal increment_offset
3956	3CA0  0C001071             jal load_patterns
3957	3CA4  38526C0C             xori $18, $2, 27660
3958	3CA8  AFB20000             sw $18, 0($29)
3959	3CAC  0C00107E             jal increment_offset
3960	3CB0  0C001071             jal load_patterns
3961	3CB4  38523752             xori $18, $2, 14162
3962	3CB8  AFB20000             sw $18, 0($29)
3963	3CBC  0C00107E             jal increment_offset
3964	3CC0  0C001071             jal load_patterns
3965	3CC4  38520B96             xori $18, $2, 2966
3966	3CC8  AFB20000             sw $18, 0($29)
3967	3CCC  0C00107E             jal increment_offset
3968	3CD0  0C001071             jal load_patterns
3969	3CD4  3852FF35             xori $18, $2, 65333
3970	3CD8  AFB20000             sw $18, 0($29)
3971	3CDC  0C00107E             jal increment_offset
3972	3CE0  0C001071             jal load_patterns
3973	3CE4  3852C583             xori $18, $2, 50563
3974	3CE8  AFB20000             sw $18, 0($29)
3975	3CEC  0C00107E             jal increment_offset
3976	3CF0  0C001071             jal load_patterns
3977	3CF4  38528FC7             xori $18, $2, 36807
3978	3CF8  AFB20000             sw $18, 0($29)
3979	3CFC  0C00107E             jal increment_offset
3980	3D00  0C001071             jal load_patterns
3981	3D04  3852AF83             xori $18, $2, 44931
3982	3D08  AFB20000             sw $18, 0($29)
3983	3D0C  0C00107E             jal increment_offset
3984	3D10  0C001071             jal load_patterns
3985	3D14  38520979             xori $18, $2, 2425
3986	3D18  AFB20000             sw $18, 0($29)
3987	3D1C  0C00107E             jal increment_offset
3988	3D20  0C001071             jal load_patterns
3989	3D24  385283DF             xori $18, $2, 33759
3990	3D28  AFB20000             sw $18, 0($29)
3991	3D2C  0C00107E             jal increment_offset
3992	3D30  0C001071             jal load_patterns
3993	3D34  385220AB             xori $18, $2, 8363
3994	3D38  AFB20000             sw $18, 0($29)
3995	3D3C  0C00107E             jal increment_offset
3996	3D40  0C001071             jal load_patterns
3997	3D44  385241D2             xori $18, $2, 16850
3998	3D48  AFB20000             sw $18, 0($29)
3999	3D4C  0C00107E             jal increment_offset
4000	3D50  0C001071             jal load_patterns
4001	3D54  3852136F             xori $18, $2, 4975
4002	3D58  AFB20000             sw $18, 0($29)
4003	3D5C  0C00107E             jal increment_offset
4004	3D60  0C001071             jal load_patterns
4005	3D64  3852C45C             xori $18, $2, 50268
4006	3D68  AFB20000             sw $18, 0($29)
4007	3D6C  0C00107E             jal increment_offset
4008	3D70  0C001071             jal load_patterns
4009	3D74  3852F089             xori $18, $2, 61577
4010	3D78  AFB20000             sw $18, 0($29)
4011	3D7C  0C00107E             jal increment_offset
4012	3D80  0C001071             jal load_patterns
4013	3D84  385221EF             xori $18, $2, 8687
4014	3D88  AFB20000             sw $18, 0($29)
4015	3D8C  0C00107E             jal increment_offset
4016	3D90  0C001071             jal load_patterns
4017	3D94  385289F7             xori $18, $2, 35319
4018	3D98  AFB20000             sw $18, 0($29)
4019	3D9C  0C00107E             jal increment_offset
4020	3DA0  0C001071             jal load_patterns
4021	3DA4  3852E4A8             xori $18, $2, 58536
4022	3DA8  AFB20000             sw $18, 0($29)
4023	3DAC  0C00107E             jal increment_offset
4024	3DB0  0C001071             jal load_patterns
4025	3DB4  385204C3             xori $18, $2, 1219
4026	3DB8  AFB20000             sw $18, 0($29)
4027	3DBC  0C00107E             jal increment_offset
4028	3DC0  0C001071             jal load_patterns
4029	3DC4  3852F64F             xori $18, $2, 63055
4030	3DC8  AFB20000             sw $18, 0($29)
4031	3DCC  0C00107E             jal increment_offset
4032	3DD0  0C001071             jal load_patterns
4033	3DD4  3852BF22             xori $18, $2, 48930
4034	3DD8  AFB20000             sw $18, 0($29)
4035	3DDC  0C00107E             jal increment_offset
4036	3DE0  0C001071             jal load_patterns
4037	3DE4  38520E40             xori $18, $2, 3648
4038	3DE8  AFB20000             sw $18, 0($29)
4039	3DEC  0C00107E             jal increment_offset
4040	3DF0  0C001071             jal load_patterns
4041	3DF4  3852FC4C             xori $18, $2, 64588
4042	3DF8  AFB20000             sw $18, 0($29)
4043	3DFC  0C00107E             jal increment_offset
4044	3E00  0C001071             jal load_patterns
4045	3E04  3852DFD6             xori $18, $2, 57302
4046	3E08  AFB20000             sw $18, 0($29)
4047	3E0C  0C00107E             jal increment_offset
4048	3E10  0C001071             jal load_patterns
4049	3E14  385213F3             xori $18, $2, 5107
4050	3E18  AFB20000             sw $18, 0($29)
4051	3E1C  0C00107E             jal increment_offset
4052	3E20  0C001071             jal load_patterns
4053	3E24  3852178C             xori $18, $2, 6028
4054	3E28  AFB20000             sw $18, 0($29)
4055	3E2C  0C00107E             jal increment_offset
4056	3E30  0C001071             jal load_patterns
4057	3E34  38522820             xori $18, $2, 10272
4058	3E38  AFB20000             sw $18, 0($29)
4059	3E3C  0C00107E             jal increment_offset
4060	3E40  0C001071             jal load_patterns
4061	3E44  385231BA             xori $18, $2, 12730
4062	3E48  AFB20000             sw $18, 0($29)
4063	3E4C  0C00107E             jal increment_offset
4064	3E50  0C001071             jal load_patterns
4065	3E54  385235D9             xori $18, $2, 13785
4066	3E58  AFB20000             sw $18, 0($29)
4067	3E5C  0C00107E             jal increment_offset
4068	3E60  0C001071             jal load_patterns
4069	3E64  38526840             xori $18, $2, 26688
4070	3E68  AFB20000             sw $18, 0($29)
4071	3E6C  0C00107E             jal increment_offset
4072	3E70  0C001071             jal load_patterns
4073	3E74  385241A4             xori $18, $2, 16804
4074	3E78  AFB20000             sw $18, 0($29)
4075	3E7C  0C00107E             jal increment_offset
4076	3E80  0C001071             jal load_patterns
4077	3E84  385209D8             xori $18, $2, 2520
4078	3E88  AFB20000             sw $18, 0($29)
4079	3E8C  0C00107E             jal increment_offset
4080	3E90  0C001071             jal load_patterns
4081	3E94  3852689A             xori $18, $2, 26778
4082	3E98  AFB20000             sw $18, 0($29)
4083	3E9C  0C00107E             jal increment_offset
4084	3EA0  0C001071             jal load_patterns
4085	3EA4  38523D60             xori $18, $2, 15712
4086	3EA8  AFB20000             sw $18, 0($29)
4087	3EAC  0C00107E             jal increment_offset
4088	3EB0  0C001071             jal load_patterns
4089	3EB4  38523C13             xori $18, $2, 15379
4090	3EB8  AFB20000             sw $18, 0($29)
4091	3EBC  0C00107E             jal increment_offset
4092	3EC0  0C001071             jal load_patterns
4093	3EC4  3852327E             xori $18, $2, 12926
4094	3EC8  AFB20000             sw $18, 0($29)
4095	3ECC  0C00107E             jal increment_offset
4096	3ED0  0C001071             jal load_patterns
4097	3ED4  3852AC2A             xori $18, $2, 44074
4098	3ED8  AFB20000             sw $18, 0($29)
4099	3EDC  0C00107E             jal increment_offset
4100	3EE0  0C001071             jal load_patterns
4101	3EE4  38528AB0             xori $18, $2, 35504
4102	3EE8  AFB20000             sw $18, 0($29)
4103	3EEC  0C00107E             jal increment_offset
4104	3EF0  0C001071             jal load_patterns
4105	3EF4  385267F0             xori $18, $2, 26608
4106	3EF8  AFB20000             sw $18, 0($29)
4107	3EFC  0C00107E             jal increment_offset
4108	3F00  0C001071             jal load_patterns
4109	3F04  3852E0BC             xori $18, $2, 57532
4110	3F08  AFB20000             sw $18, 0($29)
4111	3F0C  0C00107E             jal increment_offset
4112	3F10  0C001071             jal load_patterns
4113	3F14  3852F069             xori $18, $2, 61545
4114	3F18  AFB20000             sw $18, 0($29)
4115	3F1C  0C00107E             jal increment_offset
4116	3F20  0C001071             jal load_patterns
4117	3F24  3852A7C4             xori $18, $2, 42948
4118	3F28  AFB20000             sw $18, 0($29)
4119	3F2C  0C00107E             jal increment_offset
4120	3F30  0C001071             jal load_patterns
4121	3F34  3852962D             xori $18, $2, 38445
4122	3F38  AFB20000             sw $18, 0($29)
4123	3F3C  0C00107E             jal increment_offset
4124	3F40  0C001071             jal load_patterns
4125	3F44  38525F66             xori $18, $2, 24422
4126	3F48  AFB20000             sw $18, 0($29)
4127	3F4C  0C00107E             jal increment_offset
4128	3F50  0C001071             jal load_patterns
4129	3F54  38527D0A             xori $18, $2, 32010
4130	3F58  AFB20000             sw $18, 0($29)
4131	3F5C  0C00107E             jal increment_offset
4132	3F60  0C001071             jal load_patterns
4133	3F64  38526877             xori $18, $2, 26743
4134	3F68  AFB20000             sw $18, 0($29)
4135	3F6C  0C00107E             jal increment_offset
4136	3F70  0C001071             jal load_patterns
4137	3F74  38520F02             xori $18, $2, 3842
4138	3F78  AFB20000             sw $18, 0($29)
4139	3F7C  0C00107E             jal increment_offset
4140	3F80  0C001071             jal load_patterns
4141	3F84  3852C9FF             xori $18, $2, 51711
4142	3F88  AFB20000             sw $18, 0($29)
4143	3F8C  0C00107E             jal increment_offset
4144	3F90  0C001071             jal load_patterns
4145	3F94  3852CCC9             xori $18, $2, 52425
4146	3F98  AFB20000             sw $18, 0($29)
4147	3F9C  0C00107E             jal increment_offset
4148	3FA0  0C001071             jal load_patterns
4149	3FA4  385276A5             xori $18, $2, 30373
4150	3FA8  AFB20000             sw $18, 0($29)
4151	3FAC  0C00107E             jal increment_offset
4152	3FB0  0C001071             jal load_patterns
4153	3FB4  3852481D             xori $18, $2, 18461
4154	3FB8  AFB20000             sw $18, 0($29)
4155	3FBC  0C00107E             jal increment_offset
4156	3FC0  0C001071             jal load_patterns
4157	3FC4  38527869             xori $18, $2, 30825
4158	3FC8  AFB20000             sw $18, 0($29)
4159	3FCC  0C00107E             jal increment_offset
4160	3FD0  0C001071             jal load_patterns
4161	3FD4  3852B7FC             xori $18, $2, 47100
4162	3FD8  AFB20000             sw $18, 0($29)
4163	3FDC  0C00107E             jal increment_offset
4164	3FE0  0C001071             jal load_patterns
4165	3FE4  385222E0             xori $18, $2, 8928
4166	3FE8  AFB20000             sw $18, 0($29)
4167	3FEC  0C00107E             jal increment_offset
4168	3FF0  0C001071             jal load_patterns
4169	3FF4  38524F3B             xori $18, $2, 20283
4170	3FF8  AFB20000             sw $18, 0($29)
4171	3FFC  0C00107E             jal increment_offset
4172	4000  0C001071             jal load_patterns
4173	4004  385207A7             xori $18, $2, 1959
4174	4008  AFB20000             sw $18, 0($29)
4175	400C  0C00107E             jal increment_offset
4176	4010  0C001071             jal load_patterns
4177	4014  3852C18E             xori $18, $2, 49550
4178	4018  AFB20000             sw $18, 0($29)
4179	401C  0C00107E             jal increment_offset
4180	4020  0C001071             jal load_patterns
4181	4024  3852EDEF             xori $18, $2, 60911
4182	4028  AFB20000             sw $18, 0($29)
4183	402C  0C00107E             jal increment_offset
4184	4030  0C001071             jal load_patterns
4185	4034  3852143C             xori $18, $2, 5180
4186	4038  AFB20000             sw $18, 0($29)
4187	403C  0C00107E             jal increment_offset
4188	4040  0C001071             jal load_patterns
4189	4044  38524F69             xori $18, $2, 20329
4190	4048  AFB20000             sw $18, 0($29)
4191	404C  0C00107E             jal increment_offset
4192	4050  0C001071             jal load_patterns
4193	4054  385257D7             xori $18, $2, 22487
4194	4058  AFB20000             sw $18, 0($29)
4195	405C  0C00107E             jal increment_offset
4196	4060  0C001071             jal load_patterns
4197	4064  3852ED98             xori $18, $2, 60824
4198	4068  AFB20000             sw $18, 0($29)
4199	406C  0C00107E             jal increment_offset
4200	4070  0C001071             jal load_patterns
4201	4074  3852E7A5             xori $18, $2, 59301
4202	4078  AFB20000             sw $18, 0($29)
4203	407C  0C00107E             jal increment_offset
4204	4080  0C001071             jal load_patterns
4205	4084  38527B4F             xori $18, $2, 31567
4206	4088  AFB20000             sw $18, 0($29)
4207	408C  0C00107E             jal increment_offset
4208	4090  0C001071             jal load_patterns
4209	4094  38522E95             xori $18, $2, 11925
4210	4098  AFB20000             sw $18, 0($29)
4211	409C  0C00107E             jal increment_offset
4212	40A0  0C001071             jal load_patterns
4213	40A4  385273CF             xori $18, $2, 29647
4214	40A8  AFB20000             sw $18, 0($29)
4215	40AC  0C00107E             jal increment_offset
4216	40B0  0C001071             jal load_patterns
4217	40B4  38526E7C             xori $18, $2, 28284
4218	40B8  AFB20000             sw $18, 0($29)
4219	40BC  0C00107E             jal increment_offset
4220	40C0  0C001071             jal load_patterns
4221	40C4  3852DAE7             xori $18, $2, 56039
4222	40C8  AFB20000             sw $18, 0($29)
4223	40CC  0C00107E             jal increment_offset
4224	40D0  0C001071             jal load_patterns
4225	40D4  38524CC2             xori $18, $2, 19650
4226	40D8  AFB20000             sw $18, 0($29)
4227	40DC  0C00107E             jal increment_offset
4228	40E0  0C001071             jal load_patterns
4229	40E4  38524112             xori $18, $2, 16658
4230	40E8  AFB20000             sw $18, 0($29)
4231	40EC  0C00107E             jal increment_offset
4232	40F0  0C001071             jal load_patterns
4233	40F4  3852CDD5             xori $18, $2, 52693
4234	40F8  AFB20000             sw $18, 0($29)
4235	40FC  0C00107E             jal increment_offset
4236	4100  0C001071             jal load_patterns
4237	4104  38529EA8             xori $18, $2, 40616
4238	4108  AFB20000             sw $18, 0($29)
4239	410C  0C00107E             jal increment_offset
4240	4110  0C001071             jal load_patterns
4241	4114  38528FD0             xori $18, $2, 36816
4242	4118  AFB20000             sw $18, 0($29)
4243	411C  0C00107E             jal increment_offset
4244	4120  0C001071             jal load_patterns
4245	4124  38523149             xori $18, $2, 12617
4246	4128  AFB20000             sw $18, 0($29)
4247	412C  0C00107E             jal increment_offset
4248	4130  0C001071             jal load_patterns
4249	4134  3852B261             xori $18, $2, 45665
4250	4138  AFB20000             sw $18, 0($29)
4251	413C  0C00107E             jal increment_offset
4252	4140  0C001071             jal load_patterns
4253	4144  3852E219             xori $18, $2, 57881
4254	4148  AFB20000             sw $18, 0($29)
4255	414C  0C00107E             jal increment_offset
4256	4150  0C001071             jal load_patterns
4257	4154  3852A337             xori $18, $2, 41783
4258	4158  AFB20000             sw $18, 0($29)
4259	415C  0C00107E             jal increment_offset
4260	4160  0C001071             jal load_patterns
4261	4164  3852B60E             xori $18, $2, 46606
4262	4168  AFB20000             sw $18, 0($29)
4263	416C  0C00107E             jal increment_offset
4264	4170  0C001071             jal load_patterns
4265	4174  38527FBD             xori $18, $2, 32701
4266	4178  AFB20000             sw $18, 0($29)
4267	417C  0C00107E             jal increment_offset
4268	                          
4269	4180  0C001074            jal reset_offsets
4270	                          operation_mtc0_mfc0:
4271	4184  0C001071             jal load_patterns
4272	4188  40822000             mtc0 $2, $4
4273	418C  40049000             mfc0 $18, $4
4274	4190  AFB20000             sw $18, 0($29)
4275	4194  0C00107E             jal increment_offset
4276	4198  177CFFFB             bne $27, $28, operation_mtc0_mfc0
4277	                          
4278	419C  0C001074            jal reset_offsets
4279	                          operation_lw_sw:
4280	41A0  8FD20000             lw $18, 0($30)
4281	41A4  AFB20000             sw $18, 0($29)
4282	41A8  0C00107E             jal increment_offset
4283	41AC  177CFFFD             bne $27, $28, operation_lw_sw
4284	                          
4285	41B0  0C001074            jal reset_offsets
4286	                          operation_lw0_sw0:
4287	41B4  C3D20000             lwc0 $18, 0($30)
4288	41B8  E3B20000             swc0 $18, 0($29)
4289	41BC  0C00107E             jal increment_offset
4290	41C0  177CFFFD             bne $27, $28, operation_lw0_sw0
4291	                          
4292	                          load_patterns:
4293	41C4  8FC20000             lw $2, 0($30)
4294	41C8  8FC30004             lw $3, 4($30)
4295	41CC  03E00008             jr $31
4296	                          
4297	                          reset_offsets:
4298	41D0  3C1E0001             lui $30, 1
4299	41D4  37DE0008             ori $30, $30, 8
4300	41D8  037BD826             xor $27, $27, $27
4301	41DC  02529026             xor $18, $18, $18
4302	41E0  03E00008             jr $31
4303	                          
4304	                          reset_hi_lo:
4305	41E4  3C010000             lui $1, 0
4306	41E8  34210000             ori $1, $1, 0
4307	41EC  00200011             mthi $1
4308	41F0  00200013             mtlo $1
4309	41F4  03E00008             jr $31
4310	                          
4311	                          increment_offset:
4312	41F8  23DE0008             addi $30, $30, 8
4313	41FC  237B0002             addi $27, $27, 2
4314	4200  23BD0004             addi $29, $29, 4
4315	4204  03E00008             jr $31
4316	                          
4317	                          init_patterns:
4318	4208  3C08AA39            lui $8, 43577
4319	420C  3508E3CD            ori $8, $8, 58317
4320	4210  AFC80000            sw $8, 0($30)
4321	4214  3C09C052            lui $9, 49234
4322	4218  35295882            ori $9, $9, 22658
4323	421C  AFC90004            sw $9, 4($30)
4324	4220  3C0AD6FF            lui $10, 55039
4325	4224  354A59FC            ori $10, $10, 23036
4326	4228  AFCA0008            sw $10, 8($30)
4327	422C  3C0B1136            lui $11, 4406
4328	4230  356B8ACC            ori $11, $11, 35532
4329	4234  AFCB000C            sw $11, 12($30)
4330	4238  3C0CF91F            lui $12, 63775
4331	423C  358C6AFB            ori $12, $12, 27387
4332	4240  AFCC0010            sw $12, 16($30)
4333	4244  3C0D3B91            lui $13, 15249
4334	4248  35ADB085            ori $13, $13, 45189
4335	424C  AFCD0014            sw $13, 20($30)
4336	4250  3C0E1E54            lui $14, 7764
4337	4254  35CE4D36            ori $14, $14, 19766
4338	4258  AFCE0018            sw $14, 24($30)
4339	425C  3C0FF688            lui $15, 63112
4340	4260  35EFD17E            ori $15, $15, 53630
4341	4264  AFCF001C            sw $15, 28($30)
4342	4268  3C08A212            lui $8, 41490
4343	426C  35087B62            ori $8, $8, 31586
4344	4270  AFC80020            sw $8, 32($30)
4345	4274  3C09B0BB            lui $9, 45243
4346	4278  3529C2E1            ori $9, $9, 49889
4347	427C  AFC90024            sw $9, 36($30)
4348	4280  3C0AFB7C            lui $10, 64380
4349	4284  354A3AE7            ori $10, $10, 15079
4350	4288  AFCA0028            sw $10, 40($30)
4351	428C  3C0B049E            lui $11, 1182
4352	4290  356BFC93            ori $11, $11, 64659
4353	4294  AFCB002C            sw $11, 44($30)
4354	4298  3C0CFA05            lui $12, 64005
4355	429C  358C4634            ori $12, $12, 17972
4356	42A0  AFCC0030            sw $12, 48($30)
4357	42A4  3C0D6E94            lui $13, 28308
4358	42A8  35AD716A            ori $13, $13, 29034
4359	42AC  AFCD0034            sw $13, 52($30)
4360	42B0  3C0EEA9A            lui $14, 60058
4361	42B4  35CE781F            ori $14, $14, 30751
4362	42B8  AFCE0038            sw $14, 56($30)
4363	42BC  3C0F89FA            lui $15, 35322
4364	42C0  35EF0238            ori $15, $15, 568
4365	42C4  AFCF003C            sw $15, 60($30)
4366	42C8  3C086E36            lui $8, 28214
4367	42CC  3508E63B            ori $8, $8, 58939
4368	42D0  AFC80040            sw $8, 64($30)
4369	42D4  3C09A54A            lui $9, 42314
4370	42D8  35292A22            ori $9, $9, 10786
4371	42DC  AFC90044            sw $9, 68($30)
4372	42E0  3C0AF40D            lui $10, 62477
4373	42E4  354AFD03            ori $10, $10, 64771
4374	42E8  AFCA0048            sw $10, 72($30)
4375	42EC  3C0B2A32            lui $11, 10802
4376	42F0  356BC4E8            ori $11, $11, 50408
4377	42F4  AFCB004C            sw $11, 76($30)
4378	42F8  3C0CEC54            lui $12, 60500
4379	42FC  358CF3BF            ori $12, $12, 62399
4380	4300  AFCC0050            sw $12, 80($30)
4381	4304  3C0DEFBF            lui $13, 61375
4382	4308  35ADB14E            ori $13, $13, 45390
4383	430C  AFCD0054            sw $13, 84($30)
4384	4310  3C0EDD38            lui $14, 56632
4385	4314  35CE6BBE            ori $14, $14, 27582
4386	4318  AFCE0058            sw $14, 88($30)
4387	431C  3C0F0962            lui $15, 2402
4388	4320  35EFBB05            ori $15, $15, 47877
4389	4324  AFCF005C            sw $15, 92($30)
4390	4328  3C089FBE            lui $8, 40894
4391	432C  3508D5D5            ori $8, $8, 54741
4392	4330  AFC80060            sw $8, 96($30)
4393	4334  3C09DA9A            lui $9, 55962
4394	4338  3529C7E4            ori $9, $9, 51172
4395	433C  AFC90064            sw $9, 100($30)
4396	4340  3C0A7B7A            lui $10, 31610
4397	4344  354A539C            ori $10, $10, 21404
4398	4348  AFCA0068            sw $10, 104($30)
4399	434C  3C0B3CDA            lui $11, 15578
4400	4350  356B8748            ori $11, $11, 34632
4401	4354  AFCB006C            sw $11, 108($30)
4402	4358  3C0C4F47            lui $12, 20295
4403	435C  358CB85F            ori $12, $12, 47199
4404	4360  AFCC0070            sw $12, 112($30)
4405	4364  3C0DF996            lui $13, 63894
4406	4368  35ADBD11            ori $13, $13, 48401
4407	436C  AFCD0074            sw $13, 116($30)
4408	4370  3C0ECC5E            lui $14, 52318
4409	4374  35CE732E            ori $14, $14, 29486
4410	4378  AFCE0078            sw $14, 120($30)
4411	437C  3C0F06F1            lui $15, 1777
4412	4380  35EF5773            ori $15, $15, 22387
4413	4384  AFCF007C            sw $15, 124($30)
4414	4388  3C08D593            lui $8, 54675
4415	438C  3508875B            ori $8, $8, 34651
4416	4390  AFC80080            sw $8, 128($30)
4417	4394  3C098A7B            lui $9, 35451
4418	4398  35295CE1            ori $9, $9, 23777
4419	439C  AFC90084            sw $9, 132($30)
4420	43A0  3C0A74A6            lui $10, 29862
4421	43A4  354AD18F            ori $10, $10, 53647
4422	43A8  AFCA0088            sw $10, 136($30)
4423	43AC  3C0B64CD            lui $11, 25805
4424	43B0  356BA2BB            ori $11, $11, 41659
4425	43B4  AFCB008C            sw $11, 140($30)
4426	43B8  3C0C701E            lui $12, 28702
4427	43BC  358CA96A            ori $12, $12, 43370
4428	43C0  AFCC0090            sw $12, 144($30)
4429	43C4  3C0D3CC4            lui $13, 15556
4430	43C8  35AD8A40            ori $13, $13, 35392
4431	43CC  AFCD0094            sw $13, 148($30)
4432	43D0  3C0E3CA9            lui $14, 15529
4433	43D4  35CEA56E            ori $14, $14, 42350
4434	43D8  AFCE0098            sw $14, 152($30)
4435	43DC  3C0F10D1            lui $15, 4305
4436	43E0  35EFBECB            ori $15, $15, 48843
4437	43E4  AFCF009C            sw $15, 156($30)
4438	43E8  3C08E027            lui $8, 57383
4439	43EC  3508DDB6            ori $8, $8, 56758
4440	43F0  AFC800A0            sw $8, 160($30)
4441	43F4  3C09BBAF            lui $9, 48047
4442	43F8  3529295F            ori $9, $9, 10591
4443	43FC  AFC900A4            sw $9, 164($30)
4444	4400  3C0A24EF            lui $10, 9455
4445	4404  354A0321            ori $10, $10, 801
4446	4408  AFCA00A8            sw $10, 168($30)
4447	440C  3C0B0D00            lui $11, 3328
4448	4410  356BE5EC            ori $11, $11, 58860
4449	4414  AFCB00AC            sw $11, 172($30)
4450	4418  3C0C129C            lui $12, 4764
4451	441C  358CFBD1            ori $12, $12, 64465
4452	4420  AFCC00B0            sw $12, 176($30)
4453	4424  3C0DF819            lui $13, 63513
4454	4428  35ADAF25            ori $13, $13, 44837
4455	442C  AFCD00B4            sw $13, 180($30)
4456	4430  3C0EF436            lui $14, 62518
4457	4434  35CED980            ori $14, $14, 55680
4458	4438  AFCE00B8            sw $14, 184($30)
4459	443C  3C0F2654            lui $15, 9812
4460	4440  35EF31D0            ori $15, $15, 12752
4461	4444  AFCF00BC            sw $15, 188($30)
4462	4448  3C087B1B            lui $8, 31515
4463	444C  350894C0            ori $8, $8, 38080
4464	4450  AFC800C0            sw $8, 192($30)
4465	4454  3C096411            lui $9, 25617
4466	4458  3529496F            ori $9, $9, 18799
4467	445C  AFC900C4            sw $9, 196($30)
4468	4460  3C0AE7AD            lui $10, 59309
4469	4464  354AE6D0            ori $10, $10, 59088
4470	4468  AFCA00C8            sw $10, 200($30)
4471	446C  3C0BAD0D            lui $11, 44301
4472	4470  356B5592            ori $11, $11, 21906
4473	4474  AFCB00CC            sw $11, 204($30)
4474	4478  3C0C7EC8            lui $12, 32456
4475	447C  358C5043            ori $12, $12, 20547
4476	4480  AFCC00D0            sw $12, 208($30)
4477	4484  3C0D8D6E            lui $13, 36206
4478	4488  35AD1900            ori $13, $13, 6400
4479	448C  AFCD00D4            sw $13, 212($30)
4480	4490  3C0E0EAC            lui $14, 3756
4481	4494  35CEC6AD            ori $14, $14, 50861
4482	4498  AFCE00D8            sw $14, 216($30)
4483	449C  3C0F482D            lui $15, 18477
4484	44A0  35EF26DA            ori $15, $15, 9946
4485	44A4  AFCF00DC            sw $15, 220($30)
4486	44A8  3C0819B0            lui $8, 6576
4487	44AC  3508650C            ori $8, $8, 25868
4488	44B0  AFC800E0            sw $8, 224($30)
4489	44B4  3C094B04            lui $9, 19204
4490	44B8  3529408A            ori $9, $9, 16522
4491	44BC  AFC900E4            sw $9, 228($30)
4492	44C0  3C0A61D1            lui $10, 25041
4493	44C4  354A8B4F            ori $10, $10, 35663
4494	44C8  AFCA00E8            sw $10, 232($30)
4495	44CC  3C0B4B77            lui $11, 19319
4496	44D0  356B297E            ori $11, $11, 10622
4497	44D4  AFCB00EC            sw $11, 236($30)
4498	44D8  3C0C36B6            lui $12, 14006
4499	44DC  358CACEA            ori $12, $12, 44266
4500	44E0  AFCC00F0            sw $12, 240($30)
4501	44E4  3C0D218B            lui $13, 8587
4502	44E8  35AD2961            ori $13, $13, 10593
4503	44EC  AFCD00F4            sw $13, 244($30)
4504	44F0  3C0E7DE5            lui $14, 32229
4505	44F4  35CE6403            ori $14, $14, 25603
4506	44F8  AFCE00F8            sw $14, 248($30)
4507	44FC  3C0F40CC            lui $15, 16588
4508	4500  35EFE80E            ori $15, $15, 59406
4509	4504  AFCF00FC            sw $15, 252($30)
4510	4508  3C08428B            lui $8, 17035
4511	450C  350814D0            ori $8, $8, 5328
4512	4510  AFC80100            sw $8, 256($30)
4513	4514  3C097B6D            lui $9, 31597
4514	4518  3529B202            ori $9, $9, 45570
4515	451C  AFC90104            sw $9, 260($30)
4516	4520  3C0A2B6F            lui $10, 11119
4517	4524  354A9A2A            ori $10, $10, 39466
4518	4528  AFCA0108            sw $10, 264($30)
4519	452C  3C0B3A4B            lui $11, 14923
4520	4530  356B3388            ori $11, $11, 13192
4521	4534  AFCB010C            sw $11, 268($30)
4522	4538  3C0C9A42            lui $12, 39490
4523	453C  358CC2EB            ori $12, $12, 49899
4524	4540  AFCC0110            sw $12, 272($30)
4525	4544  3C0D0261            lui $13, 609
4526	4548  35AD08DC            ori $13, $13, 2268
4527	454C  AFCD0114            sw $13, 276($30)
4528	4550  3C0E2599            lui $14, 9625
4529	4554  35CE5B8F            ori $14, $14, 23439
4530	4558  AFCE0118            sw $14, 280($30)
4531	455C  3C0F3566            lui $15, 13670
4532	4560  35EF363B            ori $15, $15, 13883
4533	4564  AFCF011C            sw $15, 284($30)
4534	4568  3C08366C            lui $8, 13932
4535	456C  35083540            ori $8, $8, 13632
4536	4570  AFC80120            sw $8, 288($30)
4537	4574  3C09D154            lui $9, 53588
4538	4578  3529CFF9            ori $9, $9, 53241
4539	457C  AFC90124            sw $9, 292($30)
4540	4580  3C0A69BD            lui $10, 27069
4541	4584  354A4BF1            ori $10, $10, 19441
4542	4588  AFCA0128            sw $10, 296($30)
4543	458C  3C0BF539            lui $11, 62777
4544	4590  356B4B2C            ori $11, $11, 19244
4545	4594  AFCB012C            sw $11, 300($30)
4546	4598  3C0CE381            lui $12, 58241
4547	459C  358C9661            ori $12, $12, 38497
4548	45A0  AFCC0130            sw $12, 304($30)
4549	45A4  3C0D5B38            lui $13, 23352
4550	45A8  35ADBE61            ori $13, $13, 48737
4551	45AC  AFCD0134            sw $13, 308($30)
4552	45B0  3C0E0D0C            lui $14, 3340
4553	45B4  35CE1B5A            ori $14, $14, 7002
4554	45B8  AFCE0138            sw $14, 312($30)
4555	45BC  3C0FCC0C            lui $15, 52236
4556	45C0  35EF09C4            ori $15, $15, 2500
4557	45C4  AFCF013C            sw $15, 316($30)
4558	45C8  3C08BF61            lui $8, 48993
4559	45CC  3508FE7D            ori $8, $8, 65149
4560	45D0  AFC80140            sw $8, 320($30)
4561	45D4  3C09C8E6            lui $9, 51430
4562	45D8  352997A3            ori $9, $9, 38819
4563	45DC  AFC90144            sw $9, 324($30)
4564	45E0  3C0AF114            lui $10, 61716
4565	45E4  354ABAEA            ori $10, $10, 47850
4566	45E8  AFCA0148            sw $10, 328($30)
4567	45EC  3C0B27A1            lui $11, 10145
4568	45F0  356B718A            ori $11, $11, 29066
4569	45F4  AFCB014C            sw $11, 332($30)
4570	45F8  3C0C4857            lui $12, 18519
4571	45FC  358CF004            ori $12, $12, 61444
4572	4600  AFCC0150            sw $12, 336($30)
4573	4604  3C0DA227            lui $13, 41511
4574	4608  35ADE80D            ori $13, $13, 59405
4575	460C  AFCD0154            sw $13, 340($30)
4576	4610  3C0E0EA6            lui $14, 3750
4577	4614  35CEE0A5            ori $14, $14, 57509
4578	4618  AFCE0158            sw $14, 344($30)
4579	461C  3C0F85EA            lui $15, 34282
4580	4620  35EF514B            ori $15, $15, 20811
4581	4624  AFCF015C            sw $15, 348($30)
4582	4628  3C08305C            lui $8, 12380
4583	462C  35086C53            ori $8, $8, 27731
4584	4630  AFC80160            sw $8, 352($30)
4585	4634  3C09AEC2            lui $9, 44738
4586	4638  3529A44B            ori $9, $9, 42059
4587	463C  AFC90164            sw $9, 356($30)
4588	4640  3C0AACF3            lui $10, 44275
4589	4644  354ABB62            ori $10, $10, 47970
4590	4648  AFCA0168            sw $10, 360($30)
4591	464C  3C0B4B94            lui $11, 19348
4592	4650  356BE758            ori $11, $11, 59224
4593	4654  AFCB016C            sw $11, 364($30)
4594	4658  3C0C8403            lui $12, 33795
4595	465C  358C224D            ori $12, $12, 8781
4596	4660  AFCC0170            sw $12, 368($30)
4597	4664  3C0D9899            lui $13, 39065
4598	4668  35AD0FB8            ori $13, $13, 4024
4599	466C  AFCD0174            sw $13, 372($30)
4600	4670  3C0E868A            lui $14, 34442
4601	4674  35CE989E            ori $14, $14, 39070
4602	4678  AFCE0178            sw $14, 376($30)
4603	467C  3C0FF00F            lui $15, 61455
4604	4680  35EF5C1B            ori $15, $15, 23579
4605	4684  AFCF017C            sw $15, 380($30)
4606	4688  3C08D711            lui $8, 55057
4607	468C  3508D3F6            ori $8, $8, 54262
4608	4690  AFC80180            sw $8, 384($30)
4609	4694  3C09B794            lui $9, 46996
4610	4698  35294474            ori $9, $9, 17524
4611	469C  AFC90184            sw $9, 388($30)
4612	46A0  3C0A21B3            lui $10, 8627
4613	46A4  354ABFC1            ori $10, $10, 49089
4614	46A8  AFCA0188            sw $10, 392($30)
4615	46AC  3C0BC5AC            lui $11, 50604
4616	46B0  356BEF1E            ori $11, $11, 61214
4617	46B4  AFCB018C            sw $11, 396($30)
4618	46B8  3C0C9091            lui $12, 37009
4619	46BC  358C6418            ori $12, $12, 25624
4620	46C0  AFCC0190            sw $12, 400($30)
4621	46C4  3C0DDF2B            lui $13, 57131
4622	46C8  35AD3BC4            ori $13, $13, 15300
4623	46CC  AFCD0194            sw $13, 404($30)
4624	46D0  3C0EF3F9            lui $14, 62457
4625	46D4  35CEB2CF            ori $14, $14, 45775
4626	46D8  AFCE0198            sw $14, 408($30)
4627	46DC  3C0FEFAB            lui $15, 61355
4628	46E0  35EFFD41            ori $15, $15, 64833
4629	46E4  AFCF019C            sw $15, 412($30)
4630	46E8  3C081291            lui $8, 4753
4631	46EC  35081645            ori $8, $8, 5701
4632	46F0  AFC801A0            sw $8, 416($30)
4633	46F4  3C093AE6            lui $9, 15078
4634	46F8  3529D65A            ori $9, $9, 54874
4635	46FC  AFC901A4            sw $9, 420($30)
4636	4700  3C0A0268            lui $10, 616
4637	4704  354A3AC2            ori $10, $10, 15042
4638	4708  AFCA01A8            sw $10, 424($30)
4639	470C  3C0B2331            lui $11, 9009
4640	4710  356B0487            ori $11, $11, 1159
4641	4714  AFCB01AC            sw $11, 428($30)
4642	4718  3C0CA99E            lui $12, 43422
4643	471C  358CE344            ori $12, $12, 58180
4644	4720  AFCC01B0            sw $12, 432($30)
4645	4724  3C0DE7BC            lui $13, 59324
4646	4728  35ADEF65            ori $13, $13, 61285
4647	472C  AFCD01B4            sw $13, 436($30)
4648	4730  3C0E8177            lui $14, 33143
4649	4734  35CE2D00            ori $14, $14, 11520
4650	4738  AFCE01B8            sw $14, 440($30)
4651	473C  3C0F9F43            lui $15, 40771
4652	4740  35EFF2C3            ori $15, $15, 62147
4653	4744  AFCF01BC            sw $15, 444($30)
4654	4748  3C08A540            lui $8, 42304
4655	474C  3508698C            ori $8, $8, 27020
4656	4750  AFC801C0            sw $8, 448($30)
4657	4754  3C0960F7            lui $9, 24823
4658	4758  35296076            ori $9, $9, 24694
4659	475C  AFC901C4            sw $9, 452($30)
4660	4760  3C0A0C39            lui $10, 3129
4661	4764  354AEB02            ori $10, $10, 60162
4662	4768  AFCA01C8            sw $10, 456($30)
4663	476C  3C0BCBF3            lui $11, 52211
4664	4770  356B214A            ori $11, $11, 8522
4665	4774  AFCB01CC            sw $11, 460($30)
4666	4778  3C0C2508            lui $12, 9480
4667	477C  358C72B8            ori $12, $12, 29368
4668	4780  AFCC01D0            sw $12, 464($30)
4669	4784  3C0D00EE            lui $13, 238
4670	4788  35AD68D6            ori $13, $13, 26838
4671	478C  AFCD01D4            sw $13, 468($30)
4672	4790  3C0E0A53            lui $14, 2643
4673	4794  35CECBC0            ori $14, $14, 52160
4674	4798  AFCE01D8            sw $14, 472($30)
4675	479C  3C0F3045            lui $15, 12357
4676	47A0  35EFE735            ori $15, $15, 59189
4677	47A4  AFCF01DC            sw $15, 476($30)
4678	47A8  3C08B92B            lui $8, 47403
4679	47AC  350841E1            ori $8, $8, 16865
4680	47B0  AFC801E0            sw $8, 480($30)
4681	47B4  3C090889            lui $9, 2185
4682	47B8  3529F756            ori $9, $9, 63318
4683	47BC  AFC901E4            sw $9, 484($30)
4684	47C0  3C0ADDAD            lui $10, 56749
4685	47C4  354AE09C            ori $10, $10, 57500
4686	47C8  AFCA01E8            sw $10, 488($30)
4687	47CC  3C0B1CE8            lui $11, 7400
4688	47D0  356BE52D            ori $11, $11, 58669
4689	47D4  AFCB01EC            sw $11, 492($30)
4690	47D8  3C0C3345            lui $12, 13125
4691	47DC  358C8640            ori $12, $12, 34368
4692	47E0  AFCC01F0            sw $12, 496($30)
4693	47E4  3C0D6BF0            lui $13, 27632
4694	47E8  35AD2369            ori $13, $13, 9065
4695	47EC  AFCD01F4            sw $13, 500($30)
4696	47F0  3C0EAD87            lui $14, 44423
4697	47F4  35CED617            ori $14, $14, 54807
4698	47F8  AFCE01F8            sw $14, 504($30)
4699	47FC  3C0FD395            lui $15, 54165
4700	4800  35EFDD91            ori $15, $15, 56721
4701	4804  AFCF01FC            sw $15, 508($30)
4702	4808  3C08492E            lui $8, 18734
4703	480C  35081559            ori $8, $8, 5465
4704	4810  AFC80200            sw $8, 512($30)
4705	4814  3C097DC3            lui $9, 32195
4706	4818  3529D796            ori $9, $9, 55190
4707	481C  AFC90204            sw $9, 516($30)
4708	4820  3C0A9B2F            lui $10, 39727
4709	4824  354A0F6F            ori $10, $10, 3951
4710	4828  AFCA0208            sw $10, 520($30)
4711	482C  3C0B7245            lui $11, 29253
4712	4830  356B243B            ori $11, $11, 9275
4713	4834  AFCB020C            sw $11, 524($30)
4714	4838  3C0CF63D            lui $12, 63037
4715	483C  358C9F0C            ori $12, $12, 40716
4716	4840  AFCC0210            sw $12, 528($30)
4717	4844  3C0DFF7C            lui $13, 65404
4718	4848  35ADEE83            ori $13, $13, 61059
4719	484C  AFCD0214            sw $13, 532($30)
4720	4850  3C0EABFA            lui $14, 44026
4721	4854  35CE143D            ori $14, $14, 5181
4722	4858  AFCE0218            sw $14, 536($30)
4723	485C  3C0F4979            lui $15, 18809
4724	4860  35EF2678            ori $15, $15, 9848
4725	4864  AFCF021C            sw $15, 540($30)
4726	4868  3C081A77            lui $8, 6775
4727	486C  3508DC5C            ori $8, $8, 56412
4728	4870  AFC80220            sw $8, 544($30)
4729	4874  3C09FCF7            lui $9, 64759
4730	4878  3529F1A4            ori $9, $9, 61860
4731	487C  AFC90224            sw $9, 548($30)
4732	4880  3C0AB2C1            lui $10, 45761
4733	4884  354A8914            ori $10, $10, 35092
4734	4888  AFCA0228            sw $10, 552($30)
4735	488C  3C0B0A2D            lui $11, 2605
4736	4890  356B0C78            ori $11, $11, 3192
4737	4894  AFCB022C            sw $11, 556($30)
4738	4898  3C0CD3DE            lui $12, 54238
4739	489C  358C04AE            ori $12, $12, 1198
4740	48A0  AFCC0230            sw $12, 560($30)
4741	48A4  3C0DE5ED            lui $13, 58861
4742	48A8  35AD16A0            ori $13, $13, 5792
4743	48AC  AFCD0234            sw $13, 564($30)
4744	48B0  3C0EFD7F            lui $14, 64895
4745	48B4  35CEB2F6            ori $14, $14, 45814
4746	48B8  AFCE0238            sw $14, 568($30)
4747	48BC  3C0F0218            lui $15, 536
4748	48C0  35EF47AE            ori $15, $15, 18350
4749	48C4  AFCF023C            sw $15, 572($30)
4750	48C8  3C0808DB            lui $8, 2267
4751	48CC  35088620            ori $8, $8, 34336
4752	48D0  AFC80240            sw $8, 576($30)
4753	48D4  3C09BD2F            lui $9, 48431
4754	48D8  35297FCF            ori $9, $9, 32719
4755	48DC  AFC90244            sw $9, 580($30)
4756	48E0  3C0A41CA            lui $10, 16842
4757	48E4  354AAA25            ori $10, $10, 43557
4758	48E8  AFCA0248            sw $10, 584($30)
4759	48EC  3C0B4517            lui $11, 17687
4760	48F0  356BB2CA            ori $11, $11, 45770
4761	48F4  AFCB024C            sw $11, 588($30)
4762	48F8  3C0C618C            lui $12, 24972
4763	48FC  358CE7ED            ori $12, $12, 59373
4764	4900  AFCC0250            sw $12, 592($30)
4765	4904  3C0D1698            lui $13, 5784
4766	4908  35ADD7C2            ori $13, $13, 55234
4767	490C  AFCD0254            sw $13, 596($30)
4768	4910  3C0ED1BA            lui $14, 53690
4769	4914  35CED144            ori $14, $14, 53572
4770	4918  AFCE0258            sw $14, 600($30)
4771	491C  3C0FEE05            lui $15, 60933
4772	4920  35EFAB79            ori $15, $15, 43897
4773	4924  AFCF025C            sw $15, 604($30)
4774	4928  3C084628            lui $8, 17960
4775	492C  35085DC2            ori $8, $8, 24002
4776	4930  AFC80260            sw $8, 608($30)
4777	4934  3C095A8E            lui $9, 23182
4778	4938  35291694            ori $9, $9, 5780
4779	493C  AFC90264            sw $9, 612($30)
4780	4940  3C0AA012            lui $10, 40978
4781	4944  354A3581            ori $10, $10, 13697
4782	4948  AFCA0268            sw $10, 616($30)
4783	494C  3C0B1015            lui $11, 4117
4784	4950  356B2705            ori $11, $11, 9989
4785	4954  AFCB026C            sw $11, 620($30)
4786	4958  3C0C86E3            lui $12, 34531
4787	495C  358C7CC6            ori $12, $12, 31942
4788	4960  AFCC0270            sw $12, 624($30)
4789	4964  3C0D4820            lui $13, 18464
4790	4968  35AD5A79            ori $13, $13, 23161
4791	496C  AFCD0274            sw $13, 628($30)
4792	4970  3C0E18A3            lui $14, 6307
4793	4974  35CEEAB1            ori $14, $14, 60081
4794	4978  AFCE0278            sw $14, 632($30)
4795	497C  3C0FD956            lui $15, 55638
4796	4980  35EF0CA2            ori $15, $15, 3234
4797	4984  AFCF027C            sw $15, 636($30)
4798	4988  3C087EA9            lui $8, 32425
4799	498C  3508BB1B            ori $8, $8, 47899
4800	4990  AFC80280            sw $8, 640($30)
4801	4994  3C091D5E            lui $9, 7518
4802	4998  35295B63            ori $9, $9, 23395
4803	499C  AFC90284            sw $9, 644($30)
4804	49A0  3C0A1947            lui $10, 6471
4805	49A4  354A1F0D            ori $10, $10, 7949
4806	49A8  AFCA0288            sw $10, 648($30)
4807	49AC  3C0B76E8            lui $11, 30440
4808	49B0  356B1960            ori $11, $11, 6496
4809	49B4  AFCB028C            sw $11, 652($30)
4810	49B8  3C0C472F            lui $12, 18223
4811	49BC  358CABA1            ori $12, $12, 43937
4812	49C0  AFCC0290            sw $12, 656($30)
4813	49C4  3C0D5392            lui $13, 21394
4814	49C8  35AD42B3            ori $13, $13, 17075
4815	49CC  AFCD0294            sw $13, 660($30)
4816	49D0  3C0EE137            lui $14, 57655
4817	49D4  35CEE43F            ori $14, $14, 58431
4818	49D8  AFCE0298            sw $14, 664($30)
4819	49DC  3C0FD457            lui $15, 54359
4820	49E0  35EF09AE            ori $15, $15, 2478
4821	49E4  AFCF029C            sw $15, 668($30)
4822	49E8  3C0826E6            lui $8, 9958
4823	49EC  35084A26            ori $8, $8, 18982
4824	49F0  AFC802A0            sw $8, 672($30)
4825	49F4  3C09F23B            lui $9, 62011
4826	49F8  35290AD1            ori $9, $9, 2769
4827	49FC  AFC902A4            sw $9, 676($30)
4828	4A00  3C0A2003            lui $10, 8195
4829	4A04  354AE742            ori $10, $10, 59202
4830	4A08  AFCA02A8            sw $10, 680($30)
4831	4A0C  3C0BC0F0            lui $11, 49392
4832	4A10  356B862C            ori $11, $11, 34348
4833	4A14  AFCB02AC            sw $11, 684($30)
4834	4A18  3C0C866E            lui $12, 34414
4835	4A1C  358CC860            ori $12, $12, 51296
4836	4A20  AFCC02B0            sw $12, 688($30)
4837	4A24  3C0DAD05            lui $13, 44293
4838	4A28  35ADBC7A            ori $13, $13, 48250
4839	4A2C  AFCD02B4            sw $13, 692($30)
4840	4A30  3C0E8519            lui $14, 34073
4841	4A34  35CE99F1            ori $14, $14, 39409
4842	4A38  AFCE02B8            sw $14, 696($30)
4843	4A3C  3C0F091C            lui $15, 2332
4844	4A40  35EF0A38            ori $15, $15, 2616
4845	4A44  AFCF02BC            sw $15, 700($30)
4846	4A48  3C08A484            lui $8, 42116
4847	4A4C  3508925E            ori $8, $8, 37470
4848	4A50  AFC802C0            sw $8, 704($30)
4849	4A54  3C09F31B            lui $9, 62235
4850	4A58  35296C0C            ori $9, $9, 27660
4851	4A5C  AFC902C4            sw $9, 708($30)
4852	4A60  3C0AC7B3            lui $10, 51123
4853	4A64  354A3CA8            ori $10, $10, 15528
4854	4A68  AFCA02C8            sw $10, 712($30)
4855	4A6C  3C0B903C            lui $11, 36924
4856	4A70  356B3752            ori $11, $11, 14162
4857	4A74  AFCB02CC            sw $11, 716($30)
4858	4A78  3C0C8200            lui $12, 33280
4859	4A7C  358C7464            ori $12, $12, 29796
4860	4A80  AFCC02D0            sw $12, 720($30)
4861	4A84  3C0D71CA            lui $13, 29130
4862	4A88  35AD0B96            ori $13, $13, 2966
4863	4A8C  AFCD02D4            sw $13, 724($30)
4864	4A90  3C0EC0E2            lui $14, 49378
4865	4A94  35CEE7A1            ori $14, $14, 59297
4866	4A98  AFCE02D8            sw $14, 728($30)
4867	4A9C  3C0FFB8B            lui $15, 64395
4868	4AA0  35EFFF35            ori $15, $15, 65333
4869	4AA4  AFCF02DC            sw $15, 732($30)
4870	4AA8  3C083368            lui $8, 13160
4871	4AAC  3508FC86            ori $8, $8, 64646
4872	4AB0  AFC802E0            sw $8, 736($30)
4873	4AB4  3C09D70D            lui $9, 55053
4874	4AB8  3529C583            ori $9, $9, 50563
4875	4ABC  AFC902E4            sw $9, 740($30)
4876	4AC0  3C0A0F24            lui $10, 3876
4877	4AC4  354A6C7B            ori $10, $10, 27771
4878	4AC8  AFCA02E8            sw $10, 744($30)
4879	4ACC  3C0B9196            lui $11, 37270
4880	4AD0  356B8FC7            ori $11, $11, 36807
4881	4AD4  AFCB02EC            sw $11, 748($30)
4882	4AD8  3C0C7AED            lui $12, 31469
4883	4ADC  358CBC3C            ori $12, $12, 48188
4884	4AE0  AFCC02F0            sw $12, 752($30)
4885	4AE4  3C0D040C            lui $13, 1036
4886	4AE8  35ADAF83            ori $13, $13, 44931
4887	4AEC  AFCD02F4            sw $13, 756($30)
4888	4AF0  3C0EA2EE            lui $14, 41710
4889	4AF4  35CE7801            ori $14, $14, 30721
4890	4AF8  AFCE02F8            sw $14, 760($30)
4891	4AFC  3C0FEFE7            lui $15, 61415
4892	4B00  35EF0979            ori $15, $15, 2425
4893	4B04  AFCF02FC            sw $15, 764($30)
4894	4B08  3C082996            lui $8, 10646
4895	4B0C  350850C1            ori $8, $8, 20673
4896	4B10  AFC80300            sw $8, 768($30)
4897	4B14  3C091A45            lui $9, 6725
4898	4B18  352983DF            ori $9, $9, 33759
4899	4B1C  AFC90304            sw $9, 772($30)
4900	4B20  3C0AAFCD            lui $10, 45005
4901	4B24  354A9FCF            ori $10, $10, 40911
4902	4B28  AFCA0308            sw $10, 776($30)
4903	4B2C  3C0B7234            lui $11, 29236
4904	4B30  356B20AB            ori $11, $11, 8363
4905	4B34  AFCB030C            sw $11, 780($30)
4906	4B38  3C0CDCC5            lui $12, 56517
4907	4B3C  358CBFFA            ori $12, $12, 49146
4908	4B40  AFCC0310            sw $12, 784($30)
4909	4B44  3C0D8FF5            lui $13, 36853
4910	4B48  35AD41D2            ori $13, $13, 16850
4911	4B4C  AFCD0314            sw $13, 788($30)
4912	4B50  3C0E4A2D            lui $14, 18989
4913	4B54  35CE0732            ori $14, $14, 1842
4914	4B58  AFCE0318            sw $14, 792($30)
4915	4B5C  3C0FF442            lui $15, 62530
4916	4B60  35EF136F            ori $15, $15, 4975
4917	4B64  AFCF031C            sw $15, 796($30)
4918	4B68  3C0848BF            lui $8, 18623
4919	4B6C  3508EAA9            ori $8, $8, 60073
4920	4B70  AFC80320            sw $8, 800($30)
4921	4B74  3C09701E            lui $9, 28702
4922	4B78  3529C45C            ori $9, $9, 50268
4923	4B7C  AFC90324            sw $9, 804($30)
4924	4B80  3C0ACFFA            lui $10, 53242
4925	4B84  354A35DF            ori $10, $10, 13791
4926	4B88  AFCA0328            sw $10, 808($30)
4927	4B8C  3C0B0F6A            lui $11, 3946
4928	4B90  356BF089            ori $11, $11, 61577
4929	4B94  AFCB032C            sw $11, 812($30)
4930	4B98  3C0C61CB            lui $12, 25035
4931	4B9C  358C625A            ori $12, $12, 25178
4932	4BA0  AFCC0330            sw $12, 816($30)
4933	4BA4  3C0DFD2B            lui $13, 64811
4934	4BA8  35AD21EF            ori $13, $13, 8687
4935	4BAC  AFCD0334            sw $13, 820($30)
4936	4BB0  3C0E00E4            lui $14, 228
4937	4BB4  35CE6B7F            ori $14, $14, 27519
4938	4BB8  AFCE0338            sw $14, 824($30)
4939	4BBC  3C0F3E4F            lui $15, 15951
4940	4BC0  35EF89F7            ori $15, $15, 35319
4941	4BC4  AFCF033C            sw $15, 828($30)
4942	4BC8  3C084A09            lui $8, 18953
4943	4BCC  350866D6            ori $8, $8, 26326
4944	4BD0  AFC80340            sw $8, 832($30)
4945	4BD4  3C09A3D6            lui $9, 41942
4946	4BD8  3529E4A8            ori $9, $9, 58536
4947	4BDC  AFC90344            sw $9, 836($30)
4948	4BE0  3C0A016D            lui $10, 365
4949	4BE4  354ADE12            ori $10, $10, 56850
4950	4BE8  AFCA0348            sw $10, 840($30)
4951	4BEC  3C0BA8CF            lui $11, 43215
4952	4BF0  356B04C3            ori $11, $11, 1219
4953	4BF4  AFCB034C            sw $11, 844($30)
4954	4BF8  3C0C53EB            lui $12, 21483
4955	4BFC  358C1463            ori $12, $12, 5219
4956	4C00  AFCC0350            sw $12, 848($30)
4957	4C04  3C0D5A4A            lui $13, 23114
4958	4C08  35ADF64F            ori $13, $13, 63055
4959	4C0C  AFCD0354            sw $13, 852($30)
4960	4C10  3C0E01F8            lui $14, 504
4961	4C14  35CEA4A1            ori $14, $14, 42145
4962	4C18  AFCE0358            sw $14, 856($30)
4963	4C1C  3C0F1112            lui $15, 4370
4964	4C20  35EFBF22            ori $15, $15, 48930
4965	4C24  AFCF035C            sw $15, 860($30)
4966	4C28  3C08F49A            lui $8, 62618
4967	4C2C  35082B6A            ori $8, $8, 11114
4968	4C30  AFC80360            sw $8, 864($30)
4969	4C34  3C09C2BD            lui $9, 49853
4970	4C38  35290E40            ori $9, $9, 3648
4971	4C3C  AFC90364            sw $9, 868($30)
4972	4C40  3C0A9C08            lui $10, 39944
4973	4C44  354A5980            ori $10, $10, 22912
4974	4C48  AFCA0368            sw $10, 872($30)
4975	4C4C  3C0BE144            lui $11, 57668
4976	4C50  356BFC4C            ori $11, $11, 64588
4977	4C54  AFCB036C            sw $11, 876($30)
4978	4C58  3C0CAEE4            lui $12, 44772
4979	4C5C  358CC896            ori $12, $12, 51350
4980	4C60  AFCC0370            sw $12, 880($30)
4981	4C64  3C0DAA66            lui $13, 43622
4982	4C68  35ADDFD6            ori $13, $13, 57302
4983	4C6C  AFCD0374            sw $13, 884($30)
4984	4C70  3C0EC532            lui $14, 50482
4985	4C74  35CE4C7E            ori $14, $14, 19582
4986	4C78  AFCE0378            sw $14, 888($30)
4987	4C7C  3C0F1A32            lui $15, 6706
4988	4C80  35EF13F3            ori $15, $15, 5107
4989	4C84  AFCF037C            sw $15, 892($30)
4990	4C88  3C08D78B            lui $8, 55179
4991	4C8C  350814A7            ori $8, $8, 5287
4992	4C90  AFC80380            sw $8, 896($30)
4993	4C94  3C095E1D            lui $9, 24093
4994	4C98  3529178C            ori $9, $9, 6028
4995	4C9C  AFC90384            sw $9, 900($30)
4996	4CA0  3C0AA3F4            lui $10, 41972
4997	4CA4  354A902C            ori $10, $10, 36908
4998	4CA8  AFCA0388            sw $10, 904($30)
4999	4CAC  3C0B1C30            lui $11, 7216
5000	4CB0  356B2820            ori $11, $11, 10272
5001	4CB4  AFCB038C            sw $11, 908($30)
5002	4CB8  3C0CC3E4            lui $12, 50148
5003	4CBC  358CB924            ori $12, $12, 47396
5004	4CC0  AFCC0390            sw $12, 912($30)
5005	4CC4  3C0DFBE4            lui $13, 64484
5006	4CC8  35AD31BA            ori $13, $13, 12730
5007	4CCC  AFCD0394            sw $13, 916($30)
5008	4CD0  3C0E2D4E            lui $14, 11598
5009	4CD4  35CE5541            ori $14, $14, 21825
5010	4CD8  AFCE0398            sw $14, 920($30)
5011	4CDC  3C0F8F58            lui $15, 36696
5012	4CE0  35EF35D9            ori $15, $15, 13785
5013	4CE4  AFCF039C            sw $15, 924($30)
5014	4CE8  3C080C4E            lui $8, 3150
5015	4CEC  35087DCE            ori $8, $8, 32206
5016	4CF0  AFC803A0            sw $8, 928($30)
5017	4CF4  3C093A44            lui $9, 14916
5018	4CF8  35296840            ori $9, $9, 26688
5019	4CFC  AFC903A4            sw $9, 932($30)
5020	4D00  3C0A6320            lui $10, 25376
5021	4D04  354ACF00            ori $10, $10, 52992
5022	4D08  AFCA03A8            sw $10, 936($30)
5023	4D0C  3C0BB7D7            lui $11, 47063
5024	4D10  356B41A4            ori $11, $11, 16804
5025	4D14  AFCB03AC            sw $11, 940($30)
5026	4D18  3C0C40A0            lui $12, 16544
5027	4D1C  358C9D04            ori $12, $12, 40196
5028	4D20  AFCC03B0            sw $12, 944($30)
5029	4D24  3C0D024A            lui $13, 586
5030	4D28  35AD09D8            ori $13, $13, 2520
5031	4D2C  AFCD03B4            sw $13, 948($30)
5032	4D30  3C0EEB30            lui $14, 60208
5033	4D34  35CEED00            ori $14, $14, 60672
5034	4D38  AFCE03B8            sw $14, 952($30)
5035	4D3C  3C0F80F9            lui $15, 33017
5036	4D40  35EF689A            ori $15, $15, 26778
5037	4D44  AFCF03BC            sw $15, 956($30)
5038	4D48  3C08236C            lui $8, 9068
5039	4D4C  350885C0            ori $8, $8, 34240
5040	4D50  AFC803C0            sw $8, 960($30)
5041	4D54  3C09C024            lui $9, 49188
5042	4D58  35293D60            ori $9, $9, 15712
5043	4D5C  AFC903C4            sw $9, 964($30)
5044	4D60  3C0A5A49            lui $10, 23113
5045	4D64  354ABDF2            ori $10, $10, 48626
5046	4D68  AFCA03C8            sw $10, 968($30)
5047	4D6C  3C0B9B5C            lui $11, 39772
5048	4D70  356B3C13            ori $11, $11, 15379
5049	4D74  AFCB03CC            sw $11, 972($30)
5050	4D78  3C0C6AD8            lui $12, 27352
5051	4D7C  358C655E            ori $12, $12, 25950
5052	4D80  AFCC03D0            sw $12, 976($30)
5053	4D84  3C0DA604            lui $13, 42500
5054	4D88  35AD327E            ori $13, $13, 12926
5055	4D8C  AFCD03D4            sw $13, 980($30)
5056	4D90  3C0E5D03            lui $14, 23811
5057	4D94  35CE425E            ori $14, $14, 16990
5058	4D98  AFCE03D8            sw $14, 984($30)
5059	4D9C  3C0FAA09            lui $15, 43529
5060	4DA0  35EFAC2A            ori $15, $15, 44074
5061	4DA4  AFCF03DC            sw $15, 988($30)
5062	4DA8  3C085C6A            lui $8, 23658
5063	4DAC  3508DB3B            ori $8, $8, 56123
5064	4DB0  AFC803E0            sw $8, 992($30)
5065	4DB4  3C09CD8A            lui $9, 52618
5066	4DB8  35298AB0            ori $9, $9, 35504
5067	4DBC  AFC903E4            sw $9, 996($30)
5068	4DC0  3C0A0FAB            lui $10, 4011
5069	4DC4  354AA500            ori $10, $10, 42240
5070	4DC8  AFCA03E8            sw $10, 1000($30)
5071	4DCC  3C0BF9BA            lui $11, 63930
5072	4DD0  356B67F0            ori $11, $11, 26608
5073	4DD4  AFCB03EC            sw $11, 1004($30)
5074	4DD8  3C0C5148            lui $12, 20808
5075	4DDC  358C6241            ori $12, $12, 25153
5076	4DE0  AFCC03F0            sw $12, 1008($30)
5077	4DE4  3C0D6646            lui $13, 26182
5078	4DE8  35ADE0BC            ori $13, $13, 57532
5079	4DEC  AFCD03F4            sw $13, 1012($30)
5080	4DF0  3C0E18F6            lui $14, 6390
5081	4DF4  35CE14A0            ori $14, $14, 5280
5082	4DF8  AFCE03F8            sw $14, 1016($30)
5083	4DFC  3C0F3A6A            lui $15, 14954
5084	4E00  35EFF069            ori $15, $15, 61545
5085	4E04  AFCF03FC            sw $15, 1020($30)
5086	4E08  3C08C8E5            lui $8, 51429
5087	4E0C  35088281            ori $8, $8, 33409
5088	4E10  AFC80400            sw $8, 1024($30)
5089	4E14  3C09AC23            lui $9, 44067
5090	4E18  3529A7C4            ori $9, $9, 42948
5091	4E1C  AFC90404            sw $9, 1028($30)
5092	4E20  3C0A66B0            lui $10, 26288
5093	4E24  354AF47E            ori $10, $10, 62590
5094	4E28  AFCA0408            sw $10, 1032($30)
5095	4E2C  3C0B6EFF            lui $11, 28415
5096	4E30  356B962D            ori $11, $11, 38445
5097	4E34  AFCB040C            sw $11, 1036($30)
5098	4E38  3C0C5EEC            lui $12, 24300
5099	4E3C  358C4783            ori $12, $12, 18307
5100	4E40  AFCC0410            sw $12, 1040($30)
5101	4E44  3C0D9DEA            lui $13, 40426
5102	4E48  35AD5F66            ori $13, $13, 24422
5103	4E4C  AFCD0414            sw $13, 1044($30)
5104	4E50  3C0E1FB7            lui $14, 8119
5105	4E54  35CEF322            ori $14, $14, 62242
5106	4E58  AFCE0418            sw $14, 1048($30)
5107	4E5C  3C0FDAF2            lui $15, 56050
5108	4E60  35EF7D0A            ori $15, $15, 32010
5109	4E64  AFCF041C            sw $15, 1052($30)
5110	4E68  3C08B17F            lui $8, 45439
5111	4E6C  35082CD7            ori $8, $8, 11479
5112	4E70  AFC80420            sw $8, 1056($30)
5113	4E74  3C091E66            lui $9, 7782
5114	4E78  35296877            ori $9, $9, 26743
5115	4E7C  AFC90424            sw $9, 1060($30)
5116	4E80  3C0AD470            lui $10, 54384
5117	4E84  354AE7A2            ori $10, $10, 59298
5118	4E88  AFCA0428            sw $10, 1064($30)
5119	4E8C  3C0B75E1            lui $11, 30177
5120	4E90  356B0F02            ori $11, $11, 3842
5121	4E94  AFCB042C            sw $11, 1068($30)
5122	4E98  3C0CE49E            lui $12, 58526
5123	4E9C  358CEB61            ori $12, $12, 60257
5124	4EA0  AFCC0430            sw $12, 1072($30)
5125	4EA4  3C0D9648            lui $13, 38472
5126	4EA8  35ADC9FF            ori $13, $13, 51711
5127	4EAC  AFCD0434            sw $13, 1076($30)
5128	4EB0  3C0EC5CB            lui $14, 50635
5129	4EB4  35CEBF6F            ori $14, $14, 49007
5130	4EB8  AFCE0438            sw $14, 1080($30)
5131	4EBC  3C0F69EF            lui $15, 27119
5132	4EC0  35EFCCC9            ori $15, $15, 52425
5133	4EC4  AFCF043C            sw $15, 1084($30)
5134	4EC8  3C08E14E            lui $8, 57678
5135	4ECC  3508B402            ori $8, $8, 46082
5136	4ED0  AFC80440            sw $8, 1088($30)
5137	4ED4  3C095B5A            lui $9, 23386
5138	4ED8  352976A5            ori $9, $9, 30373
5139	4EDC  AFC90444            sw $9, 1092($30)
5140	4EE0  3C0A444A            lui $10, 17482
5141	4EE4  354AD9E0            ori $10, $10, 55776
5142	4EE8  AFCA0448            sw $10, 1096($30)
5143	4EEC  3C0B9AEC            lui $11, 39660
5144	4EF0  356B481D            ori $11, $11, 18461
5145	4EF4  AFCB044C            sw $11, 1100($30)
5146	4EF8  3C0C2E8A            lui $12, 11914
5147	4EFC  358C2E83            ori $12, $12, 11907
5148	4F00  AFCC0450            sw $12, 1104($30)
5149	4F04  3C0DFCA9            lui $13, 64681
5150	4F08  35AD7869            ori $13, $13, 30825
5151	4F0C  AFCD0454            sw $13, 1108($30)
5152	4F10  3C0EEBA1            lui $14, 60321
5153	4F14  35CE3D3F            ori $14, $14, 15679
5154	4F18  AFCE0458            sw $14, 1112($30)
5155	4F1C  3C0F63DE            lui $15, 25566
5156	4F20  35EFB7FC            ori $15, $15, 47100
5157	4F24  AFCF045C            sw $15, 1116($30)
5158	4F28  3C08952A            lui $8, 38186
5159	4F2C  3508680B            ori $8, $8, 26635
5160	4F30  AFC80460            sw $8, 1120($30)
5161	4F34  3C09D01E            lui $9, 53278
5162	4F38  352922E0            ori $9, $9, 8928
5163	4F3C  AFC90464            sw $9, 1124($30)
5164	4F40  3C0A4C75            lui $10, 19573
5165	4F44  354AFB52            ori $10, $10, 64338
5166	4F48  AFCA0468            sw $10, 1128($30)
5167	4F4C  3C0B0EB3            lui $11, 3763
5168	4F50  356B4F3B            ori $11, $11, 20283
5169	4F54  AFCB046C            sw $11, 1132($30)
5170	4F58  3C0C2409            lui $12, 9225
5171	4F5C  358C32C1            ori $12, $12, 12993
5172	4F60  AFCC0470            sw $12, 1136($30)
5173	4F64  3C0DCCD3            lui $13, 52435
5174	4F68  35AD07A7            ori $13, $13, 1959
5175	4F6C  AFCD0474            sw $13, 1140($30)
5176	4F70  3C0E8A83            lui $14, 35459
5177	4F74  35CEE183            ori $14, $14, 57731
5178	4F78  AFCE0478            sw $14, 1144($30)
5179	4F7C  3C0FC704            lui $15, 50948
5180	4F80  35EFC18E            ori $15, $15, 49550
5181	4F84  AFCF047C            sw $15, 1148($30)
5182	4F88  3C08C907            lui $8, 51463
5183	4F8C  35089789            ori $8, $8, 38793
5184	4F90  AFC80480            sw $8, 1152($30)
5185	4F94  3C091817            lui $9, 6167
5186	4F98  3529EDEF            ori $9, $9, 60911
5187	4F9C  AFC90484            sw $9, 1156($30)
5188	4FA0  3C0A7DA3            lui $10, 32163
5189	4FA4  354ADF60            ori $10, $10, 57184
5190	4FA8  AFCA0488            sw $10, 1160($30)
5191	4FAC  3C0BD9C9            lui $11, 55753
5192	4FB0  356B143C            ori $11, $11, 5180
5193	4FB4  AFCB048C            sw $11, 1164($30)
5194	4FB8  3C0C7D19            lui $12, 32025
5195	4FBC  358C2B61            ori $12, $12, 11105
5196	4FC0  AFCC0490            sw $12, 1168($30)
5197	4FC4  3C0DD5E0            lui $13, 54752
5198	4FC8  35AD4F69            ori $13, $13, 20329
5199	4FCC  AFCD0494            sw $13, 1172($30)
5200	4FD0  3C0E5DE3            lui $14, 24035
5201	4FD4  35CEC87D            ori $14, $14, 51325
5202	4FD8  AFCE0498            sw $14, 1176($30)
5203	4FDC  3C0FFAFF            lui $15, 64255
5204	4FE0  35EF57D7            ori $15, $15, 22487
5205	4FE4  AFCF049C            sw $15, 1180($30)
5206	4FE8  3C08BE7A            lui $8, 48762
5207	4FEC  35082247            ori $8, $8, 8775
5208	4FF0  AFC804A0            sw $8, 1184($30)
5209	4FF4  3C092F74            lui $9, 12148
5210	4FF8  3529ED98            ori $9, $9, 60824
5211	4FFC  AFC904A4            sw $9, 1188($30)
5212	5000  3C0A4078            lui $10, 16504
5213	5004  354A443F            ori $10, $10, 17471
5214	5008  AFCA04A8            sw $10, 1192($30)
5215	500C  3C0B0723            lui $11, 1827
5216	5010  356BE7A5            ori $11, $11, 59301
5217	5014  AFCB04AC            sw $11, 1196($30)
5218	5018  3C0CDD86            lui $12, 56710
5219	501C  358C4EB3            ori $12, $12, 20147
5220	5020  AFCC04B0            sw $12, 1200($30)
5221	5024  3C0D8FB1            lui $13, 36785
5222	5028  35AD7B4F            ori $13, $13, 31567
5223	502C  AFCD04B4            sw $13, 1204($30)
5224	5030  3C0E30CE            lui $14, 12494
5225	5034  35CE3B82            ori $14, $14, 15234
5226	5038  AFCE04B8            sw $14, 1208($30)
5227	503C  3C0F3D7E            lui $15, 15742
5228	5040  35EF2E95            ori $15, $15, 11925
5229	5044  AFCF04BC            sw $15, 1212($30)
5230	5048  3C08C363            lui $8, 50019
5231	504C  3508F900            ori $8, $8, 63744
5232	5050  AFC804C0            sw $8, 1216($30)
5233	5054  3C09CE9F            lui $9, 52895
5234	5058  352973CF            ori $9, $9, 29647
5235	505C  AFC904C4            sw $9, 1220($30)
5236	5060  3C0AD833            lui $10, 55347
5237	5064  354A45BB            ori $10, $10, 17851
5238	5068  AFCA04C8            sw $10, 1224($30)
5239	506C  3C0B0C04            lui $11, 3076
5240	5070  356B6E7C            ori $11, $11, 28284
5241	5074  AFCB04CC            sw $11, 1228($30)
5242	5078  3C0C6A29            lui $12, 27177
5243	507C  358CDBC8            ori $12, $12, 56264
5244	5080  AFCC04D0            sw $12, 1232($30)
5245	5084  3C0D3AB1            lui $13, 15025
5246	5088  35ADDAE7            ori $13, $13, 56039
5247	508C  AFCD04D4            sw $13, 1236($30)
5248	5090  3C0E617A            lui $14, 24954
5249	5094  35CE4C7C            ori $14, $14, 19580
5250	5098  AFCE04D8            sw $14, 1240($30)
5251	509C  3C0F8184            lui $15, 33156
5252	50A0  35EF4CC2            ori $15, $15, 19650
5253	50A4  AFCF04DC            sw $15, 1244($30)
5254	50A8  3C08CD74            lui $8, 52596
5255	50AC  35083E06            ori $8, $8, 15878
5256	50B0  AFC804E0            sw $8, 1248($30)
5257	50B4  3C096627            lui $9, 26151
5258	50B8  35294112            ori $9, $9, 16658
5259	50BC  AFC904E4            sw $9, 1252($30)
5260	50C0  3C0ABFEF            lui $10, 49135
5261	50C4  354A43D4            ori $10, $10, 17364
5262	50C8  AFCA04E8            sw $10, 1256($30)
5263	50CC  3C0B2AFB            lui $11, 11003
5264	50D0  356BCDD5            ori $11, $11, 52693
5265	50D4  AFCB04EC            sw $11, 1260($30)
5266	50D8  3C0CAA63            lui $12, 43619
5267	50DC  358CBCF7            ori $12, $12, 48375
5268	50E0  AFCC04F0            sw $12, 1264($30)
5269	50E4  3C0D2F6E            lui $13, 12142
5270	50E8  35AD9EA8            ori $13, $13, 40616
5271	50EC  AFCD04F4            sw $13, 1268($30)
5272	50F0  3C0E11CC            lui $14, 4556
5273	50F4  35CEA9A2            ori $14, $14, 43426
5274	50F8  AFCE04F8            sw $14, 1272($30)
5275	50FC  3C0F2EE9            lui $15, 12009
5276	5100  35EF8FD0            ori $15, $15, 36816
5277	5104  AFCF04FC            sw $15, 1276($30)
5278	5108  3C0891E7            lui $8, 37351
5279	510C  350824B9            ori $8, $8, 9401
5280	5110  AFC80500            sw $8, 1280($30)
5281	5114  3C094875            lui $9, 18549
5282	5118  35293149            ori $9, $9, 12617
5283	511C  AFC90504            sw $9, 1284($30)
5284	5120  3C0AFABB            lui $10, 64187
5285	5124  354AE17F            ori $10, $10, 57727
5286	5128  AFCA0508            sw $10, 1288($30)
5287	512C  3C0BEFF6            lui $11, 61430
5288	5130  356BB261            ori $11, $11, 45665
5289	5134  AFCB050C            sw $11, 1292($30)
5290	5138  3C0C9390            lui $12, 37776
5291	513C  358CEDE4            ori $12, $12, 60900
5292	5140  AFCC0510            sw $12, 1296($30)
5293	5144  3C0DB26D            lui $13, 45677
5294	5148  35ADE219            ori $13, $13, 57881
5295	514C  AFCD0514            sw $13, 1300($30)
5296	5150  3C0E0634            lui $14, 1588
5297	5154  35CE47C0            ori $14, $14, 18368
5298	5158  AFCE0518            sw $14, 1304($30)
5299	515C  3C0F9FE4            lui $15, 40932
5300	5160  35EFA337            ori $15, $15, 41783
5301	5164  AFCF051C            sw $15, 1308($30)
5302	5168  3C080A83            lui $8, 2691
5303	516C  3508B806            ori $8, $8, 47110
5304	5170  AFC80520            sw $8, 1312($30)
5305	5174  3C09E158            lui $9, 57688
5306	5178  3529B60E            ori $9, $9, 46606
5307	517C  AFC90524            sw $9, 1316($30)
5308	5180  3C0A5F5C            lui $10, 24412
5309	5184  354A9BFC            ori $10, $10, 39932
5310	5188  AFCA0528            sw $10, 1320($30)
5311	518C  3C0BDF82            lui $11, 57218
5312	5190  356B7FBD            ori $11, $11, 32701
5313	5194  AFCB052C            sw $11, 1324($30)
5314	5198  03E00008            jr $31
5315	                          
5316	                          end:
5317	519C  08001467              j end
5318	                          
Table des tiquettes :
end	519C
init_patterns	4208
increment_offset	41F8
reset_hi_lo	41E4
reset_offsets	41D0
load_patterns	41C4
operation_lw0_sw0	41B4
operation_lw_sw	41A0
operation_mtc0_mfc0	4184
operation_xori	3720
operation_sltiu	2CBC
operation_slti	2258
operation_ori	17F4
operation_andi	0D90
operation_addiu	032C
operation_mtlo_hi_lo	0310
operation_mthi_hi_lo	02F4
operation_multu_hi	02D8
operation_multu_lo	02BC
operation_mult_hi	02A0
operation_mult_lo	0284
operation_mtlo	026C
operation_mthi	0254
operation_mflo	023C
operation_mfhi	0220
operation_multu	0204
operation_mult	01EC
operation_sra	01D4
operation_srl	01BC
operation_sll	01A4
operation_srlv	018C
operation_srav	0174
operation_sltu	015C
operation_slt	0144
operation_sllv	012C
operation_xor	0114
operation_subu	00FC
operation_or	00E4
operation_nor	00CC
operation_and	00B4
operation_addu	009C
main	0080
_reset	0000
