1	                          ;CODE MEMORY: (0x00000000-0x0000FFFF)
2	                          ;DATA MEMORY: (0x00010000-0x0001FFFF)
3	                          
4	                          org 0000
5	                          
6	0000  400D8000            mfc0 $16, $13
7	0004  12000011            beq $16, $0, _reset
8	                          
9	                          exception_handler:
10	0008  400C8000             mfc0 $16, $12
11	000C  400D8800             mfc0 $17, $13
12	0010  400E9800             mfc0 $19, $14
13	0014  400FA000             mfc0 $20, $15
14	0018  AFB00000             sw $16, 0($29)
15	001C  AFB10004             sw $17, 4($29)
16	0020  AFB30008             sw $19, 8($29)
17	0024  AFB4000C             sw $20, 12($29)
18	0028  22730004             addi $19, $19, 4
19	002C  40937000             mtc0 $19, $14
20	0030  400CA800             mfc0 $21, $12
21	0034  22B5FFFD             addi $21, $21, 65533
22	0038  36B50001             ori $21, $21, 1
23	003C  40956000             mtc0 $21, $12
24	0040  40200004             cop0 4
25	0044  02600008             jr $19
26	                          
27	                          _reset:
28	0048  00000026             xor $0, $0, $0
29	004C  00210826             xor $1, $1, $1
30	0050  00421026             xor $2, $2, $2
31	0054  00631826             xor $3, $3, $3
32	0058  00842026             xor $4, $4, $4
33	005C  00A52826             xor $5, $5, $5
34	0060  00C63026             xor $6, $6, $6
35	0064  00E73826             xor $7, $7, $7
36	0068  01084026             xor $8, $8, $8
37	006C  01294826             xor $9, $9, $9
38	0070  014A5026             xor $10, $10, $10
39	0074  016B5826             xor $11, $11, $11
40	0078  018C6026             xor $12, $12, $12
41	007C  01AD6826             xor $13, $13, $13
42	0080  01CE7026             xor $14, $14, $14
43	0084  01EF7826             xor $15, $15, $15
44	0088  02108026             xor $16, $16, $16
45	008C  02318826             xor $17, $17, $17
46	0090  02529026             xor $18, $18, $18
47	0094  02739826             xor $19, $19, $19
48	0098  0294A026             xor $20, $20, $20
49	009C  02B5A826             xor $21, $21, $21
50	00A0  02D6B026             xor $22, $22, $22
51	00A4  02F7B826             xor $23, $23, $23
52	00A8  0318C026             xor $24, $24, $24
53	00AC  0339C826             xor $25, $25, $25
54	00B0  035AD026             xor $26, $26, $26
55	00B4  037BD826             xor $27, $27, $27
56	00B8  039CE026             xor $28, $28, $28
57	00BC  03BDE826             xor $29, $29, $29
58	00C0  03DEF026             xor $30, $30, $30
59	00C4  03FFF826             xor $31, $31, $31
60	                          
61	                          main:
62	                          ;........initialize all registers..............;
63	                          reg_special:
64	00C8  3C00FFFF             lui $0, 65535
65	00CC  3400FFFF             ori $0, $0, 65535
66	00D0  3C01FFFF             lui $1, 65535
67	00D4  3421FFFF             ori $1, $1, 65535
68	00D8  3C02FFFF             lui $2, 65535
69	00DC  3442FFFF             ori $2, $2, 65535
70	00E0  3C03FFFF             lui $3, 65535
71	00E4  3463FFFF             ori $3, $3, 65535
72	00E8  3C04FFFF             lui $4, 65535
73	00EC  3484FFFF             ori $4, $4, 65535
74	00F0  3C05FFFF             lui $5, 65535
75	00F4  34A5FFFF             ori $5, $5, 65535
76	00F8  3C06FFFF             lui $6, 65535
77	00FC  34C6FFFF             ori $6, $6, 65535
78	0100  3C07FFFF             lui $7, 65535
79	0104  34E7FFFF             ori $7, $7, 65535
80	0108  3C08FFFF             lui $8, 65535
81	010C  3508FFFF             ori $8, $8, 65535
82	0110  3C09FFFF             lui $9, 65535
83	0114  3529FFFF             ori $9, $9, 65535
84	0118  3C0AFFFF             lui $10, 65535
85	011C  354AFFFF             ori $10, $10, 65535
86	0120  3C0BFFFF             lui $11, 65535
87	0124  356BFFFF             ori $11, $11, 65535
88	0128  3C0CFFFF             lui $12, 65535
89	012C  358CFFFF             ori $12, $12, 65535
90	0130  3C0DFFFF             lui $13, 65535
91	0134  35ADFFFF             ori $13, $13, 65535
92	0138  3C0EFFFF             lui $14, 65535
93	013C  35CEFFFF             ori $14, $14, 65535
94	0140  3C0FFFFF             lui $15, 65535
95	0144  35EFFFFF             ori $15, $15, 65535
96	0148  3C10FFFF             lui $16, 65535
97	014C  3610FFFF             ori $16, $16, 65535
98	0150  3C11FFFF             lui $17, 65535
99	0154  3631FFFF             ori $17, $17, 65535
100	0158  3C12FFFF             lui $18, 65535
101	015C  3652FFFF             ori $18, $18, 65535
102	0160  3C13FFFF             lui $19, 65535
103	0164  3673FFFF             ori $19, $19, 65535
104	0168  3C14FFFF             lui $20, 65535
105	016C  3694FFFF             ori $20, $20, 65535
106	0170  3C15FFFF             lui $21, 65535
107	0174  36B5FFFF             ori $21, $21, 65535
108	0178  3C16FFFF             lui $22, 65535
109	017C  36D6FFFF             ori $22, $22, 65535
110	0180  3C17FFFF             lui $23, 65535
111	0184  36F7FFFF             ori $23, $23, 65535
112	0188  3C18FFFF             lui $24, 65535
113	018C  3718FFFF             ori $24, $24, 65535
114	0190  3C19FFFF             lui $25, 65535
115	0194  3739FFFF             ori $25, $25, 65535
116	0198  3C1AFFFF             lui $26, 65535
117	019C  375AFFFF             ori $26, $26, 65535
118	01A0  3C1BFFFF             lui $27, 65535
119	01A4  377BFFFF             ori $27, $27, 65535
120	01A8  3C1CFFFF             lui $28, 65535
121	01AC  379CFFFF             ori $28, $28, 65535
122	01B0  3C1DFFFF             lui $29, 65535
123	01B4  37BDFFFF             ori $29, $29, 65535
124	01B8  3C1EFFFF             lui $30, 65535
125	01BC  37DEFFFF             ori $30, $30, 65535
126	01C0  3C1FFFFF             lui $31, 65535
127	01C4  37FFFFFF             ori $31, $31, 65535
128	                          
129	                          ;........test special purpose registers........;
130	01C8  3C010001             lui $1, 1
131	01CC  342107D0             ori $1, $1, 2000
132	                          
133	01D0  00000024             and $0, $0, $0
134	01D4  AC200000             sw $0, 0($1)
135	01D8  3C000000             lui $0, 0
136	01DC  34000000             ori $0, $0, 0
137	01E0  00421024             and $2, $2, $2
138	01E4  AC220004             sw $2, 4($1)
139	01E8  3C020000             lui $2, 0
140	01EC  34420000             ori $2, $2, 0
141	01F0  00631824             and $3, $3, $3
142	01F4  AC230008             sw $3, 8($1)
143	01F8  3C030000             lui $3, 0
144	01FC  34630000             ori $3, $3, 0
145	0200  00842024             and $4, $4, $4
146	0204  AC24000C             sw $4, 12($1)
147	0208  3C040000             lui $4, 0
148	020C  34840000             ori $4, $4, 0
149	0210  00A52824             and $5, $5, $5
150	0214  AC250010             sw $5, 16($1)
151	0218  3C050000             lui $5, 0
152	021C  34A50000             ori $5, $5, 0
153	0220  00C63024             and $6, $6, $6
154	0224  AC260014             sw $6, 20($1)
155	0228  3C060000             lui $6, 0
156	022C  34C60000             ori $6, $6, 0
157	0230  00E73824             and $7, $7, $7
158	0234  AC270018             sw $7, 24($1)
159	0238  3C070000             lui $7, 0
160	023C  34E70000             ori $7, $7, 0
161	0240  01084024             and $8, $8, $8
162	0244  AC28001C             sw $8, 28($1)
163	0248  3C080000             lui $8, 0
164	024C  35080000             ori $8, $8, 0
165	0250  01294824             and $9, $9, $9
166	0254  AC290020             sw $9, 32($1)
167	0258  3C090000             lui $9, 0
168	025C  35290000             ori $9, $9, 0
169	0260  014A5024             and $10, $10, $10
170	0264  AC2A0024             sw $10, 36($1)
171	0268  3C0A0000             lui $10, 0
172	026C  354A0000             ori $10, $10, 0
173	0270  016B5824             and $11, $11, $11
174	0274  AC2B0028             sw $11, 40($1)
175	0278  3C0B0000             lui $11, 0
176	027C  356B0000             ori $11, $11, 0
177	0280  018C6024             and $12, $12, $12
178	0284  AC2C002C             sw $12, 44($1)
179	0288  3C0C0000             lui $12, 0
180	028C  358C0000             ori $12, $12, 0
181	0290  01AD6824             and $13, $13, $13
182	0294  AC2D0030             sw $13, 48($1)
183	0298  3C0D0000             lui $13, 0
184	029C  35AD0000             ori $13, $13, 0
185	02A0  01CE7024             and $14, $14, $14
186	02A4  AC2E0034             sw $14, 52($1)
187	02A8  3C0E0000             lui $14, 0
188	02AC  35CE0000             ori $14, $14, 0
189	02B0  01EF7824             and $15, $15, $15
190	02B4  AC2F0038             sw $15, 56($1)
191	02B8  3C0F0000             lui $15, 0
192	02BC  35EF0000             ori $15, $15, 0
193	02C0  02108024             and $16, $16, $16
194	02C4  AC30003C             sw $16, 60($1)
195	02C8  3C100000             lui $16, 0
196	02CC  36100000             ori $16, $16, 0
197	02D0  02318824             and $17, $17, $17
198	02D4  AC310040             sw $17, 64($1)
199	02D8  3C110000             lui $17, 0
200	02DC  36310000             ori $17, $17, 0
201	02E0  02529024             and $18, $18, $18
202	02E4  AC320044             sw $18, 68($1)
203	02E8  3C120000             lui $18, 0
204	02EC  36520000             ori $18, $18, 0
205	02F0  02739824             and $19, $19, $19
206	02F4  AC330048             sw $19, 72($1)
207	02F8  3C130000             lui $19, 0
208	02FC  36730000             ori $19, $19, 0
209	0300  0294A024             and $20, $20, $20
210	0304  AC34004C             sw $20, 76($1)
211	0308  3C140000             lui $20, 0
212	030C  36940000             ori $20, $20, 0
213	0310  02B5A824             and $21, $21, $21
214	0314  AC350050             sw $21, 80($1)
215	0318  3C150000             lui $21, 0
216	031C  36B50000             ori $21, $21, 0
217	0320  02D6B024             and $22, $22, $22
218	0324  AC360054             sw $22, 84($1)
219	0328  3C160000             lui $22, 0
220	032C  36D60000             ori $22, $22, 0
221	0330  02F7B824             and $23, $23, $23
222	0334  AC370058             sw $23, 88($1)
223	0338  3C170000             lui $23, 0
224	033C  36F70000             ori $23, $23, 0
225	0340  0318C024             and $24, $24, $24
226	0344  AC38005C             sw $24, 92($1)
227	0348  3C180000             lui $24, 0
228	034C  37180000             ori $24, $24, 0
229	0350  0339C824             and $25, $25, $25
230	0354  AC390060             sw $25, 96($1)
231	0358  3C190000             lui $25, 0
232	035C  37390000             ori $25, $25, 0
233	0360  035AD024             and $26, $26, $26
234	0364  AC3A0064             sw $26, 100($1)
235	0368  3C1A0000             lui $26, 0
236	036C  375A0000             ori $26, $26, 0
237	0370  037BD824             and $27, $27, $27
238	0374  AC3B0068             sw $27, 104($1)
239	0378  3C1B0000             lui $27, 0
240	037C  377B0000             ori $27, $27, 0
241	0380  039CE024             and $28, $28, $28
242	0384  AC3C006C             sw $28, 108($1)
243	0388  3C1C0000             lui $28, 0
244	038C  379C0000             ori $28, $28, 0
245	0390  03BDE824             and $29, $29, $29
246	0394  AC3D0070             sw $29, 112($1)
247	0398  3C1D0000             lui $29, 0
248	039C  37BD0000             ori $29, $29, 0
249	03A0  03DEF024             and $30, $30, $30
250	03A4  AC3E0074             sw $30, 116($1)
251	03A8  3C1E0000             lui $30, 0
252	03AC  37DE0000             ori $30, $30, 0
253	03B0  03FFF824             and $31, $31, $31
254	03B4  AC3F0078             sw $31, 120($1)
255	03B8  3C1F0000             lui $31, 0
256	03BC  37FF0000             ori $31, $31, 0
257	                          
258	03C0  00000027             nor $0, $0, $0
259	03C4  AC20007C             sw $0, 124($1)
260	03C8  3C00FFFF             lui $0, 65535
261	03CC  3400FFFF             ori $0, $0, 65535
262	03D0  00000024             and $0, $0, $0
263	03D4  AC200080             sw $0, 128($1)
264	03D8  03FFF827             nor $31, $31, $31
265	03DC  AC3F0084             sw $31, 132($1)
266	03E0  3C1FFFFF             lui $31, 65535
267	03E4  37FFFFFF             ori $31, $31, 65535
268	03E8  03FFF824             and $31, $31, $31
269	03EC  AC3F0088             sw $31, 136($1)
270	03F0  03DEF027             nor $30, $30, $30
271	03F4  AC3E008C             sw $30, 140($1)
272	03F8  3C1EFFFF             lui $30, 65535
273	03FC  37DEFFFF             ori $30, $30, 65535
274	0400  03DEF024             and $30, $30, $30
275	0404  AC3E0090             sw $30, 144($1)
276	0408  03BDE827             nor $29, $29, $29
277	040C  AC3D0094             sw $29, 148($1)
278	0410  3C1DFFFF             lui $29, 65535
279	0414  37BDFFFF             ori $29, $29, 65535
280	0418  03BDE824             and $29, $29, $29
281	041C  AC3D0098             sw $29, 152($1)
282	0420  039CE027             nor $28, $28, $28
283	0424  AC3C009C             sw $28, 156($1)
284	0428  3C1CFFFF             lui $28, 65535
285	042C  379CFFFF             ori $28, $28, 65535
286	0430  039CE024             and $28, $28, $28
287	0434  AC3C00A0             sw $28, 160($1)
288	0438  037BD827             nor $27, $27, $27
289	043C  AC3B00A4             sw $27, 164($1)
290	0440  3C1BFFFF             lui $27, 65535
291	0444  377BFFFF             ori $27, $27, 65535
292	0448  037BD824             and $27, $27, $27
293	044C  AC3B00A8             sw $27, 168($1)
294	0450  035AD027             nor $26, $26, $26
295	0454  AC3A00AC             sw $26, 172($1)
296	0458  3C1AFFFF             lui $26, 65535
297	045C  375AFFFF             ori $26, $26, 65535
298	0460  035AD024             and $26, $26, $26
299	0464  AC3A00B0             sw $26, 176($1)
300	0468  0339C827             nor $25, $25, $25
301	046C  AC3900B4             sw $25, 180($1)
302	0470  3C19FFFF             lui $25, 65535
303	0474  3739FFFF             ori $25, $25, 65535
304	0478  0339C824             and $25, $25, $25
305	047C  AC3900B8             sw $25, 184($1)
306	0480  0318C027             nor $24, $24, $24
307	0484  AC3800BC             sw $24, 188($1)
308	0488  3C18FFFF             lui $24, 65535
309	048C  3718FFFF             ori $24, $24, 65535
310	0490  0318C024             and $24, $24, $24
311	0494  AC3800C0             sw $24, 192($1)
312	0498  02F7B827             nor $23, $23, $23
313	049C  AC3700C4             sw $23, 196($1)
314	04A0  3C17FFFF             lui $23, 65535
315	04A4  36F7FFFF             ori $23, $23, 65535
316	04A8  02F7B824             and $23, $23, $23
317	04AC  AC3700C8             sw $23, 200($1)
318	04B0  02D6B027             nor $22, $22, $22
319	04B4  AC3600CC             sw $22, 204($1)
320	04B8  3C16FFFF             lui $22, 65535
321	04BC  36D6FFFF             ori $22, $22, 65535
322	04C0  02D6B024             and $22, $22, $22
323	04C4  AC3600D0             sw $22, 208($1)
324	04C8  02B5A827             nor $21, $21, $21
325	04CC  AC3500D4             sw $21, 212($1)
326	04D0  3C15FFFF             lui $21, 65535
327	04D4  36B5FFFF             ori $21, $21, 65535
328	04D8  02B5A824             and $21, $21, $21
329	04DC  AC3500D8             sw $21, 216($1)
330	04E0  0294A027             nor $20, $20, $20
331	04E4  AC3400DC             sw $20, 220($1)
332	04E8  3C14FFFF             lui $20, 65535
333	04EC  3694FFFF             ori $20, $20, 65535
334	04F0  0294A024             and $20, $20, $20
335	04F4  AC3400E0             sw $20, 224($1)
336	04F8  02739827             nor $19, $19, $19
337	04FC  AC3300E4             sw $19, 228($1)
338	0500  3C13FFFF             lui $19, 65535
339	0504  3673FFFF             ori $19, $19, 65535
340	0508  02739824             and $19, $19, $19
341	050C  AC3300E8             sw $19, 232($1)
342	0510  02529027             nor $18, $18, $18
343	0514  AC3200EC             sw $18, 236($1)
344	0518  3C12FFFF             lui $18, 65535
345	051C  3652FFFF             ori $18, $18, 65535
346	0520  02529024             and $18, $18, $18
347	0524  AC3200F0             sw $18, 240($1)
348	0528  02318827             nor $17, $17, $17
349	052C  AC3100F4             sw $17, 244($1)
350	0530  3C11FFFF             lui $17, 65535
351	0534  3631FFFF             ori $17, $17, 65535
352	0538  02318824             and $17, $17, $17
353	053C  AC3100F8             sw $17, 248($1)
354	0540  02108027             nor $16, $16, $16
355	0544  AC3000FC             sw $16, 252($1)
356	0548  3C10FFFF             lui $16, 65535
357	054C  3610FFFF             ori $16, $16, 65535
358	0550  02108024             and $16, $16, $16
359	0554  AC300100             sw $16, 256($1)
360	0558  01EF7827             nor $15, $15, $15
361	055C  AC2F0104             sw $15, 260($1)
362	0560  3C0FFFFF             lui $15, 65535
363	0564  35EFFFFF             ori $15, $15, 65535
364	0568  01EF7824             and $15, $15, $15
365	056C  AC2F0108             sw $15, 264($1)
366	0570  01CE7027             nor $14, $14, $14
367	0574  AC2E010C             sw $14, 268($1)
368	0578  3C0EFFFF             lui $14, 65535
369	057C  35CEFFFF             ori $14, $14, 65535
370	0580  01CE7024             and $14, $14, $14
371	0584  AC2E0110             sw $14, 272($1)
372	0588  01AD6827             nor $13, $13, $13
373	058C  AC2D0114             sw $13, 276($1)
374	0590  3C0DFFFF             lui $13, 65535
375	0594  35ADFFFF             ori $13, $13, 65535
376	0598  01AD6824             and $13, $13, $13
377	059C  AC2D0118             sw $13, 280($1)
378	05A0  018C6027             nor $12, $12, $12
379	05A4  AC2C011C             sw $12, 284($1)
380	05A8  3C0CFFFF             lui $12, 65535
381	05AC  358CFFFF             ori $12, $12, 65535
382	05B0  018C6024             and $12, $12, $12
383	05B4  AC2C0120             sw $12, 288($1)
384	05B8  016B5827             nor $11, $11, $11
385	05BC  AC2B0124             sw $11, 292($1)
386	05C0  3C0BFFFF             lui $11, 65535
387	05C4  356BFFFF             ori $11, $11, 65535
388	05C8  016B5824             and $11, $11, $11
389	05CC  AC2B0128             sw $11, 296($1)
390	05D0  014A5027             nor $10, $10, $10
391	05D4  AC2A012C             sw $10, 300($1)
392	05D8  3C0AFFFF             lui $10, 65535
393	05DC  354AFFFF             ori $10, $10, 65535
394	05E0  014A5024             and $10, $10, $10
395	05E4  AC2A0130             sw $10, 304($1)
396	05E8  01294827             nor $9, $9, $9
397	05EC  AC290134             sw $9, 308($1)
398	05F0  3C09FFFF             lui $9, 65535
399	05F4  3529FFFF             ori $9, $9, 65535
400	05F8  01294824             and $9, $9, $9
401	05FC  AC290138             sw $9, 312($1)
402	0600  01084027             nor $8, $8, $8
403	0604  AC28013C             sw $8, 316($1)
404	0608  3C08FFFF             lui $8, 65535
405	060C  3508FFFF             ori $8, $8, 65535
406	0610  01084024             and $8, $8, $8
407	0614  AC280140             sw $8, 320($1)
408	0618  00E73827             nor $7, $7, $7
409	061C  AC270144             sw $7, 324($1)
410	0620  3C07FFFF             lui $7, 65535
411	0624  34E7FFFF             ori $7, $7, 65535
412	0628  00E73824             and $7, $7, $7
413	062C  AC270148             sw $7, 328($1)
414	0630  00C63027             nor $6, $6, $6
415	0634  AC26014C             sw $6, 332($1)
416	0638  3C06FFFF             lui $6, 65535
417	063C  34C6FFFF             ori $6, $6, 65535
418	0640  00C63024             and $6, $6, $6
419	0644  AC260150             sw $6, 336($1)
420	0648  00A52827             nor $5, $5, $5
421	064C  AC250154             sw $5, 340($1)
422	0650  3C05FFFF             lui $5, 65535
423	0654  34A5FFFF             ori $5, $5, 65535
424	0658  00A52824             and $5, $5, $5
425	065C  AC250158             sw $5, 344($1)
426	0660  00842027             nor $4, $4, $4
427	0664  AC24015C             sw $4, 348($1)
428	0668  3C04FFFF             lui $4, 65535
429	066C  3484FFFF             ori $4, $4, 65535
430	0670  00842024             and $4, $4, $4
431	0674  AC240160             sw $4, 352($1)
432	0678  00631827             nor $3, $3, $3
433	067C  AC230164             sw $3, 356($1)
434	0680  3C03FFFF             lui $3, 65535
435	0684  3463FFFF             ori $3, $3, 65535
436	0688  00631824             and $3, $3, $3
437	068C  AC230168             sw $3, 360($1)
438	0690  00421027             nor $2, $2, $2
439	0694  AC22016C             sw $2, 364($1)
440	0698  3C02FFFF             lui $2, 65535
441	069C  3442FFFF             ori $2, $2, 65535
442	06A0  00421024             and $2, $2, $2
443	06A4  AC220170             sw $2, 368($1)
444	                          
445	                          ;.............special register mirror.............;
446	06A8  3C000000             lui $0, 0
447	06AC  34000000             ori $0, $0, 0
448	06B0  3C020000             lui $2, 0
449	06B4  34420000             ori $2, $2, 0
450	06B8  3C030000             lui $3, 0
451	06BC  34630000             ori $3, $3, 0
452	06C0  3C040000             lui $4, 0
453	06C4  34840000             ori $4, $4, 0
454	06C8  3C050000             lui $5, 0
455	06CC  34A50000             ori $5, $5, 0
456	06D0  3C060000             lui $6, 0
457	06D4  34C60000             ori $6, $6, 0
458	06D8  3C070000             lui $7, 0
459	06DC  34E70000             ori $7, $7, 0
460	06E0  3C080000             lui $8, 0
461	06E4  35080000             ori $8, $8, 0
462	06E8  3C090000             lui $9, 0
463	06EC  35290000             ori $9, $9, 0
464	06F0  3C0A0000             lui $10, 0
465	06F4  354A0000             ori $10, $10, 0
466	06F8  3C0B0000             lui $11, 0
467	06FC  356B0000             ori $11, $11, 0
468	0700  3C0C0000             lui $12, 0
469	0704  358C0000             ori $12, $12, 0
470	0708  3C0D0000             lui $13, 0
471	070C  35AD0000             ori $13, $13, 0
472	0710  3C0E0000             lui $14, 0
473	0714  35CE0000             ori $14, $14, 0
474	0718  3C0F0000             lui $15, 0
475	071C  35EF0000             ori $15, $15, 0
476	0720  3C100000             lui $16, 0
477	0724  36100000             ori $16, $16, 0
478	0728  3C110000             lui $17, 0
479	072C  36310000             ori $17, $17, 0
480	0730  3C120000             lui $18, 0
481	0734  36520000             ori $18, $18, 0
482	0738  3C130000             lui $19, 0
483	073C  36730000             ori $19, $19, 0
484	0740  3C140000             lui $20, 0
485	0744  36940000             ori $20, $20, 0
486	0748  3C150000             lui $21, 0
487	074C  36B50000             ori $21, $21, 0
488	0750  3C160000             lui $22, 0
489	0754  36D60000             ori $22, $22, 0
490	0758  3C170000             lui $23, 0
491	075C  36F70000             ori $23, $23, 0
492	0760  3C180000             lui $24, 0
493	0764  37180000             ori $24, $24, 0
494	0768  3C190000             lui $25, 0
495	076C  37390000             ori $25, $25, 0
496	0770  3C1A0000             lui $26, 0
497	0774  375A0000             ori $26, $26, 0
498	0778  3C1B0000             lui $27, 0
499	077C  377B0000             ori $27, $27, 0
500	0780  3C1C0000             lui $28, 0
501	0784  379C0000             ori $28, $28, 0
502	0788  3C1D0000             lui $29, 0
503	078C  37BD0000             ori $29, $29, 0
504	0790  3C1E0000             lui $30, 0
505	0794  37DE0000             ori $30, $30, 0
506	0798  3C1F0000             lui $31, 0
507	079C  37FF0000             ori $31, $31, 0
508	                          
509	07A0  00000027             nor $0, $0, $0
510	07A4  AC200174             sw $0, 372($1)
511	07A8  3C00FFFF             lui $0, 65535
512	07AC  3400FFFF             ori $0, $0, 65535
513	07B0  00421027             nor $2, $2, $2
514	07B4  AC220178             sw $2, 376($1)
515	07B8  3C02FFFF             lui $2, 65535
516	07BC  3442FFFF             ori $2, $2, 65535
517	07C0  00631827             nor $3, $3, $3
518	07C4  AC23017C             sw $3, 380($1)
519	07C8  3C03FFFF             lui $3, 65535
520	07CC  3463FFFF             ori $3, $3, 65535
521	07D0  00842027             nor $4, $4, $4
522	07D4  AC240180             sw $4, 384($1)
523	07D8  3C04FFFF             lui $4, 65535
524	07DC  3484FFFF             ori $4, $4, 65535
525	07E0  00A52827             nor $5, $5, $5
526	07E4  AC250184             sw $5, 388($1)
527	07E8  3C05FFFF             lui $5, 65535
528	07EC  34A5FFFF             ori $5, $5, 65535
529	07F0  00C63027             nor $6, $6, $6
530	07F4  AC260188             sw $6, 392($1)
531	07F8  3C06FFFF             lui $6, 65535
532	07FC  34C6FFFF             ori $6, $6, 65535
533	0800  00E73827             nor $7, $7, $7
534	0804  AC27018C             sw $7, 396($1)
535	0808  3C07FFFF             lui $7, 65535
536	080C  34E7FFFF             ori $7, $7, 65535
537	0810  01084027             nor $8, $8, $8
538	0814  AC280190             sw $8, 400($1)
539	0818  3C08FFFF             lui $8, 65535
540	081C  3508FFFF             ori $8, $8, 65535
541	0820  01294827             nor $9, $9, $9
542	0824  AC290194             sw $9, 404($1)
543	0828  3C09FFFF             lui $9, 65535
544	082C  3529FFFF             ori $9, $9, 65535
545	0830  014A5027             nor $10, $10, $10
546	0834  AC2A0198             sw $10, 408($1)
547	0838  3C0AFFFF             lui $10, 65535
548	083C  354AFFFF             ori $10, $10, 65535
549	0840  016B5827             nor $11, $11, $11
550	0844  AC2B019C             sw $11, 412($1)
551	0848  3C0BFFFF             lui $11, 65535
552	084C  356BFFFF             ori $11, $11, 65535
553	0850  018C6027             nor $12, $12, $12
554	0854  AC2C01A0             sw $12, 416($1)
555	0858  3C0CFFFF             lui $12, 65535
556	085C  358CFFFF             ori $12, $12, 65535
557	0860  01AD6827             nor $13, $13, $13
558	0864  AC2D01A4             sw $13, 420($1)
559	0868  3C0DFFFF             lui $13, 65535
560	086C  35ADFFFF             ori $13, $13, 65535
561	0870  01CE7027             nor $14, $14, $14
562	0874  AC2E01A8             sw $14, 424($1)
563	0878  3C0EFFFF             lui $14, 65535
564	087C  35CEFFFF             ori $14, $14, 65535
565	0880  01EF7827             nor $15, $15, $15
566	0884  AC2F01AC             sw $15, 428($1)
567	0888  3C0FFFFF             lui $15, 65535
568	088C  35EFFFFF             ori $15, $15, 65535
569	0890  02108027             nor $16, $16, $16
570	0894  AC3001B0             sw $16, 432($1)
571	0898  3C10FFFF             lui $16, 65535
572	089C  3610FFFF             ori $16, $16, 65535
573	08A0  02318827             nor $17, $17, $17
574	08A4  AC3101B4             sw $17, 436($1)
575	08A8  3C11FFFF             lui $17, 65535
576	08AC  3631FFFF             ori $17, $17, 65535
577	08B0  02529027             nor $18, $18, $18
578	08B4  AC3201B8             sw $18, 440($1)
579	08B8  3C12FFFF             lui $18, 65535
580	08BC  3652FFFF             ori $18, $18, 65535
581	08C0  02739827             nor $19, $19, $19
582	08C4  AC3301BC             sw $19, 444($1)
583	08C8  3C13FFFF             lui $19, 65535
584	08CC  3673FFFF             ori $19, $19, 65535
585	08D0  0294A027             nor $20, $20, $20
586	08D4  AC3401C0             sw $20, 448($1)
587	08D8  3C14FFFF             lui $20, 65535
588	08DC  3694FFFF             ori $20, $20, 65535
589	08E0  02B5A827             nor $21, $21, $21
590	08E4  AC3501C4             sw $21, 452($1)
591	08E8  3C15FFFF             lui $21, 65535
592	08EC  36B5FFFF             ori $21, $21, 65535
593	08F0  02D6B027             nor $22, $22, $22
594	08F4  AC3601C8             sw $22, 456($1)
595	08F8  3C16FFFF             lui $22, 65535
596	08FC  36D6FFFF             ori $22, $22, 65535
597	0900  02F7B827             nor $23, $23, $23
598	0904  AC3701CC             sw $23, 460($1)
599	0908  3C17FFFF             lui $23, 65535
600	090C  36F7FFFF             ori $23, $23, 65535
601	0910  0318C027             nor $24, $24, $24
602	0914  AC3801D0             sw $24, 464($1)
603	0918  3C18FFFF             lui $24, 65535
604	091C  3718FFFF             ori $24, $24, 65535
605	0920  0339C827             nor $25, $25, $25
606	0924  AC3901D4             sw $25, 468($1)
607	0928  3C19FFFF             lui $25, 65535
608	092C  3739FFFF             ori $25, $25, 65535
609	0930  035AD027             nor $26, $26, $26
610	0934  AC3A01D8             sw $26, 472($1)
611	0938  3C1AFFFF             lui $26, 65535
612	093C  375AFFFF             ori $26, $26, 65535
613	0940  037BD827             nor $27, $27, $27
614	0944  AC3B01DC             sw $27, 476($1)
615	0948  3C1BFFFF             lui $27, 65535
616	094C  377BFFFF             ori $27, $27, 65535
617	0950  039CE027             nor $28, $28, $28
618	0954  AC3C01E0             sw $28, 480($1)
619	0958  3C1CFFFF             lui $28, 65535
620	095C  379CFFFF             ori $28, $28, 65535
621	0960  03BDE827             nor $29, $29, $29
622	0964  AC3D01E4             sw $29, 484($1)
623	0968  3C1DFFFF             lui $29, 65535
624	096C  37BDFFFF             ori $29, $29, 65535
625	0970  03DEF027             nor $30, $30, $30
626	0974  AC3E01E8             sw $30, 488($1)
627	0978  3C1EFFFF             lui $30, 65535
628	097C  37DEFFFF             ori $30, $30, 65535
629	0980  03FFF827             nor $31, $31, $31
630	0984  AC3F01EC             sw $31, 492($1)
631	0988  3C1FFFFF             lui $31, 65535
632	098C  37FFFFFF             ori $31, $31, 65535
633	                          
634	0990  00000024             and $0, $0, $0
635	0994  AC2001F0             sw $0, 496($1)
636	0998  3C000000             lui $0, 0
637	099C  34000000             ori $0, $0, 0
638	09A0  00000024             and $0, $0, $0
639	09A4  AC2001F4             sw $0, 500($1)
640	09A8  03FFF824             and $31, $31, $31
641	09AC  AC3F01F8             sw $31, 504($1)
642	09B0  3C1F0000             lui $31, 0
643	09B4  37FF0000             ori $31, $31, 0
644	09B8  03FFF824             and $31, $31, $31
645	09BC  AC3F01FC             sw $31, 508($1)
646	09C0  03DEF024             and $30, $30, $30
647	09C4  AC3E0200             sw $30, 512($1)
648	09C8  3C1E0000             lui $30, 0
649	09CC  37DE0000             ori $30, $30, 0
650	09D0  03DEF024             and $30, $30, $30
651	09D4  AC3E0204             sw $30, 516($1)
652	09D8  03BDE824             and $29, $29, $29
653	09DC  AC3D0208             sw $29, 520($1)
654	09E0  3C1D0000             lui $29, 0
655	09E4  37BD0000             ori $29, $29, 0
656	09E8  03BDE824             and $29, $29, $29
657	09EC  AC3D020C             sw $29, 524($1)
658	09F0  039CE024             and $28, $28, $28
659	09F4  AC3C0210             sw $28, 528($1)
660	09F8  3C1C0000             lui $28, 0
661	09FC  379C0000             ori $28, $28, 0
662	0A00  039CE024             and $28, $28, $28
663	0A04  AC3C0214             sw $28, 532($1)
664	0A08  037BD824             and $27, $27, $27
665	0A0C  AC3B0218             sw $27, 536($1)
666	0A10  3C1B0000             lui $27, 0
667	0A14  377B0000             ori $27, $27, 0
668	0A18  037BD824             and $27, $27, $27
669	0A1C  AC3B021C             sw $27, 540($1)
670	0A20  035AD024             and $26, $26, $26
671	0A24  AC3A0220             sw $26, 544($1)
672	0A28  3C1A0000             lui $26, 0
673	0A2C  375A0000             ori $26, $26, 0
674	0A30  035AD024             and $26, $26, $26
675	0A34  AC3A0224             sw $26, 548($1)
676	0A38  0339C824             and $25, $25, $25
677	0A3C  AC390228             sw $25, 552($1)
678	0A40  3C190000             lui $25, 0
679	0A44  37390000             ori $25, $25, 0
680	0A48  0339C824             and $25, $25, $25
681	0A4C  AC39022C             sw $25, 556($1)
682	0A50  0318C024             and $24, $24, $24
683	0A54  AC380230             sw $24, 560($1)
684	0A58  3C180000             lui $24, 0
685	0A5C  37180000             ori $24, $24, 0
686	0A60  0318C024             and $24, $24, $24
687	0A64  AC380234             sw $24, 564($1)
688	0A68  02F7B824             and $23, $23, $23
689	0A6C  AC370238             sw $23, 568($1)
690	0A70  3C170000             lui $23, 0
691	0A74  36F70000             ori $23, $23, 0
692	0A78  02F7B824             and $23, $23, $23
693	0A7C  AC37023C             sw $23, 572($1)
694	0A80  02D6B024             and $22, $22, $22
695	0A84  AC360240             sw $22, 576($1)
696	0A88  3C160000             lui $22, 0
697	0A8C  36D60000             ori $22, $22, 0
698	0A90  02D6B024             and $22, $22, $22
699	0A94  AC360244             sw $22, 580($1)
700	0A98  02B5A824             and $21, $21, $21
701	0A9C  AC350248             sw $21, 584($1)
702	0AA0  3C150000             lui $21, 0
703	0AA4  36B50000             ori $21, $21, 0
704	0AA8  02B5A824             and $21, $21, $21
705	0AAC  AC35024C             sw $21, 588($1)
706	0AB0  0294A024             and $20, $20, $20
707	0AB4  AC340250             sw $20, 592($1)
708	0AB8  3C140000             lui $20, 0
709	0ABC  36940000             ori $20, $20, 0
710	0AC0  0294A024             and $20, $20, $20
711	0AC4  AC340254             sw $20, 596($1)
712	0AC8  02739824             and $19, $19, $19
713	0ACC  AC330258             sw $19, 600($1)
714	0AD0  3C130000             lui $19, 0
715	0AD4  36730000             ori $19, $19, 0
716	0AD8  02739824             and $19, $19, $19
717	0ADC  AC33025C             sw $19, 604($1)
718	0AE0  02529024             and $18, $18, $18
719	0AE4  AC320260             sw $18, 608($1)
720	0AE8  3C120000             lui $18, 0
721	0AEC  36520000             ori $18, $18, 0
722	0AF0  02529024             and $18, $18, $18
723	0AF4  AC320264             sw $18, 612($1)
724	0AF8  02318824             and $17, $17, $17
725	0AFC  AC310268             sw $17, 616($1)
726	0B00  3C110000             lui $17, 0
727	0B04  36310000             ori $17, $17, 0
728	0B08  02318824             and $17, $17, $17
729	0B0C  AC31026C             sw $17, 620($1)
730	0B10  02108024             and $16, $16, $16
731	0B14  AC300270             sw $16, 624($1)
732	0B18  3C100000             lui $16, 0
733	0B1C  36100000             ori $16, $16, 0
734	0B20  02108024             and $16, $16, $16
735	0B24  AC300274             sw $16, 628($1)
736	0B28  01EF7824             and $15, $15, $15
737	0B2C  AC2F0278             sw $15, 632($1)
738	0B30  3C0F0000             lui $15, 0
739	0B34  35EF0000             ori $15, $15, 0
740	0B38  01EF7824             and $15, $15, $15
741	0B3C  AC2F027C             sw $15, 636($1)
742	0B40  01CE7024             and $14, $14, $14
743	0B44  AC2E0280             sw $14, 640($1)
744	0B48  3C0E0000             lui $14, 0
745	0B4C  35CE0000             ori $14, $14, 0
746	0B50  01CE7024             and $14, $14, $14
747	0B54  AC2E0284             sw $14, 644($1)
748	0B58  01AD6824             and $13, $13, $13
749	0B5C  AC2D0288             sw $13, 648($1)
750	0B60  3C0D0000             lui $13, 0
751	0B64  35AD0000             ori $13, $13, 0
752	0B68  01AD6824             and $13, $13, $13
753	0B6C  AC2D028C             sw $13, 652($1)
754	0B70  018C6024             and $12, $12, $12
755	0B74  AC2C0290             sw $12, 656($1)
756	0B78  3C0C0000             lui $12, 0
757	0B7C  358C0000             ori $12, $12, 0
758	0B80  018C6024             and $12, $12, $12
759	0B84  AC2C0294             sw $12, 660($1)
760	0B88  016B5824             and $11, $11, $11
761	0B8C  AC2B0298             sw $11, 664($1)
762	0B90  3C0B0000             lui $11, 0
763	0B94  356B0000             ori $11, $11, 0
764	0B98  016B5824             and $11, $11, $11
765	0B9C  AC2B029C             sw $11, 668($1)
766	0BA0  014A5024             and $10, $10, $10
767	0BA4  AC2A02A0             sw $10, 672($1)
768	0BA8  3C0A0000             lui $10, 0
769	0BAC  354A0000             ori $10, $10, 0
770	0BB0  014A5024             and $10, $10, $10
771	0BB4  AC2A02A4             sw $10, 676($1)
772	0BB8  01294824             and $9, $9, $9
773	0BBC  AC2902A8             sw $9, 680($1)
774	0BC0  3C090000             lui $9, 0
775	0BC4  35290000             ori $9, $9, 0
776	0BC8  01294824             and $9, $9, $9
777	0BCC  AC2902AC             sw $9, 684($1)
778	0BD0  01084024             and $8, $8, $8
779	0BD4  AC2802B0             sw $8, 688($1)
780	0BD8  3C080000             lui $8, 0
781	0BDC  35080000             ori $8, $8, 0
782	0BE0  01084024             and $8, $8, $8
783	0BE4  AC2802B4             sw $8, 692($1)
784	0BE8  00E73824             and $7, $7, $7
785	0BEC  AC2702B8             sw $7, 696($1)
786	0BF0  3C070000             lui $7, 0
787	0BF4  34E70000             ori $7, $7, 0
788	0BF8  00E73824             and $7, $7, $7
789	0BFC  AC2702BC             sw $7, 700($1)
790	0C00  00C63024             and $6, $6, $6
791	0C04  AC2602C0             sw $6, 704($1)
792	0C08  3C060000             lui $6, 0
793	0C0C  34C60000             ori $6, $6, 0
794	0C10  00C63024             and $6, $6, $6
795	0C14  AC2602C4             sw $6, 708($1)
796	0C18  00A52824             and $5, $5, $5
797	0C1C  AC2502C8             sw $5, 712($1)
798	0C20  3C050000             lui $5, 0
799	0C24  34A50000             ori $5, $5, 0
800	0C28  00A52824             and $5, $5, $5
801	0C2C  AC2502CC             sw $5, 716($1)
802	0C30  00842024             and $4, $4, $4
803	0C34  AC2402D0             sw $4, 720($1)
804	0C38  3C040000             lui $4, 0
805	0C3C  34840000             ori $4, $4, 0
806	0C40  00842024             and $4, $4, $4
807	0C44  AC2402D4             sw $4, 724($1)
808	0C48  00631824             and $3, $3, $3
809	0C4C  AC2302D8             sw $3, 728($1)
810	0C50  3C030000             lui $3, 0
811	0C54  34630000             ori $3, $3, 0
812	0C58  00631824             and $3, $3, $3
813	0C5C  AC2302DC             sw $3, 732($1)
814	0C60  00421024             and $2, $2, $2
815	0C64  AC2202E0             sw $2, 736($1)
816	0C68  3C020000             lui $2, 0
817	0C6C  34420000             ori $2, $2, 0
818	0C70  00421024             and $2, $2, $2
819	0C74  AC2202E4             sw $2, 740($1)
820	                          
821	                          ;..........pipeline test..........;
822	0C78  3C1D0001            lui $29, 1
823	0C7C  37BD1388            ori $29, $29, 5000
824	                          
825	                          pipeline_operation:
826	                          ;.............pipeline test_alu.............;
827	0C80  3C010000             lui $1, 0
828	0C84  34210000             ori $1, $1, 0
829	0C88  3C1FFFFF             lui $31, 65535
830	0C8C  37FFFFFF             ori $31, $31, 65535
831	0C90  00000000             sll $0, $0, 0
832	0C94  00000000             sll $0, $0, 0
833	0C98  03FF0824             and $1, $31, $31
834	0C9C  003F1024             and $2, $1, $31
835	0CA0  00000000             sll $0, $0, 0
836	0CA4  AFA20000             sw $2, 0($29)
837	                          
838	0CA8  3C01FFFF             lui $1, 65535
839	0CAC  3421FFFF             ori $1, $1, 65535
840	0CB0  3C1F0000             lui $31, 0
841	0CB4  37FF0000             ori $31, $31, 0
842	0CB8  00000000             sll $0, $0, 0
843	0CBC  00000000             sll $0, $0, 0
844	0CC0  03FF0824             and $1, $31, $31
845	0CC4  003F1024             and $2, $1, $31
846	0CC8  00000000             sll $0, $0, 0
847	0CCC  AFA20004             sw $2, 4($29)
848	                          
849	0CD0  3C010000             lui $1, 0
850	0CD4  34210000             ori $1, $1, 0
851	0CD8  3C1FFFFF             lui $31, 65535
852	0CDC  37FFFFFF             ori $31, $31, 65535
853	0CE0  00000000             sll $0, $0, 0
854	0CE4  00000000             sll $0, $0, 0
855	0CE8  03FF0824             and $1, $31, $31
856	0CEC  03E11024             and $2, $31, $1
857	0CF0  00000000             sll $0, $0, 0
858	0CF4  AFA20008             sw $2, 8($29)
859	                          
860	0CF8  3C01FFFF             lui $1, 65535
861	0CFC  3421FFFF             ori $1, $1, 65535
862	0D00  3C1F0000             lui $31, 0
863	0D04  37FF0000             ori $31, $31, 0
864	0D08  00000000             sll $0, $0, 0
865	0D0C  00000000             sll $0, $0, 0
866	0D10  03FF0824             and $1, $31, $31
867	0D14  03E11024             and $2, $31, $1
868	0D18  00000000             sll $0, $0, 0
869	0D1C  AFA2000C             sw $2, 12($29)
870	                          
871	0D20  3C010000             lui $1, 0
872	0D24  34210000             ori $1, $1, 0
873	0D28  3C1FFFFF             lui $31, 65535
874	0D2C  37FFFFFF             ori $31, $31, 65535
875	0D30  00000000             sll $0, $0, 0
876	0D34  03FF0824             and $1, $31, $31
877	0D38  003F0824             and $1, $1, $31
878	0D3C  003F1024             and $2, $1, $31
879	0D40  00000000             sll $0, $0, 0
880	0D44  AFA20010             sw $2, 16($29)
881	                          
882	0D48  3C01FFFF             lui $1, 65535
883	0D4C  3421FFFF             ori $1, $1, 65535
884	0D50  3C1F0000             lui $31, 0
885	0D54  37FF0000             ori $31, $31, 0
886	0D58  00000000             sll $0, $0, 0
887	0D5C  03FF0824             and $1, $31, $31
888	0D60  003F0824             and $1, $1, $31
889	0D64  003F1024             and $2, $1, $31
890	0D68  00000000             sll $0, $0, 0
891	0D6C  AFA20014             sw $2, 20($29)
892	                          
893	0D70  3C010000             lui $1, 0
894	0D74  34210000             ori $1, $1, 0
895	0D78  3C1FFFFF             lui $31, 65535
896	0D7C  37FFFFFF             ori $31, $31, 65535
897	0D80  00000000             sll $0, $0, 0
898	0D84  00000000             sll $0, $0, 0
899	0D88  0021F824             and $31, $1, $1
900	0D8C  03E11024             and $2, $31, $1
901	0D90  00000000             sll $0, $0, 0
902	0D94  AFA20018             sw $2, 24($29)
903	                          
904	0D98  3C01FFFF             lui $1, 65535
905	0D9C  3421FFFF             ori $1, $1, 65535
906	0DA0  3C1F0000             lui $31, 0
907	0DA4  37FF0000             ori $31, $31, 0
908	0DA8  00000000             sll $0, $0, 0
909	0DAC  00000000             sll $0, $0, 0
910	0DB0  0021F824             and $31, $1, $1
911	0DB4  03E11024             and $2, $31, $1
912	0DB8  00000000             sll $0, $0, 0
913	0DBC  AFA2001C             sw $2, 28($29)
914	                          
915	0DC0  3C010000             lui $1, 0
916	0DC4  34210000             ori $1, $1, 0
917	0DC8  3C1FFFFF             lui $31, 65535
918	0DCC  37FFFFFF             ori $31, $31, 65535
919	0DD0  00000000             sll $0, $0, 0
920	0DD4  00000000             sll $0, $0, 0
921	0DD8  0021F824             and $31, $1, $1
922	0DDC  003F1024             and $2, $1, $31
923	0DE0  00000000             sll $0, $0, 0
924	0DE4  AFA20020             sw $2, 32($29)
925	                          
926	0DE8  3C01FFFF             lui $1, 65535
927	0DEC  3421FFFF             ori $1, $1, 65535
928	0DF0  3C1F0000             lui $31, 0
929	0DF4  37FF0000             ori $31, $31, 0
930	0DF8  00000000             sll $0, $0, 0
931	0DFC  00000000             sll $0, $0, 0
932	0E00  0021F824             and $31, $1, $1
933	0E04  003F1024             and $2, $1, $31
934	0E08  00000000             sll $0, $0, 0
935	0E0C  AFA20024             sw $2, 36($29)
936	                          
937	0E10  3C010000             lui $1, 0
938	0E14  34210000             ori $1, $1, 0
939	0E18  3C1FFFFF             lui $31, 65535
940	0E1C  37FFFFFF             ori $31, $31, 65535
941	0E20  00000000             sll $0, $0, 0
942	0E24  0021F824             and $31, $1, $1
943	0E28  03E1F824             and $31, $31, $1
944	0E2C  03E11024             and $2, $31, $1
945	0E30  00000000             sll $0, $0, 0
946	0E34  AFA20028             sw $2, 40($29)
947	                          
948	0E38  3C01FFFF             lui $1, 65535
949	0E3C  3421FFFF             ori $1, $1, 65535
950	0E40  3C1F0000             lui $31, 0
951	0E44  37FF0000             ori $31, $31, 0
952	0E48  00000000             sll $0, $0, 0
953	0E4C  0021F824             and $31, $1, $1
954	0E50  03E1F824             and $31, $31, $1
955	0E54  03E11024             and $2, $31, $1
956	0E58  00000000             sll $0, $0, 0
957	0E5C  AFA2002C             sw $2, 44($29)
958	                          
959	                          ;.............pipeline test_load_alu.............;
960	0E60  3C01FFFF             lui $1, 65535
961	0E64  3421FFFF             ori $1, $1, 65535
962	0E68  AFA10030             sw $1, 48($29)
963	0E6C  00000000             sll $0, $0, 0
964	0E70  3C010000             lui $1, 0
965	0E74  34210000             ori $1, $1, 0
966	0E78  3C1FFFFF             lui $31, 65535
967	0E7C  37FFFFFF             ori $31, $31, 65535
968	0E80  8FA10030             lw $1, 48($29)
969	0E84  00000000             sll $0, $0, 0
970	0E88  003F1024             and $2, $1, $31
971	0E8C  AFA20034             sw $2, 52($29)
972	                          
973	0E90  3C010000             lui $1, 0
974	0E94  34210000             ori $1, $1, 0
975	0E98  AFA10038             sw $1, 56($29)
976	0E9C  00000000             sll $0, $0, 0
977	0EA0  3C01FFFF             lui $1, 65535
978	0EA4  3421FFFF             ori $1, $1, 65535
979	0EA8  3C1FFFFF             lui $31, 65535
980	0EAC  37FFFFFF             ori $31, $31, 65535
981	0EB0  8FA10038             lw $1, 56($29)
982	0EB4  00000000             sll $0, $0, 0
983	0EB8  003F1024             and $2, $1, $31
984	0EBC  AFA2003C             sw $2, 60($29)
985	                          
986	0EC0  3C01FFFF             lui $1, 65535
987	0EC4  3421FFFF             ori $1, $1, 65535
988	0EC8  AFA10040             sw $1, 64($29)
989	0ECC  00000000             sll $0, $0, 0
990	0ED0  3C010000             lui $1, 0
991	0ED4  34210000             ori $1, $1, 0
992	0ED8  3C1FFFFF             lui $31, 65535
993	0EDC  37FFFFFF             ori $31, $31, 65535
994	0EE0  8FA10040             lw $1, 64($29)
995	0EE4  00000000             sll $0, $0, 0
996	0EE8  03E11024             and $2, $31, $1
997	0EEC  AFA20044             sw $2, 68($29)
998	                          
999	0EF0  3C010000             lui $1, 0
1000	0EF4  34210000             ori $1, $1, 0
1001	0EF8  AFA10048             sw $1, 72($29)
1002	0EFC  00000000             sll $0, $0, 0
1003	0F00  3C01FFFF             lui $1, 65535
1004	0F04  3421FFFF             ori $1, $1, 65535
1005	0F08  3C1FFFFF             lui $31, 65535
1006	0F0C  37FFFFFF             ori $31, $31, 65535
1007	0F10  8FA10048             lw $1, 72($29)
1008	0F14  00000000             sll $0, $0, 0
1009	0F18  03E11024             and $2, $31, $1
1010	0F1C  AFA2004C             sw $2, 76($29)
1011	                          
1012	                          ;.............pipeline test_store_load_data.............;
1013	0F20  3C010000             lui $1, 0
1014	0F24  34210000             ori $1, $1, 0
1015	0F28  3C1FFFFF             lui $31, 65535
1016	0F2C  37FFFFFF             ori $31, $31, 65535
1017	0F30  AFA10050             sw $1, 80($29)
1018	0F34  00000000             sll $0, $0, 0
1019	0F38  AFBF0050             sw $31, 80($29)
1020	0F3C  8FBF0050             lw $31, 80($29)
1021	0F40  00000000             sll $0, $0, 0
1022	0F44  00000000             sll $0, $0, 0
1023	0F48  00000000             sll $0, $0, 0
1024	0F4C  AFBF0054             sw $31, 84($29)
1025	                          
1026	                          ;.............pipeline test_load_store_data.............;
1027	0F50  3C01FFFF             lui $1, 65535
1028	0F54  3421FFFF             ori $1, $1, 65535
1029	0F58  AFA10058             sw $1, 88($29)
1030	0F5C  3C010000             lui $1, 0
1031	0F60  34210000             ori $1, $1, 0
1032	0F64  8FA10058             lw $1, 88($29)
1033	0F68  00000000             sll $0, $0, 0
1034	0F6C  AFA1005C             sw $1, 92($29)
1035	                          
1036	                          ;.............pipeline control hazard.............;
1037	0F70  3C010000             lui $1, 0
1038	0F74  34210000             ori $1, $1, 0
1039	0F78  3C1EFFFF             lui $30, 65535
1040	0F7C  37DEFFFF             ori $30, $30, 65535
1041	0F80  003E9024             and $18, $1, $30
1042	0F84  17C10001             bne $30, $1, continue
1043	                          continue:
1044	0F88  AFB20060            sw $18, 96($29)
1045	                          
1046	                          ;.............pipeline addressing hazard store.............;
1047	0F8C  3C010000             lui $1, 0
1048	0F90  34210000             ori $1, $1, 0
1049	0F94  003D0821             addu $1, $1, $29
1050	0F98  AC210064             sw $1, 100($1)
1051	0F9C  3C1FFFFF             lui $31, 65535
1052	0FA0  37FFFFFF             ori $31, $31, 65535
1053	0FA4  8C3F0064             lw $31, 100($1)
1054	0FA8  AFFF0064             sw $31, 100($31)
1055	                          
1056	                          ;.............comparator test.............;
1057	0FAC  3C000000             lui $0, 0
1058	0FB0  34000000             ori $0, $0, 0
1059	0FB4  3C1FFFFF             lui $31, 65535
1060	0FB8  37FFFFFF             ori $31, $31, 65535
1061	0FBC  00000000             sll $0, $0, 0
1062	0FC0  03FF0024             and $0, $31, $31
1063	0FC4  001F1024             and $2, $0, $31
1064	0FC8  AFA20068             sw $2, 104($29)
1065	                          
1066	0FCC  3C1E0000             lui $30, 0
1067	0FD0  37DE0000             ori $30, $30, 0
1068	0FD4  3C1FFFFF             lui $31, 65535
1069	0FD8  37FFFFFF             ori $31, $31, 65535
1070	0FDC  00000000             sll $0, $0, 0
1071	0FE0  03FFF024             and $30, $31, $31
1072	0FE4  03DF1024             and $2, $30, $31
1073	0FE8  AFA2006C             sw $2, 108($29)
1074	                          
1075	0FEC  3C000000             lui $0, 0
1076	0FF0  34000000             ori $0, $0, 0
1077	0FF4  3C1FFFFF             lui $31, 65535
1078	0FF8  37FFFFFF             ori $31, $31, 65535
1079	0FFC  00000000             sll $0, $0, 0
1080	1000  03FF0024             and $0, $31, $31
1081	1004  03E01024             and $2, $31, $0
1082	1008  AFA20070             sw $2, 112($29)
1083	                          
1084	100C  3C1E0000             lui $30, 0
1085	1010  37DE0000             ori $30, $30, 0
1086	1014  3C1FFFFF             lui $31, 65535
1087	1018  37FFFFFF             ori $31, $31, 65535
1088	101C  00000000             sll $0, $0, 0
1089	1020  03FFF024             and $30, $31, $31
1090	1024  03FE1024             and $2, $31, $30
1091	1028  AFA20074             sw $2, 116($29)
1092	                          
1093	                          ;.............comparator contd (changing result address).............;
1094	102C  3C140000             lui $20, 0
1095	1030  36940000             ori $20, $20, 0
1096	1034  029DA021             addu $20, $20, $29 ;calculate next memory address
1097	                          
1098	1038  3C01FFFF             lui $1, 65535
1099	103C  3421FFFF             ori $1, $1, 65535
1100	1040  3C1F0000             lui $31, 0
1101	1044  37FF0000             ori $31, $31, 0
1102	1048  00000000             sll $0, $0, 0
1103	104C  0021F824             and $31, $1, $1
1104	1050  03E11024             and $2, $31, $1
1105	1054  AE820078             sw $2, 120($20)
1106	                          
1107	1058  3C01FFFF             lui $1, 65535
1108	105C  3421FFFF             ori $1, $1, 65535
1109	1060  3C1E0000             lui $30, 0
1110	1064  37DE0000             ori $30, $30, 0
1111	1068  00000000             sll $0, $0, 0
1112	106C  0021F824             and $31, $1, $1
1113	1070  03C11024             and $2, $30, $1
1114	1074  AE82007C             sw $2, 124($20)
1115	                          
1116	1078  3C01FFFF             lui $1, 65535
1117	107C  3421FFFF             ori $1, $1, 65535
1118	1080  3C1D0000             lui $29, 0
1119	1084  37BD0000             ori $29, $29, 0
1120	1088  00000000             sll $0, $0, 0
1121	108C  0021F824             and $31, $1, $1
1122	1090  03A11024             and $2, $29, $1
1123	1094  AE820080             sw $2, 128($20)
1124	                          
1125	1098  3C01FFFF             lui $1, 65535
1126	109C  3421FFFF             ori $1, $1, 65535
1127	10A0  3C1B0000             lui $27, 0
1128	10A4  377B0000             ori $27, $27, 0
1129	10A8  00000000             sll $0, $0, 0
1130	10AC  0021F824             and $31, $1, $1
1131	10B0  03611024             and $2, $27, $1
1132	10B4  AE820084             sw $2, 132($20)
1133	                          
1134	10B8  3C01FFFF             lui $1, 65535
1135	10BC  3421FFFF             ori $1, $1, 65535
1136	10C0  3C170000             lui $23, 0
1137	10C4  36F70000             ori $23, $23, 0
1138	10C8  00000000             sll $0, $0, 0
1139	10CC  0021F824             and $31, $1, $1
1140	10D0  02E11024             and $2, $23, $1
1141	10D4  AE820088             sw $2, 136($20)
1142	                          
1143	10D8  3C01FFFF             lui $1, 65535
1144	10DC  3421FFFF             ori $1, $1, 65535
1145	10E0  3C0F0000             lui $15, 0
1146	10E4  35EF0000             ori $15, $15, 0
1147	10E8  00000000             sll $0, $0, 0
1148	10EC  0021F824             and $31, $1, $1
1149	10F0  01E11024             and $2, $15, $1
1150	10F4  AE82008C             sw $2, 140($20)
1151	                          
1152	10F8  3C01FFFF             lui $1, 65535
1153	10FC  3421FFFF             ori $1, $1, 65535
1154	1100  3C1E0000             lui $30, 0
1155	1104  37DE0000             ori $30, $30, 0
1156	1108  00000000             sll $0, $0, 0
1157	110C  0021F024             and $30, $1, $1
1158	1110  03E11024             and $2, $31, $1
1159	1114  AE820090             sw $2, 144($20)
1160	                          
1161	1118  3C01FFFF             lui $1, 65535
1162	111C  3421FFFF             ori $1, $1, 65535
1163	1120  3C1D0000             lui $29, 0
1164	1124  37BD0000             ori $29, $29, 0
1165	1128  00000000             sll $0, $0, 0
1166	112C  0021E824             and $29, $1, $1
1167	1130  03E11024             and $2, $31, $1
1168	1134  AE820094             sw $2, 148($20)
1169	                          
1170	1138  3C01FFFF             lui $1, 65535
1171	113C  3421FFFF             ori $1, $1, 65535
1172	1140  3C1B0000             lui $27, 0
1173	1144  377B0000             ori $27, $27, 0
1174	1148  00000000             sll $0, $0, 0
1175	114C  0021D824             and $27, $1, $1
1176	1150  03E11024             and $2, $31, $1
1177	1154  AE820098             sw $2, 152($20)
1178	                          
1179	1158  3C01FFFF             lui $1, 65535
1180	115C  3421FFFF             ori $1, $1, 65535
1181	1160  3C170000             lui $23, 0
1182	1164  36F70000             ori $23, $23, 0
1183	1168  00000000             sll $0, $0, 0
1184	116C  0021B824             and $23, $1, $1
1185	1170  03E11024             and $2, $31, $1
1186	1174  AE82009C             sw $2, 156($20)
1187	                          
1188	1178  3C01FFFF             lui $1, 65535
1189	117C  3421FFFF             ori $1, $1, 65535
1190	1180  3C0F0000             lui $15, 0
1191	1184  35EF0000             ori $15, $15, 0
1192	1188  00000000             sll $0, $0, 0
1193	118C  00217824             and $15, $1, $1
1194	1190  03E11024             and $2, $31, $1
1195	1194  AE8200A0             sw $2, 160($20)
1196	                          
1197	1198  3C01FFFF             lui $1, 65535
1198	119C  3421FFFF             ori $1, $1, 65535
1199	11A0  3C1F0000             lui $31, 0
1200	11A4  37FF0000             ori $31, $31, 0
1201	11A8  00000000             sll $0, $0, 0
1202	11AC  0021F824             and $31, $1, $1
1203	11B0  003F1024             and $2, $1, $31
1204	11B4  AE8200A4             sw $2, 164($20)
1205	                          
1206	11B8  3C01FFFF             lui $1, 65535
1207	11BC  3421FFFF             ori $1, $1, 65535
1208	11C0  3C1E0000             lui $30, 0
1209	11C4  37DE0000             ori $30, $30, 0
1210	11C8  00000000             sll $0, $0, 0
1211	11CC  0021F824             and $31, $1, $1
1212	11D0  003E1024             and $2, $1, $30
1213	11D4  AE8200A8             sw $2, 168($20)
1214	                          
1215	11D8  3C01FFFF             lui $1, 65535
1216	11DC  3421FFFF             ori $1, $1, 65535
1217	11E0  3C1D0000             lui $29, 0
1218	11E4  37BD0000             ori $29, $29, 0
1219	11E8  00000000             sll $0, $0, 0
1220	11EC  0021F824             and $31, $1, $1
1221	11F0  003D1024             and $2, $1, $29
1222	11F4  AE8200AC             sw $2, 172($20)
1223	                          
1224	11F8  3C01FFFF             lui $1, 65535
1225	11FC  3421FFFF             ori $1, $1, 65535
1226	1200  3C1B0000             lui $27, 0
1227	1204  377B0000             ori $27, $27, 0
1228	1208  00000000             sll $0, $0, 0
1229	120C  0021F824             and $31, $1, $1
1230	1210  003B1024             and $2, $1, $27
1231	1214  AE8200B0             sw $2, 176($20)
1232	                          
1233	1218  3C01FFFF             lui $1, 65535
1234	121C  3421FFFF             ori $1, $1, 65535
1235	1220  3C170000             lui $23, 0
1236	1224  36F70000             ori $23, $23, 0
1237	1228  00000000             sll $0, $0, 0
1238	122C  0021F824             and $31, $1, $1
1239	1230  00371024             and $2, $1, $23
1240	1234  AE8200B4             sw $2, 180($20)
1241	                          
1242	1238  3C01FFFF             lui $1, 65535
1243	123C  3421FFFF             ori $1, $1, 65535
1244	1240  3C0F0000             lui $15, 0
1245	1244  35EF0000             ori $15, $15, 0
1246	1248  00000000             sll $0, $0, 0
1247	124C  0021F824             and $31, $1, $1
1248	1250  002F1024             and $2, $1, $15
1249	1254  AE8200B8             sw $2, 184($20)
1250	                          
1251	1258  3C01FFFF             lui $1, 65535
1252	125C  3421FFFF             ori $1, $1, 65535
1253	1260  3C1E0000             lui $30, 0
1254	1264  37DE0000             ori $30, $30, 0
1255	1268  00000000             sll $0, $0, 0
1256	126C  0021F024             and $30, $1, $1
1257	1270  003F1024             and $2, $1, $31
1258	1274  AE8200BC             sw $2, 188($20)
1259	                          
1260	1278  3C01FFFF             lui $1, 65535
1261	127C  3421FFFF             ori $1, $1, 65535
1262	1280  3C1D0000             lui $29, 0
1263	1284  37BD0000             ori $29, $29, 0
1264	1288  00000000             sll $0, $0, 0
1265	128C  0021E824             and $29, $1, $1
1266	1290  003F1024             and $2, $1, $31
1267	1294  AE8200C0             sw $2, 192($20)
1268	                          
1269	1298  3C01FFFF             lui $1, 65535
1270	129C  3421FFFF             ori $1, $1, 65535
1271	12A0  3C1B0000             lui $27, 0
1272	12A4  377B0000             ori $27, $27, 0
1273	12A8  00000000             sll $0, $0, 0
1274	12AC  0021D824             and $27, $1, $1
1275	12B0  003F1024             and $2, $1, $31
1276	12B4  AE8200C4             sw $2, 196($20)
1277	                          
1278	12B8  3C01FFFF             lui $1, 65535
1279	12BC  3421FFFF             ori $1, $1, 65535
1280	12C0  3C170000             lui $23, 0
1281	12C4  36F70000             ori $23, $23, 0
1282	12C8  00000000             sll $0, $0, 0
1283	12CC  0021B824             and $23, $1, $1
1284	12D0  003F1024             and $2, $1, $31
1285	12D4  AE8200C8             sw $2, 200($20)
1286	                          
1287	12D8  3C01FFFF             lui $1, 65535
1288	12DC  3421FFFF             ori $1, $1, 65535
1289	12E0  3C0F0000             lui $15, 0
1290	12E4  35EF0000             ori $15, $15, 0
1291	12E8  00000000             sll $0, $0, 0
1292	12EC  00217824             and $15, $1, $1
1293	12F0  003F1024             and $2, $1, $31
1294	12F4  AE8200CC             sw $2, 204($20)
1295	                          
1296	                          ;.............comparator load_alu.............;
1297	12F8  3C000000             lui $0, 0
1298	12FC  34000000             ori $0, $0, 0
1299	1300  3C01FFFF             lui $1, 65535
1300	1304  3421FFFF             ori $1, $1, 65535
1301	1308  00000000             sll $0, $0, 0
1302	130C  8E8000CC             lw $0, 204($20)
1303	1310  00000000             sll $0, $0, 0
1304	1314  00011024             and $2, $0, $1
1305	1318  AE8200D0             sw $2, 208($20)
1306	                          
1307	131C  3C1E0000             lui $30, 0
1308	1320  37DE0000             ori $30, $30, 0
1309	1324  3C01FFFF             lui $1, 65535
1310	1328  3421FFFF             ori $1, $1, 65535
1311	132C  00000000             sll $0, $0, 0
1312	1330  8E9E00CC             lw $30, 204($20)
1313	1334  00000000             sll $0, $0, 0
1314	1338  03C11024             and $2, $30, $1
1315	133C  AE8200D4             sw $2, 212($20)
1316	                          
1317	1340  3C000000             lui $0, 0
1318	1344  34000000             ori $0, $0, 0
1319	1348  3C01FFFF             lui $1, 65535
1320	134C  3421FFFF             ori $1, $1, 65535
1321	1350  00000000             sll $0, $0, 0
1322	1354  8E8000CC             lw $0, 204($20)
1323	1358  00000000             sll $0, $0, 0
1324	135C  00201024             and $2, $1, $0
1325	1360  AE8200D8             sw $2, 216($20)
1326	                          
1327	1364  3C1E0000             lui $30, 0
1328	1368  37DE0000             ori $30, $30, 0
1329	136C  3C01FFFF             lui $1, 65535
1330	1370  3421FFFF             ori $1, $1, 65535
1331	1374  00000000             sll $0, $0, 0
1332	1378  8E9E00CC             lw $30, 204($20)
1333	137C  00000000             sll $0, $0, 0
1334	1380  003E1024             and $2, $1, $30
1335	1384  AE8200DC             sw $2, 220($20)
1336	                          
1337	1388  3C01FFFF             lui $1, 65535
1338	138C  3421FFFF             ori $1, $1, 65535
1339	1390  3C1F0000             lui $31, 0
1340	1394  37FF0000             ori $31, $31, 0
1341	1398  00000000             sll $0, $0, 0
1342	139C  8E9F00CC             lw $31, 204($20)
1343	13A0  00000000             sll $0, $0, 0
1344	13A4  03E11024             and $2, $31, $1
1345	13A8  AE8200E0             sw $2, 224($20)
1346	                          
1347	13AC  3C01FFFF             lui $1, 65535
1348	13B0  3421FFFF             ori $1, $1, 65535
1349	13B4  3C1E0000             lui $30, 0
1350	13B8  37DE0000             ori $30, $30, 0
1351	13BC  00000000             sll $0, $0, 0
1352	13C0  8E9F00CC             lw $31, 204($20)
1353	13C4  00000000             sll $0, $0, 0
1354	13C8  03C11024             and $2, $30, $1
1355	13CC  AE8200E4             sw $2, 228($20)
1356	                          
1357	13D0  3C01FFFF             lui $1, 65535
1358	13D4  3421FFFF             ori $1, $1, 65535
1359	13D8  3C1D0000             lui $29, 0
1360	13DC  37BD0000             ori $29, $29, 0
1361	13E0  00000000             sll $0, $0, 0
1362	13E4  8E9F00CC             lw $31, 204($20)
1363	13E8  00000000             sll $0, $0, 0
1364	13EC  03A11024             and $2, $29, $1
1365	13F0  AE8200E8             sw $2, 232($20)
1366	                          
1367	13F4  3C01FFFF             lui $1, 65535
1368	13F8  3421FFFF             ori $1, $1, 65535
1369	13FC  3C1B0000             lui $27, 0
1370	1400  377B0000             ori $27, $27, 0
1371	1404  00000000             sll $0, $0, 0
1372	1408  8E9F00CC             lw $31, 204($20)
1373	140C  00000000             sll $0, $0, 0
1374	1410  03611024             and $2, $27, $1
1375	1414  AE8200EC             sw $2, 236($20)
1376	                          
1377	1418  3C01FFFF             lui $1, 65535
1378	141C  3421FFFF             ori $1, $1, 65535
1379	1420  3C170000             lui $23, 0
1380	1424  36F70000             ori $23, $23, 0
1381	1428  00000000             sll $0, $0, 0
1382	142C  8E9F00CC             lw $31, 204($20)
1383	1430  00000000             sll $0, $0, 0
1384	1434  02E11024             and $2, $23, $1
1385	1438  AE8200F0             sw $2, 240($20)
1386	                          
1387	143C  3C01FFFF             lui $1, 65535
1388	1440  3421FFFF             ori $1, $1, 65535
1389	1444  3C0F0000             lui $15, 0
1390	1448  35EF0000             ori $15, $15, 0
1391	144C  00000000             sll $0, $0, 0
1392	1450  8E9F00CC             lw $31, 204($20)
1393	1454  00000000             sll $0, $0, 0
1394	1458  01E11024             and $2, $15, $1
1395	145C  AE8200F4             sw $2, 244($20)
1396	                          
1397	1460  3C01FFFF             lui $1, 65535
1398	1464  3421FFFF             ori $1, $1, 65535
1399	1468  3C1E0000             lui $30, 0
1400	146C  37DE0000             ori $30, $30, 0
1401	1470  00000000             sll $0, $0, 0
1402	1474  8E9E00CC             lw $30, 204($20)
1403	1478  00000000             sll $0, $0, 0
1404	147C  03E11024             and $2, $31, $1
1405	1480  AE8200F8             sw $2, 248($20)
1406	                          
1407	1484  3C01FFFF             lui $1, 65535
1408	1488  3421FFFF             ori $1, $1, 65535
1409	148C  3C1D0000             lui $29, 0
1410	1490  37BD0000             ori $29, $29, 0
1411	1494  00000000             sll $0, $0, 0
1412	1498  8E9D00CC             lw $29, 204($20)
1413	149C  00000000             sll $0, $0, 0
1414	14A0  03E11024             and $2, $31, $1
1415	14A4  AE8200FC             sw $2, 252($20)
1416	                          
1417	14A8  3C01FFFF             lui $1, 65535
1418	14AC  3421FFFF             ori $1, $1, 65535
1419	14B0  3C1B0000             lui $27, 0
1420	14B4  377B0000             ori $27, $27, 0
1421	14B8  00000000             sll $0, $0, 0
1422	14BC  8E9B00CC             lw $27, 204($20)
1423	14C0  00000000             sll $0, $0, 0
1424	14C4  03E11024             and $2, $31, $1
1425	14C8  AE820100             sw $2, 256($20)
1426	                          
1427	14CC  3C01FFFF             lui $1, 65535
1428	14D0  3421FFFF             ori $1, $1, 65535
1429	14D4  3C170000             lui $23, 0
1430	14D8  36F70000             ori $23, $23, 0
1431	14DC  00000000             sll $0, $0, 0
1432	14E0  8E9700CC             lw $23, 204($20)
1433	14E4  00000000             sll $0, $0, 0
1434	14E8  03E11024             and $2, $31, $1
1435	14EC  AE820104             sw $2, 260($20)
1436	                          
1437	14F0  3C01FFFF             lui $1, 65535
1438	14F4  3421FFFF             ori $1, $1, 65535
1439	14F8  3C0F0000             lui $15, 0
1440	14FC  35EF0000             ori $15, $15, 0
1441	1500  00000000             sll $0, $0, 0
1442	1504  8E8F00CC             lw $15, 204($20)
1443	1508  00000000             sll $0, $0, 0
1444	150C  03E11024             and $2, $31, $1
1445	1510  AE820108             sw $2, 264($20)
1446	                          
1447	1514  3C01FFFF             lui $1, 65535
1448	1518  3421FFFF             ori $1, $1, 65535
1449	151C  3C1F0000             lui $31, 0
1450	1520  37FF0000             ori $31, $31, 0
1451	1524  00000000             sll $0, $0, 0
1452	1528  8E9F00CC             lw $31, 204($20)
1453	152C  00000000             sll $0, $0, 0
1454	1530  003F1024             and $2, $1, $31
1455	1534  AE82010C             sw $2, 268($20)
1456	                          
1457	1538  3C01FFFF             lui $1, 65535
1458	153C  3421FFFF             ori $1, $1, 65535
1459	1540  3C1E0000             lui $30, 0
1460	1544  37DE0000             ori $30, $30, 0
1461	1548  00000000             sll $0, $0, 0
1462	154C  8E9F00CC             lw $31, 204($20)
1463	1550  00000000             sll $0, $0, 0
1464	1554  003E1024             and $2, $1, $30
1465	1558  AE820110             sw $2, 272($20)
1466	                          
1467	155C  3C01FFFF             lui $1, 65535
1468	1560  3421FFFF             ori $1, $1, 65535
1469	1564  3C1D0000             lui $29, 0
1470	1568  37BD0000             ori $29, $29, 0
1471	156C  00000000             sll $0, $0, 0
1472	1570  8E9F00CC             lw $31, 204($20)
1473	1574  00000000             sll $0, $0, 0
1474	1578  003D1024             and $2, $1, $29
1475	157C  AE820114             sw $2, 276($20)
1476	                          
1477	1580  3C01FFFF             lui $1, 65535
1478	1584  3421FFFF             ori $1, $1, 65535
1479	1588  3C1B0000             lui $27, 0
1480	158C  377B0000             ori $27, $27, 0
1481	1590  00000000             sll $0, $0, 0
1482	1594  8E9F00CC             lw $31, 204($20)
1483	1598  00000000             sll $0, $0, 0
1484	159C  003B1024             and $2, $1, $27
1485	15A0  AE820118             sw $2, 280($20)
1486	                          
1487	15A4  3C01FFFF             lui $1, 65535
1488	15A8  3421FFFF             ori $1, $1, 65535
1489	15AC  3C170000             lui $23, 0
1490	15B0  36F70000             ori $23, $23, 0
1491	15B4  00000000             sll $0, $0, 0
1492	15B8  8E9F00CC             lw $31, 204($20)
1493	15BC  00000000             sll $0, $0, 0
1494	15C0  00371024             and $2, $1, $23
1495	15C4  AE82011C             sw $2, 284($20)
1496	                          
1497	15C8  3C01FFFF             lui $1, 65535
1498	15CC  3421FFFF             ori $1, $1, 65535
1499	15D0  3C0F0000             lui $15, 0
1500	15D4  35EF0000             ori $15, $15, 0
1501	15D8  00000000             sll $0, $0, 0
1502	15DC  8E9F00CC             lw $31, 204($20)
1503	15E0  00000000             sll $0, $0, 0
1504	15E4  002F1024             and $2, $1, $15
1505	15E8  AE820120             sw $2, 288($20)
1506	                          
1507	15EC  3C01FFFF             lui $1, 65535
1508	15F0  3421FFFF             ori $1, $1, 65535
1509	15F4  3C1E0000             lui $30, 0
1510	15F8  37DE0000             ori $30, $30, 0
1511	15FC  00000000             sll $0, $0, 0
1512	1600  8E9E00CC             lw $30, 204($20)
1513	1604  00000000             sll $0, $0, 0
1514	1608  003F1024             and $2, $1, $31
1515	160C  AE820124             sw $2, 292($20)
1516	                          
1517	1610  3C01FFFF             lui $1, 65535
1518	1614  3421FFFF             ori $1, $1, 65535
1519	1618  3C1D0000             lui $29, 0
1520	161C  37BD0000             ori $29, $29, 0
1521	1620  00000000             sll $0, $0, 0
1522	1624  8E9D00CC             lw $29, 204($20)
1523	1628  00000000             sll $0, $0, 0
1524	162C  003F1024             and $2, $1, $31
1525	1630  AE820128             sw $2, 296($20)
1526	                          
1527	1634  3C01FFFF             lui $1, 65535
1528	1638  3421FFFF             ori $1, $1, 65535
1529	163C  3C1B0000             lui $27, 0
1530	1640  377B0000             ori $27, $27, 0
1531	1644  00000000             sll $0, $0, 0
1532	1648  8E9B00CC             lw $27, 204($20)
1533	164C  00000000             sll $0, $0, 0
1534	1650  003F1024             and $2, $1, $31
1535	1654  AE82012C             sw $2, 300($20)
1536	                          
1537	1658  3C01FFFF             lui $1, 65535
1538	165C  3421FFFF             ori $1, $1, 65535
1539	1660  3C170000             lui $23, 0
1540	1664  36F70000             ori $23, $23, 0
1541	1668  00000000             sll $0, $0, 0
1542	166C  8E9700CC             lw $23, 204($20)
1543	1670  00000000             sll $0, $0, 0
1544	1674  003F1024             and $2, $1, $31
1545	1678  AE820130             sw $2, 304($20)
1546	                          
1547	167C  3C01FFFF             lui $1, 65535
1548	1680  3421FFFF             ori $1, $1, 65535
1549	1684  3C0F0000             lui $15, 0
1550	1688  35EF0000             ori $15, $15, 0
1551	168C  00000000             sll $0, $0, 0
1552	1690  8E8F00CC             lw $15, 204($20)
1553	1694  00000000             sll $0, $0, 0
1554	1698  003F1024             and $2, $1, $31
1555	169C  AE820134             sw $2, 308($20)
1556	                          
1557	                          ;.............comparator hazard.............;
1558	16A0  3C01FFFF             lui $1, 65535
1559	16A4  3421FFFF             ori $1, $1, 65535
1560	16A8  3C1E0000             lui $30, 0
1561	16AC  37DE0000             ori $30, $30, 0
1562	16B0  00000000             sll $0, $0, 0
1563	16B4  8E9F00CC             lw $31, 204($20)
1564	16B8  03C11024             and $2, $30, $1
1565	16BC  AE820138             sw $2, 312($20)
1566	                          
1567	16C0  3C01FFFF             lui $1, 65535
1568	16C4  3421FFFF             ori $1, $1, 65535
1569	16C8  3C1D0000             lui $29, 0
1570	16CC  37BD0000             ori $29, $29, 0
1571	16D0  00000000             sll $0, $0, 0
1572	16D4  8E9F00CC             lw $31, 204($20)
1573	16D8  03A11024             and $2, $29, $1
1574	16DC  AE82013C             sw $2, 316($20)
1575	                          
1576	16E0  3C01FFFF             lui $1, 65535
1577	16E4  3421FFFF             ori $1, $1, 65535
1578	16E8  3C1B0000             lui $27, 0
1579	16EC  377B0000             ori $27, $27, 0
1580	16F0  00000000             sll $0, $0, 0
1581	16F4  8E9F00CC             lw $31, 204($20)
1582	16F8  03611024             and $2, $27, $1
1583	16FC  AE820140             sw $2, 320($20)
1584	                          
1585	1700  3C01FFFF             lui $1, 65535
1586	1704  3421FFFF             ori $1, $1, 65535
1587	1708  3C170000             lui $23, 0
1588	170C  36F70000             ori $23, $23, 0
1589	1710  00000000             sll $0, $0, 0
1590	1714  8E9F00CC             lw $31, 204($20)
1591	1718  02E11024             and $2, $23, $1
1592	171C  AE820144             sw $2, 324($20)
1593	                          
1594	1720  3C01FFFF             lui $1, 65535
1595	1724  3421FFFF             ori $1, $1, 65535
1596	1728  3C0F0000             lui $15, 0
1597	172C  35EF0000             ori $15, $15, 0
1598	1730  00000000             sll $0, $0, 0
1599	1734  8E9F00CC             lw $31, 204($20)
1600	1738  01E11024             and $2, $15, $1
1601	173C  AE820148             sw $2, 328($20)
1602	                          
1603	1740  3C01FFFF             lui $1, 65535
1604	1744  3421FFFF             ori $1, $1, 65535
1605	1748  3C1E0000             lui $30, 0
1606	174C  37DE0000             ori $30, $30, 0
1607	1750  00000000             sll $0, $0, 0
1608	1754  8E9E00CC             lw $30, 204($20)
1609	1758  03E11024             and $2, $31, $1
1610	175C  AE82014C             sw $2, 332($20)
1611	                          
1612	1760  3C01FFFF             lui $1, 65535
1613	1764  3421FFFF             ori $1, $1, 65535
1614	1768  3C1D0000             lui $29, 0
1615	176C  37BD0000             ori $29, $29, 0
1616	1770  00000000             sll $0, $0, 0
1617	1774  8E9D00CC             lw $29, 204($20)
1618	1778  03E11024             and $2, $31, $1
1619	177C  AE820150             sw $2, 336($20)
1620	                          
1621	1780  3C01FFFF             lui $1, 65535
1622	1784  3421FFFF             ori $1, $1, 65535
1623	1788  3C1B0000             lui $27, 0
1624	178C  377B0000             ori $27, $27, 0
1625	1790  00000000             sll $0, $0, 0
1626	1794  8E9B00CC             lw $27, 204($20)
1627	1798  03E11024             and $2, $31, $1
1628	179C  AE820154             sw $2, 340($20)
1629	                          
1630	17A0  3C01FFFF             lui $1, 65535
1631	17A4  3421FFFF             ori $1, $1, 65535
1632	17A8  3C170000             lui $23, 0
1633	17AC  36F70000             ori $23, $23, 0
1634	17B0  00000000             sll $0, $0, 0
1635	17B4  8E9700CC             lw $23, 204($20)
1636	17B8  03E11024             and $2, $31, $1
1637	17BC  AE820158             sw $2, 344($20)
1638	                          
1639	17C0  3C01FFFF             lui $1, 65535
1640	17C4  3421FFFF             ori $1, $1, 65535
1641	17C8  3C0F0000             lui $15, 0
1642	17CC  35EF0000             ori $15, $15, 0
1643	17D0  00000000             sll $0, $0, 0
1644	17D4  8E8F00CC             lw $15, 204($20)
1645	17D8  03E11024             and $2, $31, $1
1646	17DC  AE82015C             sw $2, 348($20)
1647	                          
1648	                          ;........co-co_processor registers........;
1649	17E0  3C1D0001            lui $29, 1
1650	17E4  37BD157C            ori $29, $29, 5500
1651	                          
1652	17E8  0C001EDD            jal reset_offsets
1653	17EC  0C001EF3            jal init_cp
1654	                          cop0_register:
1655	17F0  3C01FFFF             lui $1, 65535
1656	17F4  3421FFFF             ori $1, $1, 65535
1657	17F8  40814000             mtc0 $1, $8
1658	17FC  40816000             mtc0 $1, $12
1659	1800  40816800             mtc0 $1, $13
1660	1804  40817000             mtc0 $1, $14
1661	1808  40817800             mtc0 $1, $15
1662	180C  40081000             mfc0 $2, $8
1663	1810  00000000             sll $0, $0, 0
1664	1814  AFA20000             sw $2, 0($29)
1665	1818  40804000             mtc0 $0, $8
1666	181C  400C1000             mfc0 $2, $12
1667	1820  00000000             sll $0, $0, 0
1668	1824  AFA20004             sw $2, 4($29)
1669	1828  40806000             mtc0 $0, $12
1670	182C  400D1800             mfc0 $3, $13
1671	1830  00000000             sll $0, $0, 0
1672	1834  AFA30008             sw $3, 8($29)
1673	1838  40806800             mtc0 $0, $13
1674	183C  400E2000             mfc0 $4, $14
1675	1840  00000000             sll $0, $0, 0
1676	1844  AFA4000C             sw $4, 12($29)
1677	1848  40807000             mtc0 $0, $14
1678	184C  400F2800             mfc0 $5, $15
1679	1850  00000000             sll $0, $0, 0
1680	1854  AFA50010             sw $5, 16($29)
1681	1858  40807800             mtc0 $0, $15
1682	185C  40083000             mfc0 $6, $8
1683	1860  00000000             sll $0, $0, 0
1684	1864  AFA60014             sw $6, 20($29)
1685	1868  40814000             mtc0 $1, $8
1686	186C  40083800             mfc0 $7, $8
1687	1870  00000000             sll $0, $0, 0
1688	1874  AFA70018             sw $7, 24($29)
1689	1878  400C3000             mfc0 $6, $12
1690	187C  00000000             sll $0, $0, 0
1691	1880  AFA6001C             sw $6, 28($29)
1692	1884  40816000             mtc0 $1, $12
1693	1888  400C3800             mfc0 $7, $12
1694	188C  00000000             sll $0, $0, 0
1695	1890  AFA70020             sw $7, 32($29)
1696	1894  400D4000             mfc0 $8, $13
1697	1898  00000000             sll $0, $0, 0
1698	189C  AFA80024             sw $8, 36($29)
1699	18A0  40816800             mtc0 $1, $13
1700	18A4  400D4800             mfc0 $9, $13
1701	18A8  00000000             sll $0, $0, 0
1702	18AC  AFA90028             sw $9, 40($29)
1703	18B0  400E5000             mfc0 $10, $14
1704	18B4  00000000             sll $0, $0, 0
1705	18B8  AFAA002C             sw $10, 44($29)
1706	18BC  40817000             mtc0 $1, $14
1707	18C0  400E5800             mfc0 $11, $14
1708	18C4  00000000             sll $0, $0, 0
1709	18C8  AFAB0030             sw $11, 48($29)
1710	18CC  400F8000             mfc0 $16, $15
1711	18D0  00000000             sll $0, $0, 0
1712	18D4  AFB00034             sw $16, 52($29)
1713	18D8  40817800             mtc0 $1, $15
1714	18DC  400F8800             mfc0 $17, $15
1715	18E0  00000000             sll $0, $0, 0
1716	18E4  AFB10038             sw $17, 56($29)
1717	                          
1718	                          ;........coprocessor mirror........;
1719	18E8  3C01FFFF             lui $1, 65535
1720	18EC  3421FFFF             ori $1, $1, 65535
1721	18F0  40804000             mtc0 $0, $8
1722	18F4  40806000             mtc0 $0, $12
1723	18F8  40806800             mtc0 $0, $13
1724	18FC  40807000             mtc0 $0, $14
1725	1900  40807800             mtc0 $0, $15
1726	1904  40081000             mfc0 $2, $8
1727	1908  00000000             sll $0, $0, 0
1728	190C  AFA2003C             sw $2, 60($29)
1729	1910  40814000             mtc0 $1, $8
1730	1914  400C1000             mfc0 $2, $12
1731	1918  00000000             sll $0, $0, 0
1732	191C  AFA20040             sw $2, 64($29)
1733	1920  40816000             mtc0 $1, $12
1734	1924  400D1800             mfc0 $3, $13
1735	1928  00000000             sll $0, $0, 0
1736	192C  AFA30044             sw $3, 68($29)
1737	1930  40816800             mtc0 $1, $13
1738	1934  400E2000             mfc0 $4, $14
1739	1938  00000000             sll $0, $0, 0
1740	193C  AFA40048             sw $4, 72($29)
1741	1940  40817000             mtc0 $1, $14
1742	1944  400F2800             mfc0 $5, $15
1743	1948  00000000             sll $0, $0, 0
1744	194C  AFA5004C             sw $5, 76($29)
1745	1950  40817800             mtc0 $1, $15
1746	1954  40083000             mfc0 $6, $8
1747	1958  00000000             sll $0, $0, 0
1748	195C  AFA60050             sw $6, 80($29)
1749	1960  40804000             mtc0 $0, $8
1750	1964  40083800             mfc0 $7, $8
1751	1968  00000000             sll $0, $0, 0
1752	196C  AFA70054             sw $7, 84($29)
1753	1970  400C3000             mfc0 $6, $12
1754	1974  00000000             sll $0, $0, 0
1755	1978  AFA60058             sw $6, 88($29)
1756	197C  40806000             mtc0 $0, $12
1757	1980  400C3800             mfc0 $7, $12
1758	1984  00000000             sll $0, $0, 0
1759	1988  AFA7005C             sw $7, 92($29)
1760	198C  400D4000             mfc0 $8, $13
1761	1990  00000000             sll $0, $0, 0
1762	1994  AFA80060             sw $8, 96($29)
1763	1998  40806800             mtc0 $0, $13
1764	199C  400D4800             mfc0 $9, $13
1765	19A0  00000000             sll $0, $0, 0
1766	19A4  AFA90064             sw $9, 100($29)
1767	19A8  400E5000             mfc0 $10, $14
1768	19AC  00000000             sll $0, $0, 0
1769	19B0  AFAA0068             sw $10, 104($29)
1770	19B4  40807000             mtc0 $0, $14
1771	19B8  400E5800             mfc0 $11, $14
1772	19BC  00000000             sll $0, $0, 0
1773	19C0  AFAB006C             sw $11, 108($29)
1774	19C4  400F8000             mfc0 $16, $15
1775	19C8  AFB00070             sw $16, 112($29)
1776	19CC  40807800             mtc0 $0, $15
1777	19D0  400F8800             mfc0 $17, $15
1778	19D4  AFB10074             sw $17, 116($29)
1779	                          
1780	                          ;........other test........;
1781	                          ;........reset $26 back for branch loops........;
1782	19D8  3C1A0000            lui $26, 0
1783	19DC  375A00C2            ori $26, $26, 194
1784	                          ;........reset $28 back for other test loops........;
1785	19E0  3C1C0000            lui $28, 0
1786	19E4  379C0080            ori $28, $28, 128
1787	                          ;........set memory location for signature........;
1788	19E8  3C1D0001            lui $29, 1
1789	19EC  37BD1770            ori $29, $29, 6000
1790	                          
1791	19F0  0C001EDD            jal reset_offsets
1792	19F4  0C0025BA            jal init_patterns
1793	19F8  0C00273E            jal init_branch
1794	                          
1795	19FC  0C001EDD            jal reset_offsets
1796	1A00  0C001EF3            jal init_cp
1797	                          operation_addu_and:
1798	1A04  0C001EDA             jal load_patterns
1799	1A08  01F09021             addu $18, $15, $16
1800	1A0C  01F09024             and $18, $15, $16
1801	1A10  01F09821             addu $19, $15, $16
1802	1A14  0C001EF0             jal store
1803	1A18  0C001EE5             jal increment_offset
1804	1A1C  177CFFFA             bne $27, $28, operation_addu_and
1805	                          
1806	1A20  0C001EDD            jal reset_offsets
1807	1A24  0C001EF3            jal init_cp
1808	                          operation_addu_nor:
1809	1A28  0C001EDA             jal load_patterns
1810	1A2C  01F09021             addu $18, $15, $16
1811	1A30  01F09027             nor $18, $15, $16
1812	1A34  01F09821             addu $19, $15, $16
1813	1A38  0C001EF0             jal store
1814	1A3C  0C001EE5             jal increment_offset
1815	1A40  177CFFFA             bne $27, $28, operation_addu_nor
1816	                          
1817	1A44  0C001EDD            jal reset_offsets
1818	1A48  0C001EF3            jal init_cp
1819	                          operation_addu_or:
1820	1A4C  0C001EDA             jal load_patterns
1821	1A50  01F09021             addu $18, $15, $16
1822	1A54  01F09025             or $18, $15, $16
1823	1A58  01F09821             addu $19, $15, $16
1824	1A5C  0C001EF0             jal store
1825	1A60  0C001EE5             jal increment_offset
1826	1A64  177CFFFA             bne $27, $28, operation_addu_or
1827	                          
1828	1A68  0C001EDD            jal reset_offsets
1829	1A6C  0C001EF3            jal init_cp
1830	                          operation_addu_subu:
1831	1A70  0C001EDA             jal load_patterns
1832	1A74  01F09021             addu $18, $15, $16
1833	1A78  01F09023             subu $18, $15, $16
1834	1A7C  01F09821             addu $19, $15, $16
1835	1A80  0C001EF0             jal store
1836	1A84  0C001EE5             jal increment_offset
1837	1A88  177CFFFA             bne $27, $28, operation_addu_subu
1838	                          
1839	1A8C  0C001EDD            jal reset_offsets
1840	1A90  0C001EF3            jal init_cp
1841	                          operation_addu_xor:
1842	1A94  0C001EDA             jal load_patterns
1843	1A98  01F09021             addu $18, $15, $16
1844	1A9C  01F09026             xor $18, $15, $16
1845	1AA0  01F09821             addu $19, $15, $16
1846	1AA4  0C001EF0             jal store
1847	1AA8  0C001EE5             jal increment_offset
1848	1AAC  177CFFFA             bne $27, $28, operation_addu_xor
1849	                          
1850	1AB0  0C001EDD            jal reset_offsets
1851	1AB4  0C001EF3            jal init_cp
1852	                          operation_addu_sllv:
1853	1AB8  0C001EDA             jal load_patterns
1854	1ABC  01F09021             addu $18, $15, $16
1855	1AC0  020F9004             sllv $18, $15, $16
1856	1AC4  01F09821             addu $19, $15, $16
1857	1AC8  0C001EF0             jal store
1858	1ACC  0C001EE5             jal increment_offset
1859	1AD0  177CFFFA             bne $27, $28, operation_addu_sllv
1860	                          
1861	1AD4  0C001EDD            jal reset_offsets
1862	1AD8  0C001EF3            jal init_cp
1863	                          operation_addu_slt:
1864	1ADC  0C001EDA             jal load_patterns
1865	1AE0  01F09021             addu $18, $15, $16
1866	1AE4  01F0902A             slt $18, $15, $16
1867	1AE8  01F09821             addu $19, $15, $16
1868	1AEC  0C001EF0             jal store
1869	1AF0  0C001EE5             jal increment_offset
1870	1AF4  177CFFFA             bne $27, $28, operation_addu_slt
1871	                          
1872	1AF8  0C001EDD            jal reset_offsets
1873	1AFC  0C001EF3            jal init_cp
1874	                          operation_addu_sltu:
1875	1B00  0C001EDA             jal load_patterns
1876	1B04  01F09021             addu $18, $15, $16
1877	1B08  01F0902B             sltu $18, $15, $16
1878	1B0C  01F09821             addu $19, $15, $16
1879	1B10  0C001EF0             jal store
1880	1B14  0C001EE5             jal increment_offset
1881	1B18  177CFFFA             bne $27, $28, operation_addu_sltu
1882	                          
1883	1B1C  0C001EDD            jal reset_offsets
1884	1B20  0C001EF3            jal init_cp
1885	                          operation_addu_srav:
1886	1B24  0C001EDA             jal load_patterns
1887	1B28  01F09021             addu $18, $15, $16
1888	1B2C  020F9007             srav $18, $15, $16
1889	1B30  01F09821             addu $19, $15, $16
1890	1B34  0C001EF0             jal store
1891	1B38  0C001EE5             jal increment_offset
1892	1B3C  177CFFFA             bne $27, $28, operation_addu_srav
1893	                          
1894	1B40  0C001EDD            jal reset_offsets
1895	1B44  0C001EF3            jal init_cp
1896	                          operation_addu_srlv:
1897	1B48  0C001EDA             jal load_patterns
1898	1B4C  01F09021             addu $18, $15, $16
1899	1B50  020F9006             srlv $18, $15, $16
1900	1B54  01F09821             addu $19, $15, $16
1901	1B58  0C001EF0             jal store
1902	1B5C  0C001EE5             jal increment_offset
1903	1B60  177CFFFA             bne $27, $28, operation_addu_srlv
1904	                          
1905	1B64  0C001EDD            jal reset_offsets
1906	1B68  0C001EF3            jal init_cp
1907	                          operation_addu_sll:
1908	1B6C  0C001EDA             jal load_patterns
1909	1B70  01F09021             addu $18, $15, $16
1910	1B74  000F9140             sll $18 ,$15, 5
1911	1B78  01F09821             addu $19, $15, $16
1912	1B7C  0C001EF0             jal store
1913	1B80  0C001EE5             jal increment_offset
1914	1B84  177CFFFA             bne $27, $28, operation_addu_sll
1915	                          
1916	1B88  0C001EDD            jal reset_offsets
1917	1B8C  0C001EF3            jal init_cp
1918	                          operation_addu_srl:
1919	1B90  0C001EDA             jal load_patterns
1920	1B94  01F09021             addu $18, $15, $16
1921	1B98  000F9142             srl $18 ,$15, 5
1922	1B9C  01F09821             addu $19, $15, $16
1923	1BA0  0C001EF0             jal store
1924	1BA4  0C001EE5             jal increment_offset
1925	1BA8  177CFFFA             bne $27, $28, operation_addu_srl
1926	                          
1927	1BAC  0C001EDD            jal reset_offsets
1928	1BB0  0C001EF3            jal init_cp
1929	                          operation_addu_sra:
1930	1BB4  0C001EDA             jal load_patterns
1931	1BB8  01F09021             addu $18, $15, $16
1932	1BBC  000F9143             sra $18 ,$15, 5
1933	1BC0  01F09821             addu $19, $15, $16
1934	1BC4  0C001EF0             jal store
1935	1BC8  0C001EE5             jal increment_offset
1936	1BCC  177CFFFA             bne $27, $28, operation_addu_sra
1937	                          
1938	1BD0  0C001EDD            jal reset_offsets
1939	1BD4  0C001EF3            jal init_cp
1940	                          operation_and_addu:
1941	1BD8  0C001EDA             jal load_patterns
1942	1BDC  01F09024             and $18, $15, $16
1943	1BE0  01F09021             addu $18, $15, $16
1944	1BE4  01F09824             and $19, $15, $16
1945	1BE8  0C001EF0             jal store
1946	1BEC  0C001EE5             jal increment_offset
1947	1BF0  177CFFFA             bne $27, $28, operation_and_addu
1948	                          
1949	1BF4  0C001EDD            jal reset_offsets
1950	1BF8  0C001EF3            jal init_cp
1951	                          operation_and_nor:
1952	1BFC  0C001EDA             jal load_patterns
1953	1C00  01F09024             and $18, $15, $16
1954	1C04  01F09027             nor $18, $15, $16
1955	1C08  01F09824             and $19, $15, $16
1956	1C0C  0C001EF0             jal store
1957	1C10  0C001EE5             jal increment_offset
1958	1C14  177CFFFA             bne $27, $28, operation_and_nor
1959	                          
1960	1C18  0C001EDD            jal reset_offsets
1961	1C1C  0C001EF3            jal init_cp
1962	                          operation_and_or:
1963	1C20  0C001EDA             jal load_patterns
1964	1C24  01F09024             and $18, $15, $16
1965	1C28  01F09025             or $18, $15, $16
1966	1C2C  01F09824             and $19, $15, $16
1967	1C30  0C001EF0             jal store
1968	1C34  0C001EE5             jal increment_offset
1969	1C38  177CFFFA             bne $27, $28, operation_and_or
1970	                          
1971	1C3C  0C001EDD            jal reset_offsets
1972	1C40  0C001EF3            jal init_cp
1973	                          operation_and_subu:
1974	1C44  0C001EDA             jal load_patterns
1975	1C48  01F09024             and $18, $15, $16
1976	1C4C  01F09023             subu $18, $15, $16
1977	1C50  01F09824             and $19, $15, $16
1978	1C54  0C001EF0             jal store
1979	1C58  0C001EE5             jal increment_offset
1980	1C5C  177CFFFA             bne $27, $28, operation_and_subu
1981	                          
1982	1C60  0C001EDD            jal reset_offsets
1983	1C64  0C001EF3            jal init_cp
1984	                          operation_and_xor:
1985	1C68  0C001EDA             jal load_patterns
1986	1C6C  01F09024             and $18, $15, $16
1987	1C70  01F09026             xor $18, $15, $16
1988	1C74  01F09824             and $19, $15, $16
1989	1C78  0C001EF0             jal store
1990	1C7C  0C001EE5             jal increment_offset
1991	1C80  177CFFFA             bne $27, $28, operation_and_xor
1992	                          
1993	1C84  0C001EDD            jal reset_offsets
1994	1C88  0C001EF3            jal init_cp
1995	                          operation_and_sllv:
1996	1C8C  0C001EDA             jal load_patterns
1997	1C90  01F09024             and $18, $15, $16
1998	1C94  020F9004             sllv $18, $15, $16
1999	1C98  01F09824             and $19, $15, $16
2000	1C9C  0C001EF0             jal store
2001	1CA0  0C001EE5             jal increment_offset
2002	1CA4  177CFFFA             bne $27, $28, operation_and_sllv
2003	                          
2004	1CA8  0C001EDD            jal reset_offsets
2005	1CAC  0C001EF3            jal init_cp
2006	                          operation_and_slt:
2007	1CB0  0C001EDA             jal load_patterns
2008	1CB4  01F09024             and $18, $15, $16
2009	1CB8  01F0902A             slt $18, $15, $16
2010	1CBC  01F09824             and $19, $15, $16
2011	1CC0  0C001EF0             jal store
2012	1CC4  0C001EE5             jal increment_offset
2013	1CC8  177CFFFA             bne $27, $28, operation_and_slt
2014	                          
2015	1CCC  0C001EDD            jal reset_offsets
2016	1CD0  0C001EF3            jal init_cp
2017	                          operation_and_sltu:
2018	1CD4  0C001EDA             jal load_patterns
2019	1CD8  01F09024             and $18, $15, $16
2020	1CDC  01F0902B             sltu $18, $15, $16
2021	1CE0  01F09824             and $19, $15, $16
2022	1CE4  0C001EF0             jal store
2023	1CE8  0C001EE5             jal increment_offset
2024	1CEC  177CFFFA             bne $27, $28, operation_and_sltu
2025	                          
2026	1CF0  0C001EDD            jal reset_offsets
2027	1CF4  0C001EF3            jal init_cp
2028	                          operation_and_srav:
2029	1CF8  0C001EDA             jal load_patterns
2030	1CFC  01F09024             and $18, $15, $16
2031	1D00  020F9007             srav $18, $15, $16
2032	1D04  01F09824             and $19, $15, $16
2033	1D08  0C001EF0             jal store
2034	1D0C  0C001EE5             jal increment_offset
2035	1D10  177CFFFA             bne $27, $28, operation_and_srav
2036	                          
2037	1D14  0C001EDD            jal reset_offsets
2038	1D18  0C001EF3            jal init_cp
2039	                          operation_and_srlv:
2040	1D1C  0C001EDA             jal load_patterns
2041	1D20  01F09024             and $18, $15, $16
2042	1D24  020F9006             srlv $18, $15, $16
2043	1D28  01F09824             and $19, $15, $16
2044	1D2C  0C001EF0             jal store
2045	1D30  0C001EE5             jal increment_offset
2046	1D34  177CFFFA             bne $27, $28, operation_and_srlv
2047	                          
2048	1D38  0C001EDD            jal reset_offsets
2049	1D3C  0C001EF3            jal init_cp
2050	                          operation_and_sll:
2051	1D40  0C001EDA             jal load_patterns
2052	1D44  01F09024             and $18, $15, $16
2053	1D48  000F9140             sll $18 ,$15, 5
2054	1D4C  01F09824             and $19, $15, $16
2055	1D50  0C001EF0             jal store
2056	1D54  0C001EE5             jal increment_offset
2057	1D58  177CFFFA             bne $27, $28, operation_and_sll
2058	                          
2059	1D5C  0C001EDD            jal reset_offsets
2060	1D60  0C001EF3            jal init_cp
2061	                          operation_and_srl:
2062	1D64  0C001EDA             jal load_patterns
2063	1D68  01F09024             and $18, $15, $16
2064	1D6C  000F9142             srl $18 ,$15, 5
2065	1D70  01F09824             and $19, $15, $16
2066	1D74  0C001EF0             jal store
2067	1D78  0C001EE5             jal increment_offset
2068	1D7C  177CFFFA             bne $27, $28, operation_and_srl
2069	                          
2070	1D80  0C001EDD            jal reset_offsets
2071	1D84  0C001EF3            jal init_cp
2072	                          operation_and_sra:
2073	1D88  0C001EDA             jal load_patterns
2074	1D8C  01F09024             and $18, $15, $16
2075	1D90  000F9143             sra $18 ,$15, 5
2076	1D94  01F09824             and $19, $15, $16
2077	1D98  0C001EF0             jal store
2078	1D9C  0C001EE5             jal increment_offset
2079	1DA0  177CFFFA             bne $27, $28, operation_and_sra
2080	                          
2081	1DA4  0C001EDD            jal reset_offsets
2082	1DA8  0C001EF3            jal init_cp
2083	                          operation_nor_addu:
2084	1DAC  0C001EDA             jal load_patterns
2085	1DB0  01F09027             nor $18, $15, $16
2086	1DB4  01F09021             addu $18, $15, $16
2087	1DB8  01F09827             nor $19, $15, $16
2088	1DBC  0C001EF0             jal store
2089	1DC0  0C001EE5             jal increment_offset
2090	1DC4  177CFFFA             bne $27, $28, operation_nor_addu
2091	                          
2092	1DC8  0C001EDD            jal reset_offsets
2093	1DCC  0C001EF3            jal init_cp
2094	                          operation_nor_and:
2095	1DD0  0C001EDA             jal load_patterns
2096	1DD4  01F09027             nor $18, $15, $16
2097	1DD8  01F09024             and $18, $15, $16
2098	1DDC  01F09827             nor $19, $15, $16
2099	1DE0  0C001EF0             jal store
2100	1DE4  0C001EE5             jal increment_offset
2101	1DE8  177CFFFA             bne $27, $28, operation_nor_and
2102	                          
2103	1DEC  0C001EDD            jal reset_offsets
2104	1DF0  0C001EF3            jal init_cp
2105	                          operation_nor_or:
2106	1DF4  0C001EDA             jal load_patterns
2107	1DF8  01F09027             nor $18, $15, $16
2108	1DFC  01F09025             or $18, $15, $16
2109	1E00  01F09827             nor $19, $15, $16
2110	1E04  0C001EF0             jal store
2111	1E08  0C001EE5             jal increment_offset
2112	1E0C  177CFFFA             bne $27, $28, operation_nor_or
2113	                          
2114	1E10  0C001EDD            jal reset_offsets
2115	1E14  0C001EF3            jal init_cp
2116	                          operation_nor_subu:
2117	1E18  0C001EDA             jal load_patterns
2118	1E1C  01F09027             nor $18, $15, $16
2119	1E20  01F09023             subu $18, $15, $16
2120	1E24  01F09827             nor $19, $15, $16
2121	1E28  0C001EF0             jal store
2122	1E2C  0C001EE5             jal increment_offset
2123	1E30  177CFFFA             bne $27, $28, operation_nor_subu
2124	                          
2125	1E34  0C001EDD            jal reset_offsets
2126	1E38  0C001EF3            jal init_cp
2127	                          operation_nor_xor:
2128	1E3C  0C001EDA             jal load_patterns
2129	1E40  01F09027             nor $18, $15, $16
2130	1E44  01F09026             xor $18, $15, $16
2131	1E48  01F09827             nor $19, $15, $16
2132	1E4C  0C001EF0             jal store
2133	1E50  0C001EE5             jal increment_offset
2134	1E54  177CFFFA             bne $27, $28, operation_nor_xor
2135	                          
2136	1E58  0C001EDD            jal reset_offsets
2137	1E5C  0C001EF3            jal init_cp
2138	                          operation_nor_sllv:
2139	1E60  0C001EDA             jal load_patterns
2140	1E64  01F09027             nor $18, $15, $16
2141	1E68  020F9004             sllv $18, $15, $16
2142	1E6C  01F09827             nor $19, $15, $16
2143	1E70  0C001EF0             jal store
2144	1E74  0C001EE5             jal increment_offset
2145	1E78  177CFFFA             bne $27, $28, operation_nor_sllv
2146	                          
2147	1E7C  0C001EDD            jal reset_offsets
2148	1E80  0C001EF3            jal init_cp
2149	                          operation_nor_slt:
2150	1E84  0C001EDA             jal load_patterns
2151	1E88  01F09027             nor $18, $15, $16
2152	1E8C  01F0902A             slt $18, $15, $16
2153	1E90  01F09827             nor $19, $15, $16
2154	1E94  0C001EF0             jal store
2155	1E98  0C001EE5             jal increment_offset
2156	1E9C  177CFFFA             bne $27, $28, operation_nor_slt
2157	                          
2158	1EA0  0C001EDD            jal reset_offsets
2159	1EA4  0C001EF3            jal init_cp
2160	                          operation_nor_sltu:
2161	1EA8  0C001EDA             jal load_patterns
2162	1EAC  01F09027             nor $18, $15, $16
2163	1EB0  01F0902B             sltu $18, $15, $16
2164	1EB4  01F09827             nor $19, $15, $16
2165	1EB8  0C001EF0             jal store
2166	1EBC  0C001EE5             jal increment_offset
2167	1EC0  177CFFFA             bne $27, $28, operation_nor_sltu
2168	                          
2169	1EC4  0C001EDD            jal reset_offsets
2170	1EC8  0C001EF3            jal init_cp
2171	                          operation_nor_srav:
2172	1ECC  0C001EDA             jal load_patterns
2173	1ED0  01F09027             nor $18, $15, $16
2174	1ED4  020F9007             srav $18, $15, $16
2175	1ED8  01F09827             nor $19, $15, $16
2176	1EDC  0C001EF0             jal store
2177	1EE0  0C001EE5             jal increment_offset
2178	1EE4  177CFFFA             bne $27, $28, operation_nor_srav
2179	                          
2180	1EE8  0C001EDD            jal reset_offsets
2181	1EEC  0C001EF3            jal init_cp
2182	                          operation_nor_srlv:
2183	1EF0  0C001EDA             jal load_patterns
2184	1EF4  01F09027             nor $18, $15, $16
2185	1EF8  020F9006             srlv $18, $15, $16
2186	1EFC  01F09827             nor $19, $15, $16
2187	1F00  0C001EF0             jal store
2188	1F04  0C001EE5             jal increment_offset
2189	1F08  177CFFFA             bne $27, $28, operation_nor_srlv
2190	                          
2191	1F0C  0C001EDD            jal reset_offsets
2192	1F10  0C001EF3            jal init_cp
2193	                          operation_nor_sll:
2194	1F14  0C001EDA             jal load_patterns
2195	1F18  01F09027             nor $18, $15, $16
2196	1F1C  000F9140             sll $18 ,$15, 5
2197	1F20  01F09827             nor $19, $15, $16
2198	1F24  0C001EF0             jal store
2199	1F28  0C001EE5             jal increment_offset
2200	1F2C  177CFFFA             bne $27, $28, operation_nor_sll
2201	                          
2202	1F30  0C001EDD            jal reset_offsets
2203	1F34  0C001EF3            jal init_cp
2204	                          operation_nor_srl:
2205	1F38  0C001EDA             jal load_patterns
2206	1F3C  01F09027             nor $18, $15, $16
2207	1F40  000F9142             srl $18 ,$15, 5
2208	1F44  01F09827             nor $19, $15, $16
2209	1F48  0C001EF0             jal store
2210	1F4C  0C001EE5             jal increment_offset
2211	1F50  177CFFFA             bne $27, $28, operation_nor_srl
2212	                          
2213	1F54  0C001EDD            jal reset_offsets
2214	1F58  0C001EF3            jal init_cp
2215	                          operation_nor_sra:
2216	1F5C  0C001EDA             jal load_patterns
2217	1F60  01F09027             nor $18, $15, $16
2218	1F64  000F9143             sra $18 ,$15, 5
2219	1F68  01F09827             nor $19, $15, $16
2220	1F6C  0C001EF0             jal store
2221	1F70  0C001EE5             jal increment_offset
2222	1F74  177CFFFA             bne $27, $28, operation_nor_sra
2223	                          
2224	1F78  0C001EDD            jal reset_offsets
2225	1F7C  0C001EF3            jal init_cp
2226	                          operation_or_addu:
2227	1F80  0C001EDA             jal load_patterns
2228	1F84  01F09025             or $18, $15, $16
2229	1F88  01F09021             addu $18, $15, $16
2230	1F8C  01F09825             or $19, $15, $16
2231	1F90  0C001EF0             jal store
2232	1F94  0C001EE5             jal increment_offset
2233	1F98  177CFFFA             bne $27, $28, operation_or_addu
2234	                          
2235	1F9C  0C001EDD            jal reset_offsets
2236	1FA0  0C001EF3            jal init_cp
2237	                          operation_or_and:
2238	1FA4  0C001EDA             jal load_patterns
2239	1FA8  01F09025             or $18, $15, $16
2240	1FAC  01F09024             and $18, $15, $16
2241	1FB0  01F09825             or $19, $15, $16
2242	1FB4  0C001EF0             jal store
2243	1FB8  0C001EE5             jal increment_offset
2244	1FBC  177CFFFA             bne $27, $28, operation_or_and
2245	                          
2246	1FC0  0C001EDD            jal reset_offsets
2247	1FC4  0C001EF3            jal init_cp
2248	                          operation_or_nor:
2249	1FC8  0C001EDA             jal load_patterns
2250	1FCC  01F09025             or $18, $15, $16
2251	1FD0  01F09027             nor $18, $15, $16
2252	1FD4  01F09825             or $19, $15, $16
2253	1FD8  0C001EF0             jal store
2254	1FDC  0C001EE5             jal increment_offset
2255	1FE0  177CFFFA             bne $27, $28, operation_or_nor
2256	                          
2257	1FE4  0C001EDD            jal reset_offsets
2258	1FE8  0C001EF3            jal init_cp
2259	                          operation_or_subu:
2260	1FEC  0C001EDA             jal load_patterns
2261	1FF0  01F09025             or $18, $15, $16
2262	1FF4  01F09023             subu $18, $15, $16
2263	1FF8  01F09825             or $19, $15, $16
2264	1FFC  0C001EF0             jal store
2265	2000  0C001EE5             jal increment_offset
2266	2004  177CFFFA             bne $27, $28, operation_or_subu
2267	                          
2268	2008  0C001EDD            jal reset_offsets
2269	200C  0C001EF3            jal init_cp
2270	                          operation_or_xor:
2271	2010  0C001EDA             jal load_patterns
2272	2014  01F09025             or $18, $15, $16
2273	2018  01F09026             xor $18, $15, $16
2274	201C  01F09825             or $19, $15, $16
2275	2020  0C001EF0             jal store
2276	2024  0C001EE5             jal increment_offset
2277	2028  177CFFFA             bne $27, $28, operation_or_xor
2278	                          
2279	202C  0C001EDD            jal reset_offsets
2280	2030  0C001EF3            jal init_cp
2281	                          operation_or_sllv:
2282	2034  0C001EDA             jal load_patterns
2283	2038  01F09025             or $18, $15, $16
2284	203C  020F9004             sllv $18, $15, $16
2285	2040  01F09825             or $19, $15, $16
2286	2044  0C001EF0             jal store
2287	2048  0C001EE5             jal increment_offset
2288	204C  177CFFFA             bne $27, $28, operation_or_sllv
2289	                          
2290	2050  0C001EDD            jal reset_offsets
2291	2054  0C001EF3            jal init_cp
2292	                          operation_or_slt:
2293	2058  0C001EDA             jal load_patterns
2294	205C  01F09025             or $18, $15, $16
2295	2060  01F0902A             slt $18, $15, $16
2296	2064  01F09825             or $19, $15, $16
2297	2068  0C001EF0             jal store
2298	206C  0C001EE5             jal increment_offset
2299	2070  177CFFFA             bne $27, $28, operation_or_slt
2300	                          
2301	2074  0C001EDD            jal reset_offsets
2302	2078  0C001EF3            jal init_cp
2303	                          operation_or_sltu:
2304	207C  0C001EDA             jal load_patterns
2305	2080  01F09025             or $18, $15, $16
2306	2084  01F0902B             sltu $18, $15, $16
2307	2088  01F09825             or $19, $15, $16
2308	208C  0C001EF0             jal store
2309	2090  0C001EE5             jal increment_offset
2310	2094  177CFFFA             bne $27, $28, operation_or_sltu
2311	                          
2312	2098  0C001EDD            jal reset_offsets
2313	209C  0C001EF3            jal init_cp
2314	                          operation_or_srav:
2315	20A0  0C001EDA             jal load_patterns
2316	20A4  01F09025             or $18, $15, $16
2317	20A8  020F9007             srav $18, $15, $16
2318	20AC  01F09825             or $19, $15, $16
2319	20B0  0C001EF0             jal store
2320	20B4  0C001EE5             jal increment_offset
2321	20B8  177CFFFA             bne $27, $28, operation_or_srav
2322	                          
2323	20BC  0C001EDD            jal reset_offsets
2324	20C0  0C001EF3            jal init_cp
2325	                          operation_or_srlv:
2326	20C4  0C001EDA             jal load_patterns
2327	20C8  01F09025             or $18, $15, $16
2328	20CC  020F9006             srlv $18, $15, $16
2329	20D0  01F09825             or $19, $15, $16
2330	20D4  0C001EF0             jal store
2331	20D8  0C001EE5             jal increment_offset
2332	20DC  177CFFFA             bne $27, $28, operation_or_srlv
2333	                          
2334	20E0  0C001EDD            jal reset_offsets
2335	20E4  0C001EF3            jal init_cp
2336	                          operation_or_sll:
2337	20E8  0C001EDA             jal load_patterns
2338	20EC  01F09025             or $18, $15, $16
2339	20F0  000F9140             sll $18 ,$15, 5
2340	20F4  01F09825             or $19, $15, $16
2341	20F8  0C001EF0             jal store
2342	20FC  0C001EE5             jal increment_offset
2343	2100  177CFFFA             bne $27, $28, operation_or_sll
2344	                          
2345	2104  0C001EDD            jal reset_offsets
2346	2108  0C001EF3            jal init_cp
2347	                          operation_or_srl:
2348	210C  0C001EDA             jal load_patterns
2349	2110  01F09025             or $18, $15, $16
2350	2114  000F9142             srl $18 ,$15, 5
2351	2118  01F09825             or $19, $15, $16
2352	211C  0C001EF0             jal store
2353	2120  0C001EE5             jal increment_offset
2354	2124  177CFFFA             bne $27, $28, operation_or_srl
2355	                          
2356	2128  0C001EDD            jal reset_offsets
2357	212C  0C001EF3            jal init_cp
2358	                          operation_or_sra:
2359	2130  0C001EDA             jal load_patterns
2360	2134  01F09025             or $18, $15, $16
2361	2138  000F9143             sra $18 ,$15, 5
2362	213C  01F09825             or $19, $15, $16
2363	2140  0C001EF0             jal store
2364	2144  0C001EE5             jal increment_offset
2365	2148  177CFFFA             bne $27, $28, operation_or_sra
2366	                          
2367	214C  0C001EDD            jal reset_offsets
2368	2150  0C001EF3            jal init_cp
2369	                          operation_subu_addu:
2370	2154  0C001EDA             jal load_patterns
2371	2158  01F09023             subu $18, $15, $16
2372	215C  01F09021             addu $18, $15, $16
2373	2160  01F09823             subu $19, $15, $16
2374	2164  0C001EF0             jal store
2375	2168  0C001EE5             jal increment_offset
2376	216C  177CFFFA             bne $27, $28, operation_subu_addu
2377	                          
2378	2170  0C001EDD            jal reset_offsets
2379	2174  0C001EF3            jal init_cp
2380	                          operation_subu_and:
2381	2178  0C001EDA             jal load_patterns
2382	217C  01F09023             subu $18, $15, $16
2383	2180  01F09024             and $18, $15, $16
2384	2184  01F09823             subu $19, $15, $16
2385	2188  0C001EF0             jal store
2386	218C  0C001EE5             jal increment_offset
2387	2190  177CFFFA             bne $27, $28, operation_subu_and
2388	                          
2389	2194  0C001EDD            jal reset_offsets
2390	2198  0C001EF3            jal init_cp
2391	                          operation_subu_nor:
2392	219C  0C001EDA             jal load_patterns
2393	21A0  01F09023             subu $18, $15, $16
2394	21A4  01F09027             nor $18, $15, $16
2395	21A8  01F09823             subu $19, $15, $16
2396	21AC  0C001EF0             jal store
2397	21B0  0C001EE5             jal increment_offset
2398	21B4  177CFFFA             bne $27, $28, operation_subu_nor
2399	                          
2400	21B8  0C001EDD            jal reset_offsets
2401	21BC  0C001EF3            jal init_cp
2402	                          operation_subu_or:
2403	21C0  0C001EDA             jal load_patterns
2404	21C4  01F09023             subu $18, $15, $16
2405	21C8  01F09025             or $18, $15, $16
2406	21CC  01F09823             subu $19, $15, $16
2407	21D0  0C001EF0             jal store
2408	21D4  0C001EE5             jal increment_offset
2409	21D8  177CFFFA             bne $27, $28, operation_subu_or
2410	                          
2411	21DC  0C001EDD            jal reset_offsets
2412	21E0  0C001EF3            jal init_cp
2413	                          operation_subu_xor:
2414	21E4  0C001EDA             jal load_patterns
2415	21E8  01F09023             subu $18, $15, $16
2416	21EC  01F09026             xor $18, $15, $16
2417	21F0  01F09823             subu $19, $15, $16
2418	21F4  0C001EF0             jal store
2419	21F8  0C001EE5             jal increment_offset
2420	21FC  177CFFFA             bne $27, $28, operation_subu_xor
2421	                          
2422	2200  0C001EDD            jal reset_offsets
2423	2204  0C001EF3            jal init_cp
2424	                          operation_subu_sllv:
2425	2208  0C001EDA             jal load_patterns
2426	220C  01F09023             subu $18, $15, $16
2427	2210  020F9004             sllv $18, $15, $16
2428	2214  01F09823             subu $19, $15, $16
2429	2218  0C001EF0             jal store
2430	221C  0C001EE5             jal increment_offset
2431	2220  177CFFFA             bne $27, $28, operation_subu_sllv
2432	                          
2433	2224  0C001EDD            jal reset_offsets
2434	2228  0C001EF3            jal init_cp
2435	                          operation_subu_slt:
2436	222C  0C001EDA             jal load_patterns
2437	2230  01F09023             subu $18, $15, $16
2438	2234  01F0902A             slt $18, $15, $16
2439	2238  01F09823             subu $19, $15, $16
2440	223C  0C001EF0             jal store
2441	2240  0C001EE5             jal increment_offset
2442	2244  177CFFFA             bne $27, $28, operation_subu_slt
2443	                          
2444	2248  0C001EDD            jal reset_offsets
2445	224C  0C001EF3            jal init_cp
2446	                          operation_subu_sltu:
2447	2250  0C001EDA             jal load_patterns
2448	2254  01F09023             subu $18, $15, $16
2449	2258  01F0902B             sltu $18, $15, $16
2450	225C  01F09823             subu $19, $15, $16
2451	2260  0C001EF0             jal store
2452	2264  0C001EE5             jal increment_offset
2453	2268  177CFFFA             bne $27, $28, operation_subu_sltu
2454	                          
2455	226C  0C001EDD            jal reset_offsets
2456	2270  0C001EF3            jal init_cp
2457	                          operation_subu_srav:
2458	2274  0C001EDA             jal load_patterns
2459	2278  01F09023             subu $18, $15, $16
2460	227C  020F9007             srav $18, $15, $16
2461	2280  01F09823             subu $19, $15, $16
2462	2284  0C001EF0             jal store
2463	2288  0C001EE5             jal increment_offset
2464	228C  177CFFFA             bne $27, $28, operation_subu_srav
2465	                          
2466	2290  0C001EDD            jal reset_offsets
2467	2294  0C001EF3            jal init_cp
2468	                          operation_subu_srlv:
2469	2298  0C001EDA             jal load_patterns
2470	229C  01F09023             subu $18, $15, $16
2471	22A0  020F9006             srlv $18, $15, $16
2472	22A4  01F09823             subu $19, $15, $16
2473	22A8  0C001EF0             jal store
2474	22AC  0C001EE5             jal increment_offset
2475	22B0  177CFFFA             bne $27, $28, operation_subu_srlv
2476	                          
2477	22B4  0C001EDD            jal reset_offsets
2478	22B8  0C001EF3            jal init_cp
2479	                          operation_subu_sll:
2480	22BC  0C001EDA             jal load_patterns
2481	22C0  01F09023             subu $18, $15, $16
2482	22C4  000F9140             sll $18 ,$15, 5
2483	22C8  01F09823             subu $19, $15, $16
2484	22CC  0C001EF0             jal store
2485	22D0  0C001EE5             jal increment_offset
2486	22D4  177CFFFA             bne $27, $28, operation_subu_sll
2487	                          
2488	22D8  0C001EDD            jal reset_offsets
2489	22DC  0C001EF3            jal init_cp
2490	                          operation_subu_srl:
2491	22E0  0C001EDA             jal load_patterns
2492	22E4  01F09023             subu $18, $15, $16
2493	22E8  000F9142             srl $18 ,$15, 5
2494	22EC  01F09823             subu $19, $15, $16
2495	22F0  0C001EF0             jal store
2496	22F4  0C001EE5             jal increment_offset
2497	22F8  177CFFFA             bne $27, $28, operation_subu_srl
2498	                          
2499	22FC  0C001EDD            jal reset_offsets
2500	2300  0C001EF3            jal init_cp
2501	                          operation_subu_sra:
2502	2304  0C001EDA             jal load_patterns
2503	2308  01F09023             subu $18, $15, $16
2504	230C  000F9143             sra $18 ,$15, 5
2505	2310  01F09823             subu $19, $15, $16
2506	2314  0C001EF0             jal store
2507	2318  0C001EE5             jal increment_offset
2508	231C  177CFFFA             bne $27, $28, operation_subu_sra
2509	                          
2510	2320  0C001EDD            jal reset_offsets
2511	2324  0C001EF3            jal init_cp
2512	                          operation_xor_addu:
2513	2328  0C001EDA             jal load_patterns
2514	232C  01F09026             xor $18, $15, $16
2515	2330  01F09021             addu $18, $15, $16
2516	2334  01F09826             xor $19, $15, $16
2517	2338  0C001EF0             jal store
2518	233C  0C001EE5             jal increment_offset
2519	2340  177CFFFA             bne $27, $28, operation_xor_addu
2520	                          
2521	2344  0C001EDD            jal reset_offsets
2522	2348  0C001EF3            jal init_cp
2523	                          operation_xor_and:
2524	234C  0C001EDA             jal load_patterns
2525	2350  01F09026             xor $18, $15, $16
2526	2354  01F09024             and $18, $15, $16
2527	2358  01F09826             xor $19, $15, $16
2528	235C  0C001EF0             jal store
2529	2360  0C001EE5             jal increment_offset
2530	2364  177CFFFA             bne $27, $28, operation_xor_and
2531	                          
2532	2368  0C001EDD            jal reset_offsets
2533	236C  0C001EF3            jal init_cp
2534	                          operation_xor_nor:
2535	2370  0C001EDA             jal load_patterns
2536	2374  01F09026             xor $18, $15, $16
2537	2378  01F09027             nor $18, $15, $16
2538	237C  01F09826             xor $19, $15, $16
2539	2380  0C001EF0             jal store
2540	2384  0C001EE5             jal increment_offset
2541	2388  177CFFFA             bne $27, $28, operation_xor_nor
2542	                          
2543	238C  0C001EDD            jal reset_offsets
2544	2390  0C001EF3            jal init_cp
2545	                          operation_xor_or:
2546	2394  0C001EDA             jal load_patterns
2547	2398  01F09026             xor $18, $15, $16
2548	239C  01F09025             or $18, $15, $16
2549	23A0  01F09826             xor $19, $15, $16
2550	23A4  0C001EF0             jal store
2551	23A8  0C001EE5             jal increment_offset
2552	23AC  177CFFFA             bne $27, $28, operation_xor_or
2553	                          
2554	23B0  0C001EDD            jal reset_offsets
2555	23B4  0C001EF3            jal init_cp
2556	                          operation_xor_subu:
2557	23B8  0C001EDA             jal load_patterns
2558	23BC  01F09026             xor $18, $15, $16
2559	23C0  01F09023             subu $18, $15, $16
2560	23C4  01F09826             xor $19, $15, $16
2561	23C8  0C001EF0             jal store
2562	23CC  0C001EE5             jal increment_offset
2563	23D0  177CFFFA             bne $27, $28, operation_xor_subu
2564	                          
2565	23D4  0C001EDD            jal reset_offsets
2566	23D8  0C001EF3            jal init_cp
2567	                          operation_xor_sllv:
2568	23DC  0C001EDA             jal load_patterns
2569	23E0  01F09026             xor $18, $15, $16
2570	23E4  020F9004             sllv $18, $15, $16
2571	23E8  01F09826             xor $19, $15, $16
2572	23EC  0C001EF0             jal store
2573	23F0  0C001EE5             jal increment_offset
2574	23F4  177CFFFA             bne $27, $28, operation_xor_sllv
2575	                          
2576	23F8  0C001EDD            jal reset_offsets
2577	23FC  0C001EF3            jal init_cp
2578	                          operation_xor_slt:
2579	2400  0C001EDA             jal load_patterns
2580	2404  01F09026             xor $18, $15, $16
2581	2408  01F0902A             slt $18, $15, $16
2582	240C  01F09826             xor $19, $15, $16
2583	2410  0C001EF0             jal store
2584	2414  0C001EE5             jal increment_offset
2585	2418  177CFFFA             bne $27, $28, operation_xor_slt
2586	                          
2587	241C  0C001EDD            jal reset_offsets
2588	2420  0C001EF3            jal init_cp
2589	                          operation_xor_sltu:
2590	2424  0C001EDA             jal load_patterns
2591	2428  01F09026             xor $18, $15, $16
2592	242C  01F0902B             sltu $18, $15, $16
2593	2430  01F09826             xor $19, $15, $16
2594	2434  0C001EF0             jal store
2595	2438  0C001EE5             jal increment_offset
2596	243C  177CFFFA             bne $27, $28, operation_xor_sltu
2597	                          
2598	2440  0C001EDD            jal reset_offsets
2599	2444  0C001EF3            jal init_cp
2600	                          operation_xor_srav:
2601	2448  0C001EDA             jal load_patterns
2602	244C  01F09026             xor $18, $15, $16
2603	2450  020F9007             srav $18, $15, $16
2604	2454  01F09826             xor $19, $15, $16
2605	2458  0C001EF0             jal store
2606	245C  0C001EE5             jal increment_offset
2607	2460  177CFFFA             bne $27, $28, operation_xor_srav
2608	                          
2609	2464  0C001EDD            jal reset_offsets
2610	2468  0C001EF3            jal init_cp
2611	                          operation_xor_srlv:
2612	246C  0C001EDA             jal load_patterns
2613	2470  01F09026             xor $18, $15, $16
2614	2474  020F9006             srlv $18, $15, $16
2615	2478  01F09826             xor $19, $15, $16
2616	247C  0C001EF0             jal store
2617	2480  0C001EE5             jal increment_offset
2618	2484  177CFFFA             bne $27, $28, operation_xor_srlv
2619	                          
2620	2488  0C001EDD            jal reset_offsets
2621	248C  0C001EF3            jal init_cp
2622	                          operation_xor_sll:
2623	2490  0C001EDA             jal load_patterns
2624	2494  01F09026             xor $18, $15, $16
2625	2498  000F9140             sll $18 ,$15, 5
2626	249C  01F09826             xor $19, $15, $16
2627	24A0  0C001EF0             jal store
2628	24A4  0C001EE5             jal increment_offset
2629	24A8  177CFFFA             bne $27, $28, operation_xor_sll
2630	                          
2631	24AC  0C001EDD            jal reset_offsets
2632	24B0  0C001EF3            jal init_cp
2633	                          operation_xor_srl:
2634	24B4  0C001EDA             jal load_patterns
2635	24B8  01F09026             xor $18, $15, $16
2636	24BC  000F9142             srl $18 ,$15, 5
2637	24C0  01F09826             xor $19, $15, $16
2638	24C4  0C001EF0             jal store
2639	24C8  0C001EE5             jal increment_offset
2640	24CC  177CFFFA             bne $27, $28, operation_xor_srl
2641	                          
2642	24D0  0C001EDD            jal reset_offsets
2643	24D4  0C001EF3            jal init_cp
2644	                          operation_xor_sra:
2645	24D8  0C001EDA             jal load_patterns
2646	24DC  01F09026             xor $18, $15, $16
2647	24E0  000F9143             sra $18 ,$15, 5
2648	24E4  01F09826             xor $19, $15, $16
2649	24E8  0C001EF0             jal store
2650	24EC  0C001EE5             jal increment_offset
2651	24F0  177CFFFA             bne $27, $28, operation_xor_sra
2652	                          
2653	24F4  0C001EDD            jal reset_offsets
2654	24F8  0C001EF3            jal init_cp
2655	                          operation_sllv_addu:
2656	24FC  0C001EDA             jal load_patterns
2657	2500  020F9004             sllv $18, $15, $16
2658	2504  01F09021             addu $18, $15, $16
2659	2508  020F9804             sllv $19, $15, $16
2660	250C  0C001EF0             jal store
2661	2510  0C001EE5             jal increment_offset
2662	2514  177CFFFA             bne $27, $28, operation_sllv_addu
2663	                          
2664	2518  0C001EDD            jal reset_offsets
2665	251C  0C001EF3            jal init_cp
2666	                          operation_sllv_and:
2667	2520  0C001EDA             jal load_patterns
2668	2524  020F9004             sllv $18, $15, $16
2669	2528  01F09024             and $18, $15, $16
2670	252C  020F9804             sllv $19, $15, $16
2671	2530  0C001EF0             jal store
2672	2534  0C001EE5             jal increment_offset
2673	2538  177CFFFA             bne $27, $28, operation_sllv_and
2674	                          
2675	253C  0C001EDD            jal reset_offsets
2676	2540  0C001EF3            jal init_cp
2677	                          operation_sllv_nor:
2678	2544  0C001EDA             jal load_patterns
2679	2548  020F9004             sllv $18, $15, $16
2680	254C  01F09027             nor $18, $15, $16
2681	2550  020F9804             sllv $19, $15, $16
2682	2554  0C001EF0             jal store
2683	2558  0C001EE5             jal increment_offset
2684	255C  177CFFFA             bne $27, $28, operation_sllv_nor
2685	                          
2686	2560  0C001EDD            jal reset_offsets
2687	2564  0C001EF3            jal init_cp
2688	                          operation_sllv_or:
2689	2568  0C001EDA             jal load_patterns
2690	256C  020F9004             sllv $18, $15, $16
2691	2570  01F09025             or $18, $15, $16
2692	2574  020F9804             sllv $19, $15, $16
2693	2578  0C001EF0             jal store
2694	257C  0C001EE5             jal increment_offset
2695	2580  177CFFFA             bne $27, $28, operation_sllv_or
2696	                          
2697	2584  0C001EDD            jal reset_offsets
2698	2588  0C001EF3            jal init_cp
2699	                          operation_sllv_subu:
2700	258C  0C001EDA             jal load_patterns
2701	2590  020F9004             sllv $18, $15, $16
2702	2594  01F09023             subu $18, $15, $16
2703	2598  020F9804             sllv $19, $15, $16
2704	259C  0C001EF0             jal store
2705	25A0  0C001EE5             jal increment_offset
2706	25A4  177CFFFA             bne $27, $28, operation_sllv_subu
2707	                          
2708	25A8  0C001EDD            jal reset_offsets
2709	25AC  0C001EF3            jal init_cp
2710	                          operation_sllv_xor:
2711	25B0  0C001EDA             jal load_patterns
2712	25B4  020F9004             sllv $18, $15, $16
2713	25B8  01F09026             xor $18, $15, $16
2714	25BC  020F9804             sllv $19, $15, $16
2715	25C0  0C001EF0             jal store
2716	25C4  0C001EE5             jal increment_offset
2717	25C8  177CFFFA             bne $27, $28, operation_sllv_xor
2718	                          
2719	25CC  0C001EDD            jal reset_offsets
2720	25D0  0C001EF3            jal init_cp
2721	                          operation_sllv_slt:
2722	25D4  0C001EDA             jal load_patterns
2723	25D8  020F9004             sllv $18, $15, $16
2724	25DC  01F0902A             slt $18, $15, $16
2725	25E0  020F9804             sllv $19, $15, $16
2726	25E4  0C001EF0             jal store
2727	25E8  0C001EE5             jal increment_offset
2728	25EC  177CFFFA             bne $27, $28, operation_sllv_slt
2729	                          
2730	25F0  0C001EDD            jal reset_offsets
2731	25F4  0C001EF3            jal init_cp
2732	                          operation_sllv_sltu:
2733	25F8  0C001EDA             jal load_patterns
2734	25FC  020F9004             sllv $18, $15, $16
2735	2600  01F0902B             sltu $18, $15, $16
2736	2604  020F9804             sllv $19, $15, $16
2737	2608  0C001EF0             jal store
2738	260C  0C001EE5             jal increment_offset
2739	2610  177CFFFA             bne $27, $28, operation_sllv_sltu
2740	                          
2741	2614  0C001EDD            jal reset_offsets
2742	2618  0C001EF3            jal init_cp
2743	                          operation_sllv_srav:
2744	261C  0C001EDA             jal load_patterns
2745	2620  020F9004             sllv $18, $15, $16
2746	2624  020F9007             srav $18, $15, $16
2747	2628  020F9804             sllv $19, $15, $16
2748	262C  0C001EF0             jal store
2749	2630  0C001EE5             jal increment_offset
2750	2634  177CFFFA             bne $27, $28, operation_sllv_srav
2751	                          
2752	2638  0C001EDD            jal reset_offsets
2753	263C  0C001EF3            jal init_cp
2754	                          operation_sllv_srlv:
2755	2640  0C001EDA             jal load_patterns
2756	2644  020F9004             sllv $18, $15, $16
2757	2648  020F9006             srlv $18, $15, $16
2758	264C  020F9804             sllv $19, $15, $16
2759	2650  0C001EF0             jal store
2760	2654  0C001EE5             jal increment_offset
2761	2658  177CFFFA             bne $27, $28, operation_sllv_srlv
2762	                          
2763	265C  0C001EDD            jal reset_offsets
2764	2660  0C001EF3            jal init_cp
2765	                          operation_sllv_sll:
2766	2664  0C001EDA             jal load_patterns
2767	2668  020F9004             sllv $18, $15, $16
2768	266C  000F9140             sll $18 ,$15, 5
2769	2670  020F9804             sllv $19, $15, $16
2770	2674  0C001EF0             jal store
2771	2678  0C001EE5             jal increment_offset
2772	267C  177CFFFA             bne $27, $28, operation_sllv_sll
2773	                          
2774	2680  0C001EDD            jal reset_offsets
2775	2684  0C001EF3            jal init_cp
2776	                          operation_sllv_srl:
2777	2688  0C001EDA             jal load_patterns
2778	268C  020F9004             sllv $18, $15, $16
2779	2690  000F9142             srl $18 ,$15, 5
2780	2694  020F9804             sllv $19, $15, $16
2781	2698  0C001EF0             jal store
2782	269C  0C001EE5             jal increment_offset
2783	26A0  177CFFFA             bne $27, $28, operation_sllv_srl
2784	                          
2785	26A4  0C001EDD            jal reset_offsets
2786	26A8  0C001EF3            jal init_cp
2787	                          operation_sllv_sra:
2788	26AC  0C001EDA             jal load_patterns
2789	26B0  020F9004             sllv $18, $15, $16
2790	26B4  000F9143             sra $18 ,$15, 5
2791	26B8  020F9804             sllv $19, $15, $16
2792	26BC  0C001EF0             jal store
2793	26C0  0C001EE5             jal increment_offset
2794	26C4  177CFFFA             bne $27, $28, operation_sllv_sra
2795	                          
2796	26C8  0C001EDD            jal reset_offsets
2797	26CC  0C001EF3            jal init_cp
2798	                          operation_slt_addu:
2799	26D0  0C001EDA             jal load_patterns
2800	26D4  01F0902A             slt $18, $15, $16
2801	26D8  01F09021             addu $18, $15, $16
2802	26DC  01F0982A             slt $19, $15, $16
2803	26E0  0C001EF0             jal store
2804	26E4  0C001EE5             jal increment_offset
2805	26E8  177CFFFA             bne $27, $28, operation_slt_addu
2806	                          
2807	26EC  0C001EDD            jal reset_offsets
2808	26F0  0C001EF3            jal init_cp
2809	                          operation_slt_and:
2810	26F4  0C001EDA             jal load_patterns
2811	26F8  01F0902A             slt $18, $15, $16
2812	26FC  01F09024             and $18, $15, $16
2813	2700  01F0982A             slt $19, $15, $16
2814	2704  0C001EF0             jal store
2815	2708  0C001EE5             jal increment_offset
2816	270C  177CFFFA             bne $27, $28, operation_slt_and
2817	                          
2818	2710  0C001EDD            jal reset_offsets
2819	2714  0C001EF3            jal init_cp
2820	                          operation_slt_nor:
2821	2718  0C001EDA             jal load_patterns
2822	271C  01F0902A             slt $18, $15, $16
2823	2720  01F09027             nor $18, $15, $16
2824	2724  01F0982A             slt $19, $15, $16
2825	2728  0C001EF0             jal store
2826	272C  0C001EE5             jal increment_offset
2827	2730  177CFFFA             bne $27, $28, operation_slt_nor
2828	                          
2829	2734  0C001EDD            jal reset_offsets
2830	2738  0C001EF3            jal init_cp
2831	                          operation_slt_or:
2832	273C  0C001EDA             jal load_patterns
2833	2740  01F0902A             slt $18, $15, $16
2834	2744  01F09025             or $18, $15, $16
2835	2748  01F0982A             slt $19, $15, $16
2836	274C  0C001EF0             jal store
2837	2750  0C001EE5             jal increment_offset
2838	2754  177CFFFA             bne $27, $28, operation_slt_or
2839	                          
2840	2758  0C001EDD            jal reset_offsets
2841	275C  0C001EF3            jal init_cp
2842	                          operation_slt_subu:
2843	2760  0C001EDA             jal load_patterns
2844	2764  01F0902A             slt $18, $15, $16
2845	2768  01F09023             subu $18, $15, $16
2846	276C  01F0982A             slt $19, $15, $16
2847	2770  0C001EF0             jal store
2848	2774  0C001EE5             jal increment_offset
2849	2778  177CFFFA             bne $27, $28, operation_slt_subu
2850	                          
2851	277C  0C001EDD            jal reset_offsets
2852	2780  0C001EF3            jal init_cp
2853	                          operation_slt_xor:
2854	2784  0C001EDA             jal load_patterns
2855	2788  01F0902A             slt $18, $15, $16
2856	278C  01F09026             xor $18, $15, $16
2857	2790  01F0982A             slt $19, $15, $16
2858	2794  0C001EF0             jal store
2859	2798  0C001EE5             jal increment_offset
2860	279C  177CFFFA             bne $27, $28, operation_slt_xor
2861	                          
2862	27A0  0C001EDD            jal reset_offsets
2863	27A4  0C001EF3            jal init_cp
2864	                          operation_slt_sllv:
2865	27A8  0C001EDA             jal load_patterns
2866	27AC  01F0902A             slt $18, $15, $16
2867	27B0  020F9004             sllv $18, $15, $16
2868	27B4  01F0982A             slt $19, $15, $16
2869	27B8  0C001EF0             jal store
2870	27BC  0C001EE5             jal increment_offset
2871	27C0  177CFFFA             bne $27, $28, operation_slt_sllv
2872	                          
2873	27C4  0C001EDD            jal reset_offsets
2874	27C8  0C001EF3            jal init_cp
2875	                          operation_slt_sltu:
2876	27CC  0C001EDA             jal load_patterns
2877	27D0  01F0902A             slt $18, $15, $16
2878	27D4  01F0902B             sltu $18, $15, $16
2879	27D8  01F0982A             slt $19, $15, $16
2880	27DC  0C001EF0             jal store
2881	27E0  0C001EE5             jal increment_offset
2882	27E4  177CFFFA             bne $27, $28, operation_slt_sltu
2883	                          
2884	27E8  0C001EDD            jal reset_offsets
2885	27EC  0C001EF3            jal init_cp
2886	                          operation_slt_srav:
2887	27F0  0C001EDA             jal load_patterns
2888	27F4  01F0902A             slt $18, $15, $16
2889	27F8  020F9007             srav $18, $15, $16
2890	27FC  01F0982A             slt $19, $15, $16
2891	2800  0C001EF0             jal store
2892	2804  0C001EE5             jal increment_offset
2893	2808  177CFFFA             bne $27, $28, operation_slt_srav
2894	                          
2895	280C  0C001EDD            jal reset_offsets
2896	2810  0C001EF3            jal init_cp
2897	                          operation_slt_srlv:
2898	2814  0C001EDA             jal load_patterns
2899	2818  01F0902A             slt $18, $15, $16
2900	281C  020F9006             srlv $18, $15, $16
2901	2820  01F0982A             slt $19, $15, $16
2902	2824  0C001EF0             jal store
2903	2828  0C001EE5             jal increment_offset
2904	282C  177CFFFA             bne $27, $28, operation_slt_srlv
2905	                          
2906	2830  0C001EDD            jal reset_offsets
2907	2834  0C001EF3            jal init_cp
2908	                          operation_slt_sll:
2909	2838  0C001EDA             jal load_patterns
2910	283C  01F0902A             slt $18, $15, $16
2911	2840  000F9140             sll $18 ,$15, 5
2912	2844  01F0982A             slt $19, $15, $16
2913	2848  0C001EF0             jal store
2914	284C  0C001EE5             jal increment_offset
2915	2850  177CFFFA             bne $27, $28, operation_slt_sll
2916	                          
2917	2854  0C001EDD            jal reset_offsets
2918	2858  0C001EF3            jal init_cp
2919	                          operation_slt_srl:
2920	285C  0C001EDA             jal load_patterns
2921	2860  01F0902A             slt $18, $15, $16
2922	2864  000F9142             srl $18 ,$15, 5
2923	2868  01F0982A             slt $19, $15, $16
2924	286C  0C001EF0             jal store
2925	2870  0C001EE5             jal increment_offset
2926	2874  177CFFFA             bne $27, $28, operation_slt_srl
2927	                          
2928	2878  0C001EDD            jal reset_offsets
2929	287C  0C001EF3            jal init_cp
2930	                          operation_slt_sra:
2931	2880  0C001EDA             jal load_patterns
2932	2884  01F0902A             slt $18, $15, $16
2933	2888  000F9143             sra $18 ,$15, 5
2934	288C  01F0982A             slt $19, $15, $16
2935	2890  0C001EF0             jal store
2936	2894  0C001EE5             jal increment_offset
2937	2898  177CFFFA             bne $27, $28, operation_slt_sra
2938	                          
2939	289C  0C001EDD            jal reset_offsets
2940	28A0  0C001EF3            jal init_cp
2941	                          operation_sltu_addu:
2942	28A4  0C001EDA             jal load_patterns
2943	28A8  01F0902B             sltu $18, $15, $16
2944	28AC  01F09021             addu $18, $15, $16
2945	28B0  01F0982B             sltu $19, $15, $16
2946	28B4  0C001EF0             jal store
2947	28B8  0C001EE5             jal increment_offset
2948	28BC  177CFFFA             bne $27, $28, operation_sltu_addu
2949	                          
2950	28C0  0C001EDD            jal reset_offsets
2951	28C4  0C001EF3            jal init_cp
2952	                          operation_sltu_and:
2953	28C8  0C001EDA             jal load_patterns
2954	28CC  01F0902B             sltu $18, $15, $16
2955	28D0  01F09024             and $18, $15, $16
2956	28D4  01F0982B             sltu $19, $15, $16
2957	28D8  0C001EF0             jal store
2958	28DC  0C001EE5             jal increment_offset
2959	28E0  177CFFFA             bne $27, $28, operation_sltu_and
2960	                          
2961	28E4  0C001EDD            jal reset_offsets
2962	28E8  0C001EF3            jal init_cp
2963	                          operation_sltu_nor:
2964	28EC  0C001EDA             jal load_patterns
2965	28F0  01F0902B             sltu $18, $15, $16
2966	28F4  01F09027             nor $18, $15, $16
2967	28F8  01F0982B             sltu $19, $15, $16
2968	28FC  0C001EF0             jal store
2969	2900  0C001EE5             jal increment_offset
2970	2904  177CFFFA             bne $27, $28, operation_sltu_nor
2971	                          
2972	2908  0C001EDD            jal reset_offsets
2973	290C  0C001EF3            jal init_cp
2974	                          operation_sltu_or:
2975	2910  0C001EDA             jal load_patterns
2976	2914  01F0902B             sltu $18, $15, $16
2977	2918  01F09025             or $18, $15, $16
2978	291C  01F0982B             sltu $19, $15, $16
2979	2920  0C001EF0             jal store
2980	2924  0C001EE5             jal increment_offset
2981	2928  177CFFFA             bne $27, $28, operation_sltu_or
2982	                          
2983	292C  0C001EDD            jal reset_offsets
2984	2930  0C001EF3            jal init_cp
2985	                          operation_sltu_subu:
2986	2934  0C001EDA             jal load_patterns
2987	2938  01F0902B             sltu $18, $15, $16
2988	293C  01F09023             subu $18, $15, $16
2989	2940  01F0982B             sltu $19, $15, $16
2990	2944  0C001EF0             jal store
2991	2948  0C001EE5             jal increment_offset
2992	294C  177CFFFA             bne $27, $28, operation_sltu_subu
2993	                          
2994	2950  0C001EDD            jal reset_offsets
2995	2954  0C001EF3            jal init_cp
2996	                          operation_sltu_xor:
2997	2958  0C001EDA             jal load_patterns
2998	295C  01F0902B             sltu $18, $15, $16
2999	2960  01F09026             xor $18, $15, $16
3000	2964  01F0982B             sltu $19, $15, $16
3001	2968  0C001EF0             jal store
3002	296C  0C001EE5             jal increment_offset
3003	2970  177CFFFA             bne $27, $28, operation_sltu_xor
3004	                          
3005	2974  0C001EDD            jal reset_offsets
3006	2978  0C001EF3            jal init_cp
3007	                          operation_sltu_sllv:
3008	297C  0C001EDA             jal load_patterns
3009	2980  01F0902B             sltu $18, $15, $16
3010	2984  020F9004             sllv $18, $15, $16
3011	2988  01F0982B             sltu $19, $15, $16
3012	298C  0C001EF0             jal store
3013	2990  0C001EE5             jal increment_offset
3014	2994  177CFFFA             bne $27, $28, operation_sltu_sllv
3015	                          
3016	2998  0C001EDD            jal reset_offsets
3017	299C  0C001EF3            jal init_cp
3018	                          operation_sltu_slt:
3019	29A0  0C001EDA             jal load_patterns
3020	29A4  01F0902B             sltu $18, $15, $16
3021	29A8  01F0902A             slt $18, $15, $16
3022	29AC  01F0982B             sltu $19, $15, $16
3023	29B0  0C001EF0             jal store
3024	29B4  0C001EE5             jal increment_offset
3025	29B8  177CFFFA             bne $27, $28, operation_sltu_slt
3026	                          
3027	29BC  0C001EDD            jal reset_offsets
3028	29C0  0C001EF3            jal init_cp
3029	                          operation_sltu_srav:
3030	29C4  0C001EDA             jal load_patterns
3031	29C8  01F0902B             sltu $18, $15, $16
3032	29CC  020F9007             srav $18, $15, $16
3033	29D0  01F0982B             sltu $19, $15, $16
3034	29D4  0C001EF0             jal store
3035	29D8  0C001EE5             jal increment_offset
3036	29DC  177CFFFA             bne $27, $28, operation_sltu_srav
3037	                          
3038	29E0  0C001EDD            jal reset_offsets
3039	29E4  0C001EF3            jal init_cp
3040	                          operation_sltu_srlv:
3041	29E8  0C001EDA             jal load_patterns
3042	29EC  01F0902B             sltu $18, $15, $16
3043	29F0  020F9006             srlv $18, $15, $16
3044	29F4  01F0982B             sltu $19, $15, $16
3045	29F8  0C001EF0             jal store
3046	29FC  0C001EE5             jal increment_offset
3047	2A00  177CFFFA             bne $27, $28, operation_sltu_srlv
3048	                          
3049	2A04  0C001EDD            jal reset_offsets
3050	2A08  0C001EF3            jal init_cp
3051	                          operation_sltu_sll:
3052	2A0C  0C001EDA             jal load_patterns
3053	2A10  01F0902B             sltu $18, $15, $16
3054	2A14  000F9140             sll $18 ,$15, 5
3055	2A18  01F0982B             sltu $19, $15, $16
3056	2A1C  0C001EF0             jal store
3057	2A20  0C001EE5             jal increment_offset
3058	2A24  177CFFFA             bne $27, $28, operation_sltu_sll
3059	                          
3060	2A28  0C001EDD            jal reset_offsets
3061	2A2C  0C001EF3            jal init_cp
3062	                          operation_sltu_srl:
3063	2A30  0C001EDA             jal load_patterns
3064	2A34  01F0902B             sltu $18, $15, $16
3065	2A38  000F9142             srl $18 ,$15, 5
3066	2A3C  01F0982B             sltu $19, $15, $16
3067	2A40  0C001EF0             jal store
3068	2A44  0C001EE5             jal increment_offset
3069	2A48  177CFFFA             bne $27, $28, operation_sltu_srl
3070	                          
3071	2A4C  0C001EDD            jal reset_offsets
3072	2A50  0C001EF3            jal init_cp
3073	                          operation_sltu_sra:
3074	2A54  0C001EDA             jal load_patterns
3075	2A58  01F0902B             sltu $18, $15, $16
3076	2A5C  000F9143             sra $18 ,$15, 5
3077	2A60  01F0982B             sltu $19, $15, $16
3078	2A64  0C001EF0             jal store
3079	2A68  0C001EE5             jal increment_offset
3080	2A6C  177CFFFA             bne $27, $28, operation_sltu_sra
3081	                          
3082	2A70  0C001EDD            jal reset_offsets
3083	2A74  0C001EF3            jal init_cp
3084	                          operation_srav_addu:
3085	2A78  0C001EDA             jal load_patterns
3086	2A7C  020F9007             srav $18, $15, $16
3087	2A80  01F09021             addu $18, $15, $16
3088	2A84  020F9807             srav $19, $15, $16
3089	2A88  0C001EF0             jal store
3090	2A8C  0C001EE5             jal increment_offset
3091	2A90  177CFFFA             bne $27, $28, operation_srav_addu
3092	                          
3093	2A94  0C001EDD            jal reset_offsets
3094	2A98  0C001EF3            jal init_cp
3095	                          operation_srav_and:
3096	2A9C  0C001EDA             jal load_patterns
3097	2AA0  020F9007             srav $18, $15, $16
3098	2AA4  01F09024             and $18, $15, $16
3099	2AA8  020F9807             srav $19, $15, $16
3100	2AAC  0C001EF0             jal store
3101	2AB0  0C001EE5             jal increment_offset
3102	2AB4  177CFFFA             bne $27, $28, operation_srav_and
3103	                          
3104	2AB8  0C001EDD            jal reset_offsets
3105	2ABC  0C001EF3            jal init_cp
3106	                          operation_srav_nor:
3107	2AC0  0C001EDA             jal load_patterns
3108	2AC4  020F9007             srav $18, $15, $16
3109	2AC8  01F09027             nor $18, $15, $16
3110	2ACC  020F9807             srav $19, $15, $16
3111	2AD0  0C001EF0             jal store
3112	2AD4  0C001EE5             jal increment_offset
3113	2AD8  177CFFFA             bne $27, $28, operation_srav_nor
3114	                          
3115	2ADC  0C001EDD            jal reset_offsets
3116	2AE0  0C001EF3            jal init_cp
3117	                          operation_srav_or:
3118	2AE4  0C001EDA             jal load_patterns
3119	2AE8  020F9007             srav $18, $15, $16
3120	2AEC  01F09025             or $18, $15, $16
3121	2AF0  020F9807             srav $19, $15, $16
3122	2AF4  0C001EF0             jal store
3123	2AF8  0C001EE5             jal increment_offset
3124	2AFC  177CFFFA             bne $27, $28, operation_srav_or
3125	                          
3126	2B00  0C001EDD            jal reset_offsets
3127	2B04  0C001EF3            jal init_cp
3128	                          operation_srav_subu:
3129	2B08  0C001EDA             jal load_patterns
3130	2B0C  020F9007             srav $18, $15, $16
3131	2B10  01F09023             subu $18, $15, $16
3132	2B14  020F9807             srav $19, $15, $16
3133	2B18  0C001EF0             jal store
3134	2B1C  0C001EE5             jal increment_offset
3135	2B20  177CFFFA             bne $27, $28, operation_srav_subu
3136	                          
3137	2B24  0C001EDD            jal reset_offsets
3138	2B28  0C001EF3            jal init_cp
3139	                          operation_srav_xor:
3140	2B2C  0C001EDA             jal load_patterns
3141	2B30  020F9007             srav $18, $15, $16
3142	2B34  01F09026             xor $18, $15, $16
3143	2B38  020F9807             srav $19, $15, $16
3144	2B3C  0C001EF0             jal store
3145	2B40  0C001EE5             jal increment_offset
3146	2B44  177CFFFA             bne $27, $28, operation_srav_xor
3147	                          
3148	2B48  0C001EDD            jal reset_offsets
3149	2B4C  0C001EF3            jal init_cp
3150	                          operation_srav_sllv:
3151	2B50  0C001EDA             jal load_patterns
3152	2B54  020F9007             srav $18, $15, $16
3153	2B58  020F9004             sllv $18, $15, $16
3154	2B5C  020F9807             srav $19, $15, $16
3155	2B60  0C001EF0             jal store
3156	2B64  0C001EE5             jal increment_offset
3157	2B68  177CFFFA             bne $27, $28, operation_srav_sllv
3158	                          
3159	2B6C  0C001EDD            jal reset_offsets
3160	2B70  0C001EF3            jal init_cp
3161	                          operation_srav_slt:
3162	2B74  0C001EDA             jal load_patterns
3163	2B78  020F9007             srav $18, $15, $16
3164	2B7C  01F0902A             slt $18, $15, $16
3165	2B80  020F9807             srav $19, $15, $16
3166	2B84  0C001EF0             jal store
3167	2B88  0C001EE5             jal increment_offset
3168	2B8C  177CFFFA             bne $27, $28, operation_srav_slt
3169	                          
3170	2B90  0C001EDD            jal reset_offsets
3171	2B94  0C001EF3            jal init_cp
3172	                          operation_srav_sltu:
3173	2B98  0C001EDA             jal load_patterns
3174	2B9C  020F9007             srav $18, $15, $16
3175	2BA0  01F0902B             sltu $18, $15, $16
3176	2BA4  020F9807             srav $19, $15, $16
3177	2BA8  0C001EF0             jal store
3178	2BAC  0C001EE5             jal increment_offset
3179	2BB0  177CFFFA             bne $27, $28, operation_srav_sltu
3180	                          
3181	2BB4  0C001EDD            jal reset_offsets
3182	2BB8  0C001EF3            jal init_cp
3183	                          operation_srav_srlv:
3184	2BBC  0C001EDA             jal load_patterns
3185	2BC0  020F9007             srav $18, $15, $16
3186	2BC4  020F9006             srlv $18, $15, $16
3187	2BC8  020F9807             srav $19, $15, $16
3188	2BCC  0C001EF0             jal store
3189	2BD0  0C001EE5             jal increment_offset
3190	2BD4  177CFFFA             bne $27, $28, operation_srav_srlv
3191	                          
3192	2BD8  0C001EDD            jal reset_offsets
3193	2BDC  0C001EF3            jal init_cp
3194	                          operation_srav_sll:
3195	2BE0  0C001EDA             jal load_patterns
3196	2BE4  020F9007             srav $18, $15, $16
3197	2BE8  000F9140             sll $18 ,$15, 5
3198	2BEC  020F9807             srav $19, $15, $16
3199	2BF0  0C001EF0             jal store
3200	2BF4  0C001EE5             jal increment_offset
3201	2BF8  177CFFFA             bne $27, $28, operation_srav_sll
3202	                          
3203	2BFC  0C001EDD            jal reset_offsets
3204	2C00  0C001EF3            jal init_cp
3205	                          operation_srav_srl:
3206	2C04  0C001EDA             jal load_patterns
3207	2C08  020F9007             srav $18, $15, $16
3208	2C0C  000F9142             srl $18 ,$15, 5
3209	2C10  020F9807             srav $19, $15, $16
3210	2C14  0C001EF0             jal store
3211	2C18  0C001EE5             jal increment_offset
3212	2C1C  177CFFFA             bne $27, $28, operation_srav_srl
3213	                          
3214	2C20  0C001EDD            jal reset_offsets
3215	2C24  0C001EF3            jal init_cp
3216	                          operation_srav_sra:
3217	2C28  0C001EDA             jal load_patterns
3218	2C2C  020F9007             srav $18, $15, $16
3219	2C30  000F9143             sra $18 ,$15, 5
3220	2C34  020F9807             srav $19, $15, $16
3221	2C38  0C001EF0             jal store
3222	2C3C  0C001EE5             jal increment_offset
3223	2C40  177CFFFA             bne $27, $28, operation_srav_sra
3224	                          
3225	2C44  0C001EDD            jal reset_offsets
3226	2C48  0C001EF3            jal init_cp
3227	                          operation_srlv_addu:
3228	2C4C  0C001EDA             jal load_patterns
3229	2C50  020F9006             srlv $18, $15, $16
3230	2C54  01F09021             addu $18, $15, $16
3231	2C58  020F9806             srlv $19, $15, $16
3232	2C5C  0C001EF0             jal store
3233	2C60  0C001EE5             jal increment_offset
3234	2C64  177CFFFA             bne $27, $28, operation_srlv_addu
3235	                          
3236	2C68  0C001EDD            jal reset_offsets
3237	2C6C  0C001EF3            jal init_cp
3238	                          operation_srlv_and:
3239	2C70  0C001EDA             jal load_patterns
3240	2C74  020F9006             srlv $18, $15, $16
3241	2C78  01F09024             and $18, $15, $16
3242	2C7C  020F9806             srlv $19, $15, $16
3243	2C80  0C001EF0             jal store
3244	2C84  0C001EE5             jal increment_offset
3245	2C88  177CFFFA             bne $27, $28, operation_srlv_and
3246	                          
3247	2C8C  0C001EDD            jal reset_offsets
3248	2C90  0C001EF3            jal init_cp
3249	                          operation_srlv_nor:
3250	2C94  0C001EDA             jal load_patterns
3251	2C98  020F9006             srlv $18, $15, $16
3252	2C9C  01F09027             nor $18, $15, $16
3253	2CA0  020F9806             srlv $19, $15, $16
3254	2CA4  0C001EF0             jal store
3255	2CA8  0C001EE5             jal increment_offset
3256	2CAC  177CFFFA             bne $27, $28, operation_srlv_nor
3257	                          
3258	2CB0  0C001EDD            jal reset_offsets
3259	2CB4  0C001EF3            jal init_cp
3260	                          operation_srlv_or:
3261	2CB8  0C001EDA             jal load_patterns
3262	2CBC  020F9006             srlv $18, $15, $16
3263	2CC0  01F09025             or $18, $15, $16
3264	2CC4  020F9806             srlv $19, $15, $16
3265	2CC8  0C001EF0             jal store
3266	2CCC  0C001EE5             jal increment_offset
3267	2CD0  177CFFFA             bne $27, $28, operation_srlv_or
3268	                          
3269	2CD4  0C001EDD            jal reset_offsets
3270	2CD8  0C001EF3            jal init_cp
3271	                          operation_srlv_subu:
3272	2CDC  0C001EDA             jal load_patterns
3273	2CE0  020F9006             srlv $18, $15, $16
3274	2CE4  01F09023             subu $18, $15, $16
3275	2CE8  020F9806             srlv $19, $15, $16
3276	2CEC  0C001EF0             jal store
3277	2CF0  0C001EE5             jal increment_offset
3278	2CF4  177CFFFA             bne $27, $28, operation_srlv_subu
3279	                          
3280	2CF8  0C001EDD            jal reset_offsets
3281	2CFC  0C001EF3            jal init_cp
3282	                          operation_srlv_xor:
3283	2D00  0C001EDA             jal load_patterns
3284	2D04  020F9006             srlv $18, $15, $16
3285	2D08  01F09026             xor $18, $15, $16
3286	2D0C  020F9806             srlv $19, $15, $16
3287	2D10  0C001EF0             jal store
3288	2D14  0C001EE5             jal increment_offset
3289	2D18  177CFFFA             bne $27, $28, operation_srlv_xor
3290	                          
3291	2D1C  0C001EDD            jal reset_offsets
3292	2D20  0C001EF3            jal init_cp
3293	                          operation_srlv_sllv:
3294	2D24  0C001EDA             jal load_patterns
3295	2D28  020F9006             srlv $18, $15, $16
3296	2D2C  020F9004             sllv $18, $15, $16
3297	2D30  020F9806             srlv $19, $15, $16
3298	2D34  0C001EF0             jal store
3299	2D38  0C001EE5             jal increment_offset
3300	2D3C  177CFFFA             bne $27, $28, operation_srlv_sllv
3301	                          
3302	2D40  0C001EDD            jal reset_offsets
3303	2D44  0C001EF3            jal init_cp
3304	                          operation_srlv_slt:
3305	2D48  0C001EDA             jal load_patterns
3306	2D4C  020F9006             srlv $18, $15, $16
3307	2D50  01F0902A             slt $18, $15, $16
3308	2D54  020F9806             srlv $19, $15, $16
3309	2D58  0C001EF0             jal store
3310	2D5C  0C001EE5             jal increment_offset
3311	2D60  177CFFFA             bne $27, $28, operation_srlv_slt
3312	                          
3313	2D64  0C001EDD            jal reset_offsets
3314	2D68  0C001EF3            jal init_cp
3315	                          operation_srlv_sltu:
3316	2D6C  0C001EDA             jal load_patterns
3317	2D70  020F9006             srlv $18, $15, $16
3318	2D74  01F0902B             sltu $18, $15, $16
3319	2D78  020F9806             srlv $19, $15, $16
3320	2D7C  0C001EF0             jal store
3321	2D80  0C001EE5             jal increment_offset
3322	2D84  177CFFFA             bne $27, $28, operation_srlv_sltu
3323	                          
3324	2D88  0C001EDD            jal reset_offsets
3325	2D8C  0C001EF3            jal init_cp
3326	                          operation_srlv_srav:
3327	2D90  0C001EDA             jal load_patterns
3328	2D94  020F9006             srlv $18, $15, $16
3329	2D98  020F9007             srav $18, $15, $16
3330	2D9C  020F9806             srlv $19, $15, $16
3331	2DA0  0C001EF0             jal store
3332	2DA4  0C001EE5             jal increment_offset
3333	2DA8  177CFFFA             bne $27, $28, operation_srlv_srav
3334	                          
3335	2DAC  0C001EDD            jal reset_offsets
3336	2DB0  0C001EF3            jal init_cp
3337	                          operation_srlv_sll:
3338	2DB4  0C001EDA             jal load_patterns
3339	2DB8  020F9006             srlv $18, $15, $16
3340	2DBC  000F9140             sll $18 ,$15, 5
3341	2DC0  020F9806             srlv $19, $15, $16
3342	2DC4  0C001EF0             jal store
3343	2DC8  0C001EE5             jal increment_offset
3344	2DCC  177CFFFA             bne $27, $28, operation_srlv_sll
3345	                          
3346	2DD0  0C001EDD            jal reset_offsets
3347	2DD4  0C001EF3            jal init_cp
3348	                          operation_srlv_srl:
3349	2DD8  0C001EDA             jal load_patterns
3350	2DDC  020F9006             srlv $18, $15, $16
3351	2DE0  000F9142             srl $18 ,$15, 5
3352	2DE4  020F9806             srlv $19, $15, $16
3353	2DE8  0C001EF0             jal store
3354	2DEC  0C001EE5             jal increment_offset
3355	2DF0  177CFFFA             bne $27, $28, operation_srlv_srl
3356	                          
3357	2DF4  0C001EDD            jal reset_offsets
3358	2DF8  0C001EF3            jal init_cp
3359	                          operation_srlv_sra:
3360	2DFC  0C001EDA             jal load_patterns
3361	2E00  020F9006             srlv $18, $15, $16
3362	2E04  000F9143             sra $18 ,$15, 5
3363	2E08  020F9806             srlv $19, $15, $16
3364	2E0C  0C001EF0             jal store
3365	2E10  0C001EE5             jal increment_offset
3366	2E14  177CFFFA             bne $27, $28, operation_srlv_sra
3367	                          
3368	2E18  0C001EDD            jal reset_offsets
3369	2E1C  0C001EF3            jal init_cp
3370	                          operation_sll_addu:
3371	2E20  0C001EDA             jal load_patterns
3372	2E24  000F9140             sll $18 ,$15, 5
3373	2E28  01F09021             addu $18, $15, $16
3374	2E2C  000F9940             sll $19 ,$15, 5
3375	2E30  AFB20000             sw $18, 0($29)
3376	2E34  AFB30004             sw $19, 4($29)
3377	2E38  0C001EE5             jal increment_offset
3378	2E3C  177CFFF9             bne $27, $28, operation_sll_addu
3379	                          
3380	2E40  0C001EDD            jal reset_offsets
3381	2E44  0C001EF3            jal init_cp
3382	                          operation_sll_and:
3383	2E48  0C001EDA             jal load_patterns
3384	2E4C  000F9140             sll $18 ,$15, 5
3385	2E50  01F09024             and $18, $15, $16
3386	2E54  000F9940             sll $19 ,$15, 5
3387	2E58  AFB20000             sw $18, 0($29)
3388	2E5C  AFB30004             sw $19, 4($29)
3389	2E60  0C001EE5             jal increment_offset
3390	2E64  177CFFF9             bne $27, $28, operation_sll_and
3391	                          
3392	2E68  0C001EDD            jal reset_offsets
3393	2E6C  0C001EF3            jal init_cp
3394	                          operation_sll_nor:
3395	2E70  0C001EDA             jal load_patterns
3396	2E74  000F9140             sll $18 ,$15, 5
3397	2E78  01F09027             nor $18, $15, $16
3398	2E7C  000F9940             sll $19 ,$15, 5
3399	2E80  AFB20000             sw $18, 0($29)
3400	2E84  AFB30004             sw $19, 4($29)
3401	2E88  0C001EE5             jal increment_offset
3402	2E8C  177CFFF9             bne $27, $28, operation_sll_nor
3403	                          
3404	2E90  0C001EDD            jal reset_offsets
3405	2E94  0C001EF3            jal init_cp
3406	                          operation_sll_or:
3407	2E98  0C001EDA             jal load_patterns
3408	2E9C  000F9140             sll $18 ,$15, 5
3409	2EA0  01F09025             or $18, $15, $16
3410	2EA4  000F9940             sll $19 ,$15, 5
3411	2EA8  AFB20000             sw $18, 0($29)
3412	2EAC  AFB30004             sw $19, 4($29)
3413	2EB0  0C001EE5             jal increment_offset
3414	2EB4  177CFFF9             bne $27, $28, operation_sll_or
3415	                          
3416	2EB8  0C001EDD            jal reset_offsets
3417	2EBC  0C001EF3            jal init_cp
3418	                          operation_sll_subu:
3419	2EC0  0C001EDA             jal load_patterns
3420	2EC4  000F9140             sll $18 ,$15, 5
3421	2EC8  01F09023             subu $18, $15, $16
3422	2ECC  000F9940             sll $19 ,$15, 5
3423	2ED0  AFB20000             sw $18, 0($29)
3424	2ED4  AFB30004             sw $19, 4($29)
3425	2ED8  0C001EE5             jal increment_offset
3426	2EDC  177CFFF9             bne $27, $28, operation_sll_subu
3427	                          
3428	2EE0  0C001EDD            jal reset_offsets
3429	2EE4  0C001EF3            jal init_cp
3430	                          operation_sll_xor:
3431	2EE8  0C001EDA             jal load_patterns
3432	2EEC  000F9140             sll $18 ,$15, 5
3433	2EF0  01F09026             xor $18, $15, $16
3434	2EF4  000F9940             sll $19 ,$15, 5
3435	2EF8  AFB20000             sw $18, 0($29)
3436	2EFC  AFB30004             sw $19, 4($29)
3437	2F00  0C001EE5             jal increment_offset
3438	2F04  177CFFF9             bne $27, $28, operation_sll_xor
3439	                          
3440	2F08  0C001EDD            jal reset_offsets
3441	2F0C  0C001EF3            jal init_cp
3442	                          operation_sll_sllv:
3443	2F10  0C001EDA             jal load_patterns
3444	2F14  000F9140             sll $18 ,$15, 5
3445	2F18  020F9004             sllv $18, $15, $16
3446	2F1C  000F9940             sll $19 ,$15, 5
3447	2F20  AFB20000             sw $18, 0($29)
3448	2F24  AFB30004             sw $19, 4($29)
3449	2F28  0C001EE5             jal increment_offset
3450	2F2C  177CFFF9             bne $27, $28, operation_sll_sllv
3451	                          
3452	2F30  0C001EDD            jal reset_offsets
3453	2F34  0C001EF3            jal init_cp
3454	                          operation_sll_slt:
3455	2F38  0C001EDA             jal load_patterns
3456	2F3C  000F9140             sll $18 ,$15, 5
3457	2F40  01F0902A             slt $18, $15, $16
3458	2F44  000F9940             sll $19 ,$15, 5
3459	2F48  AFB20000             sw $18, 0($29)
3460	2F4C  AFB30004             sw $19, 4($29)
3461	2F50  0C001EE5             jal increment_offset
3462	2F54  177CFFF9             bne $27, $28, operation_sll_slt
3463	                          
3464	2F58  0C001EDD            jal reset_offsets
3465	2F5C  0C001EF3            jal init_cp
3466	                          operation_sll_sltu:
3467	2F60  0C001EDA             jal load_patterns
3468	2F64  000F9140             sll $18 ,$15, 5
3469	2F68  01F0902B             sltu $18, $15, $16
3470	2F6C  000F9940             sll $19 ,$15, 5
3471	2F70  AFB20000             sw $18, 0($29)
3472	2F74  AFB30004             sw $19, 4($29)
3473	2F78  0C001EE5             jal increment_offset
3474	2F7C  177CFFF9             bne $27, $28, operation_sll_sltu
3475	                          
3476	2F80  0C001EDD            jal reset_offsets
3477	2F84  0C001EF3            jal init_cp
3478	                          operation_sll_srav:
3479	2F88  0C001EDA             jal load_patterns
3480	2F8C  000F9140             sll $18 ,$15, 5
3481	2F90  020F9007             srav $18, $15, $16
3482	2F94  000F9940             sll $19 ,$15, 5
3483	2F98  AFB20000             sw $18, 0($29)
3484	2F9C  AFB30004             sw $19, 4($29)
3485	2FA0  0C001EE5             jal increment_offset
3486	2FA4  177CFFF9             bne $27, $28, operation_sll_srav
3487	                          
3488	2FA8  0C001EDD            jal reset_offsets
3489	2FAC  0C001EF3            jal init_cp
3490	                          operation_sll_srlv:
3491	2FB0  0C001EDA             jal load_patterns
3492	2FB4  000F9140             sll $18 ,$15, 5
3493	2FB8  020F9006             srlv $18, $15, $16
3494	2FBC  000F9940             sll $19 ,$15, 5
3495	2FC0  AFB20000             sw $18, 0($29)
3496	2FC4  AFB30004             sw $19, 4($29)
3497	2FC8  0C001EE5             jal increment_offset
3498	2FCC  177CFFF9             bne $27, $28, operation_sll_srlv
3499	                          
3500	2FD0  0C001EDD            jal reset_offsets
3501	2FD4  0C001EF3            jal init_cp
3502	                          operation_sll_srl:
3503	2FD8  0C001EDA             jal load_patterns
3504	2FDC  000F9140             sll $18 ,$15, 5
3505	2FE0  000F9142             srl $18 ,$15, 5
3506	2FE4  000F9940             sll $19 ,$15, 5
3507	2FE8  AFB20000             sw $18, 0($29)
3508	2FEC  AFB30004             sw $19, 4($29)
3509	2FF0  0C001EE5             jal increment_offset
3510	2FF4  177CFFF9             bne $27, $28, operation_sll_srl
3511	                          
3512	2FF8  0C001EDD            jal reset_offsets
3513	2FFC  0C001EF3            jal init_cp
3514	                          operation_sll_sra:
3515	3000  0C001EDA             jal load_patterns
3516	3004  000F9140             sll $18 ,$15, 5
3517	3008  000F9143             sra $18 ,$15, 5
3518	300C  000F9940             sll $19 ,$15, 5
3519	3010  AFB20000             sw $18, 0($29)
3520	3014  AFB30004             sw $19, 4($29)
3521	3018  0C001EE5             jal increment_offset
3522	301C  177CFFF9             bne $27, $28, operation_sll_sra
3523	                          
3524	3020  0C001EDD            jal reset_offsets
3525	3024  0C001EF3            jal init_cp
3526	                          operation_srl_addu:
3527	3028  0C001EDA             jal load_patterns
3528	302C  000F9142             srl $18 ,$15, 5
3529	3030  01F09021             addu $18, $15, $16
3530	3034  000F9942             srl $19 ,$15, 5
3531	3038  AFB20000             sw $18, 0($29)
3532	303C  AFB30004             sw $19, 4($29)
3533	3040  0C001EE5             jal increment_offset
3534	3044  177CFFF9             bne $27, $28, operation_srl_addu
3535	                          
3536	3048  0C001EDD            jal reset_offsets
3537	304C  0C001EF3            jal init_cp
3538	                          operation_srl_and:
3539	3050  0C001EDA             jal load_patterns
3540	3054  000F9142             srl $18 ,$15, 5
3541	3058  01F09024             and $18, $15, $16
3542	305C  000F9942             srl $19 ,$15, 5
3543	3060  AFB20000             sw $18, 0($29)
3544	3064  AFB30004             sw $19, 4($29)
3545	3068  0C001EE5             jal increment_offset
3546	306C  177CFFF9             bne $27, $28, operation_srl_and
3547	                          
3548	3070  0C001EDD            jal reset_offsets
3549	3074  0C001EF3            jal init_cp
3550	                          operation_srl_nor:
3551	3078  0C001EDA             jal load_patterns
3552	307C  000F9142             srl $18 ,$15, 5
3553	3080  01F09027             nor $18, $15, $16
3554	3084  000F9942             srl $19 ,$15, 5
3555	3088  AFB20000             sw $18, 0($29)
3556	308C  AFB30004             sw $19, 4($29)
3557	3090  0C001EE5             jal increment_offset
3558	3094  177CFFF9             bne $27, $28, operation_srl_nor
3559	                          
3560	3098  0C001EDD            jal reset_offsets
3561	309C  0C001EF3            jal init_cp
3562	                          operation_srl_or:
3563	30A0  0C001EDA             jal load_patterns
3564	30A4  000F9142             srl $18 ,$15, 5
3565	30A8  01F09025             or $18, $15, $16
3566	30AC  000F9942             srl $19 ,$15, 5
3567	30B0  AFB20000             sw $18, 0($29)
3568	30B4  AFB30004             sw $19, 4($29)
3569	30B8  0C001EE5             jal increment_offset
3570	30BC  177CFFF9             bne $27, $28, operation_srl_or
3571	                          
3572	30C0  0C001EDD            jal reset_offsets
3573	30C4  0C001EF3            jal init_cp
3574	                          operation_srl_subu:
3575	30C8  0C001EDA             jal load_patterns
3576	30CC  000F9142             srl $18 ,$15, 5
3577	30D0  01F09023             subu $18, $15, $16
3578	30D4  000F9942             srl $19 ,$15, 5
3579	30D8  AFB20000             sw $18, 0($29)
3580	30DC  AFB30004             sw $19, 4($29)
3581	30E0  0C001EE5             jal increment_offset
3582	30E4  177CFFF9             bne $27, $28, operation_srl_subu
3583	                          
3584	30E8  0C001EDD            jal reset_offsets
3585	30EC  0C001EF3            jal init_cp
3586	                          operation_srl_xor:
3587	30F0  0C001EDA             jal load_patterns
3588	30F4  000F9142             srl $18 ,$15, 5
3589	30F8  01F09026             xor $18, $15, $16
3590	30FC  000F9942             srl $19 ,$15, 5
3591	3100  AFB20000             sw $18, 0($29)
3592	3104  AFB30004             sw $19, 4($29)
3593	3108  0C001EE5             jal increment_offset
3594	310C  177CFFF9             bne $27, $28, operation_srl_xor
3595	                          
3596	3110  0C001EDD            jal reset_offsets
3597	3114  0C001EF3            jal init_cp
3598	                          operation_srl_sllv:
3599	3118  0C001EDA             jal load_patterns
3600	311C  000F9142             srl $18 ,$15, 5
3601	3120  020F9004             sllv $18, $15, $16
3602	3124  000F9942             srl $19 ,$15, 5
3603	3128  AFB20000             sw $18, 0($29)
3604	312C  AFB30004             sw $19, 4($29)
3605	3130  0C001EE5             jal increment_offset
3606	3134  177CFFF9             bne $27, $28, operation_srl_sllv
3607	                          
3608	3138  0C001EDD            jal reset_offsets
3609	313C  0C001EF3            jal init_cp
3610	                          operation_srl_slt:
3611	3140  0C001EDA             jal load_patterns
3612	3144  000F9142             srl $18 ,$15, 5
3613	3148  01F0902A             slt $18, $15, $16
3614	314C  000F9942             srl $19 ,$15, 5
3615	3150  AFB20000             sw $18, 0($29)
3616	3154  AFB30004             sw $19, 4($29)
3617	3158  0C001EE5             jal increment_offset
3618	315C  177CFFF9             bne $27, $28, operation_srl_slt
3619	                          
3620	3160  0C001EDD            jal reset_offsets
3621	3164  0C001EF3            jal init_cp
3622	                          operation_srl_sltu:
3623	3168  0C001EDA             jal load_patterns
3624	316C  000F9142             srl $18 ,$15, 5
3625	3170  01F0902B             sltu $18, $15, $16
3626	3174  000F9942             srl $19 ,$15, 5
3627	3178  AFB20000             sw $18, 0($29)
3628	317C  AFB30004             sw $19, 4($29)
3629	3180  0C001EE5             jal increment_offset
3630	3184  177CFFF9             bne $27, $28, operation_srl_sltu
3631	                          
3632	3188  0C001EDD            jal reset_offsets
3633	318C  0C001EF3            jal init_cp
3634	                          operation_srl_srav:
3635	3190  0C001EDA             jal load_patterns
3636	3194  000F9142             srl $18 ,$15, 5
3637	3198  020F9007             srav $18, $15, $16
3638	319C  000F9942             srl $19 ,$15, 5
3639	31A0  AFB20000             sw $18, 0($29)
3640	31A4  AFB30004             sw $19, 4($29)
3641	31A8  0C001EE5             jal increment_offset
3642	31AC  177CFFF9             bne $27, $28, operation_srl_srav
3643	                          
3644	31B0  0C001EDD            jal reset_offsets
3645	31B4  0C001EF3            jal init_cp
3646	                          operation_srl_srlv:
3647	31B8  0C001EDA             jal load_patterns
3648	31BC  000F9142             srl $18 ,$15, 5
3649	31C0  020F9006             srlv $18, $15, $16
3650	31C4  000F9942             srl $19 ,$15, 5
3651	31C8  AFB20000             sw $18, 0($29)
3652	31CC  AFB30004             sw $19, 4($29)
3653	31D0  0C001EE5             jal increment_offset
3654	31D4  177CFFF9             bne $27, $28, operation_srl_srlv
3655	                          
3656	31D8  0C001EDD            jal reset_offsets
3657	31DC  0C001EF3            jal init_cp
3658	                          operation_srl_sll:
3659	31E0  0C001EDA             jal load_patterns
3660	31E4  000F9142             srl $18 ,$15, 5
3661	31E8  000F9140             sll $18 ,$15, 5
3662	31EC  000F9942             srl $19 ,$15, 5
3663	31F0  AFB20000             sw $18, 0($29)
3664	31F4  AFB30004             sw $19, 4($29)
3665	31F8  0C001EE5             jal increment_offset
3666	31FC  177CFFF9             bne $27, $28, operation_srl_sll
3667	                          
3668	3200  0C001EDD            jal reset_offsets
3669	3204  0C001EF3            jal init_cp
3670	                          operation_srl_sra:
3671	3208  0C001EDA             jal load_patterns
3672	320C  000F9142             srl $18 ,$15, 5
3673	3210  000F9143             sra $18 ,$15, 5
3674	3214  000F9942             srl $19 ,$15, 5
3675	3218  AFB20000             sw $18, 0($29)
3676	321C  AFB30004             sw $19, 4($29)
3677	3220  0C001EE5             jal increment_offset
3678	3224  177CFFF9             bne $27, $28, operation_srl_sra
3679	                          
3680	3228  0C001EDD            jal reset_offsets
3681	322C  0C001EF3            jal init_cp
3682	                          operation_sra_addu:
3683	3230  0C001EDA             jal load_patterns
3684	3234  000F9143             sra $18 ,$15, 5
3685	3238  01F09021             addu $18, $15, $16
3686	323C  000F9943             sra $19 ,$15, 5
3687	3240  AFB20000             sw $18, 0($29)
3688	3244  AFB30004             sw $19, 4($29)
3689	3248  0C001EE5             jal increment_offset
3690	324C  177CFFF9             bne $27, $28, operation_sra_addu
3691	                          
3692	3250  0C001EDD            jal reset_offsets
3693	3254  0C001EF3            jal init_cp
3694	                          operation_sra_and:
3695	3258  0C001EDA             jal load_patterns
3696	325C  000F9143             sra $18 ,$15, 5
3697	3260  01F09024             and $18, $15, $16
3698	3264  000F9943             sra $19 ,$15, 5
3699	3268  AFB20000             sw $18, 0($29)
3700	326C  AFB30004             sw $19, 4($29)
3701	3270  0C001EE5             jal increment_offset
3702	3274  177CFFF9             bne $27, $28, operation_sra_and
3703	                          
3704	3278  0C001EDD            jal reset_offsets
3705	327C  0C001EF3            jal init_cp
3706	                          operation_sra_nor:
3707	3280  0C001EDA             jal load_patterns
3708	3284  000F9143             sra $18 ,$15, 5
3709	3288  01F09027             nor $18, $15, $16
3710	328C  000F9943             sra $19 ,$15, 5
3711	3290  AFB20000             sw $18, 0($29)
3712	3294  AFB30004             sw $19, 4($29)
3713	3298  0C001EE5             jal increment_offset
3714	329C  177CFFF9             bne $27, $28, operation_sra_nor
3715	                          
3716	32A0  0C001EDD            jal reset_offsets
3717	32A4  0C001EF3            jal init_cp
3718	                          operation_sra_or:
3719	32A8  0C001EDA             jal load_patterns
3720	32AC  000F9143             sra $18 ,$15, 5
3721	32B0  01F09025             or $18, $15, $16
3722	32B4  000F9943             sra $19 ,$15, 5
3723	32B8  AFB20000             sw $18, 0($29)
3724	32BC  AFB30004             sw $19, 4($29)
3725	32C0  0C001EE5             jal increment_offset
3726	32C4  177CFFF9             bne $27, $28, operation_sra_or
3727	                          
3728	32C8  0C001EDD            jal reset_offsets
3729	32CC  0C001EF3            jal init_cp
3730	                          operation_sra_subu:
3731	32D0  0C001EDA             jal load_patterns
3732	32D4  000F9143             sra $18 ,$15, 5
3733	32D8  01F09023             subu $18, $15, $16
3734	32DC  000F9943             sra $19 ,$15, 5
3735	32E0  AFB20000             sw $18, 0($29)
3736	32E4  AFB30004             sw $19, 4($29)
3737	32E8  0C001EE5             jal increment_offset
3738	32EC  177CFFF9             bne $27, $28, operation_sra_subu
3739	                          
3740	32F0  0C001EDD            jal reset_offsets
3741	32F4  0C001EF3            jal init_cp
3742	                          operation_sra_xor:
3743	32F8  0C001EDA             jal load_patterns
3744	32FC  000F9143             sra $18 ,$15, 5
3745	3300  01F09026             xor $18, $15, $16
3746	3304  000F9943             sra $19 ,$15, 5
3747	3308  AFB20000             sw $18, 0($29)
3748	330C  AFB30004             sw $19, 4($29)
3749	3310  0C001EE5             jal increment_offset
3750	3314  177CFFF9             bne $27, $28, operation_sra_xor
3751	                          
3752	3318  0C001EDD            jal reset_offsets
3753	331C  0C001EF3            jal init_cp
3754	                          operation_sra_sllv:
3755	3320  0C001EDA             jal load_patterns
3756	3324  000F9143             sra $18 ,$15, 5
3757	3328  020F9004             sllv $18, $15, $16
3758	332C  000F9943             sra $19 ,$15, 5
3759	3330  AFB20000             sw $18, 0($29)
3760	3334  AFB30004             sw $19, 4($29)
3761	3338  0C001EE5             jal increment_offset
3762	333C  177CFFF9             bne $27, $28, operation_sra_sllv
3763	                          
3764	3340  0C001EDD            jal reset_offsets
3765	3344  0C001EF3            jal init_cp
3766	                          operation_sra_slt:
3767	3348  0C001EDA             jal load_patterns
3768	334C  000F9143             sra $18 ,$15, 5
3769	3350  01F0902A             slt $18, $15, $16
3770	3354  000F9943             sra $19 ,$15, 5
3771	3358  AFB20000             sw $18, 0($29)
3772	335C  AFB30004             sw $19, 4($29)
3773	3360  0C001EE5             jal increment_offset
3774	3364  177CFFF9             bne $27, $28, operation_sra_slt
3775	                          
3776	3368  0C001EDD            jal reset_offsets
3777	336C  0C001EF3            jal init_cp
3778	                          operation_sra_sltu:
3779	3370  0C001EDA             jal load_patterns
3780	3374  000F9143             sra $18 ,$15, 5
3781	3378  01F0902B             sltu $18, $15, $16
3782	337C  000F9943             sra $19 ,$15, 5
3783	3380  AFB20000             sw $18, 0($29)
3784	3384  AFB30004             sw $19, 4($29)
3785	3388  0C001EE5             jal increment_offset
3786	338C  177CFFF9             bne $27, $28, operation_sra_sltu
3787	                          
3788	3390  0C001EDD            jal reset_offsets
3789	3394  0C001EF3            jal init_cp
3790	                          operation_sra_srav:
3791	3398  0C001EDA             jal load_patterns
3792	339C  000F9143             sra $18 ,$15, 5
3793	33A0  020F9007             srav $18, $15, $16
3794	33A4  000F9943             sra $19 ,$15, 5
3795	33A8  AFB20000             sw $18, 0($29)
3796	33AC  AFB30004             sw $19, 4($29)
3797	33B0  0C001EE5             jal increment_offset
3798	33B4  177CFFF9             bne $27, $28, operation_sra_srav
3799	                          
3800	33B8  0C001EDD            jal reset_offsets
3801	33BC  0C001EF3            jal init_cp
3802	                          operation_sra_srlv:
3803	33C0  0C001EDA             jal load_patterns
3804	33C4  000F9143             sra $18 ,$15, 5
3805	33C8  020F9006             srlv $18, $15, $16
3806	33CC  000F9943             sra $19 ,$15, 5
3807	33D0  AFB20000             sw $18, 0($29)
3808	33D4  AFB30004             sw $19, 4($29)
3809	33D8  0C001EE5             jal increment_offset
3810	33DC  177CFFF9             bne $27, $28, operation_sra_srlv
3811	                          
3812	33E0  0C001EDD            jal reset_offsets
3813	33E4  0C001EF3            jal init_cp
3814	                          operation_sra_sll:
3815	33E8  0C001EDA             jal load_patterns
3816	33EC  000F9143             sra $18 ,$15, 5
3817	33F0  000F9140             sll $18 ,$15, 5
3818	33F4  000F9943             sra $19 ,$15, 5
3819	33F8  AFB20000             sw $18, 0($29)
3820	33FC  AFB30004             sw $19, 4($29)
3821	3400  0C001EE5             jal increment_offset
3822	3404  177CFFF9             bne $27, $28, operation_sra_sll
3823	                          
3824	3408  0C001EDD            jal reset_offsets
3825	340C  0C001EF3            jal init_cp
3826	                          operation_sra_srl:
3827	3410  0C001EDA             jal load_patterns
3828	3414  000F9143             sra $18 ,$15, 5
3829	3418  000F9142             srl $18 ,$15, 5
3830	341C  000F9943             sra $19 ,$15, 5
3831	3420  AFB20000             sw $18, 0($29)
3832	3424  AFB30004             sw $19, 4($29)
3833	3428  0C001EE5             jal increment_offset
3834	342C  177CFFF9             bne $27, $28, operation_sra_srl
3835	                          
3836	3430  0C001EDD            jal reset_offsets
3837	3434  0C001EF3            jal init_cp
3838	                          operation_mult_addu_lo:
3839	3438  0C001EDA             jal load_patterns
3840	343C  01F00018             mult $15, $16
3841	3440  01F09821             addu $19, $15, $16
3842	3444  01F00018             mult $15, $16
3843	3448  00009012             mflo $18
3844	344C  0C001EF0             jal store
3845	3450  0C001EE5             jal increment_offset
3846	3454  177CFFF9             bne $27, $28, operation_mult_addu_lo
3847	                          
3848	3458  0C001EDD            jal reset_offsets
3849	345C  0C001EF3            jal init_cp
3850	                          operation_mult_addu_hi:
3851	3460  0C001EDA             jal load_patterns
3852	3464  01F00018             mult $15, $16
3853	3468  01F09821             addu $19, $15, $16
3854	346C  01F00018             mult $15, $16
3855	3470  00009010             mfhi $18
3856	3474  0C001EF0             jal store
3857	3478  0C001EE5             jal increment_offset
3858	347C  177CFFF9             bne $27, $28, operation_mult_addu_hi
3859	                          
3860	3480  0C001EDD            jal reset_offsets
3861	3484  0C001EF3            jal init_cp
3862	                          operation_mult_and_lo:
3863	3488  0C001EDA             jal load_patterns
3864	348C  01F00018             mult $15, $16
3865	3490  01F09824             and $19, $15, $16
3866	3494  01F00018             mult $15, $16
3867	3498  00009012             mflo $18
3868	349C  0C001EF0             jal store
3869	34A0  0C001EE5             jal increment_offset
3870	34A4  177CFFF9             bne $27, $28, operation_mult_and_lo
3871	                          
3872	34A8  0C001EDD            jal reset_offsets
3873	34AC  0C001EF3            jal init_cp
3874	                          operation_mult_and_hi:
3875	34B0  0C001EDA             jal load_patterns
3876	34B4  01F00018             mult $15, $16
3877	34B8  01F09824             and $19, $15, $16
3878	34BC  01F00018             mult $15, $16
3879	34C0  00009010             mfhi $18
3880	34C4  0C001EF0             jal store
3881	34C8  0C001EE5             jal increment_offset
3882	34CC  177CFFF9             bne $27, $28, operation_mult_and_hi
3883	                          
3884	34D0  0C001EDD            jal reset_offsets
3885	34D4  0C001EF3            jal init_cp
3886	                          operation_mult_nor_lo:
3887	34D8  0C001EDA             jal load_patterns
3888	34DC  01F00018             mult $15, $16
3889	34E0  01F09827             nor $19, $15, $16
3890	34E4  01F00018             mult $15, $16
3891	34E8  00009012             mflo $18
3892	34EC  0C001EF0             jal store
3893	34F0  0C001EE5             jal increment_offset
3894	34F4  177CFFF9             bne $27, $28, operation_mult_nor_lo
3895	                          
3896	34F8  0C001EDD            jal reset_offsets
3897	34FC  0C001EF3            jal init_cp
3898	                          operation_mult_nor_hi:
3899	3500  0C001EDA             jal load_patterns
3900	3504  01F00018             mult $15, $16
3901	3508  01F09827             nor $19, $15, $16
3902	350C  01F00018             mult $15, $16
3903	3510  00009010             mfhi $18
3904	3514  0C001EF0             jal store
3905	3518  0C001EE5             jal increment_offset
3906	351C  177CFFF9             bne $27, $28, operation_mult_nor_hi
3907	                          
3908	3520  0C001EDD            jal reset_offsets
3909	3524  0C001EF3            jal init_cp
3910	                          operation_mult_or_lo:
3911	3528  0C001EDA             jal load_patterns
3912	352C  01F00018             mult $15, $16
3913	3530  01F09825             or $19, $15, $16
3914	3534  01F00018             mult $15, $16
3915	3538  00009012             mflo $18
3916	353C  0C001EF0             jal store
3917	3540  0C001EE5             jal increment_offset
3918	3544  177CFFF9             bne $27, $28, operation_mult_or_lo
3919	                          
3920	3548  0C001EDD            jal reset_offsets
3921	354C  0C001EF3            jal init_cp
3922	                          operation_mult_or_hi:
3923	3550  0C001EDA             jal load_patterns
3924	3554  01F00018             mult $15, $16
3925	3558  01F09825             or $19, $15, $16
3926	355C  01F00018             mult $15, $16
3927	3560  00009010             mfhi $18
3928	3564  0C001EF0             jal store
3929	3568  0C001EE5             jal increment_offset
3930	356C  177CFFF9             bne $27, $28, operation_mult_or_hi
3931	                          
3932	3570  0C001EDD            jal reset_offsets
3933	3574  0C001EF3            jal init_cp
3934	                          operation_mult_subu_lo:
3935	3578  0C001EDA             jal load_patterns
3936	357C  01F00018             mult $15, $16
3937	3580  01F09823             subu $19, $15, $16
3938	3584  01F00018             mult $15, $16
3939	3588  00009012             mflo $18
3940	358C  0C001EF0             jal store
3941	3590  0C001EE5             jal increment_offset
3942	3594  177CFFF9             bne $27, $28, operation_mult_subu_lo
3943	                          
3944	3598  0C001EDD            jal reset_offsets
3945	359C  0C001EF3            jal init_cp
3946	                          operation_mult_subu_hi:
3947	35A0  0C001EDA             jal load_patterns
3948	35A4  01F00018             mult $15, $16
3949	35A8  01F09823             subu $19, $15, $16
3950	35AC  01F00018             mult $15, $16
3951	35B0  00009010             mfhi $18
3952	35B4  0C001EF0             jal store
3953	35B8  0C001EE5             jal increment_offset
3954	35BC  177CFFF9             bne $27, $28, operation_mult_subu_hi
3955	                          
3956	35C0  0C001EDD            jal reset_offsets
3957	35C4  0C001EF3            jal init_cp
3958	                          operation_mult_xor_lo:
3959	35C8  0C001EDA             jal load_patterns
3960	35CC  01F00018             mult $15, $16
3961	35D0  01F09826             xor $19, $15, $16
3962	35D4  01F00018             mult $15, $16
3963	35D8  00009012             mflo $18
3964	35DC  0C001EF0             jal store
3965	35E0  0C001EE5             jal increment_offset
3966	35E4  177CFFF9             bne $27, $28, operation_mult_xor_lo
3967	                          
3968	35E8  0C001EDD            jal reset_offsets
3969	35EC  0C001EF3            jal init_cp
3970	                          operation_mult_xor_hi:
3971	35F0  0C001EDA             jal load_patterns
3972	35F4  01F00018             mult $15, $16
3973	35F8  01F09826             xor $19, $15, $16
3974	35FC  01F00018             mult $15, $16
3975	3600  00009010             mfhi $18
3976	3604  0C001EF0             jal store
3977	3608  0C001EE5             jal increment_offset
3978	360C  177CFFF9             bne $27, $28, operation_mult_xor_hi
3979	                          
3980	3610  0C001EDD            jal reset_offsets
3981	3614  0C001EF3            jal init_cp
3982	                          operation_mult_sllv_lo:
3983	3618  0C001EDA             jal load_patterns
3984	361C  01F00018             mult $15, $16
3985	3620  020F9804             sllv $19, $15, $16
3986	3624  01F00018             mult $15, $16
3987	3628  00009012             mflo $18
3988	362C  0C001EF0             jal store
3989	3630  0C001EE5             jal increment_offset
3990	3634  177CFFF9             bne $27, $28, operation_mult_sllv_lo
3991	                          
3992	3638  0C001EDD            jal reset_offsets
3993	363C  0C001EF3            jal init_cp
3994	                          operation_mult_sllv_hi:
3995	3640  0C001EDA             jal load_patterns
3996	3644  01F00018             mult $15, $16
3997	3648  020F9804             sllv $19, $15, $16
3998	364C  01F00018             mult $15, $16
3999	3650  00009010             mfhi $18
4000	3654  0C001EF0             jal store
4001	3658  0C001EE5             jal increment_offset
4002	365C  177CFFF9             bne $27, $28, operation_mult_sllv_hi
4003	                          
4004	3660  0C001EDD            jal reset_offsets
4005	3664  0C001EF3            jal init_cp
4006	                          operation_mult_slt_lo:
4007	3668  0C001EDA             jal load_patterns
4008	366C  01F00018             mult $15, $16
4009	3670  01F0982A             slt $19, $15, $16
4010	3674  01F00018             mult $15, $16
4011	3678  00009012             mflo $18
4012	367C  0C001EF0             jal store
4013	3680  0C001EE5             jal increment_offset
4014	3684  177CFFF9             bne $27, $28, operation_mult_slt_lo
4015	                          
4016	3688  0C001EDD            jal reset_offsets
4017	368C  0C001EF3            jal init_cp
4018	                          operation_mult_slt_hi:
4019	3690  0C001EDA             jal load_patterns
4020	3694  01F00018             mult $15, $16
4021	3698  01F0982A             slt $19, $15, $16
4022	369C  01F00018             mult $15, $16
4023	36A0  00009010             mfhi $18
4024	36A4  0C001EF0             jal store
4025	36A8  0C001EE5             jal increment_offset
4026	36AC  177CFFF9             bne $27, $28, operation_mult_slt_hi
4027	                          
4028	36B0  0C001EDD            jal reset_offsets
4029	36B4  0C001EF3            jal init_cp
4030	                          operation_mult_sltu_lo:
4031	36B8  0C001EDA             jal load_patterns
4032	36BC  01F00018             mult $15, $16
4033	36C0  01F0982B             sltu $19, $15, $16
4034	36C4  01F00018             mult $15, $16
4035	36C8  00009012             mflo $18
4036	36CC  0C001EF0             jal store
4037	36D0  0C001EE5             jal increment_offset
4038	36D4  177CFFF9             bne $27, $28, operation_mult_sltu_lo
4039	                          
4040	36D8  0C001EDD            jal reset_offsets
4041	36DC  0C001EF3            jal init_cp
4042	                          operation_mult_sltu_hi:
4043	36E0  0C001EDA             jal load_patterns
4044	36E4  01F00018             mult $15, $16
4045	36E8  01F0982B             sltu $19, $15, $16
4046	36EC  01F00018             mult $15, $16
4047	36F0  00009010             mfhi $18
4048	36F4  0C001EF0             jal store
4049	36F8  0C001EE5             jal increment_offset
4050	36FC  177CFFF9             bne $27, $28, operation_mult_sltu_hi
4051	                          
4052	3700  0C001EDD            jal reset_offsets
4053	3704  0C001EF3            jal init_cp
4054	                          operation_mult_srav_lo:
4055	3708  0C001EDA             jal load_patterns
4056	370C  01F00018             mult $15, $16
4057	3710  020F9807             srav $19, $15, $16
4058	3714  01F00018             mult $15, $16
4059	3718  00009012             mflo $18
4060	371C  0C001EF0             jal store
4061	3720  0C001EE5             jal increment_offset
4062	3724  177CFFF9             bne $27, $28, operation_mult_srav_lo
4063	                          
4064	3728  0C001EDD            jal reset_offsets
4065	372C  0C001EF3            jal init_cp
4066	                          operation_mult_srav_hi:
4067	3730  0C001EDA             jal load_patterns
4068	3734  01F00018             mult $15, $16
4069	3738  020F9807             srav $19, $15, $16
4070	373C  01F00018             mult $15, $16
4071	3740  00009010             mfhi $18
4072	3744  0C001EF0             jal store
4073	3748  0C001EE5             jal increment_offset
4074	374C  177CFFF9             bne $27, $28, operation_mult_srav_hi
4075	                          
4076	3750  0C001EDD            jal reset_offsets
4077	3754  0C001EF3            jal init_cp
4078	                          operation_mult_srlv_lo:
4079	3758  0C001EDA             jal load_patterns
4080	375C  01F00018             mult $15, $16
4081	3760  020F9806             srlv $19, $15, $16
4082	3764  01F00018             mult $15, $16
4083	3768  00009012             mflo $18
4084	376C  0C001EF0             jal store
4085	3770  0C001EE5             jal increment_offset
4086	3774  177CFFF9             bne $27, $28, operation_mult_srlv_lo
4087	                          
4088	3778  0C001EDD            jal reset_offsets
4089	377C  0C001EF3            jal init_cp
4090	                          operation_mult_srlv_hi:
4091	3780  0C001EDA             jal load_patterns
4092	3784  01F00018             mult $15, $16
4093	3788  020F9806             srlv $19, $15, $16
4094	378C  01F00018             mult $15, $16
4095	3790  00009010             mfhi $18
4096	3794  0C001EF0             jal store
4097	3798  0C001EE5             jal increment_offset
4098	379C  177CFFF9             bne $27, $28, operation_mult_srlv_hi
4099	                          
4100	37A0  0C001EDD            jal reset_offsets
4101	37A4  0C001EF3            jal init_cp
4102	                          operation_mult_sll_lo:
4103	37A8  0C001EDA             jal load_patterns
4104	37AC  01F00018             mult $15, $16
4105	37B0  000F9140             sll $18 ,$15, 5
4106	37B4  01F00018             mult $15, $16
4107	37B8  00009012             mflo $18
4108	37BC  0C001EF0             jal store
4109	37C0  0C001EE5             jal increment_offset
4110	37C4  177CFFF9             bne $27, $28, operation_mult_sll_lo
4111	                          
4112	37C8  0C001EDD            jal reset_offsets
4113	37CC  0C001EF3            jal init_cp
4114	                          operation_mult_sll_hi:
4115	37D0  0C001EDA             jal load_patterns
4116	37D4  01F00018             mult $15, $16
4117	37D8  000F9140             sll $18 ,$15, 5
4118	37DC  01F00018             mult $15, $16
4119	37E0  00009010             mfhi $18
4120	37E4  0C001EF0             jal store
4121	37E8  0C001EE5             jal increment_offset
4122	37EC  177CFFF9             bne $27, $28, operation_mult_sll_hi
4123	                          
4124	37F0  0C001EDD            jal reset_offsets
4125	37F4  0C001EF3            jal init_cp
4126	                          operation_mult_srl_lo:
4127	37F8  0C001EDA             jal load_patterns
4128	37FC  01F00018             mult $15, $16
4129	3800  000F9142             srl $18 ,$15, 5
4130	3804  01F00018             mult $15, $16
4131	3808  00009012             mflo $18
4132	380C  0C001EF0             jal store
4133	3810  0C001EE5             jal increment_offset
4134	3814  177CFFF9             bne $27, $28, operation_mult_srl_lo
4135	                          
4136	3818  0C001EDD            jal reset_offsets
4137	381C  0C001EF3            jal init_cp
4138	                          operation_mult_srl_hi:
4139	3820  0C001EDA             jal load_patterns
4140	3824  01F00018             mult $15, $16
4141	3828  000F9142             srl $18 ,$15, 5
4142	382C  01F00018             mult $15, $16
4143	3830  00009010             mfhi $18
4144	3834  0C001EF0             jal store
4145	3838  0C001EE5             jal increment_offset
4146	383C  177CFFF9             bne $27, $28, operation_mult_srl_hi
4147	                          
4148	3840  0C001EDD            jal reset_offsets
4149	3844  0C001EF3            jal init_cp
4150	                          operation_mult_sra_lo:
4151	3848  0C001EDA             jal load_patterns
4152	384C  01F00018             mult $15, $16
4153	3850  000F9143             sra $18 ,$15, 5
4154	3854  01F00018             mult $15, $16
4155	3858  00009012             mflo $18
4156	385C  0C001EF0             jal store
4157	3860  0C001EE5             jal increment_offset
4158	3864  177CFFF9             bne $27, $28, operation_mult_sra_lo
4159	                          
4160	3868  0C001EDD            jal reset_offsets
4161	386C  0C001EF3            jal init_cp
4162	                          operation_mult_sra_hi:
4163	3870  0C001EDA             jal load_patterns
4164	3874  01F00018             mult $15, $16
4165	3878  000F9143             sra $18 ,$15, 5
4166	387C  01F00018             mult $15, $16
4167	3880  00009010             mfhi $18
4168	3884  0C001EF0             jal store
4169	3888  0C001EE5             jal increment_offset
4170	388C  177CFFF9             bne $27, $28, operation_mult_sra_hi
4171	                          
4172	3890  0C001EDD            jal reset_offsets
4173	3894  0C001EF3            jal init_cp
4174	                          operation_multu_addu_lo:
4175	3898  0C001EDA             jal load_patterns
4176	389C  01F00019             multu $15, $16
4177	38A0  01F09821             addu $19, $15, $16
4178	38A4  01F00019             multu $15, $16
4179	38A8  00009012             mflo $18
4180	38AC  0C001EF0             jal store
4181	38B0  0C001EE5             jal increment_offset
4182	38B4  177CFFF9             bne $27, $28, operation_multu_addu_lo
4183	                          
4184	38B8  0C001EDD            jal reset_offsets
4185	38BC  0C001EF3            jal init_cp
4186	                          operation_multu_addu_hi:
4187	38C0  0C001EDA             jal load_patterns
4188	38C4  01F00019             multu $15, $16
4189	38C8  01F09821             addu $19, $15, $16
4190	38CC  01F00019             multu $15, $16
4191	38D0  00009010             mfhi $18
4192	38D4  0C001EF0             jal store
4193	38D8  0C001EE5             jal increment_offset
4194	38DC  177CFFF9             bne $27, $28, operation_multu_addu_hi
4195	                          
4196	38E0  0C001EDD            jal reset_offsets
4197	38E4  0C001EF3            jal init_cp
4198	                          operation_multu_and_lo:
4199	38E8  0C001EDA             jal load_patterns
4200	38EC  01F00019             multu $15, $16
4201	38F0  01F09824             and $19, $15, $16
4202	38F4  01F00019             multu $15, $16
4203	38F8  00009012             mflo $18
4204	38FC  0C001EF0             jal store
4205	3900  0C001EE5             jal increment_offset
4206	3904  177CFFF9             bne $27, $28, operation_multu_and_lo
4207	                          
4208	3908  0C001EDD            jal reset_offsets
4209	390C  0C001EF3            jal init_cp
4210	                          operation_multu_and_hi:
4211	3910  0C001EDA             jal load_patterns
4212	3914  01F00019             multu $15, $16
4213	3918  01F09824             and $19, $15, $16
4214	391C  01F00019             multu $15, $16
4215	3920  00009010             mfhi $18
4216	3924  0C001EF0             jal store
4217	3928  0C001EE5             jal increment_offset
4218	392C  177CFFF9             bne $27, $28, operation_multu_and_hi
4219	                          
4220	3930  0C001EDD            jal reset_offsets
4221	3934  0C001EF3            jal init_cp
4222	                          operation_multu_nor_lo:
4223	3938  0C001EDA             jal load_patterns
4224	393C  01F00019             multu $15, $16
4225	3940  01F09827             nor $19, $15, $16
4226	3944  01F00019             multu $15, $16
4227	3948  00009012             mflo $18
4228	394C  0C001EF0             jal store
4229	3950  0C001EE5             jal increment_offset
4230	3954  177CFFF9             bne $27, $28, operation_multu_nor_lo
4231	                          
4232	3958  0C001EDD            jal reset_offsets
4233	395C  0C001EF3            jal init_cp
4234	                          operation_multu_nor_hi:
4235	3960  0C001EDA             jal load_patterns
4236	3964  01F00019             multu $15, $16
4237	3968  01F09827             nor $19, $15, $16
4238	396C  01F00019             multu $15, $16
4239	3970  00009010             mfhi $18
4240	3974  0C001EF0             jal store
4241	3978  0C001EE5             jal increment_offset
4242	397C  177CFFF9             bne $27, $28, operation_multu_nor_hi
4243	                          
4244	3980  0C001EDD            jal reset_offsets
4245	3984  0C001EF3            jal init_cp
4246	                          operation_multu_or_lo:
4247	3988  0C001EDA             jal load_patterns
4248	398C  01F00019             multu $15, $16
4249	3990  01F09825             or $19, $15, $16
4250	3994  01F00019             multu $15, $16
4251	3998  00009012             mflo $18
4252	399C  0C001EF0             jal store
4253	39A0  0C001EE5             jal increment_offset
4254	39A4  177CFFF9             bne $27, $28, operation_multu_or_lo
4255	                          
4256	39A8  0C001EDD            jal reset_offsets
4257	39AC  0C001EF3            jal init_cp
4258	                          operation_multu_or_hi:
4259	39B0  0C001EDA             jal load_patterns
4260	39B4  01F00019             multu $15, $16
4261	39B8  01F09825             or $19, $15, $16
4262	39BC  01F00019             multu $15, $16
4263	39C0  00009010             mfhi $18
4264	39C4  0C001EF0             jal store
4265	39C8  0C001EE5             jal increment_offset
4266	39CC  177CFFF9             bne $27, $28, operation_multu_or_hi
4267	                          
4268	39D0  0C001EDD            jal reset_offsets
4269	39D4  0C001EF3            jal init_cp
4270	                          operation_multu_subu_lo:
4271	39D8  0C001EDA             jal load_patterns
4272	39DC  01F00019             multu $15, $16
4273	39E0  01F09823             subu $19, $15, $16
4274	39E4  01F00019             multu $15, $16
4275	39E8  00009012             mflo $18
4276	39EC  0C001EF0             jal store
4277	39F0  0C001EE5             jal increment_offset
4278	39F4  177CFFF9             bne $27, $28, operation_multu_subu_lo
4279	                          
4280	39F8  0C001EDD            jal reset_offsets
4281	39FC  0C001EF3            jal init_cp
4282	                          operation_multu_subu_hi:
4283	3A00  0C001EDA             jal load_patterns
4284	3A04  01F00019             multu $15, $16
4285	3A08  01F09823             subu $19, $15, $16
4286	3A0C  01F00019             multu $15, $16
4287	3A10  00009010             mfhi $18
4288	3A14  0C001EF0             jal store
4289	3A18  0C001EE5             jal increment_offset
4290	3A1C  177CFFF9             bne $27, $28, operation_multu_subu_hi
4291	                          
4292	3A20  0C001EDD            jal reset_offsets
4293	3A24  0C001EF3            jal init_cp
4294	                          operation_multu_xor_lo:
4295	3A28  0C001EDA             jal load_patterns
4296	3A2C  01F00019             multu $15, $16
4297	3A30  01F09826             xor $19, $15, $16
4298	3A34  01F00019             multu $15, $16
4299	3A38  00009012             mflo $18
4300	3A3C  0C001EF0             jal store
4301	3A40  0C001EE5             jal increment_offset
4302	3A44  177CFFF9             bne $27, $28, operation_multu_xor_lo
4303	                          
4304	3A48  0C001EDD            jal reset_offsets
4305	3A4C  0C001EF3            jal init_cp
4306	                          operation_multu_xor_hi:
4307	3A50  0C001EDA             jal load_patterns
4308	3A54  01F00019             multu $15, $16
4309	3A58  01F09826             xor $19, $15, $16
4310	3A5C  01F00019             multu $15, $16
4311	3A60  00009010             mfhi $18
4312	3A64  0C001EF0             jal store
4313	3A68  0C001EE5             jal increment_offset
4314	3A6C  177CFFF9             bne $27, $28, operation_multu_xor_hi
4315	                          
4316	3A70  0C001EDD            jal reset_offsets
4317	3A74  0C001EF3            jal init_cp
4318	                          operation_multu_sllv_lo:
4319	3A78  0C001EDA             jal load_patterns
4320	3A7C  01F00019             multu $15, $16
4321	3A80  020F9804             sllv $19, $15, $16
4322	3A84  01F00019             multu $15, $16
4323	3A88  00009012             mflo $18
4324	3A8C  0C001EF0             jal store
4325	3A90  0C001EE5             jal increment_offset
4326	3A94  177CFFF9             bne $27, $28, operation_multu_sllv_lo
4327	                          
4328	3A98  0C001EDD            jal reset_offsets
4329	3A9C  0C001EF3            jal init_cp
4330	                          operation_multu_sllv_hi:
4331	3AA0  0C001EDA             jal load_patterns
4332	3AA4  01F00019             multu $15, $16
4333	3AA8  020F9804             sllv $19, $15, $16
4334	3AAC  01F00019             multu $15, $16
4335	3AB0  00009010             mfhi $18
4336	3AB4  0C001EF0             jal store
4337	3AB8  0C001EE5             jal increment_offset
4338	3ABC  177CFFF9             bne $27, $28, operation_multu_sllv_hi
4339	                          
4340	3AC0  0C001EDD            jal reset_offsets
4341	3AC4  0C001EF3            jal init_cp
4342	                          operation_multu_slt_lo:
4343	3AC8  0C001EDA             jal load_patterns
4344	3ACC  01F00019             multu $15, $16
4345	3AD0  01F0982A             slt $19, $15, $16
4346	3AD4  01F00019             multu $15, $16
4347	3AD8  00009012             mflo $18
4348	3ADC  0C001EF0             jal store
4349	3AE0  0C001EE5             jal increment_offset
4350	3AE4  177CFFF9             bne $27, $28, operation_multu_slt_lo
4351	                          
4352	3AE8  0C001EDD            jal reset_offsets
4353	3AEC  0C001EF3            jal init_cp
4354	                          operation_multu_slt_hi:
4355	3AF0  0C001EDA             jal load_patterns
4356	3AF4  01F00019             multu $15, $16
4357	3AF8  01F0982A             slt $19, $15, $16
4358	3AFC  01F00019             multu $15, $16
4359	3B00  00009010             mfhi $18
4360	3B04  0C001EF0             jal store
4361	3B08  0C001EE5             jal increment_offset
4362	3B0C  177CFFF9             bne $27, $28, operation_multu_slt_hi
4363	                          
4364	3B10  0C001EDD            jal reset_offsets
4365	3B14  0C001EF3            jal init_cp
4366	                          operation_multu_sltu_lo:
4367	3B18  0C001EDA             jal load_patterns
4368	3B1C  01F00019             multu $15, $16
4369	3B20  01F0982B             sltu $19, $15, $16
4370	3B24  01F00019             multu $15, $16
4371	3B28  00009012             mflo $18
4372	3B2C  0C001EF0             jal store
4373	3B30  0C001EE5             jal increment_offset
4374	3B34  177CFFF9             bne $27, $28, operation_multu_sltu_lo
4375	                          
4376	3B38  0C001EDD            jal reset_offsets
4377	3B3C  0C001EF3            jal init_cp
4378	                          operation_multu_sltu_hi:
4379	3B40  0C001EDA             jal load_patterns
4380	3B44  01F00019             multu $15, $16
4381	3B48  01F0982B             sltu $19, $15, $16
4382	3B4C  01F00019             multu $15, $16
4383	3B50  00009010             mfhi $18
4384	3B54  0C001EF0             jal store
4385	3B58  0C001EE5             jal increment_offset
4386	3B5C  177CFFF9             bne $27, $28, operation_multu_sltu_hi
4387	                          
4388	3B60  0C001EDD            jal reset_offsets
4389	3B64  0C001EF3            jal init_cp
4390	                          operation_multu_srav_lo:
4391	3B68  0C001EDA             jal load_patterns
4392	3B6C  01F00019             multu $15, $16
4393	3B70  020F9807             srav $19, $15, $16
4394	3B74  01F00019             multu $15, $16
4395	3B78  00009012             mflo $18
4396	3B7C  0C001EF0             jal store
4397	3B80  0C001EE5             jal increment_offset
4398	3B84  177CFFF9             bne $27, $28, operation_multu_srav_lo
4399	                          
4400	3B88  0C001EDD            jal reset_offsets
4401	3B8C  0C001EF3            jal init_cp
4402	                          operation_multu_srav_hi:
4403	3B90  0C001EDA             jal load_patterns
4404	3B94  01F00019             multu $15, $16
4405	3B98  020F9807             srav $19, $15, $16
4406	3B9C  01F00019             multu $15, $16
4407	3BA0  00009010             mfhi $18
4408	3BA4  0C001EF0             jal store
4409	3BA8  0C001EE5             jal increment_offset
4410	3BAC  177CFFF9             bne $27, $28, operation_multu_srav_hi
4411	                          
4412	3BB0  0C001EDD            jal reset_offsets
4413	3BB4  0C001EF3            jal init_cp
4414	                          operation_multu_srlv_lo:
4415	3BB8  0C001EDA             jal load_patterns
4416	3BBC  01F00019             multu $15, $16
4417	3BC0  020F9806             srlv $19, $15, $16
4418	3BC4  01F00019             multu $15, $16
4419	3BC8  00009012             mflo $18
4420	3BCC  0C001EF0             jal store
4421	3BD0  0C001EE5             jal increment_offset
4422	3BD4  177CFFF9             bne $27, $28, operation_multu_srlv_lo
4423	                          
4424	3BD8  0C001EDD            jal reset_offsets
4425	3BDC  0C001EF3            jal init_cp
4426	                          operation_multu_srlv_hi:
4427	3BE0  0C001EDA             jal load_patterns
4428	3BE4  01F00019             multu $15, $16
4429	3BE8  020F9806             srlv $19, $15, $16
4430	3BEC  01F00019             multu $15, $16
4431	3BF0  00009010             mfhi $18
4432	3BF4  0C001EF0             jal store
4433	3BF8  0C001EE5             jal increment_offset
4434	3BFC  177CFFF9             bne $27, $28, operation_multu_srlv_hi
4435	                          
4436	3C00  0C001EDD            jal reset_offsets
4437	3C04  0C001EF3            jal init_cp
4438	                          operation_multu_sll_lo:
4439	3C08  0C001EDA             jal load_patterns
4440	3C0C  01F00019             multu $15, $16
4441	3C10  000F9140             sll $18 ,$15, 5
4442	3C14  01F00019             multu $15, $16
4443	3C18  00009012             mflo $18
4444	3C1C  0C001EF0             jal store
4445	3C20  0C001EE5             jal increment_offset
4446	3C24  177CFFF9             bne $27, $28, operation_multu_sll_lo
4447	                          
4448	3C28  0C001EDD            jal reset_offsets
4449	3C2C  0C001EF3            jal init_cp
4450	                          operation_multu_sll_hi:
4451	3C30  0C001EDA             jal load_patterns
4452	3C34  01F00019             multu $15, $16
4453	3C38  000F9140             sll $18 ,$15, 5
4454	3C3C  01F00019             multu $15, $16
4455	3C40  00009010             mfhi $18
4456	3C44  0C001EF0             jal store
4457	3C48  0C001EE5             jal increment_offset
4458	3C4C  177CFFF9             bne $27, $28, operation_multu_sll_hi
4459	                          
4460	3C50  0C001EDD            jal reset_offsets
4461	3C54  0C001EF3            jal init_cp
4462	                          operation_multu_srl_lo:
4463	3C58  0C001EDA             jal load_patterns
4464	3C5C  01F00019             multu $15, $16
4465	3C60  000F9142             srl $18 ,$15, 5
4466	3C64  01F00019             multu $15, $16
4467	3C68  00009012             mflo $18
4468	3C6C  0C001EF0             jal store
4469	3C70  0C001EE5             jal increment_offset
4470	3C74  177CFFF9             bne $27, $28, operation_multu_srl_lo
4471	                          
4472	3C78  0C001EDD            jal reset_offsets
4473	3C7C  0C001EF3            jal init_cp
4474	                          operation_multu_srl_hi:
4475	3C80  0C001EDA             jal load_patterns
4476	3C84  01F00019             multu $15, $16
4477	3C88  000F9142             srl $18 ,$15, 5
4478	3C8C  01F00019             multu $15, $16
4479	3C90  00009010             mfhi $18
4480	3C94  0C001EF0             jal store
4481	3C98  0C001EE5             jal increment_offset
4482	3C9C  177CFFF9             bne $27, $28, operation_multu_srl_hi
4483	                          
4484	3CA0  0C001EDD            jal reset_offsets
4485	3CA4  0C001EF3            jal init_cp
4486	                          operation_multu_sra_lo:
4487	3CA8  0C001EDA             jal load_patterns
4488	3CAC  01F00019             multu $15, $16
4489	3CB0  000F9143             sra $18 ,$15, 5
4490	3CB4  01F00019             multu $15, $16
4491	3CB8  00009012             mflo $18
4492	3CBC  0C001EF0             jal store
4493	3CC0  0C001EE5             jal increment_offset
4494	3CC4  177CFFF9             bne $27, $28, operation_multu_sra_lo
4495	                          
4496	3CC8  0C001EDD            jal reset_offsets
4497	3CCC  0C001EF3            jal init_cp
4498	                          operation_multu_sra_hi:
4499	3CD0  0C001EDA             jal load_patterns
4500	3CD4  01F00019             multu $15, $16
4501	3CD8  000F9143             sra $18 ,$15, 5
4502	3CDC  01F00019             multu $15, $16
4503	3CE0  00009010             mfhi $18
4504	3CE4  0C001EF0             jal store
4505	3CE8  0C001EE5             jal increment_offset
4506	3CEC  177CFFF9             bne $27, $28, operation_multu_sra_hi
4507	                          
4508	3CF0  0C001EDD            jal reset_offsets
4509	3CF4  0C001EF3            jal init_cp
4510	                          operation_addi:
4511	3CF8  0C001EDA             jal load_patterns
4512	3CFC  02319025             or $18, $17, $17
4513	3D00  21F2C9F5             addi $18, $15, 51701
4514	3D04  AFB20000             sw $18, 0($29)
4515	3D08  0C001EE5             jal increment_offset
4516	3D0C  0C001EDA             jal load_patterns
4517	3D10  02319025             or $18, $17, $17
4518	3D14  21F23471             addi $18, $15, 13425
4519	3D18  AFB20000             sw $18, 0($29)
4520	3D1C  0C001EE5             jal increment_offset
4521	3D20  0C001EDA             jal load_patterns
4522	3D24  02319025             or $18, $17, $17
4523	3D28  21F210BD             addi $18, $15, 4285
4524	3D2C  AFB20000             sw $18, 0($29)
4525	3D30  0C001EE5             jal increment_offset
4526	3D34  0C001EDA             jal load_patterns
4527	3D38  02319025             or $18, $17, $17
4528	3D3C  21F2B496             addi $18, $15, 46230
4529	3D40  AFB20000             sw $18, 0($29)
4530	3D44  0C001EE5             jal increment_offset
4531	3D48  0C001EDA             jal load_patterns
4532	3D4C  02319025             or $18, $17, $17
4533	3D50  21F25773             addi $18, $15, 22387
4534	3D54  AFB20000             sw $18, 0($29)
4535	3D58  0C001EE5             jal increment_offset
4536	3D5C  0C001EDA             jal load_patterns
4537	3D60  02319025             or $18, $17, $17
4538	3D64  21F2496F             addi $18, $15, 18799
4539	3D68  AFB20000             sw $18, 0($29)
4540	3D6C  0C001EE5             jal increment_offset
4541	3D70  0C001EDA             jal load_patterns
4542	3D74  02319025             or $18, $17, $17
4543	3D78  21F2C2E1             addi $18, $15, 49889
4544	3D7C  AFB20000             sw $18, 0($29)
4545	3D80  0C001EE5             jal increment_offset
4546	3D84  0C001EDA             jal load_patterns
4547	3D88  02319025             or $18, $17, $17
4548	3D8C  21F28CB7             addi $18, $15, 36023
4549	3D90  AFB20000             sw $18, 0($29)
4550	3D94  0C001EE5             jal increment_offset
4551	3D98  0C001EDA             jal load_patterns
4552	3D9C  02319025             or $18, $17, $17
4553	3DA0  21F2356A             addi $18, $15, 13674
4554	3DA4  AFB20000             sw $18, 0($29)
4555	3DA8  0C001EE5             jal increment_offset
4556	3DAC  0C001EDA             jal load_patterns
4557	3DB0  02319025             or $18, $17, $17
4558	3DB4  21F2EEC1             addi $18, $15, 61121
4559	3DB8  AFB20000             sw $18, 0($29)
4560	3DBC  0C001EE5             jal increment_offset
4561	3DC0  0C001EDA             jal load_patterns
4562	3DC4  02319025             or $18, $17, $17
4563	3DC8  21F224B1             addi $18, $15, 9393
4564	3DCC  AFB20000             sw $18, 0($29)
4565	3DD0  0C001EE5             jal increment_offset
4566	3DD4  0C001EDA             jal load_patterns
4567	3DD8  02319025             or $18, $17, $17
4568	3DDC  21F22838             addi $18, $15, 10296
4569	3DE0  AFB20000             sw $18, 0($29)
4570	3DE4  0C001EE5             jal increment_offset
4571	3DE8  0C001EDA             jal load_patterns
4572	3DEC  02319025             or $18, $17, $17
4573	3DF0  21F25531             addi $18, $15, 21809
4574	3DF4  AFB20000             sw $18, 0($29)
4575	3DF8  0C001EE5             jal increment_offset
4576	3DFC  0C001EDA             jal load_patterns
4577	3E00  02319025             or $18, $17, $17
4578	3E04  21F220C3             addi $18, $15, 8387
4579	3E08  AFB20000             sw $18, 0($29)
4580	3E0C  0C001EE5             jal increment_offset
4581	3E10  0C001EDA             jal load_patterns
4582	3E14  02319025             or $18, $17, $17
4583	3E18  21F27CDD             addi $18, $15, 31965
4584	3E1C  AFB20000             sw $18, 0($29)
4585	3E20  0C001EE5             jal increment_offset
4586	3E24  0C001EDA             jal load_patterns
4587	3E28  02319025             or $18, $17, $17
4588	3E2C  21F2766A             addi $18, $15, 30314
4589	3E30  AFB20000             sw $18, 0($29)
4590	3E34  0C001EE5             jal increment_offset
4591	3E38  0C001EDA             jal load_patterns
4592	3E3C  02319025             or $18, $17, $17
4593	3E40  21F2E5EC             addi $18, $15, 58860
4594	3E44  AFB20000             sw $18, 0($29)
4595	3E48  0C001EE5             jal increment_offset
4596	3E4C  0C001EDA             jal load_patterns
4597	3E50  02319025             or $18, $17, $17
4598	3E54  21F2FD41             addi $18, $15, 64833
4599	3E58  AFB20000             sw $18, 0($29)
4600	3E5C  0C001EE5             jal increment_offset
4601	3E60  0C001EDA             jal load_patterns
4602	3E64  02319025             or $18, $17, $17
4603	3E68  21F20238             addi $18, $15, 568
4604	3E6C  AFB20000             sw $18, 0($29)
4605	3E70  0C001EE5             jal increment_offset
4606	3E74  0C001EDA             jal load_patterns
4607	3E78  02319025             or $18, $17, $17
4608	3E7C  21F2C8FE             addi $18, $15, 51454
4609	3E80  AFB20000             sw $18, 0($29)
4610	3E84  0C001EE5             jal increment_offset
4611	3E88  0C001EDA             jal load_patterns
4612	3E8C  02319025             or $18, $17, $17
4613	3E90  21F27FCF             addi $18, $15, 32719
4614	3E94  AFB20000             sw $18, 0($29)
4615	3E98  0C001EE5             jal increment_offset
4616	3E9C  0C001EDA             jal load_patterns
4617	3EA0  02319025             or $18, $17, $17
4618	3EA4  21F24CC2             addi $18, $15, 19650
4619	3EA8  AFB20000             sw $18, 0($29)
4620	3EAC  0C001EE5             jal increment_offset
4621	3EB0  0C001EDA             jal load_patterns
4622	3EB4  02319025             or $18, $17, $17
4623	3EB8  21F2A8D0             addi $18, $15, 43216
4624	3EBC  AFB20000             sw $18, 0($29)
4625	3EC0  0C001EE5             jal increment_offset
4626	3EC4  0C001EDA             jal load_patterns
4627	3EC8  02319025             or $18, $17, $17
4628	3ECC  21F28748             addi $18, $15, 34632
4629	3ED0  AFB20000             sw $18, 0($29)
4630	3ED4  0C001EE5             jal increment_offset
4631	3ED8  0C001EDA             jal load_patterns
4632	3EDC  02319025             or $18, $17, $17
4633	3EE0  21F2999C             addi $18, $15, 39324
4634	3EE4  AFB20000             sw $18, 0($29)
4635	3EE8  0C001EE5             jal increment_offset
4636	3EEC  0C001EDA             jal load_patterns
4637	3EF0  02319025             or $18, $17, $17
4638	3EF4  21F2D796             addi $18, $15, 55190
4639	3EF8  AFB20000             sw $18, 0($29)
4640	3EFC  0C001EE5             jal increment_offset
4641	3F00  0C001EDA             jal load_patterns
4642	3F04  02319025             or $18, $17, $17
4643	3F08  21F2CC26             addi $18, $15, 52262
4644	3F0C  AFB20000             sw $18, 0($29)
4645	3F10  0C001EE5             jal increment_offset
4646	3F14  0C001EDA             jal load_patterns
4647	3F18  02319025             or $18, $17, $17
4648	3F1C  21F24B2C             addi $18, $15, 19244
4649	3F20  AFB20000             sw $18, 0($29)
4650	3F24  0C001EE5             jal increment_offset
4651	3F28  0C001EDA             jal load_patterns
4652	3F2C  02319025             or $18, $17, $17
4653	3F30  21F2B336             addi $18, $15, 45878
4654	3F34  AFB20000             sw $18, 0($29)
4655	3F38  0C001EE5             jal increment_offset
4656	3F3C  0C001EDA             jal load_patterns
4657	3F40  02319025             or $18, $17, $17
4658	3F44  21F22A22             addi $18, $15, 10786
4659	3F48  AFB20000             sw $18, 0($29)
4660	3F4C  0C001EE5             jal increment_offset
4661	3F50  0C001EDA             jal load_patterns
4662	3F54  02319025             or $18, $17, $17
4663	3F58  21F257D7             addi $18, $15, 22487
4664	3F5C  AFB20000             sw $18, 0($29)
4665	3F60  0C001EE5             jal increment_offset
4666	3F64  0C001EDA             jal load_patterns
4667	3F68  02319025             or $18, $17, $17
4668	3F6C  21F29FFE             addi $18, $15, 40958
4669	3F70  AFB20000             sw $18, 0($29)
4670	3F74  0C001EE5             jal increment_offset
4671	3F78  0C001EDA             jal load_patterns
4672	3F7C  02319025             or $18, $17, $17
4673	3F80  21F238A4             addi $18, $15, 14500
4674	3F84  AFB20000             sw $18, 0($29)
4675	3F88  0C001EE5             jal increment_offset
4676	3F8C  0C001EDA             jal load_patterns
4677	3F90  02319025             or $18, $17, $17
4678	3F94  21F269E2             addi $18, $15, 27106
4679	3F98  AFB20000             sw $18, 0($29)
4680	3F9C  0C001EE5             jal increment_offset
4681	3FA0  0C001EDA             jal load_patterns
4682	3FA4  02319025             or $18, $17, $17
4683	3FA8  21F2481D             addi $18, $15, 18461
4684	3FAC  AFB20000             sw $18, 0($29)
4685	3FB0  0C001EE5             jal increment_offset
4686	3FB4  0C001EDA             jal load_patterns
4687	3FB8  02319025             or $18, $17, $17
4688	3FBC  21F24987             addi $18, $15, 18823
4689	3FC0  AFB20000             sw $18, 0($29)
4690	3FC4  0C001EE5             jal increment_offset
4691	3FC8  0C001EDA             jal load_patterns
4692	3FCC  02319025             or $18, $17, $17
4693	3FD0  21F27A49             addi $18, $15, 31305
4694	3FD4  AFB20000             sw $18, 0($29)
4695	3FD8  0C001EE5             jal increment_offset
4696	3FDC  0C001EDA             jal load_patterns
4697	3FE0  02319025             or $18, $17, $17
4698	3FE4  21F2AF83             addi $18, $15, 44931
4699	3FE8  AFB20000             sw $18, 0($29)
4700	3FEC  0C001EE5             jal increment_offset
4701	3FF0  0C001EDA             jal load_patterns
4702	3FF4  02319025             or $18, $17, $17
4703	3FF8  21F2A2DF             addi $18, $15, 41695
4704	3FFC  AFB20000             sw $18, 0($29)
4705	4000  0C001EE5             jal increment_offset
4706	4004  0C001EDA             jal load_patterns
4707	4008  02319025             or $18, $17, $17
4708	400C  21F202AD             addi $18, $15, 685
4709	4010  AFB20000             sw $18, 0($29)
4710	4014  0C001EE5             jal increment_offset
4711	4018  0C001EDA             jal load_patterns
4712	401C  02319025             or $18, $17, $17
4713	4020  21F25D70             addi $18, $15, 23920
4714	4024  AFB20000             sw $18, 0($29)
4715	4028  0C001EE5             jal increment_offset
4716	402C  0C001EDA             jal load_patterns
4717	4030  02319025             or $18, $17, $17
4718	4034  21F27410             addi $18, $15, 29712
4719	4038  AFB20000             sw $18, 0($29)
4720	403C  0C001EE5             jal increment_offset
4721	4040  0C001EDA             jal load_patterns
4722	4044  02319025             or $18, $17, $17
4723	4048  21F2D17E             addi $18, $15, 53630
4724	404C  AFB20000             sw $18, 0($29)
4725	4050  0C001EE5             jal increment_offset
4726	4054  0C001EDA             jal load_patterns
4727	4058  02319025             or $18, $17, $17
4728	405C  21F2AB28             addi $18, $15, 43816
4729	4060  AFB20000             sw $18, 0($29)
4730	4064  0C001EE5             jal increment_offset
4731	4068  0C001EDA             jal load_patterns
4732	406C  02319025             or $18, $17, $17
4733	4070  21F2A1AF             addi $18, $15, 41391
4734	4074  AFB20000             sw $18, 0($29)
4735	4078  0C001EE5             jal increment_offset
4736	407C  0C001EDA             jal load_patterns
4737	4080  02319025             or $18, $17, $17
4738	4084  21F21A1F             addi $18, $15, 6687
4739	4088  AFB20000             sw $18, 0($29)
4740	408C  0C001EE5             jal increment_offset
4741	4090  0C001EDA             jal load_patterns
4742	4094  02319025             or $18, $17, $17
4743	4098  21F22369             addi $18, $15, 9065
4744	409C  AFB20000             sw $18, 0($29)
4745	40A0  0C001EE5             jal increment_offset
4746	40A4  0C001EDA             jal load_patterns
4747	40A8  02319025             or $18, $17, $17
4748	40AC  21F2AFBE             addi $18, $15, 44990
4749	40B0  AFB20000             sw $18, 0($29)
4750	40B4  0C001EE5             jal increment_offset
4751	40B8  0C001EDA             jal load_patterns
4752	40BC  02319025             or $18, $17, $17
4753	40C0  21F26877             addi $18, $15, 26743
4754	40C4  AFB20000             sw $18, 0($29)
4755	40C8  0C001EE5             jal increment_offset
4756	40CC  0C001EDA             jal load_patterns
4757	40D0  02319025             or $18, $17, $17
4758	40D4  21F2FBA0             addi $18, $15, 64416
4759	40D8  AFB20000             sw $18, 0($29)
4760	40DC  0C001EE5             jal increment_offset
4761	40E0  0C001EDA             jal load_patterns
4762	40E4  02319025             or $18, $17, $17
4763	40E8  21F2CFF9             addi $18, $15, 53241
4764	40EC  AFB20000             sw $18, 0($29)
4765	40F0  0C001EE5             jal increment_offset
4766	40F4  0C001EDA             jal load_patterns
4767	40F8  02319025             or $18, $17, $17
4768	40FC  21F2B14E             addi $18, $15, 45390
4769	4100  AFB20000             sw $18, 0($29)
4770	4104  0C001EE5             jal increment_offset
4771	4108  0C001EDA             jal load_patterns
4772	410C  02319025             or $18, $17, $17
4773	4110  21F28ACC             addi $18, $15, 35532
4774	4114  AFB20000             sw $18, 0($29)
4775	4118  0C001EE5             jal increment_offset
4776	411C  0C001EDA             jal load_patterns
4777	4120  02319025             or $18, $17, $17
4778	4124  21F20159             addi $18, $15, 345
4779	4128  AFB20000             sw $18, 0($29)
4780	412C  0C001EE5             jal increment_offset
4781	4130  0C001EDA             jal load_patterns
4782	4134  02319025             or $18, $17, $17
4783	4138  21F25882             addi $18, $15, 22658
4784	413C  AFB20000             sw $18, 0($29)
4785	4140  0C001EE5             jal increment_offset
4786	4144  0C001EDA             jal load_patterns
4787	4148  02319025             or $18, $17, $17
4788	414C  21F21EC8             addi $18, $15, 7880
4789	4150  AFB20000             sw $18, 0($29)
4790	4154  0C001EE5             jal increment_offset
4791	4158  0C001EDA             jal load_patterns
4792	415C  02319025             or $18, $17, $17
4793	4160  21F2D51C             addi $18, $15, 54556
4794	4164  AFB20000             sw $18, 0($29)
4795	4168  0C001EE5             jal increment_offset
4796	416C  0C001EDA             jal load_patterns
4797	4170  02319025             or $18, $17, $17
4798	4174  21F2C4E8             addi $18, $15, 50408
4799	4178  AFB20000             sw $18, 0($29)
4800	417C  0C001EE5             jal increment_offset
4801	4180  0C001EDA             jal load_patterns
4802	4184  02319025             or $18, $17, $17
4803	4188  21F25CB0             addi $18, $15, 23728
4804	418C  AFB20000             sw $18, 0($29)
4805	4190  0C001EE5             jal increment_offset
4806	4194  0C001EDA             jal load_patterns
4807	4198  02319025             or $18, $17, $17
4808	419C  21F206C5             addi $18, $15, 1733
4809	41A0  AFB20000             sw $18, 0($29)
4810	41A4  0C001EE5             jal increment_offset
4811	41A8  0C001EDA             jal load_patterns
4812	41AC  02319025             or $18, $17, $17
4813	41B0  21F287AA             addi $18, $15, 34730
4814	41B4  AFB20000             sw $18, 0($29)
4815	41B8  0C001EE5             jal increment_offset
4816	41BC  0C001EDA             jal load_patterns
4817	41C0  02319025             or $18, $17, $17
4818	41C4  21F2FAC3             addi $18, $15, 64195
4819	41C8  AFB20000             sw $18, 0($29)
4820	41CC  0C001EE5             jal increment_offset
4821	41D0  0C001EDA             jal load_patterns
4822	41D4  02319025             or $18, $17, $17
4823	41D8  21F2DB2C             addi $18, $15, 56108
4824	41DC  AFB20000             sw $18, 0($29)
4825	41E0  0C001EE5             jal increment_offset
4826	41E4  0C001EDA             jal load_patterns
4827	41E8  02319025             or $18, $17, $17
4828	41EC  21F2FC93             addi $18, $15, 64659
4829	41F0  AFB20000             sw $18, 0($29)
4830	41F4  0C001EE5             jal increment_offset
4831	                          
4832	41F8  0C001EDD            jal reset_offsets
4833	                          operation_mtc0:
4834	41FC  0C001EDA             jal load_patterns
4835	4200  02319025             or $18, $17, $17
4836	4204  408F6000             mtc0 $15, $12
4837	4208  40906800             mtc0 $16, $13
4838	420C  E3AC0000             swc0 $12, 0($29)
4839	4210  E3AD0004             swc0 $13, 4($29)
4840	4214  0C001EE5             jal increment_offset
4841	4218  177CFFF9             bne $27, $28, operation_mtc0
4842	                          
4843	421C  0C001EDD            jal reset_offsets
4844	                          operation_mfc0:
4845	4220  0C001EDA             jal load_patterns
4846	4224  02319025             or $18, $17, $17
4847	4228  408F6000             mtc0 $15, $12
4848	422C  400C9000             mfc0 $18, $12
4849	4230  AFB20000             sw $18, 0($29)
4850	4234  40906800             mtc0 $16, $13
4851	4238  400D9000             mfc0 $18, $13
4852	423C  AFB20004             sw $18, 4($29)
4853	4240  0C001EE5             jal increment_offset
4854	4244  177CFFF7             bne $27, $28, operation_mfc0
4855	                          
4856	4248  0C001EDD            jal reset_offsets
4857	                          operation_lw_sw:
4858	424C  8FD20000             lw $18, 0($30)
4859	4250  AFB20000             sw $18, 0($29)
4860	4254  0C001EE5             jal increment_offset
4861	4258  177CFFFD             bne $27, $28, operation_lw_sw
4862	                          
4863	425C  0C001EDD            jal reset_offsets
4864	                          operation_lw0_sw0:
4865	4260  C3CE0000             lwc0 $14, 0($30)
4866	4264  C3CF0004             lwc0 $15, 4($30)
4867	4268  E3AE0000             swc0 $14, 0($29)
4868	426C  E3AF0004             swc0 $15, 4($29)
4869	4270  0C001EE5             jal increment_offset
4870	4274  177CFFFB             bne $27, $28, operation_lw0_sw0
4871	                          
4872	4278  0C001EDD            jal reset_offsets
4873	                          operation_beq:
4874	427C  0C00273B             jal load_branch
4875	4280  0C001EF8             jal branch_beq
4876	4284  0C001EE5             jal increment_offset
4877	4288  177AFFFD             bne $27, $26, operation_beq
4878	                          
4879	428C  0C001EDD            jal reset_offsets
4880	                          operation_bne:
4881	4290  0C00273B             jal load_branch
4882	4294  0C001EFD             jal branch_bne
4883	4298  0C001EE5             jal increment_offset
4884	429C  177AFFFD             bne $27, $26, operation_bne
4885	                          
4886	42A0  0C001EDD            jal reset_offsets
4887	                          operation_bgez:
4888	42A4  0C00273B             jal load_branch
4889	42A8  0C001F02             jal branch_bgez
4890	42AC  0C001EE5             jal increment_offset
4891	42B0  177AFFFD             bne $27, $26, operation_bgez
4892	                          
4893	42B4  0C001EDD            jal reset_offsets
4894	                          operation_bgezal:
4895	42B8  0C00273B             jal load_branch
4896	42BC  0C001F07             jal branch_bgezal
4897	42C0  0C001EE5             jal increment_offset
4898	42C4  177AFFFD             bne $27, $26, operation_bgezal
4899	                          
4900	42C8  0C001EDD            jal reset_offsets
4901	                          operation_bgtz:
4902	42CC  0C00273B             jal load_branch
4903	42D0  0C001F0C             jal branch_bgtz
4904	42D4  0C001EE5             jal increment_offset
4905	42D8  177AFFFD             bne $27, $26, operation_bgtz
4906	                          
4907	42DC  0C001EDD            jal reset_offsets
4908	                          operation_blez:
4909	42E0  0C00273B             jal load_branch
4910	42E4  0C001F11             jal branch_blez
4911	42E8  0C001EE5             jal increment_offset
4912	42EC  177AFFFD             bne $27, $26, operation_blez
4913	                          
4914	42F0  0C001EDD            jal reset_offsets
4915	                          operation_bltz:
4916	42F4  0C00273B             jal load_branch
4917	42F8  0C001F16             jal branch_bltz
4918	42FC  0C001EE5             jal increment_offset
4919	4300  177AFFFD             bne $27, $26, operation_bltz
4920	                          
4921	4304  0C001EDD            jal reset_offsets
4922	                          operation_bltzal:
4923	4308  0C00273B             jal load_branch
4924	430C  0C001F1B             jal branch_bltzal
4925	4310  0C001EE5             jal increment_offset
4926	4314  177AFFFD             bne $27, $26, operation_bltzal
4927	                          
4928	4318  0C001EDD            jal reset_offsets
4929	                          operation_immediate:
4930	431C  0C001EDA             jal load_patterns
4931	4320  02319025             or $18, $17, $17
4932	4324  25F2C9F5             addiu $18, $15, 51701
4933	4328  AFB20000             sw $18, 0($29)
4934	432C  3C11FFFD             lui $17, 65533
4935	4330  3631FFFD             ori $17, $17, 65533
4936	4334  3C140000             lui $20, 0
4937	4338  36940000             ori $20, $20, 0
4938	433C  26920000             addiu $18, $20, 0
4939	4340  AFB20004             sw $18, 4($29)
4940	4344  02319025             or $18, $17, $17
4941	4348  31F2C9F5             andi $18, $15, 51701
4942	434C  AFB20008             sw $18, 8($29)
4943	4350  3C11FFFD             lui $17, 65533
4944	4354  3631FFFD             ori $17, $17, 65533
4945	4358  3C140000             lui $20, 0
4946	435C  36940000             ori $20, $20, 0
4947	4360  32920000             andi $18, $20, 0
4948	4364  AFB2000C             sw $18, 12($29)
4949	4368  02319025             or $18, $17, $17
4950	436C  35F2C9F5             ori $18, $15, 51701
4951	4370  AFB20010             sw $18, 16($29)
4952	4374  3C11FFFD             lui $17, 65533
4953	4378  3631FFFD             ori $17, $17, 65533
4954	437C  3C140000             lui $20, 0
4955	4380  36940000             ori $20, $20, 0
4956	4384  36920000             ori $18, $20, 0
4957	4388  AFB20014             sw $18, 20($29)
4958	438C  02319025             or $18, $17, $17
4959	4390  29F2C9F5             slti $18, $15, 51701
4960	4394  AFB20018             sw $18, 24($29)
4961	4398  3C11FFFD             lui $17, 65533
4962	439C  3631FFFD             ori $17, $17, 65533
4963	43A0  3C140000             lui $20, 0
4964	43A4  36940000             ori $20, $20, 0
4965	43A8  2A920000             slti $18, $20, 0
4966	43AC  AFB2001C             sw $18, 28($29)
4967	43B0  02319025             or $18, $17, $17
4968	43B4  29F2C9F5             sltiu $18, $15, 51701
4969	43B8  AFB20020             sw $18, 32($29)
4970	43BC  3C11FFFD             lui $17, 65533
4971	43C0  3631FFFD             ori $17, $17, 65533
4972	43C4  3C140000             lui $20, 0
4973	43C8  36940000             ori $20, $20, 0
4974	43CC  2A920000             sltiu $18, $20, 0
4975	43D0  AFB20024             sw $18, 36($29)
4976	43D4  02319025             or $18, $17, $17
4977	43D8  39F2C9F5             xori $18, $15, 51701
4978	43DC  AFB20028             sw $18, 40($29)
4979	43E0  3C11FFFD             lui $17, 65533
4980	43E4  3631FFFD             ori $17, $17, 65533
4981	43E8  3C140000             lui $20, 0
4982	43EC  36940000             ori $20, $20, 0
4983	43F0  3A920000             xori $18, $20, 0
4984	43F4  AFB2002C             sw $18, 44($29)
4985	43F8  0C001EE5             jal increment_offset
4986	43FC  0C001EDA             jal load_patterns
4987	4400  02319025             or $18, $17, $17
4988	4404  25F23471             addiu $18, $15, 13425
4989	4408  AFB20034             sw $18, 52($29)
4990	440C  3C11FFFD             lui $17, 65533
4991	4410  3631FFFD             ori $17, $17, 65533
4992	4414  3C140000             lui $20, 0
4993	4418  36940000             ori $20, $20, 0
4994	441C  26920000             addiu $18, $20, 0
4995	4420  AFB20038             sw $18, 56($29)
4996	4424  02319025             or $18, $17, $17
4997	4428  31F23471             andi $18, $15, 13425
4998	442C  AFB2003C             sw $18, 60($29)
4999	4430  3C11FFFD             lui $17, 65533
5000	4434  3631FFFD             ori $17, $17, 65533
5001	4438  3C140000             lui $20, 0
5002	443C  36940000             ori $20, $20, 0
5003	4440  32920000             andi $18, $20, 0
5004	4444  AFB20040             sw $18, 64($29)
5005	4448  02319025             or $18, $17, $17
5006	444C  35F23471             ori $18, $15, 13425
5007	4450  AFB20044             sw $18, 68($29)
5008	4454  3C11FFFD             lui $17, 65533
5009	4458  3631FFFD             ori $17, $17, 65533
5010	445C  3C140000             lui $20, 0
5011	4460  36940000             ori $20, $20, 0
5012	4464  36920000             ori $18, $20, 0
5013	4468  AFB20048             sw $18, 72($29)
5014	446C  02319025             or $18, $17, $17
5015	4470  29F23471             slti $18, $15, 13425
5016	4474  AFB2004C             sw $18, 76($29)
5017	4478  3C11FFFD             lui $17, 65533
5018	447C  3631FFFD             ori $17, $17, 65533
5019	4480  3C140000             lui $20, 0
5020	4484  36940000             ori $20, $20, 0
5021	4488  2A920000             slti $18, $20, 0
5022	448C  AFB20050             sw $18, 80($29)
5023	4490  02319025             or $18, $17, $17
5024	4494  29F23471             sltiu $18, $15, 13425
5025	4498  AFB20054             sw $18, 84($29)
5026	449C  3C11FFFD             lui $17, 65533
5027	44A0  3631FFFD             ori $17, $17, 65533
5028	44A4  3C140000             lui $20, 0
5029	44A8  36940000             ori $20, $20, 0
5030	44AC  2A920000             sltiu $18, $20, 0
5031	44B0  AFB20058             sw $18, 88($29)
5032	44B4  02319025             or $18, $17, $17
5033	44B8  39F23471             xori $18, $15, 13425
5034	44BC  AFB2005C             sw $18, 92($29)
5035	44C0  3C11FFFD             lui $17, 65533
5036	44C4  3631FFFD             ori $17, $17, 65533
5037	44C8  3C140000             lui $20, 0
5038	44CC  36940000             ori $20, $20, 0
5039	44D0  3A920000             xori $18, $20, 0
5040	44D4  AFB20060             sw $18, 96($29)
5041	44D8  0C001EE5             jal increment_offset
5042	44DC  0C001EDA             jal load_patterns
5043	44E0  02319025             or $18, $17, $17
5044	44E4  25F210BD             addiu $18, $15, 4285
5045	44E8  AFB20068             sw $18, 104($29)
5046	44EC  3C11FFFD             lui $17, 65533
5047	44F0  3631FFFD             ori $17, $17, 65533
5048	44F4  3C140000             lui $20, 0
5049	44F8  36940000             ori $20, $20, 0
5050	44FC  26920000             addiu $18, $20, 0
5051	4500  AFB2006C             sw $18, 108($29)
5052	4504  02319025             or $18, $17, $17
5053	4508  31F210BD             andi $18, $15, 4285
5054	450C  AFB20070             sw $18, 112($29)
5055	4510  3C11FFFD             lui $17, 65533
5056	4514  3631FFFD             ori $17, $17, 65533
5057	4518  3C140000             lui $20, 0
5058	451C  36940000             ori $20, $20, 0
5059	4520  32920000             andi $18, $20, 0
5060	4524  AFB20074             sw $18, 116($29)
5061	4528  02319025             or $18, $17, $17
5062	452C  35F210BD             ori $18, $15, 4285
5063	4530  AFB20078             sw $18, 120($29)
5064	4534  3C11FFFD             lui $17, 65533
5065	4538  3631FFFD             ori $17, $17, 65533
5066	453C  3C140000             lui $20, 0
5067	4540  36940000             ori $20, $20, 0
5068	4544  36920000             ori $18, $20, 0
5069	4548  AFB2007C             sw $18, 124($29)
5070	454C  02319025             or $18, $17, $17
5071	4550  29F210BD             slti $18, $15, 4285
5072	4554  AFB20080             sw $18, 128($29)
5073	4558  3C11FFFD             lui $17, 65533
5074	455C  3631FFFD             ori $17, $17, 65533
5075	4560  3C140000             lui $20, 0
5076	4564  36940000             ori $20, $20, 0
5077	4568  2A920000             slti $18, $20, 0
5078	456C  AFB20084             sw $18, 132($29)
5079	4570  02319025             or $18, $17, $17
5080	4574  29F210BD             sltiu $18, $15, 4285
5081	4578  AFB20088             sw $18, 136($29)
5082	457C  3C11FFFD             lui $17, 65533
5083	4580  3631FFFD             ori $17, $17, 65533
5084	4584  3C140000             lui $20, 0
5085	4588  36940000             ori $20, $20, 0
5086	458C  2A920000             sltiu $18, $20, 0
5087	4590  AFB2008C             sw $18, 140($29)
5088	4594  02319025             or $18, $17, $17
5089	4598  39F210BD             xori $18, $15, 4285
5090	459C  AFB20090             sw $18, 144($29)
5091	45A0  3C11FFFD             lui $17, 65533
5092	45A4  3631FFFD             ori $17, $17, 65533
5093	45A8  3C140000             lui $20, 0
5094	45AC  36940000             ori $20, $20, 0
5095	45B0  3A920000             xori $18, $20, 0
5096	45B4  AFB20094             sw $18, 148($29)
5097	45B8  0C001EE5             jal increment_offset
5098	45BC  0C001EDA             jal load_patterns
5099	45C0  02319025             or $18, $17, $17
5100	45C4  25F2B496             addiu $18, $15, 46230
5101	45C8  AFB2009C             sw $18, 156($29)
5102	45CC  3C11FFFD             lui $17, 65533
5103	45D0  3631FFFD             ori $17, $17, 65533
5104	45D4  3C140000             lui $20, 0
5105	45D8  36940000             ori $20, $20, 0
5106	45DC  26920000             addiu $18, $20, 0
5107	45E0  AFB200A0             sw $18, 160($29)
5108	45E4  02319025             or $18, $17, $17
5109	45E8  31F2B496             andi $18, $15, 46230
5110	45EC  AFB200A4             sw $18, 164($29)
5111	45F0  3C11FFFD             lui $17, 65533
5112	45F4  3631FFFD             ori $17, $17, 65533
5113	45F8  3C140000             lui $20, 0
5114	45FC  36940000             ori $20, $20, 0
5115	4600  32920000             andi $18, $20, 0
5116	4604  AFB200A8             sw $18, 168($29)
5117	4608  02319025             or $18, $17, $17
5118	460C  35F2B496             ori $18, $15, 46230
5119	4610  AFB200AC             sw $18, 172($29)
5120	4614  3C11FFFD             lui $17, 65533
5121	4618  3631FFFD             ori $17, $17, 65533
5122	461C  3C140000             lui $20, 0
5123	4620  36940000             ori $20, $20, 0
5124	4624  36920000             ori $18, $20, 0
5125	4628  AFB200B0             sw $18, 176($29)
5126	462C  02319025             or $18, $17, $17
5127	4630  29F2B496             slti $18, $15, 46230
5128	4634  AFB200B4             sw $18, 180($29)
5129	4638  3C11FFFD             lui $17, 65533
5130	463C  3631FFFD             ori $17, $17, 65533
5131	4640  3C140000             lui $20, 0
5132	4644  36940000             ori $20, $20, 0
5133	4648  2A920000             slti $18, $20, 0
5134	464C  AFB200B8             sw $18, 184($29)
5135	4650  02319025             or $18, $17, $17
5136	4654  29F2B496             sltiu $18, $15, 46230
5137	4658  AFB200BC             sw $18, 188($29)
5138	465C  3C11FFFD             lui $17, 65533
5139	4660  3631FFFD             ori $17, $17, 65533
5140	4664  3C140000             lui $20, 0
5141	4668  36940000             ori $20, $20, 0
5142	466C  2A920000             sltiu $18, $20, 0
5143	4670  AFB200C0             sw $18, 192($29)
5144	4674  02319025             or $18, $17, $17
5145	4678  39F2B496             xori $18, $15, 46230
5146	467C  AFB200C4             sw $18, 196($29)
5147	4680  3C11FFFD             lui $17, 65533
5148	4684  3631FFFD             ori $17, $17, 65533
5149	4688  3C140000             lui $20, 0
5150	468C  36940000             ori $20, $20, 0
5151	4690  3A920000             xori $18, $20, 0
5152	4694  AFB200C8             sw $18, 200($29)
5153	4698  0C001EE5             jal increment_offset
5154	469C  0C001EDA             jal load_patterns
5155	46A0  02319025             or $18, $17, $17
5156	46A4  25F25773             addiu $18, $15, 22387
5157	46A8  AFB200D0             sw $18, 208($29)
5158	46AC  3C11FFFD             lui $17, 65533
5159	46B0  3631FFFD             ori $17, $17, 65533
5160	46B4  3C140000             lui $20, 0
5161	46B8  36940000             ori $20, $20, 0
5162	46BC  26920000             addiu $18, $20, 0
5163	46C0  AFB200D4             sw $18, 212($29)
5164	46C4  02319025             or $18, $17, $17
5165	46C8  31F25773             andi $18, $15, 22387
5166	46CC  AFB200D8             sw $18, 216($29)
5167	46D0  3C11FFFD             lui $17, 65533
5168	46D4  3631FFFD             ori $17, $17, 65533
5169	46D8  3C140000             lui $20, 0
5170	46DC  36940000             ori $20, $20, 0
5171	46E0  32920000             andi $18, $20, 0
5172	46E4  AFB200DC             sw $18, 220($29)
5173	46E8  02319025             or $18, $17, $17
5174	46EC  35F25773             ori $18, $15, 22387
5175	46F0  AFB200E0             sw $18, 224($29)
5176	46F4  3C11FFFD             lui $17, 65533
5177	46F8  3631FFFD             ori $17, $17, 65533
5178	46FC  3C140000             lui $20, 0
5179	4700  36940000             ori $20, $20, 0
5180	4704  36920000             ori $18, $20, 0
5181	4708  AFB200E4             sw $18, 228($29)
5182	470C  02319025             or $18, $17, $17
5183	4710  29F25773             slti $18, $15, 22387
5184	4714  AFB200E8             sw $18, 232($29)
5185	4718  3C11FFFD             lui $17, 65533
5186	471C  3631FFFD             ori $17, $17, 65533
5187	4720  3C140000             lui $20, 0
5188	4724  36940000             ori $20, $20, 0
5189	4728  2A920000             slti $18, $20, 0
5190	472C  AFB200EC             sw $18, 236($29)
5191	4730  02319025             or $18, $17, $17
5192	4734  29F25773             sltiu $18, $15, 22387
5193	4738  AFB200F0             sw $18, 240($29)
5194	473C  3C11FFFD             lui $17, 65533
5195	4740  3631FFFD             ori $17, $17, 65533
5196	4744  3C140000             lui $20, 0
5197	4748  36940000             ori $20, $20, 0
5198	474C  2A920000             sltiu $18, $20, 0
5199	4750  AFB200F4             sw $18, 244($29)
5200	4754  02319025             or $18, $17, $17
5201	4758  39F25773             xori $18, $15, 22387
5202	475C  AFB200F8             sw $18, 248($29)
5203	4760  3C11FFFD             lui $17, 65533
5204	4764  3631FFFD             ori $17, $17, 65533
5205	4768  3C140000             lui $20, 0
5206	476C  36940000             ori $20, $20, 0
5207	4770  3A920000             xori $18, $20, 0
5208	4774  AFB200FC             sw $18, 252($29)
5209	4778  0C001EE5             jal increment_offset
5210	477C  0C001EDA             jal load_patterns
5211	4780  02319025             or $18, $17, $17
5212	4784  25F2496F             addiu $18, $15, 18799
5213	4788  AFB20104             sw $18, 260($29)
5214	478C  3C11FFFD             lui $17, 65533
5215	4790  3631FFFD             ori $17, $17, 65533
5216	4794  3C140000             lui $20, 0
5217	4798  36940000             ori $20, $20, 0
5218	479C  26920000             addiu $18, $20, 0
5219	47A0  AFB20108             sw $18, 264($29)
5220	47A4  02319025             or $18, $17, $17
5221	47A8  31F2496F             andi $18, $15, 18799
5222	47AC  AFB2010C             sw $18, 268($29)
5223	47B0  3C11FFFD             lui $17, 65533
5224	47B4  3631FFFD             ori $17, $17, 65533
5225	47B8  3C140000             lui $20, 0
5226	47BC  36940000             ori $20, $20, 0
5227	47C0  32920000             andi $18, $20, 0
5228	47C4  AFB20110             sw $18, 272($29)
5229	47C8  02319025             or $18, $17, $17
5230	47CC  35F2496F             ori $18, $15, 18799
5231	47D0  AFB20114             sw $18, 276($29)
5232	47D4  3C11FFFD             lui $17, 65533
5233	47D8  3631FFFD             ori $17, $17, 65533
5234	47DC  3C140000             lui $20, 0
5235	47E0  36940000             ori $20, $20, 0
5236	47E4  36920000             ori $18, $20, 0
5237	47E8  AFB20118             sw $18, 280($29)
5238	47EC  02319025             or $18, $17, $17
5239	47F0  29F2496F             slti $18, $15, 18799
5240	47F4  AFB2011C             sw $18, 284($29)
5241	47F8  3C11FFFD             lui $17, 65533
5242	47FC  3631FFFD             ori $17, $17, 65533
5243	4800  3C140000             lui $20, 0
5244	4804  36940000             ori $20, $20, 0
5245	4808  2A920000             slti $18, $20, 0
5246	480C  AFB20120             sw $18, 288($29)
5247	4810  02319025             or $18, $17, $17
5248	4814  29F2496F             sltiu $18, $15, 18799
5249	4818  AFB20124             sw $18, 292($29)
5250	481C  3C11FFFD             lui $17, 65533
5251	4820  3631FFFD             ori $17, $17, 65533
5252	4824  3C140000             lui $20, 0
5253	4828  36940000             ori $20, $20, 0
5254	482C  2A920000             sltiu $18, $20, 0
5255	4830  AFB20128             sw $18, 296($29)
5256	4834  02319025             or $18, $17, $17
5257	4838  39F2496F             xori $18, $15, 18799
5258	483C  AFB2012C             sw $18, 300($29)
5259	4840  3C11FFFD             lui $17, 65533
5260	4844  3631FFFD             ori $17, $17, 65533
5261	4848  3C140000             lui $20, 0
5262	484C  36940000             ori $20, $20, 0
5263	4850  3A920000             xori $18, $20, 0
5264	4854  AFB20130             sw $18, 304($29)
5265	4858  0C001EE5             jal increment_offset
5266	485C  0C001EDA             jal load_patterns
5267	4860  02319025             or $18, $17, $17
5268	4864  25F2C2E1             addiu $18, $15, 49889
5269	4868  AFB20138             sw $18, 312($29)
5270	486C  3C11FFFD             lui $17, 65533
5271	4870  3631FFFD             ori $17, $17, 65533
5272	4874  3C140000             lui $20, 0
5273	4878  36940000             ori $20, $20, 0
5274	487C  26920000             addiu $18, $20, 0
5275	4880  AFB2013C             sw $18, 316($29)
5276	4884  02319025             or $18, $17, $17
5277	4888  31F2C2E1             andi $18, $15, 49889
5278	488C  AFB20140             sw $18, 320($29)
5279	4890  3C11FFFD             lui $17, 65533
5280	4894  3631FFFD             ori $17, $17, 65533
5281	4898  3C140000             lui $20, 0
5282	489C  36940000             ori $20, $20, 0
5283	48A0  32920000             andi $18, $20, 0
5284	48A4  AFB20144             sw $18, 324($29)
5285	48A8  02319025             or $18, $17, $17
5286	48AC  35F2C2E1             ori $18, $15, 49889
5287	48B0  AFB20148             sw $18, 328($29)
5288	48B4  3C11FFFD             lui $17, 65533
5289	48B8  3631FFFD             ori $17, $17, 65533
5290	48BC  3C140000             lui $20, 0
5291	48C0  36940000             ori $20, $20, 0
5292	48C4  36920000             ori $18, $20, 0
5293	48C8  AFB2014C             sw $18, 332($29)
5294	48CC  02319025             or $18, $17, $17
5295	48D0  29F2C2E1             slti $18, $15, 49889
5296	48D4  AFB20150             sw $18, 336($29)
5297	48D8  3C11FFFD             lui $17, 65533
5298	48DC  3631FFFD             ori $17, $17, 65533
5299	48E0  3C140000             lui $20, 0
5300	48E4  36940000             ori $20, $20, 0
5301	48E8  2A920000             slti $18, $20, 0
5302	48EC  AFB20154             sw $18, 340($29)
5303	48F0  02319025             or $18, $17, $17
5304	48F4  29F2C2E1             sltiu $18, $15, 49889
5305	48F8  AFB20158             sw $18, 344($29)
5306	48FC  3C11FFFD             lui $17, 65533
5307	4900  3631FFFD             ori $17, $17, 65533
5308	4904  3C140000             lui $20, 0
5309	4908  36940000             ori $20, $20, 0
5310	490C  2A920000             sltiu $18, $20, 0
5311	4910  AFB2015C             sw $18, 348($29)
5312	4914  02319025             or $18, $17, $17
5313	4918  39F2C2E1             xori $18, $15, 49889
5314	491C  AFB20160             sw $18, 352($29)
5315	4920  3C11FFFD             lui $17, 65533
5316	4924  3631FFFD             ori $17, $17, 65533
5317	4928  3C140000             lui $20, 0
5318	492C  36940000             ori $20, $20, 0
5319	4930  3A920000             xori $18, $20, 0
5320	4934  AFB20164             sw $18, 356($29)
5321	4938  0C001EE5             jal increment_offset
5322	493C  0C001EDA             jal load_patterns
5323	4940  02319025             or $18, $17, $17
5324	4944  25F28CB7             addiu $18, $15, 36023
5325	4948  AFB2016C             sw $18, 364($29)
5326	494C  3C11FFFD             lui $17, 65533
5327	4950  3631FFFD             ori $17, $17, 65533
5328	4954  3C140000             lui $20, 0
5329	4958  36940000             ori $20, $20, 0
5330	495C  26920000             addiu $18, $20, 0
5331	4960  AFB20170             sw $18, 368($29)
5332	4964  02319025             or $18, $17, $17
5333	4968  31F28CB7             andi $18, $15, 36023
5334	496C  AFB20174             sw $18, 372($29)
5335	4970  3C11FFFD             lui $17, 65533
5336	4974  3631FFFD             ori $17, $17, 65533
5337	4978  3C140000             lui $20, 0
5338	497C  36940000             ori $20, $20, 0
5339	4980  32920000             andi $18, $20, 0
5340	4984  AFB20178             sw $18, 376($29)
5341	4988  02319025             or $18, $17, $17
5342	498C  35F28CB7             ori $18, $15, 36023
5343	4990  AFB2017C             sw $18, 380($29)
5344	4994  3C11FFFD             lui $17, 65533
5345	4998  3631FFFD             ori $17, $17, 65533
5346	499C  3C140000             lui $20, 0
5347	49A0  36940000             ori $20, $20, 0
5348	49A4  36920000             ori $18, $20, 0
5349	49A8  AFB20180             sw $18, 384($29)
5350	49AC  02319025             or $18, $17, $17
5351	49B0  29F28CB7             slti $18, $15, 36023
5352	49B4  AFB20184             sw $18, 388($29)
5353	49B8  3C11FFFD             lui $17, 65533
5354	49BC  3631FFFD             ori $17, $17, 65533
5355	49C0  3C140000             lui $20, 0
5356	49C4  36940000             ori $20, $20, 0
5357	49C8  2A920000             slti $18, $20, 0
5358	49CC  AFB20188             sw $18, 392($29)
5359	49D0  02319025             or $18, $17, $17
5360	49D4  29F28CB7             sltiu $18, $15, 36023
5361	49D8  AFB2018C             sw $18, 396($29)
5362	49DC  3C11FFFD             lui $17, 65533
5363	49E0  3631FFFD             ori $17, $17, 65533
5364	49E4  3C140000             lui $20, 0
5365	49E8  36940000             ori $20, $20, 0
5366	49EC  2A920000             sltiu $18, $20, 0
5367	49F0  AFB20190             sw $18, 400($29)
5368	49F4  02319025             or $18, $17, $17
5369	49F8  39F28CB7             xori $18, $15, 36023
5370	49FC  AFB20194             sw $18, 404($29)
5371	4A00  3C11FFFD             lui $17, 65533
5372	4A04  3631FFFD             ori $17, $17, 65533
5373	4A08  3C140000             lui $20, 0
5374	4A0C  36940000             ori $20, $20, 0
5375	4A10  3A920000             xori $18, $20, 0
5376	4A14  AFB20198             sw $18, 408($29)
5377	4A18  0C001EE5             jal increment_offset
5378	4A1C  0C001EDA             jal load_patterns
5379	4A20  02319025             or $18, $17, $17
5380	4A24  25F2356A             addiu $18, $15, 13674
5381	4A28  AFB201A0             sw $18, 416($29)
5382	4A2C  3C11FFFD             lui $17, 65533
5383	4A30  3631FFFD             ori $17, $17, 65533
5384	4A34  3C140000             lui $20, 0
5385	4A38  36940000             ori $20, $20, 0
5386	4A3C  26920000             addiu $18, $20, 0
5387	4A40  AFB201A4             sw $18, 420($29)
5388	4A44  02319025             or $18, $17, $17
5389	4A48  31F2356A             andi $18, $15, 13674
5390	4A4C  AFB201A8             sw $18, 424($29)
5391	4A50  3C11FFFD             lui $17, 65533
5392	4A54  3631FFFD             ori $17, $17, 65533
5393	4A58  3C140000             lui $20, 0
5394	4A5C  36940000             ori $20, $20, 0
5395	4A60  32920000             andi $18, $20, 0
5396	4A64  AFB201AC             sw $18, 428($29)
5397	4A68  02319025             or $18, $17, $17
5398	4A6C  35F2356A             ori $18, $15, 13674
5399	4A70  AFB201B0             sw $18, 432($29)
5400	4A74  3C11FFFD             lui $17, 65533
5401	4A78  3631FFFD             ori $17, $17, 65533
5402	4A7C  3C140000             lui $20, 0
5403	4A80  36940000             ori $20, $20, 0
5404	4A84  36920000             ori $18, $20, 0
5405	4A88  AFB201B4             sw $18, 436($29)
5406	4A8C  02319025             or $18, $17, $17
5407	4A90  29F2356A             slti $18, $15, 13674
5408	4A94  AFB201B8             sw $18, 440($29)
5409	4A98  3C11FFFD             lui $17, 65533
5410	4A9C  3631FFFD             ori $17, $17, 65533
5411	4AA0  3C140000             lui $20, 0
5412	4AA4  36940000             ori $20, $20, 0
5413	4AA8  2A920000             slti $18, $20, 0
5414	4AAC  AFB201BC             sw $18, 444($29)
5415	4AB0  02319025             or $18, $17, $17
5416	4AB4  29F2356A             sltiu $18, $15, 13674
5417	4AB8  AFB201C0             sw $18, 448($29)
5418	4ABC  3C11FFFD             lui $17, 65533
5419	4AC0  3631FFFD             ori $17, $17, 65533
5420	4AC4  3C140000             lui $20, 0
5421	4AC8  36940000             ori $20, $20, 0
5422	4ACC  2A920000             sltiu $18, $20, 0
5423	4AD0  AFB201C4             sw $18, 452($29)
5424	4AD4  02319025             or $18, $17, $17
5425	4AD8  39F2356A             xori $18, $15, 13674
5426	4ADC  AFB201C8             sw $18, 456($29)
5427	4AE0  3C11FFFD             lui $17, 65533
5428	4AE4  3631FFFD             ori $17, $17, 65533
5429	4AE8  3C140000             lui $20, 0
5430	4AEC  36940000             ori $20, $20, 0
5431	4AF0  3A920000             xori $18, $20, 0
5432	4AF4  AFB201CC             sw $18, 460($29)
5433	4AF8  0C001EE5             jal increment_offset
5434	4AFC  0C001EDA             jal load_patterns
5435	4B00  02319025             or $18, $17, $17
5436	4B04  25F2EEC1             addiu $18, $15, 61121
5437	4B08  AFB201D4             sw $18, 468($29)
5438	4B0C  3C11FFFD             lui $17, 65533
5439	4B10  3631FFFD             ori $17, $17, 65533
5440	4B14  3C140000             lui $20, 0
5441	4B18  36940000             ori $20, $20, 0
5442	4B1C  26920000             addiu $18, $20, 0
5443	4B20  AFB201D8             sw $18, 472($29)
5444	4B24  02319025             or $18, $17, $17
5445	4B28  31F2EEC1             andi $18, $15, 61121
5446	4B2C  AFB201DC             sw $18, 476($29)
5447	4B30  3C11FFFD             lui $17, 65533
5448	4B34  3631FFFD             ori $17, $17, 65533
5449	4B38  3C140000             lui $20, 0
5450	4B3C  36940000             ori $20, $20, 0
5451	4B40  32920000             andi $18, $20, 0
5452	4B44  AFB201E0             sw $18, 480($29)
5453	4B48  02319025             or $18, $17, $17
5454	4B4C  35F2EEC1             ori $18, $15, 61121
5455	4B50  AFB201E4             sw $18, 484($29)
5456	4B54  3C11FFFD             lui $17, 65533
5457	4B58  3631FFFD             ori $17, $17, 65533
5458	4B5C  3C140000             lui $20, 0
5459	4B60  36940000             ori $20, $20, 0
5460	4B64  36920000             ori $18, $20, 0
5461	4B68  AFB201E8             sw $18, 488($29)
5462	4B6C  02319025             or $18, $17, $17
5463	4B70  29F2EEC1             slti $18, $15, 61121
5464	4B74  AFB201EC             sw $18, 492($29)
5465	4B78  3C11FFFD             lui $17, 65533
5466	4B7C  3631FFFD             ori $17, $17, 65533
5467	4B80  3C140000             lui $20, 0
5468	4B84  36940000             ori $20, $20, 0
5469	4B88  2A920000             slti $18, $20, 0
5470	4B8C  AFB201F0             sw $18, 496($29)
5471	4B90  02319025             or $18, $17, $17
5472	4B94  29F2EEC1             sltiu $18, $15, 61121
5473	4B98  AFB201F4             sw $18, 500($29)
5474	4B9C  3C11FFFD             lui $17, 65533
5475	4BA0  3631FFFD             ori $17, $17, 65533
5476	4BA4  3C140000             lui $20, 0
5477	4BA8  36940000             ori $20, $20, 0
5478	4BAC  2A920000             sltiu $18, $20, 0
5479	4BB0  AFB201F8             sw $18, 504($29)
5480	4BB4  02319025             or $18, $17, $17
5481	4BB8  39F2EEC1             xori $18, $15, 61121
5482	4BBC  AFB201FC             sw $18, 508($29)
5483	4BC0  3C11FFFD             lui $17, 65533
5484	4BC4  3631FFFD             ori $17, $17, 65533
5485	4BC8  3C140000             lui $20, 0
5486	4BCC  36940000             ori $20, $20, 0
5487	4BD0  3A920000             xori $18, $20, 0
5488	4BD4  AFB20200             sw $18, 512($29)
5489	4BD8  0C001EE5             jal increment_offset
5490	4BDC  0C001EDA             jal load_patterns
5491	4BE0  02319025             or $18, $17, $17
5492	4BE4  25F224B1             addiu $18, $15, 9393
5493	4BE8  AFB20208             sw $18, 520($29)
5494	4BEC  3C11FFFD             lui $17, 65533
5495	4BF0  3631FFFD             ori $17, $17, 65533
5496	4BF4  3C140000             lui $20, 0
5497	4BF8  36940000             ori $20, $20, 0
5498	4BFC  26920000             addiu $18, $20, 0
5499	4C00  AFB2020C             sw $18, 524($29)
5500	4C04  02319025             or $18, $17, $17
5501	4C08  31F224B1             andi $18, $15, 9393
5502	4C0C  AFB20210             sw $18, 528($29)
5503	4C10  3C11FFFD             lui $17, 65533
5504	4C14  3631FFFD             ori $17, $17, 65533
5505	4C18  3C140000             lui $20, 0
5506	4C1C  36940000             ori $20, $20, 0
5507	4C20  32920000             andi $18, $20, 0
5508	4C24  AFB20214             sw $18, 532($29)
5509	4C28  02319025             or $18, $17, $17
5510	4C2C  35F224B1             ori $18, $15, 9393
5511	4C30  AFB20218             sw $18, 536($29)
5512	4C34  3C11FFFD             lui $17, 65533
5513	4C38  3631FFFD             ori $17, $17, 65533
5514	4C3C  3C140000             lui $20, 0
5515	4C40  36940000             ori $20, $20, 0
5516	4C44  36920000             ori $18, $20, 0
5517	4C48  AFB2021C             sw $18, 540($29)
5518	4C4C  02319025             or $18, $17, $17
5519	4C50  29F224B1             slti $18, $15, 9393
5520	4C54  AFB20220             sw $18, 544($29)
5521	4C58  3C11FFFD             lui $17, 65533
5522	4C5C  3631FFFD             ori $17, $17, 65533
5523	4C60  3C140000             lui $20, 0
5524	4C64  36940000             ori $20, $20, 0
5525	4C68  2A920000             slti $18, $20, 0
5526	4C6C  AFB20224             sw $18, 548($29)
5527	4C70  02319025             or $18, $17, $17
5528	4C74  29F224B1             sltiu $18, $15, 9393
5529	4C78  AFB20228             sw $18, 552($29)
5530	4C7C  3C11FFFD             lui $17, 65533
5531	4C80  3631FFFD             ori $17, $17, 65533
5532	4C84  3C140000             lui $20, 0
5533	4C88  36940000             ori $20, $20, 0
5534	4C8C  2A920000             sltiu $18, $20, 0
5535	4C90  AFB2022C             sw $18, 556($29)
5536	4C94  02319025             or $18, $17, $17
5537	4C98  39F224B1             xori $18, $15, 9393
5538	4C9C  AFB20230             sw $18, 560($29)
5539	4CA0  3C11FFFD             lui $17, 65533
5540	4CA4  3631FFFD             ori $17, $17, 65533
5541	4CA8  3C140000             lui $20, 0
5542	4CAC  36940000             ori $20, $20, 0
5543	4CB0  3A920000             xori $18, $20, 0
5544	4CB4  AFB20234             sw $18, 564($29)
5545	4CB8  0C001EE5             jal increment_offset
5546	4CBC  0C001EDA             jal load_patterns
5547	4CC0  02319025             or $18, $17, $17
5548	4CC4  25F22838             addiu $18, $15, 10296
5549	4CC8  AFB2023C             sw $18, 572($29)
5550	4CCC  3C11FFFD             lui $17, 65533
5551	4CD0  3631FFFD             ori $17, $17, 65533
5552	4CD4  3C140000             lui $20, 0
5553	4CD8  36940000             ori $20, $20, 0
5554	4CDC  26920000             addiu $18, $20, 0
5555	4CE0  AFB20240             sw $18, 576($29)
5556	4CE4  02319025             or $18, $17, $17
5557	4CE8  31F22838             andi $18, $15, 10296
5558	4CEC  AFB20244             sw $18, 580($29)
5559	4CF0  3C11FFFD             lui $17, 65533
5560	4CF4  3631FFFD             ori $17, $17, 65533
5561	4CF8  3C140000             lui $20, 0
5562	4CFC  36940000             ori $20, $20, 0
5563	4D00  32920000             andi $18, $20, 0
5564	4D04  AFB20248             sw $18, 584($29)
5565	4D08  02319025             or $18, $17, $17
5566	4D0C  35F22838             ori $18, $15, 10296
5567	4D10  AFB2024C             sw $18, 588($29)
5568	4D14  3C11FFFD             lui $17, 65533
5569	4D18  3631FFFD             ori $17, $17, 65533
5570	4D1C  3C140000             lui $20, 0
5571	4D20  36940000             ori $20, $20, 0
5572	4D24  36920000             ori $18, $20, 0
5573	4D28  AFB20250             sw $18, 592($29)
5574	4D2C  02319025             or $18, $17, $17
5575	4D30  29F22838             slti $18, $15, 10296
5576	4D34  AFB20254             sw $18, 596($29)
5577	4D38  3C11FFFD             lui $17, 65533
5578	4D3C  3631FFFD             ori $17, $17, 65533
5579	4D40  3C140000             lui $20, 0
5580	4D44  36940000             ori $20, $20, 0
5581	4D48  2A920000             slti $18, $20, 0
5582	4D4C  AFB20258             sw $18, 600($29)
5583	4D50  02319025             or $18, $17, $17
5584	4D54  29F22838             sltiu $18, $15, 10296
5585	4D58  AFB2025C             sw $18, 604($29)
5586	4D5C  3C11FFFD             lui $17, 65533
5587	4D60  3631FFFD             ori $17, $17, 65533
5588	4D64  3C140000             lui $20, 0
5589	4D68  36940000             ori $20, $20, 0
5590	4D6C  2A920000             sltiu $18, $20, 0
5591	4D70  AFB20260             sw $18, 608($29)
5592	4D74  02319025             or $18, $17, $17
5593	4D78  39F22838             xori $18, $15, 10296
5594	4D7C  AFB20264             sw $18, 612($29)
5595	4D80  3C11FFFD             lui $17, 65533
5596	4D84  3631FFFD             ori $17, $17, 65533
5597	4D88  3C140000             lui $20, 0
5598	4D8C  36940000             ori $20, $20, 0
5599	4D90  3A920000             xori $18, $20, 0
5600	4D94  AFB20268             sw $18, 616($29)
5601	4D98  0C001EE5             jal increment_offset
5602	4D9C  0C001EDA             jal load_patterns
5603	4DA0  02319025             or $18, $17, $17
5604	4DA4  25F25531             addiu $18, $15, 21809
5605	4DA8  AFB20270             sw $18, 624($29)
5606	4DAC  3C11FFFD             lui $17, 65533
5607	4DB0  3631FFFD             ori $17, $17, 65533
5608	4DB4  3C140000             lui $20, 0
5609	4DB8  36940000             ori $20, $20, 0
5610	4DBC  26920000             addiu $18, $20, 0
5611	4DC0  AFB20274             sw $18, 628($29)
5612	4DC4  02319025             or $18, $17, $17
5613	4DC8  31F25531             andi $18, $15, 21809
5614	4DCC  AFB20278             sw $18, 632($29)
5615	4DD0  3C11FFFD             lui $17, 65533
5616	4DD4  3631FFFD             ori $17, $17, 65533
5617	4DD8  3C140000             lui $20, 0
5618	4DDC  36940000             ori $20, $20, 0
5619	4DE0  32920000             andi $18, $20, 0
5620	4DE4  AFB2027C             sw $18, 636($29)
5621	4DE8  02319025             or $18, $17, $17
5622	4DEC  35F25531             ori $18, $15, 21809
5623	4DF0  AFB20280             sw $18, 640($29)
5624	4DF4  3C11FFFD             lui $17, 65533
5625	4DF8  3631FFFD             ori $17, $17, 65533
5626	4DFC  3C140000             lui $20, 0
5627	4E00  36940000             ori $20, $20, 0
5628	4E04  36920000             ori $18, $20, 0
5629	4E08  AFB20284             sw $18, 644($29)
5630	4E0C  02319025             or $18, $17, $17
5631	4E10  29F25531             slti $18, $15, 21809
5632	4E14  AFB20288             sw $18, 648($29)
5633	4E18  3C11FFFD             lui $17, 65533
5634	4E1C  3631FFFD             ori $17, $17, 65533
5635	4E20  3C140000             lui $20, 0
5636	4E24  36940000             ori $20, $20, 0
5637	4E28  2A920000             slti $18, $20, 0
5638	4E2C  AFB2028C             sw $18, 652($29)
5639	4E30  02319025             or $18, $17, $17
5640	4E34  29F25531             sltiu $18, $15, 21809
5641	4E38  AFB20290             sw $18, 656($29)
5642	4E3C  3C11FFFD             lui $17, 65533
5643	4E40  3631FFFD             ori $17, $17, 65533
5644	4E44  3C140000             lui $20, 0
5645	4E48  36940000             ori $20, $20, 0
5646	4E4C  2A920000             sltiu $18, $20, 0
5647	4E50  AFB20294             sw $18, 660($29)
5648	4E54  02319025             or $18, $17, $17
5649	4E58  39F25531             xori $18, $15, 21809
5650	4E5C  AFB20298             sw $18, 664($29)
5651	4E60  3C11FFFD             lui $17, 65533
5652	4E64  3631FFFD             ori $17, $17, 65533
5653	4E68  3C140000             lui $20, 0
5654	4E6C  36940000             ori $20, $20, 0
5655	4E70  3A920000             xori $18, $20, 0
5656	4E74  AFB2029C             sw $18, 668($29)
5657	4E78  0C001EE5             jal increment_offset
5658	4E7C  0C001EDA             jal load_patterns
5659	4E80  02319025             or $18, $17, $17
5660	4E84  25F220C3             addiu $18, $15, 8387
5661	4E88  AFB202A4             sw $18, 676($29)
5662	4E8C  3C11FFFD             lui $17, 65533
5663	4E90  3631FFFD             ori $17, $17, 65533
5664	4E94  3C140000             lui $20, 0
5665	4E98  36940000             ori $20, $20, 0
5666	4E9C  26920000             addiu $18, $20, 0
5667	4EA0  AFB202A8             sw $18, 680($29)
5668	4EA4  02319025             or $18, $17, $17
5669	4EA8  31F220C3             andi $18, $15, 8387
5670	4EAC  AFB202AC             sw $18, 684($29)
5671	4EB0  3C11FFFD             lui $17, 65533
5672	4EB4  3631FFFD             ori $17, $17, 65533
5673	4EB8  3C140000             lui $20, 0
5674	4EBC  36940000             ori $20, $20, 0
5675	4EC0  32920000             andi $18, $20, 0
5676	4EC4  AFB202B0             sw $18, 688($29)
5677	4EC8  02319025             or $18, $17, $17
5678	4ECC  35F220C3             ori $18, $15, 8387
5679	4ED0  AFB202B4             sw $18, 692($29)
5680	4ED4  3C11FFFD             lui $17, 65533
5681	4ED8  3631FFFD             ori $17, $17, 65533
5682	4EDC  3C140000             lui $20, 0
5683	4EE0  36940000             ori $20, $20, 0
5684	4EE4  36920000             ori $18, $20, 0
5685	4EE8  AFB202B8             sw $18, 696($29)
5686	4EEC  02319025             or $18, $17, $17
5687	4EF0  29F220C3             slti $18, $15, 8387
5688	4EF4  AFB202BC             sw $18, 700($29)
5689	4EF8  3C11FFFD             lui $17, 65533
5690	4EFC  3631FFFD             ori $17, $17, 65533
5691	4F00  3C140000             lui $20, 0
5692	4F04  36940000             ori $20, $20, 0
5693	4F08  2A920000             slti $18, $20, 0
5694	4F0C  AFB202C0             sw $18, 704($29)
5695	4F10  02319025             or $18, $17, $17
5696	4F14  29F220C3             sltiu $18, $15, 8387
5697	4F18  AFB202C4             sw $18, 708($29)
5698	4F1C  3C11FFFD             lui $17, 65533
5699	4F20  3631FFFD             ori $17, $17, 65533
5700	4F24  3C140000             lui $20, 0
5701	4F28  36940000             ori $20, $20, 0
5702	4F2C  2A920000             sltiu $18, $20, 0
5703	4F30  AFB202C8             sw $18, 712($29)
5704	4F34  02319025             or $18, $17, $17
5705	4F38  39F220C3             xori $18, $15, 8387
5706	4F3C  AFB202CC             sw $18, 716($29)
5707	4F40  3C11FFFD             lui $17, 65533
5708	4F44  3631FFFD             ori $17, $17, 65533
5709	4F48  3C140000             lui $20, 0
5710	4F4C  36940000             ori $20, $20, 0
5711	4F50  3A920000             xori $18, $20, 0
5712	4F54  AFB202D0             sw $18, 720($29)
5713	4F58  0C001EE5             jal increment_offset
5714	4F5C  0C001EDA             jal load_patterns
5715	4F60  02319025             or $18, $17, $17
5716	4F64  25F27CDD             addiu $18, $15, 31965
5717	4F68  AFB202D8             sw $18, 728($29)
5718	4F6C  3C11FFFD             lui $17, 65533
5719	4F70  3631FFFD             ori $17, $17, 65533
5720	4F74  3C140000             lui $20, 0
5721	4F78  36940000             ori $20, $20, 0
5722	4F7C  26920000             addiu $18, $20, 0
5723	4F80  AFB202DC             sw $18, 732($29)
5724	4F84  02319025             or $18, $17, $17
5725	4F88  31F27CDD             andi $18, $15, 31965
5726	4F8C  AFB202E0             sw $18, 736($29)
5727	4F90  3C11FFFD             lui $17, 65533
5728	4F94  3631FFFD             ori $17, $17, 65533
5729	4F98  3C140000             lui $20, 0
5730	4F9C  36940000             ori $20, $20, 0
5731	4FA0  32920000             andi $18, $20, 0
5732	4FA4  AFB202E4             sw $18, 740($29)
5733	4FA8  02319025             or $18, $17, $17
5734	4FAC  35F27CDD             ori $18, $15, 31965
5735	4FB0  AFB202E8             sw $18, 744($29)
5736	4FB4  3C11FFFD             lui $17, 65533
5737	4FB8  3631FFFD             ori $17, $17, 65533
5738	4FBC  3C140000             lui $20, 0
5739	4FC0  36940000             ori $20, $20, 0
5740	4FC4  36920000             ori $18, $20, 0
5741	4FC8  AFB202EC             sw $18, 748($29)
5742	4FCC  02319025             or $18, $17, $17
5743	4FD0  29F27CDD             slti $18, $15, 31965
5744	4FD4  AFB202F0             sw $18, 752($29)
5745	4FD8  3C11FFFD             lui $17, 65533
5746	4FDC  3631FFFD             ori $17, $17, 65533
5747	4FE0  3C140000             lui $20, 0
5748	4FE4  36940000             ori $20, $20, 0
5749	4FE8  2A920000             slti $18, $20, 0
5750	4FEC  AFB202F4             sw $18, 756($29)
5751	4FF0  02319025             or $18, $17, $17
5752	4FF4  29F27CDD             sltiu $18, $15, 31965
5753	4FF8  AFB202F8             sw $18, 760($29)
5754	4FFC  3C11FFFD             lui $17, 65533
5755	5000  3631FFFD             ori $17, $17, 65533
5756	5004  3C140000             lui $20, 0
5757	5008  36940000             ori $20, $20, 0
5758	500C  2A920000             sltiu $18, $20, 0
5759	5010  AFB202FC             sw $18, 764($29)
5760	5014  02319025             or $18, $17, $17
5761	5018  39F27CDD             xori $18, $15, 31965
5762	501C  AFB20300             sw $18, 768($29)
5763	5020  3C11FFFD             lui $17, 65533
5764	5024  3631FFFD             ori $17, $17, 65533
5765	5028  3C140000             lui $20, 0
5766	502C  36940000             ori $20, $20, 0
5767	5030  3A920000             xori $18, $20, 0
5768	5034  AFB20304             sw $18, 772($29)
5769	5038  0C001EE5             jal increment_offset
5770	503C  0C001EDA             jal load_patterns
5771	5040  02319025             or $18, $17, $17
5772	5044  25F2766A             addiu $18, $15, 30314
5773	5048  AFB2030C             sw $18, 780($29)
5774	504C  3C11FFFD             lui $17, 65533
5775	5050  3631FFFD             ori $17, $17, 65533
5776	5054  3C140000             lui $20, 0
5777	5058  36940000             ori $20, $20, 0
5778	505C  26920000             addiu $18, $20, 0
5779	5060  AFB20310             sw $18, 784($29)
5780	5064  02319025             or $18, $17, $17
5781	5068  31F2766A             andi $18, $15, 30314
5782	506C  AFB20314             sw $18, 788($29)
5783	5070  3C11FFFD             lui $17, 65533
5784	5074  3631FFFD             ori $17, $17, 65533
5785	5078  3C140000             lui $20, 0
5786	507C  36940000             ori $20, $20, 0
5787	5080  32920000             andi $18, $20, 0
5788	5084  AFB20318             sw $18, 792($29)
5789	5088  02319025             or $18, $17, $17
5790	508C  35F2766A             ori $18, $15, 30314
5791	5090  AFB2031C             sw $18, 796($29)
5792	5094  3C11FFFD             lui $17, 65533
5793	5098  3631FFFD             ori $17, $17, 65533
5794	509C  3C140000             lui $20, 0
5795	50A0  36940000             ori $20, $20, 0
5796	50A4  36920000             ori $18, $20, 0
5797	50A8  AFB20320             sw $18, 800($29)
5798	50AC  02319025             or $18, $17, $17
5799	50B0  29F2766A             slti $18, $15, 30314
5800	50B4  AFB20324             sw $18, 804($29)
5801	50B8  3C11FFFD             lui $17, 65533
5802	50BC  3631FFFD             ori $17, $17, 65533
5803	50C0  3C140000             lui $20, 0
5804	50C4  36940000             ori $20, $20, 0
5805	50C8  2A920000             slti $18, $20, 0
5806	50CC  AFB20328             sw $18, 808($29)
5807	50D0  02319025             or $18, $17, $17
5808	50D4  29F2766A             sltiu $18, $15, 30314
5809	50D8  AFB2032C             sw $18, 812($29)
5810	50DC  3C11FFFD             lui $17, 65533
5811	50E0  3631FFFD             ori $17, $17, 65533
5812	50E4  3C140000             lui $20, 0
5813	50E8  36940000             ori $20, $20, 0
5814	50EC  2A920000             sltiu $18, $20, 0
5815	50F0  AFB20330             sw $18, 816($29)
5816	50F4  02319025             or $18, $17, $17
5817	50F8  39F2766A             xori $18, $15, 30314
5818	50FC  AFB20334             sw $18, 820($29)
5819	5100  3C11FFFD             lui $17, 65533
5820	5104  3631FFFD             ori $17, $17, 65533
5821	5108  3C140000             lui $20, 0
5822	510C  36940000             ori $20, $20, 0
5823	5110  3A920000             xori $18, $20, 0
5824	5114  AFB20338             sw $18, 824($29)
5825	5118  0C001EE5             jal increment_offset
5826	511C  0C001EDA             jal load_patterns
5827	5120  02319025             or $18, $17, $17
5828	5124  25F2E5EC             addiu $18, $15, 58860
5829	5128  AFB20340             sw $18, 832($29)
5830	512C  3C11FFFD             lui $17, 65533
5831	5130  3631FFFD             ori $17, $17, 65533
5832	5134  3C140000             lui $20, 0
5833	5138  36940000             ori $20, $20, 0
5834	513C  26920000             addiu $18, $20, 0
5835	5140  AFB20344             sw $18, 836($29)
5836	5144  02319025             or $18, $17, $17
5837	5148  31F2E5EC             andi $18, $15, 58860
5838	514C  AFB20348             sw $18, 840($29)
5839	5150  3C11FFFD             lui $17, 65533
5840	5154  3631FFFD             ori $17, $17, 65533
5841	5158  3C140000             lui $20, 0
5842	515C  36940000             ori $20, $20, 0
5843	5160  32920000             andi $18, $20, 0
5844	5164  AFB2034C             sw $18, 844($29)
5845	5168  02319025             or $18, $17, $17
5846	516C  35F2E5EC             ori $18, $15, 58860
5847	5170  AFB20350             sw $18, 848($29)
5848	5174  3C11FFFD             lui $17, 65533
5849	5178  3631FFFD             ori $17, $17, 65533
5850	517C  3C140000             lui $20, 0
5851	5180  36940000             ori $20, $20, 0
5852	5184  36920000             ori $18, $20, 0
5853	5188  AFB20354             sw $18, 852($29)
5854	518C  02319025             or $18, $17, $17
5855	5190  29F2E5EC             slti $18, $15, 58860
5856	5194  AFB20358             sw $18, 856($29)
5857	5198  3C11FFFD             lui $17, 65533
5858	519C  3631FFFD             ori $17, $17, 65533
5859	51A0  3C140000             lui $20, 0
5860	51A4  36940000             ori $20, $20, 0
5861	51A8  2A920000             slti $18, $20, 0
5862	51AC  AFB2035C             sw $18, 860($29)
5863	51B0  02319025             or $18, $17, $17
5864	51B4  29F2E5EC             sltiu $18, $15, 58860
5865	51B8  AFB20360             sw $18, 864($29)
5866	51BC  3C11FFFD             lui $17, 65533
5867	51C0  3631FFFD             ori $17, $17, 65533
5868	51C4  3C140000             lui $20, 0
5869	51C8  36940000             ori $20, $20, 0
5870	51CC  2A920000             sltiu $18, $20, 0
5871	51D0  AFB20364             sw $18, 868($29)
5872	51D4  02319025             or $18, $17, $17
5873	51D8  39F2E5EC             xori $18, $15, 58860
5874	51DC  AFB20368             sw $18, 872($29)
5875	51E0  3C11FFFD             lui $17, 65533
5876	51E4  3631FFFD             ori $17, $17, 65533
5877	51E8  3C140000             lui $20, 0
5878	51EC  36940000             ori $20, $20, 0
5879	51F0  3A920000             xori $18, $20, 0
5880	51F4  AFB2036C             sw $18, 876($29)
5881	51F8  0C001EE5             jal increment_offset
5882	51FC  0C001EDA             jal load_patterns
5883	5200  02319025             or $18, $17, $17
5884	5204  25F2FD41             addiu $18, $15, 64833
5885	5208  AFB20374             sw $18, 884($29)
5886	520C  3C11FFFD             lui $17, 65533
5887	5210  3631FFFD             ori $17, $17, 65533
5888	5214  3C140000             lui $20, 0
5889	5218  36940000             ori $20, $20, 0
5890	521C  26920000             addiu $18, $20, 0
5891	5220  AFB20378             sw $18, 888($29)
5892	5224  02319025             or $18, $17, $17
5893	5228  31F2FD41             andi $18, $15, 64833
5894	522C  AFB2037C             sw $18, 892($29)
5895	5230  3C11FFFD             lui $17, 65533
5896	5234  3631FFFD             ori $17, $17, 65533
5897	5238  3C140000             lui $20, 0
5898	523C  36940000             ori $20, $20, 0
5899	5240  32920000             andi $18, $20, 0
5900	5244  AFB20380             sw $18, 896($29)
5901	5248  02319025             or $18, $17, $17
5902	524C  35F2FD41             ori $18, $15, 64833
5903	5250  AFB20384             sw $18, 900($29)
5904	5254  3C11FFFD             lui $17, 65533
5905	5258  3631FFFD             ori $17, $17, 65533
5906	525C  3C140000             lui $20, 0
5907	5260  36940000             ori $20, $20, 0
5908	5264  36920000             ori $18, $20, 0
5909	5268  AFB20388             sw $18, 904($29)
5910	526C  02319025             or $18, $17, $17
5911	5270  29F2FD41             slti $18, $15, 64833
5912	5274  AFB2038C             sw $18, 908($29)
5913	5278  3C11FFFD             lui $17, 65533
5914	527C  3631FFFD             ori $17, $17, 65533
5915	5280  3C140000             lui $20, 0
5916	5284  36940000             ori $20, $20, 0
5917	5288  2A920000             slti $18, $20, 0
5918	528C  AFB20390             sw $18, 912($29)
5919	5290  02319025             or $18, $17, $17
5920	5294  29F2FD41             sltiu $18, $15, 64833
5921	5298  AFB20394             sw $18, 916($29)
5922	529C  3C11FFFD             lui $17, 65533
5923	52A0  3631FFFD             ori $17, $17, 65533
5924	52A4  3C140000             lui $20, 0
5925	52A8  36940000             ori $20, $20, 0
5926	52AC  2A920000             sltiu $18, $20, 0
5927	52B0  AFB20398             sw $18, 920($29)
5928	52B4  02319025             or $18, $17, $17
5929	52B8  39F2FD41             xori $18, $15, 64833
5930	52BC  AFB2039C             sw $18, 924($29)
5931	52C0  3C11FFFD             lui $17, 65533
5932	52C4  3631FFFD             ori $17, $17, 65533
5933	52C8  3C140000             lui $20, 0
5934	52CC  36940000             ori $20, $20, 0
5935	52D0  3A920000             xori $18, $20, 0
5936	52D4  AFB203A0             sw $18, 928($29)
5937	52D8  0C001EE5             jal increment_offset
5938	52DC  0C001EDA             jal load_patterns
5939	52E0  02319025             or $18, $17, $17
5940	52E4  25F20238             addiu $18, $15, 568
5941	52E8  AFB203A8             sw $18, 936($29)
5942	52EC  3C11FFFD             lui $17, 65533
5943	52F0  3631FFFD             ori $17, $17, 65533
5944	52F4  3C140000             lui $20, 0
5945	52F8  36940000             ori $20, $20, 0
5946	52FC  26920000             addiu $18, $20, 0
5947	5300  AFB203AC             sw $18, 940($29)
5948	5304  02319025             or $18, $17, $17
5949	5308  31F20238             andi $18, $15, 568
5950	530C  AFB203B0             sw $18, 944($29)
5951	5310  3C11FFFD             lui $17, 65533
5952	5314  3631FFFD             ori $17, $17, 65533
5953	5318  3C140000             lui $20, 0
5954	531C  36940000             ori $20, $20, 0
5955	5320  32920000             andi $18, $20, 0
5956	5324  AFB203B4             sw $18, 948($29)
5957	5328  02319025             or $18, $17, $17
5958	532C  35F20238             ori $18, $15, 568
5959	5330  AFB203B8             sw $18, 952($29)
5960	5334  3C11FFFD             lui $17, 65533
5961	5338  3631FFFD             ori $17, $17, 65533
5962	533C  3C140000             lui $20, 0
5963	5340  36940000             ori $20, $20, 0
5964	5344  36920000             ori $18, $20, 0
5965	5348  AFB203BC             sw $18, 956($29)
5966	534C  02319025             or $18, $17, $17
5967	5350  29F20238             slti $18, $15, 568
5968	5354  AFB203C0             sw $18, 960($29)
5969	5358  3C11FFFD             lui $17, 65533
5970	535C  3631FFFD             ori $17, $17, 65533
5971	5360  3C140000             lui $20, 0
5972	5364  36940000             ori $20, $20, 0
5973	5368  2A920000             slti $18, $20, 0
5974	536C  AFB203C4             sw $18, 964($29)
5975	5370  02319025             or $18, $17, $17
5976	5374  29F20238             sltiu $18, $15, 568
5977	5378  AFB203C8             sw $18, 968($29)
5978	537C  3C11FFFD             lui $17, 65533
5979	5380  3631FFFD             ori $17, $17, 65533
5980	5384  3C140000             lui $20, 0
5981	5388  36940000             ori $20, $20, 0
5982	538C  2A920000             sltiu $18, $20, 0
5983	5390  AFB203CC             sw $18, 972($29)
5984	5394  02319025             or $18, $17, $17
5985	5398  39F20238             xori $18, $15, 568
5986	539C  AFB203D0             sw $18, 976($29)
5987	53A0  3C11FFFD             lui $17, 65533
5988	53A4  3631FFFD             ori $17, $17, 65533
5989	53A8  3C140000             lui $20, 0
5990	53AC  36940000             ori $20, $20, 0
5991	53B0  3A920000             xori $18, $20, 0
5992	53B4  AFB203D4             sw $18, 980($29)
5993	53B8  0C001EE5             jal increment_offset
5994	53BC  0C001EDA             jal load_patterns
5995	53C0  02319025             or $18, $17, $17
5996	53C4  25F2C8FE             addiu $18, $15, 51454
5997	53C8  AFB203DC             sw $18, 988($29)
5998	53CC  3C11FFFD             lui $17, 65533
5999	53D0  3631FFFD             ori $17, $17, 65533
6000	53D4  3C140000             lui $20, 0
6001	53D8  36940000             ori $20, $20, 0
6002	53DC  26920000             addiu $18, $20, 0
6003	53E0  AFB203E0             sw $18, 992($29)
6004	53E4  02319025             or $18, $17, $17
6005	53E8  31F2C8FE             andi $18, $15, 51454
6006	53EC  AFB203E4             sw $18, 996($29)
6007	53F0  3C11FFFD             lui $17, 65533
6008	53F4  3631FFFD             ori $17, $17, 65533
6009	53F8  3C140000             lui $20, 0
6010	53FC  36940000             ori $20, $20, 0
6011	5400  32920000             andi $18, $20, 0
6012	5404  AFB203E8             sw $18, 1000($29)
6013	5408  02319025             or $18, $17, $17
6014	540C  35F2C8FE             ori $18, $15, 51454
6015	5410  AFB203EC             sw $18, 1004($29)
6016	5414  3C11FFFD             lui $17, 65533
6017	5418  3631FFFD             ori $17, $17, 65533
6018	541C  3C140000             lui $20, 0
6019	5420  36940000             ori $20, $20, 0
6020	5424  36920000             ori $18, $20, 0
6021	5428  AFB203F0             sw $18, 1008($29)
6022	542C  02319025             or $18, $17, $17
6023	5430  29F2C8FE             slti $18, $15, 51454
6024	5434  AFB203F4             sw $18, 1012($29)
6025	5438  3C11FFFD             lui $17, 65533
6026	543C  3631FFFD             ori $17, $17, 65533
6027	5440  3C140000             lui $20, 0
6028	5444  36940000             ori $20, $20, 0
6029	5448  2A920000             slti $18, $20, 0
6030	544C  AFB203F8             sw $18, 1016($29)
6031	5450  02319025             or $18, $17, $17
6032	5454  29F2C8FE             sltiu $18, $15, 51454
6033	5458  AFB203FC             sw $18, 1020($29)
6034	545C  3C11FFFD             lui $17, 65533
6035	5460  3631FFFD             ori $17, $17, 65533
6036	5464  3C140000             lui $20, 0
6037	5468  36940000             ori $20, $20, 0
6038	546C  2A920000             sltiu $18, $20, 0
6039	5470  AFB20400             sw $18, 1024($29)
6040	5474  02319025             or $18, $17, $17
6041	5478  39F2C8FE             xori $18, $15, 51454
6042	547C  AFB20404             sw $18, 1028($29)
6043	5480  3C11FFFD             lui $17, 65533
6044	5484  3631FFFD             ori $17, $17, 65533
6045	5488  3C140000             lui $20, 0
6046	548C  36940000             ori $20, $20, 0
6047	5490  3A920000             xori $18, $20, 0
6048	5494  AFB20408             sw $18, 1032($29)
6049	5498  0C001EE5             jal increment_offset
6050	549C  0C001EDA             jal load_patterns
6051	54A0  02319025             or $18, $17, $17
6052	54A4  25F27FCF             addiu $18, $15, 32719
6053	54A8  AFB20410             sw $18, 1040($29)
6054	54AC  3C11FFFD             lui $17, 65533
6055	54B0  3631FFFD             ori $17, $17, 65533
6056	54B4  3C140000             lui $20, 0
6057	54B8  36940000             ori $20, $20, 0
6058	54BC  26920000             addiu $18, $20, 0
6059	54C0  AFB20414             sw $18, 1044($29)
6060	54C4  02319025             or $18, $17, $17
6061	54C8  31F27FCF             andi $18, $15, 32719
6062	54CC  AFB20418             sw $18, 1048($29)
6063	54D0  3C11FFFD             lui $17, 65533
6064	54D4  3631FFFD             ori $17, $17, 65533
6065	54D8  3C140000             lui $20, 0
6066	54DC  36940000             ori $20, $20, 0
6067	54E0  32920000             andi $18, $20, 0
6068	54E4  AFB2041C             sw $18, 1052($29)
6069	54E8  02319025             or $18, $17, $17
6070	54EC  35F27FCF             ori $18, $15, 32719
6071	54F0  AFB20420             sw $18, 1056($29)
6072	54F4  3C11FFFD             lui $17, 65533
6073	54F8  3631FFFD             ori $17, $17, 65533
6074	54FC  3C140000             lui $20, 0
6075	5500  36940000             ori $20, $20, 0
6076	5504  36920000             ori $18, $20, 0
6077	5508  AFB20424             sw $18, 1060($29)
6078	550C  02319025             or $18, $17, $17
6079	5510  29F27FCF             slti $18, $15, 32719
6080	5514  AFB20428             sw $18, 1064($29)
6081	5518  3C11FFFD             lui $17, 65533
6082	551C  3631FFFD             ori $17, $17, 65533
6083	5520  3C140000             lui $20, 0
6084	5524  36940000             ori $20, $20, 0
6085	5528  2A920000             slti $18, $20, 0
6086	552C  AFB2042C             sw $18, 1068($29)
6087	5530  02319025             or $18, $17, $17
6088	5534  29F27FCF             sltiu $18, $15, 32719
6089	5538  AFB20430             sw $18, 1072($29)
6090	553C  3C11FFFD             lui $17, 65533
6091	5540  3631FFFD             ori $17, $17, 65533
6092	5544  3C140000             lui $20, 0
6093	5548  36940000             ori $20, $20, 0
6094	554C  2A920000             sltiu $18, $20, 0
6095	5550  AFB20434             sw $18, 1076($29)
6096	5554  02319025             or $18, $17, $17
6097	5558  39F27FCF             xori $18, $15, 32719
6098	555C  AFB20438             sw $18, 1080($29)
6099	5560  3C11FFFD             lui $17, 65533
6100	5564  3631FFFD             ori $17, $17, 65533
6101	5568  3C140000             lui $20, 0
6102	556C  36940000             ori $20, $20, 0
6103	5570  3A920000             xori $18, $20, 0
6104	5574  AFB2043C             sw $18, 1084($29)
6105	5578  0C001EE5             jal increment_offset
6106	557C  0C001EDA             jal load_patterns
6107	5580  02319025             or $18, $17, $17
6108	5584  25F24CC2             addiu $18, $15, 19650
6109	5588  AFB20444             sw $18, 1092($29)
6110	558C  3C11FFFD             lui $17, 65533
6111	5590  3631FFFD             ori $17, $17, 65533
6112	5594  3C140000             lui $20, 0
6113	5598  36940000             ori $20, $20, 0
6114	559C  26920000             addiu $18, $20, 0
6115	55A0  AFB20448             sw $18, 1096($29)
6116	55A4  02319025             or $18, $17, $17
6117	55A8  31F24CC2             andi $18, $15, 19650
6118	55AC  AFB2044C             sw $18, 1100($29)
6119	55B0  3C11FFFD             lui $17, 65533
6120	55B4  3631FFFD             ori $17, $17, 65533
6121	55B8  3C140000             lui $20, 0
6122	55BC  36940000             ori $20, $20, 0
6123	55C0  32920000             andi $18, $20, 0
6124	55C4  AFB20450             sw $18, 1104($29)
6125	55C8  02319025             or $18, $17, $17
6126	55CC  35F24CC2             ori $18, $15, 19650
6127	55D0  AFB20454             sw $18, 1108($29)
6128	55D4  3C11FFFD             lui $17, 65533
6129	55D8  3631FFFD             ori $17, $17, 65533
6130	55DC  3C140000             lui $20, 0
6131	55E0  36940000             ori $20, $20, 0
6132	55E4  36920000             ori $18, $20, 0
6133	55E8  AFB20458             sw $18, 1112($29)
6134	55EC  02319025             or $18, $17, $17
6135	55F0  29F24CC2             slti $18, $15, 19650
6136	55F4  AFB2045C             sw $18, 1116($29)
6137	55F8  3C11FFFD             lui $17, 65533
6138	55FC  3631FFFD             ori $17, $17, 65533
6139	5600  3C140000             lui $20, 0
6140	5604  36940000             ori $20, $20, 0
6141	5608  2A920000             slti $18, $20, 0
6142	560C  AFB20460             sw $18, 1120($29)
6143	5610  02319025             or $18, $17, $17
6144	5614  29F24CC2             sltiu $18, $15, 19650
6145	5618  AFB20464             sw $18, 1124($29)
6146	561C  3C11FFFD             lui $17, 65533
6147	5620  3631FFFD             ori $17, $17, 65533
6148	5624  3C140000             lui $20, 0
6149	5628  36940000             ori $20, $20, 0
6150	562C  2A920000             sltiu $18, $20, 0
6151	5630  AFB20468             sw $18, 1128($29)
6152	5634  02319025             or $18, $17, $17
6153	5638  39F24CC2             xori $18, $15, 19650
6154	563C  AFB2046C             sw $18, 1132($29)
6155	5640  3C11FFFD             lui $17, 65533
6156	5644  3631FFFD             ori $17, $17, 65533
6157	5648  3C140000             lui $20, 0
6158	564C  36940000             ori $20, $20, 0
6159	5650  3A920000             xori $18, $20, 0
6160	5654  AFB20470             sw $18, 1136($29)
6161	5658  0C001EE5             jal increment_offset
6162	565C  0C001EDA             jal load_patterns
6163	5660  02319025             or $18, $17, $17
6164	5664  25F2A8D0             addiu $18, $15, 43216
6165	5668  AFB20478             sw $18, 1144($29)
6166	566C  3C11FFFD             lui $17, 65533
6167	5670  3631FFFD             ori $17, $17, 65533
6168	5674  3C140000             lui $20, 0
6169	5678  36940000             ori $20, $20, 0
6170	567C  26920000             addiu $18, $20, 0
6171	5680  AFB2047C             sw $18, 1148($29)
6172	5684  02319025             or $18, $17, $17
6173	5688  31F2A8D0             andi $18, $15, 43216
6174	568C  AFB20480             sw $18, 1152($29)
6175	5690  3C11FFFD             lui $17, 65533
6176	5694  3631FFFD             ori $17, $17, 65533
6177	5698  3C140000             lui $20, 0
6178	569C  36940000             ori $20, $20, 0
6179	56A0  32920000             andi $18, $20, 0
6180	56A4  AFB20484             sw $18, 1156($29)
6181	56A8  02319025             or $18, $17, $17
6182	56AC  35F2A8D0             ori $18, $15, 43216
6183	56B0  AFB20488             sw $18, 1160($29)
6184	56B4  3C11FFFD             lui $17, 65533
6185	56B8  3631FFFD             ori $17, $17, 65533
6186	56BC  3C140000             lui $20, 0
6187	56C0  36940000             ori $20, $20, 0
6188	56C4  36920000             ori $18, $20, 0
6189	56C8  AFB2048C             sw $18, 1164($29)
6190	56CC  02319025             or $18, $17, $17
6191	56D0  29F2A8D0             slti $18, $15, 43216
6192	56D4  AFB20490             sw $18, 1168($29)
6193	56D8  3C11FFFD             lui $17, 65533
6194	56DC  3631FFFD             ori $17, $17, 65533
6195	56E0  3C140000             lui $20, 0
6196	56E4  36940000             ori $20, $20, 0
6197	56E8  2A920000             slti $18, $20, 0
6198	56EC  AFB20494             sw $18, 1172($29)
6199	56F0  02319025             or $18, $17, $17
6200	56F4  29F2A8D0             sltiu $18, $15, 43216
6201	56F8  AFB20498             sw $18, 1176($29)
6202	56FC  3C11FFFD             lui $17, 65533
6203	5700  3631FFFD             ori $17, $17, 65533
6204	5704  3C140000             lui $20, 0
6205	5708  36940000             ori $20, $20, 0
6206	570C  2A920000             sltiu $18, $20, 0
6207	5710  AFB2049C             sw $18, 1180($29)
6208	5714  02319025             or $18, $17, $17
6209	5718  39F2A8D0             xori $18, $15, 43216
6210	571C  AFB204A0             sw $18, 1184($29)
6211	5720  3C11FFFD             lui $17, 65533
6212	5724  3631FFFD             ori $17, $17, 65533
6213	5728  3C140000             lui $20, 0
6214	572C  36940000             ori $20, $20, 0
6215	5730  3A920000             xori $18, $20, 0
6216	5734  AFB204A4             sw $18, 1188($29)
6217	5738  0C001EE5             jal increment_offset
6218	573C  0C001EDA             jal load_patterns
6219	5740  02319025             or $18, $17, $17
6220	5744  25F28748             addiu $18, $15, 34632
6221	5748  AFB204AC             sw $18, 1196($29)
6222	574C  3C11FFFD             lui $17, 65533
6223	5750  3631FFFD             ori $17, $17, 65533
6224	5754  3C140000             lui $20, 0
6225	5758  36940000             ori $20, $20, 0
6226	575C  26920000             addiu $18, $20, 0
6227	5760  AFB204B0             sw $18, 1200($29)
6228	5764  02319025             or $18, $17, $17
6229	5768  31F28748             andi $18, $15, 34632
6230	576C  AFB204B4             sw $18, 1204($29)
6231	5770  3C11FFFD             lui $17, 65533
6232	5774  3631FFFD             ori $17, $17, 65533
6233	5778  3C140000             lui $20, 0
6234	577C  36940000             ori $20, $20, 0
6235	5780  32920000             andi $18, $20, 0
6236	5784  AFB204B8             sw $18, 1208($29)
6237	5788  02319025             or $18, $17, $17
6238	578C  35F28748             ori $18, $15, 34632
6239	5790  AFB204BC             sw $18, 1212($29)
6240	5794  3C11FFFD             lui $17, 65533
6241	5798  3631FFFD             ori $17, $17, 65533
6242	579C  3C140000             lui $20, 0
6243	57A0  36940000             ori $20, $20, 0
6244	57A4  36920000             ori $18, $20, 0
6245	57A8  AFB204C0             sw $18, 1216($29)
6246	57AC  02319025             or $18, $17, $17
6247	57B0  29F28748             slti $18, $15, 34632
6248	57B4  AFB204C4             sw $18, 1220($29)
6249	57B8  3C11FFFD             lui $17, 65533
6250	57BC  3631FFFD             ori $17, $17, 65533
6251	57C0  3C140000             lui $20, 0
6252	57C4  36940000             ori $20, $20, 0
6253	57C8  2A920000             slti $18, $20, 0
6254	57CC  AFB204C8             sw $18, 1224($29)
6255	57D0  02319025             or $18, $17, $17
6256	57D4  29F28748             sltiu $18, $15, 34632
6257	57D8  AFB204CC             sw $18, 1228($29)
6258	57DC  3C11FFFD             lui $17, 65533
6259	57E0  3631FFFD             ori $17, $17, 65533
6260	57E4  3C140000             lui $20, 0
6261	57E8  36940000             ori $20, $20, 0
6262	57EC  2A920000             sltiu $18, $20, 0
6263	57F0  AFB204D0             sw $18, 1232($29)
6264	57F4  02319025             or $18, $17, $17
6265	57F8  39F28748             xori $18, $15, 34632
6266	57FC  AFB204D4             sw $18, 1236($29)
6267	5800  3C11FFFD             lui $17, 65533
6268	5804  3631FFFD             ori $17, $17, 65533
6269	5808  3C140000             lui $20, 0
6270	580C  36940000             ori $20, $20, 0
6271	5810  3A920000             xori $18, $20, 0
6272	5814  AFB204D8             sw $18, 1240($29)
6273	5818  0C001EE5             jal increment_offset
6274	581C  0C001EDA             jal load_patterns
6275	5820  02319025             or $18, $17, $17
6276	5824  25F2999C             addiu $18, $15, 39324
6277	5828  AFB204E0             sw $18, 1248($29)
6278	582C  3C11FFFD             lui $17, 65533
6279	5830  3631FFFD             ori $17, $17, 65533
6280	5834  3C140000             lui $20, 0
6281	5838  36940000             ori $20, $20, 0
6282	583C  26920000             addiu $18, $20, 0
6283	5840  AFB204E4             sw $18, 1252($29)
6284	5844  02319025             or $18, $17, $17
6285	5848  31F2999C             andi $18, $15, 39324
6286	584C  AFB204E8             sw $18, 1256($29)
6287	5850  3C11FFFD             lui $17, 65533
6288	5854  3631FFFD             ori $17, $17, 65533
6289	5858  3C140000             lui $20, 0
6290	585C  36940000             ori $20, $20, 0
6291	5860  32920000             andi $18, $20, 0
6292	5864  AFB204EC             sw $18, 1260($29)
6293	5868  02319025             or $18, $17, $17
6294	586C  35F2999C             ori $18, $15, 39324
6295	5870  AFB204F0             sw $18, 1264($29)
6296	5874  3C11FFFD             lui $17, 65533
6297	5878  3631FFFD             ori $17, $17, 65533
6298	587C  3C140000             lui $20, 0
6299	5880  36940000             ori $20, $20, 0
6300	5884  36920000             ori $18, $20, 0
6301	5888  AFB204F4             sw $18, 1268($29)
6302	588C  02319025             or $18, $17, $17
6303	5890  29F2999C             slti $18, $15, 39324
6304	5894  AFB204F8             sw $18, 1272($29)
6305	5898  3C11FFFD             lui $17, 65533
6306	589C  3631FFFD             ori $17, $17, 65533
6307	58A0  3C140000             lui $20, 0
6308	58A4  36940000             ori $20, $20, 0
6309	58A8  2A920000             slti $18, $20, 0
6310	58AC  AFB204FC             sw $18, 1276($29)
6311	58B0  02319025             or $18, $17, $17
6312	58B4  29F2999C             sltiu $18, $15, 39324
6313	58B8  AFB20500             sw $18, 1280($29)
6314	58BC  3C11FFFD             lui $17, 65533
6315	58C0  3631FFFD             ori $17, $17, 65533
6316	58C4  3C140000             lui $20, 0
6317	58C8  36940000             ori $20, $20, 0
6318	58CC  2A920000             sltiu $18, $20, 0
6319	58D0  AFB20504             sw $18, 1284($29)
6320	58D4  02319025             or $18, $17, $17
6321	58D8  39F2999C             xori $18, $15, 39324
6322	58DC  AFB20508             sw $18, 1288($29)
6323	58E0  3C11FFFD             lui $17, 65533
6324	58E4  3631FFFD             ori $17, $17, 65533
6325	58E8  3C140000             lui $20, 0
6326	58EC  36940000             ori $20, $20, 0
6327	58F0  3A920000             xori $18, $20, 0
6328	58F4  AFB2050C             sw $18, 1292($29)
6329	58F8  0C001EE5             jal increment_offset
6330	58FC  0C001EDA             jal load_patterns
6331	5900  02319025             or $18, $17, $17
6332	5904  25F2D796             addiu $18, $15, 55190
6333	5908  AFB20514             sw $18, 1300($29)
6334	590C  3C11FFFD             lui $17, 65533
6335	5910  3631FFFD             ori $17, $17, 65533
6336	5914  3C140000             lui $20, 0
6337	5918  36940000             ori $20, $20, 0
6338	591C  26920000             addiu $18, $20, 0
6339	5920  AFB20518             sw $18, 1304($29)
6340	5924  02319025             or $18, $17, $17
6341	5928  31F2D796             andi $18, $15, 55190
6342	592C  AFB2051C             sw $18, 1308($29)
6343	5930  3C11FFFD             lui $17, 65533
6344	5934  3631FFFD             ori $17, $17, 65533
6345	5938  3C140000             lui $20, 0
6346	593C  36940000             ori $20, $20, 0
6347	5940  32920000             andi $18, $20, 0
6348	5944  AFB20520             sw $18, 1312($29)
6349	5948  02319025             or $18, $17, $17
6350	594C  35F2D796             ori $18, $15, 55190
6351	5950  AFB20524             sw $18, 1316($29)
6352	5954  3C11FFFD             lui $17, 65533
6353	5958  3631FFFD             ori $17, $17, 65533
6354	595C  3C140000             lui $20, 0
6355	5960  36940000             ori $20, $20, 0
6356	5964  36920000             ori $18, $20, 0
6357	5968  AFB20528             sw $18, 1320($29)
6358	596C  02319025             or $18, $17, $17
6359	5970  29F2D796             slti $18, $15, 55190
6360	5974  AFB2052C             sw $18, 1324($29)
6361	5978  3C11FFFD             lui $17, 65533
6362	597C  3631FFFD             ori $17, $17, 65533
6363	5980  3C140000             lui $20, 0
6364	5984  36940000             ori $20, $20, 0
6365	5988  2A920000             slti $18, $20, 0
6366	598C  AFB20530             sw $18, 1328($29)
6367	5990  02319025             or $18, $17, $17
6368	5994  29F2D796             sltiu $18, $15, 55190
6369	5998  AFB20534             sw $18, 1332($29)
6370	599C  3C11FFFD             lui $17, 65533
6371	59A0  3631FFFD             ori $17, $17, 65533
6372	59A4  3C140000             lui $20, 0
6373	59A8  36940000             ori $20, $20, 0
6374	59AC  2A920000             sltiu $18, $20, 0
6375	59B0  AFB20538             sw $18, 1336($29)
6376	59B4  02319025             or $18, $17, $17
6377	59B8  39F2D796             xori $18, $15, 55190
6378	59BC  AFB2053C             sw $18, 1340($29)
6379	59C0  3C11FFFD             lui $17, 65533
6380	59C4  3631FFFD             ori $17, $17, 65533
6381	59C8  3C140000             lui $20, 0
6382	59CC  36940000             ori $20, $20, 0
6383	59D0  3A920000             xori $18, $20, 0
6384	59D4  AFB20540             sw $18, 1344($29)
6385	59D8  0C001EE5             jal increment_offset
6386	59DC  0C001EDA             jal load_patterns
6387	59E0  02319025             or $18, $17, $17
6388	59E4  25F2CC26             addiu $18, $15, 52262
6389	59E8  AFB20548             sw $18, 1352($29)
6390	59EC  3C11FFFD             lui $17, 65533
6391	59F0  3631FFFD             ori $17, $17, 65533
6392	59F4  3C140000             lui $20, 0
6393	59F8  36940000             ori $20, $20, 0
6394	59FC  26920000             addiu $18, $20, 0
6395	5A00  AFB2054C             sw $18, 1356($29)
6396	5A04  02319025             or $18, $17, $17
6397	5A08  31F2CC26             andi $18, $15, 52262
6398	5A0C  AFB20550             sw $18, 1360($29)
6399	5A10  3C11FFFD             lui $17, 65533
6400	5A14  3631FFFD             ori $17, $17, 65533
6401	5A18  3C140000             lui $20, 0
6402	5A1C  36940000             ori $20, $20, 0
6403	5A20  32920000             andi $18, $20, 0
6404	5A24  AFB20554             sw $18, 1364($29)
6405	5A28  02319025             or $18, $17, $17
6406	5A2C  35F2CC26             ori $18, $15, 52262
6407	5A30  AFB20558             sw $18, 1368($29)
6408	5A34  3C11FFFD             lui $17, 65533
6409	5A38  3631FFFD             ori $17, $17, 65533
6410	5A3C  3C140000             lui $20, 0
6411	5A40  36940000             ori $20, $20, 0
6412	5A44  36920000             ori $18, $20, 0
6413	5A48  AFB2055C             sw $18, 1372($29)
6414	5A4C  02319025             or $18, $17, $17
6415	5A50  29F2CC26             slti $18, $15, 52262
6416	5A54  AFB20560             sw $18, 1376($29)
6417	5A58  3C11FFFD             lui $17, 65533
6418	5A5C  3631FFFD             ori $17, $17, 65533
6419	5A60  3C140000             lui $20, 0
6420	5A64  36940000             ori $20, $20, 0
6421	5A68  2A920000             slti $18, $20, 0
6422	5A6C  AFB20564             sw $18, 1380($29)
6423	5A70  02319025             or $18, $17, $17
6424	5A74  29F2CC26             sltiu $18, $15, 52262
6425	5A78  AFB20568             sw $18, 1384($29)
6426	5A7C  3C11FFFD             lui $17, 65533
6427	5A80  3631FFFD             ori $17, $17, 65533
6428	5A84  3C140000             lui $20, 0
6429	5A88  36940000             ori $20, $20, 0
6430	5A8C  2A920000             sltiu $18, $20, 0
6431	5A90  AFB2056C             sw $18, 1388($29)
6432	5A94  02319025             or $18, $17, $17
6433	5A98  39F2CC26             xori $18, $15, 52262
6434	5A9C  AFB20570             sw $18, 1392($29)
6435	5AA0  3C11FFFD             lui $17, 65533
6436	5AA4  3631FFFD             ori $17, $17, 65533
6437	5AA8  3C140000             lui $20, 0
6438	5AAC  36940000             ori $20, $20, 0
6439	5AB0  3A920000             xori $18, $20, 0
6440	5AB4  AFB20574             sw $18, 1396($29)
6441	5AB8  0C001EE5             jal increment_offset
6442	5ABC  0C001EDA             jal load_patterns
6443	5AC0  02319025             or $18, $17, $17
6444	5AC4  25F24B2C             addiu $18, $15, 19244
6445	5AC8  AFB2057C             sw $18, 1404($29)
6446	5ACC  3C11FFFD             lui $17, 65533
6447	5AD0  3631FFFD             ori $17, $17, 65533
6448	5AD4  3C140000             lui $20, 0
6449	5AD8  36940000             ori $20, $20, 0
6450	5ADC  26920000             addiu $18, $20, 0
6451	5AE0  AFB20580             sw $18, 1408($29)
6452	5AE4  02319025             or $18, $17, $17
6453	5AE8  31F24B2C             andi $18, $15, 19244
6454	5AEC  AFB20584             sw $18, 1412($29)
6455	5AF0  3C11FFFD             lui $17, 65533
6456	5AF4  3631FFFD             ori $17, $17, 65533
6457	5AF8  3C140000             lui $20, 0
6458	5AFC  36940000             ori $20, $20, 0
6459	5B00  32920000             andi $18, $20, 0
6460	5B04  AFB20588             sw $18, 1416($29)
6461	5B08  02319025             or $18, $17, $17
6462	5B0C  35F24B2C             ori $18, $15, 19244
6463	5B10  AFB2058C             sw $18, 1420($29)
6464	5B14  3C11FFFD             lui $17, 65533
6465	5B18  3631FFFD             ori $17, $17, 65533
6466	5B1C  3C140000             lui $20, 0
6467	5B20  36940000             ori $20, $20, 0
6468	5B24  36920000             ori $18, $20, 0
6469	5B28  AFB20590             sw $18, 1424($29)
6470	5B2C  02319025             or $18, $17, $17
6471	5B30  29F24B2C             slti $18, $15, 19244
6472	5B34  AFB20594             sw $18, 1428($29)
6473	5B38  3C11FFFD             lui $17, 65533
6474	5B3C  3631FFFD             ori $17, $17, 65533
6475	5B40  3C140000             lui $20, 0
6476	5B44  36940000             ori $20, $20, 0
6477	5B48  2A920000             slti $18, $20, 0
6478	5B4C  AFB20598             sw $18, 1432($29)
6479	5B50  02319025             or $18, $17, $17
6480	5B54  29F24B2C             sltiu $18, $15, 19244
6481	5B58  AFB2059C             sw $18, 1436($29)
6482	5B5C  3C11FFFD             lui $17, 65533
6483	5B60  3631FFFD             ori $17, $17, 65533
6484	5B64  3C140000             lui $20, 0
6485	5B68  36940000             ori $20, $20, 0
6486	5B6C  2A920000             sltiu $18, $20, 0
6487	5B70  AFB205A0             sw $18, 1440($29)
6488	5B74  02319025             or $18, $17, $17
6489	5B78  39F24B2C             xori $18, $15, 19244
6490	5B7C  AFB205A4             sw $18, 1444($29)
6491	5B80  3C11FFFD             lui $17, 65533
6492	5B84  3631FFFD             ori $17, $17, 65533
6493	5B88  3C140000             lui $20, 0
6494	5B8C  36940000             ori $20, $20, 0
6495	5B90  3A920000             xori $18, $20, 0
6496	5B94  AFB205A8             sw $18, 1448($29)
6497	5B98  0C001EE5             jal increment_offset
6498	5B9C  0C001EDA             jal load_patterns
6499	5BA0  02319025             or $18, $17, $17
6500	5BA4  25F2B336             addiu $18, $15, 45878
6501	5BA8  AFB205B0             sw $18, 1456($29)
6502	5BAC  3C11FFFD             lui $17, 65533
6503	5BB0  3631FFFD             ori $17, $17, 65533
6504	5BB4  3C140000             lui $20, 0
6505	5BB8  36940000             ori $20, $20, 0
6506	5BBC  26920000             addiu $18, $20, 0
6507	5BC0  AFB205B4             sw $18, 1460($29)
6508	5BC4  02319025             or $18, $17, $17
6509	5BC8  31F2B336             andi $18, $15, 45878
6510	5BCC  AFB205B8             sw $18, 1464($29)
6511	5BD0  3C11FFFD             lui $17, 65533
6512	5BD4  3631FFFD             ori $17, $17, 65533
6513	5BD8  3C140000             lui $20, 0
6514	5BDC  36940000             ori $20, $20, 0
6515	5BE0  32920000             andi $18, $20, 0
6516	5BE4  AFB205BC             sw $18, 1468($29)
6517	5BE8  02319025             or $18, $17, $17
6518	5BEC  35F2B336             ori $18, $15, 45878
6519	5BF0  AFB205C0             sw $18, 1472($29)
6520	5BF4  3C11FFFD             lui $17, 65533
6521	5BF8  3631FFFD             ori $17, $17, 65533
6522	5BFC  3C140000             lui $20, 0
6523	5C00  36940000             ori $20, $20, 0
6524	5C04  36920000             ori $18, $20, 0
6525	5C08  AFB205C4             sw $18, 1476($29)
6526	5C0C  02319025             or $18, $17, $17
6527	5C10  29F2B336             slti $18, $15, 45878
6528	5C14  AFB205C8             sw $18, 1480($29)
6529	5C18  3C11FFFD             lui $17, 65533
6530	5C1C  3631FFFD             ori $17, $17, 65533
6531	5C20  3C140000             lui $20, 0
6532	5C24  36940000             ori $20, $20, 0
6533	5C28  2A920000             slti $18, $20, 0
6534	5C2C  AFB205CC             sw $18, 1484($29)
6535	5C30  02319025             or $18, $17, $17
6536	5C34  29F2B336             sltiu $18, $15, 45878
6537	5C38  AFB205D0             sw $18, 1488($29)
6538	5C3C  3C11FFFD             lui $17, 65533
6539	5C40  3631FFFD             ori $17, $17, 65533
6540	5C44  3C140000             lui $20, 0
6541	5C48  36940000             ori $20, $20, 0
6542	5C4C  2A920000             sltiu $18, $20, 0
6543	5C50  AFB205D4             sw $18, 1492($29)
6544	5C54  02319025             or $18, $17, $17
6545	5C58  39F2B336             xori $18, $15, 45878
6546	5C5C  AFB205D8             sw $18, 1496($29)
6547	5C60  3C11FFFD             lui $17, 65533
6548	5C64  3631FFFD             ori $17, $17, 65533
6549	5C68  3C140000             lui $20, 0
6550	5C6C  36940000             ori $20, $20, 0
6551	5C70  3A920000             xori $18, $20, 0
6552	5C74  AFB205DC             sw $18, 1500($29)
6553	5C78  0C001EE5             jal increment_offset
6554	5C7C  0C001EDA             jal load_patterns
6555	5C80  02319025             or $18, $17, $17
6556	5C84  25F22A22             addiu $18, $15, 10786
6557	5C88  AFB205E4             sw $18, 1508($29)
6558	5C8C  3C11FFFD             lui $17, 65533
6559	5C90  3631FFFD             ori $17, $17, 65533
6560	5C94  3C140000             lui $20, 0
6561	5C98  36940000             ori $20, $20, 0
6562	5C9C  26920000             addiu $18, $20, 0
6563	5CA0  AFB205E8             sw $18, 1512($29)
6564	5CA4  02319025             or $18, $17, $17
6565	5CA8  31F22A22             andi $18, $15, 10786
6566	5CAC  AFB205EC             sw $18, 1516($29)
6567	5CB0  3C11FFFD             lui $17, 65533
6568	5CB4  3631FFFD             ori $17, $17, 65533
6569	5CB8  3C140000             lui $20, 0
6570	5CBC  36940000             ori $20, $20, 0
6571	5CC0  32920000             andi $18, $20, 0
6572	5CC4  AFB205F0             sw $18, 1520($29)
6573	5CC8  02319025             or $18, $17, $17
6574	5CCC  35F22A22             ori $18, $15, 10786
6575	5CD0  AFB205F4             sw $18, 1524($29)
6576	5CD4  3C11FFFD             lui $17, 65533
6577	5CD8  3631FFFD             ori $17, $17, 65533
6578	5CDC  3C140000             lui $20, 0
6579	5CE0  36940000             ori $20, $20, 0
6580	5CE4  36920000             ori $18, $20, 0
6581	5CE8  AFB205F8             sw $18, 1528($29)
6582	5CEC  02319025             or $18, $17, $17
6583	5CF0  29F22A22             slti $18, $15, 10786
6584	5CF4  AFB205FC             sw $18, 1532($29)
6585	5CF8  3C11FFFD             lui $17, 65533
6586	5CFC  3631FFFD             ori $17, $17, 65533
6587	5D00  3C140000             lui $20, 0
6588	5D04  36940000             ori $20, $20, 0
6589	5D08  2A920000             slti $18, $20, 0
6590	5D0C  AFB20600             sw $18, 1536($29)
6591	5D10  02319025             or $18, $17, $17
6592	5D14  29F22A22             sltiu $18, $15, 10786
6593	5D18  AFB20604             sw $18, 1540($29)
6594	5D1C  3C11FFFD             lui $17, 65533
6595	5D20  3631FFFD             ori $17, $17, 65533
6596	5D24  3C140000             lui $20, 0
6597	5D28  36940000             ori $20, $20, 0
6598	5D2C  2A920000             sltiu $18, $20, 0
6599	5D30  AFB20608             sw $18, 1544($29)
6600	5D34  02319025             or $18, $17, $17
6601	5D38  39F22A22             xori $18, $15, 10786
6602	5D3C  AFB2060C             sw $18, 1548($29)
6603	5D40  3C11FFFD             lui $17, 65533
6604	5D44  3631FFFD             ori $17, $17, 65533
6605	5D48  3C140000             lui $20, 0
6606	5D4C  36940000             ori $20, $20, 0
6607	5D50  3A920000             xori $18, $20, 0
6608	5D54  AFB20610             sw $18, 1552($29)
6609	5D58  0C001EE5             jal increment_offset
6610	5D5C  0C001EDA             jal load_patterns
6611	5D60  02319025             or $18, $17, $17
6612	5D64  25F257D7             addiu $18, $15, 22487
6613	5D68  AFB20618             sw $18, 1560($29)
6614	5D6C  3C11FFFD             lui $17, 65533
6615	5D70  3631FFFD             ori $17, $17, 65533
6616	5D74  3C140000             lui $20, 0
6617	5D78  36940000             ori $20, $20, 0
6618	5D7C  26920000             addiu $18, $20, 0
6619	5D80  AFB2061C             sw $18, 1564($29)
6620	5D84  02319025             or $18, $17, $17
6621	5D88  31F257D7             andi $18, $15, 22487
6622	5D8C  AFB20620             sw $18, 1568($29)
6623	5D90  3C11FFFD             lui $17, 65533
6624	5D94  3631FFFD             ori $17, $17, 65533
6625	5D98  3C140000             lui $20, 0
6626	5D9C  36940000             ori $20, $20, 0
6627	5DA0  32920000             andi $18, $20, 0
6628	5DA4  AFB20624             sw $18, 1572($29)
6629	5DA8  02319025             or $18, $17, $17
6630	5DAC  35F257D7             ori $18, $15, 22487
6631	5DB0  AFB20628             sw $18, 1576($29)
6632	5DB4  3C11FFFD             lui $17, 65533
6633	5DB8  3631FFFD             ori $17, $17, 65533
6634	5DBC  3C140000             lui $20, 0
6635	5DC0  36940000             ori $20, $20, 0
6636	5DC4  36920000             ori $18, $20, 0
6637	5DC8  AFB2062C             sw $18, 1580($29)
6638	5DCC  02319025             or $18, $17, $17
6639	5DD0  29F257D7             slti $18, $15, 22487
6640	5DD4  AFB20630             sw $18, 1584($29)
6641	5DD8  3C11FFFD             lui $17, 65533
6642	5DDC  3631FFFD             ori $17, $17, 65533
6643	5DE0  3C140000             lui $20, 0
6644	5DE4  36940000             ori $20, $20, 0
6645	5DE8  2A920000             slti $18, $20, 0
6646	5DEC  AFB20634             sw $18, 1588($29)
6647	5DF0  02319025             or $18, $17, $17
6648	5DF4  29F257D7             sltiu $18, $15, 22487
6649	5DF8  AFB20638             sw $18, 1592($29)
6650	5DFC  3C11FFFD             lui $17, 65533
6651	5E00  3631FFFD             ori $17, $17, 65533
6652	5E04  3C140000             lui $20, 0
6653	5E08  36940000             ori $20, $20, 0
6654	5E0C  2A920000             sltiu $18, $20, 0
6655	5E10  AFB2063C             sw $18, 1596($29)
6656	5E14  02319025             or $18, $17, $17
6657	5E18  39F257D7             xori $18, $15, 22487
6658	5E1C  AFB20640             sw $18, 1600($29)
6659	5E20  3C11FFFD             lui $17, 65533
6660	5E24  3631FFFD             ori $17, $17, 65533
6661	5E28  3C140000             lui $20, 0
6662	5E2C  36940000             ori $20, $20, 0
6663	5E30  3A920000             xori $18, $20, 0
6664	5E34  AFB20644             sw $18, 1604($29)
6665	5E38  0C001EE5             jal increment_offset
6666	5E3C  0C001EDA             jal load_patterns
6667	5E40  02319025             or $18, $17, $17
6668	5E44  25F29FFE             addiu $18, $15, 40958
6669	5E48  AFB2064C             sw $18, 1612($29)
6670	5E4C  3C11FFFD             lui $17, 65533
6671	5E50  3631FFFD             ori $17, $17, 65533
6672	5E54  3C140000             lui $20, 0
6673	5E58  36940000             ori $20, $20, 0
6674	5E5C  26920000             addiu $18, $20, 0
6675	5E60  AFB20650             sw $18, 1616($29)
6676	5E64  02319025             or $18, $17, $17
6677	5E68  31F29FFE             andi $18, $15, 40958
6678	5E6C  AFB20654             sw $18, 1620($29)
6679	5E70  3C11FFFD             lui $17, 65533
6680	5E74  3631FFFD             ori $17, $17, 65533
6681	5E78  3C140000             lui $20, 0
6682	5E7C  36940000             ori $20, $20, 0
6683	5E80  32920000             andi $18, $20, 0
6684	5E84  AFB20658             sw $18, 1624($29)
6685	5E88  02319025             or $18, $17, $17
6686	5E8C  35F29FFE             ori $18, $15, 40958
6687	5E90  AFB2065C             sw $18, 1628($29)
6688	5E94  3C11FFFD             lui $17, 65533
6689	5E98  3631FFFD             ori $17, $17, 65533
6690	5E9C  3C140000             lui $20, 0
6691	5EA0  36940000             ori $20, $20, 0
6692	5EA4  36920000             ori $18, $20, 0
6693	5EA8  AFB20660             sw $18, 1632($29)
6694	5EAC  02319025             or $18, $17, $17
6695	5EB0  29F29FFE             slti $18, $15, 40958
6696	5EB4  AFB20664             sw $18, 1636($29)
6697	5EB8  3C11FFFD             lui $17, 65533
6698	5EBC  3631FFFD             ori $17, $17, 65533
6699	5EC0  3C140000             lui $20, 0
6700	5EC4  36940000             ori $20, $20, 0
6701	5EC8  2A920000             slti $18, $20, 0
6702	5ECC  AFB20668             sw $18, 1640($29)
6703	5ED0  02319025             or $18, $17, $17
6704	5ED4  29F29FFE             sltiu $18, $15, 40958
6705	5ED8  AFB2066C             sw $18, 1644($29)
6706	5EDC  3C11FFFD             lui $17, 65533
6707	5EE0  3631FFFD             ori $17, $17, 65533
6708	5EE4  3C140000             lui $20, 0
6709	5EE8  36940000             ori $20, $20, 0
6710	5EEC  2A920000             sltiu $18, $20, 0
6711	5EF0  AFB20670             sw $18, 1648($29)
6712	5EF4  02319025             or $18, $17, $17
6713	5EF8  39F29FFE             xori $18, $15, 40958
6714	5EFC  AFB20674             sw $18, 1652($29)
6715	5F00  3C11FFFD             lui $17, 65533
6716	5F04  3631FFFD             ori $17, $17, 65533
6717	5F08  3C140000             lui $20, 0
6718	5F0C  36940000             ori $20, $20, 0
6719	5F10  3A920000             xori $18, $20, 0
6720	5F14  AFB20678             sw $18, 1656($29)
6721	5F18  0C001EE5             jal increment_offset
6722	5F1C  0C001EDA             jal load_patterns
6723	5F20  02319025             or $18, $17, $17
6724	5F24  25F238A4             addiu $18, $15, 14500
6725	5F28  AFB20680             sw $18, 1664($29)
6726	5F2C  3C11FFFD             lui $17, 65533
6727	5F30  3631FFFD             ori $17, $17, 65533
6728	5F34  3C140000             lui $20, 0
6729	5F38  36940000             ori $20, $20, 0
6730	5F3C  26920000             addiu $18, $20, 0
6731	5F40  AFB20684             sw $18, 1668($29)
6732	5F44  02319025             or $18, $17, $17
6733	5F48  31F238A4             andi $18, $15, 14500
6734	5F4C  AFB20688             sw $18, 1672($29)
6735	5F50  3C11FFFD             lui $17, 65533
6736	5F54  3631FFFD             ori $17, $17, 65533
6737	5F58  3C140000             lui $20, 0
6738	5F5C  36940000             ori $20, $20, 0
6739	5F60  32920000             andi $18, $20, 0
6740	5F64  AFB2068C             sw $18, 1676($29)
6741	5F68  02319025             or $18, $17, $17
6742	5F6C  35F238A4             ori $18, $15, 14500
6743	5F70  AFB20690             sw $18, 1680($29)
6744	5F74  3C11FFFD             lui $17, 65533
6745	5F78  3631FFFD             ori $17, $17, 65533
6746	5F7C  3C140000             lui $20, 0
6747	5F80  36940000             ori $20, $20, 0
6748	5F84  36920000             ori $18, $20, 0
6749	5F88  AFB20694             sw $18, 1684($29)
6750	5F8C  02319025             or $18, $17, $17
6751	5F90  29F238A4             slti $18, $15, 14500
6752	5F94  AFB20698             sw $18, 1688($29)
6753	5F98  3C11FFFD             lui $17, 65533
6754	5F9C  3631FFFD             ori $17, $17, 65533
6755	5FA0  3C140000             lui $20, 0
6756	5FA4  36940000             ori $20, $20, 0
6757	5FA8  2A920000             slti $18, $20, 0
6758	5FAC  AFB2069C             sw $18, 1692($29)
6759	5FB0  02319025             or $18, $17, $17
6760	5FB4  29F238A4             sltiu $18, $15, 14500
6761	5FB8  AFB206A0             sw $18, 1696($29)
6762	5FBC  3C11FFFD             lui $17, 65533
6763	5FC0  3631FFFD             ori $17, $17, 65533
6764	5FC4  3C140000             lui $20, 0
6765	5FC8  36940000             ori $20, $20, 0
6766	5FCC  2A920000             sltiu $18, $20, 0
6767	5FD0  AFB206A4             sw $18, 1700($29)
6768	5FD4  02319025             or $18, $17, $17
6769	5FD8  39F238A4             xori $18, $15, 14500
6770	5FDC  AFB206A8             sw $18, 1704($29)
6771	5FE0  3C11FFFD             lui $17, 65533
6772	5FE4  3631FFFD             ori $17, $17, 65533
6773	5FE8  3C140000             lui $20, 0
6774	5FEC  36940000             ori $20, $20, 0
6775	5FF0  3A920000             xori $18, $20, 0
6776	5FF4  AFB206AC             sw $18, 1708($29)
6777	5FF8  0C001EE5             jal increment_offset
6778	5FFC  0C001EDA             jal load_patterns
6779	6000  02319025             or $18, $17, $17
6780	6004  25F269E2             addiu $18, $15, 27106
6781	6008  AFB206B4             sw $18, 1716($29)
6782	600C  3C11FFFD             lui $17, 65533
6783	6010  3631FFFD             ori $17, $17, 65533
6784	6014  3C140000             lui $20, 0
6785	6018  36940000             ori $20, $20, 0
6786	601C  26920000             addiu $18, $20, 0
6787	6020  AFB206B8             sw $18, 1720($29)
6788	6024  02319025             or $18, $17, $17
6789	6028  31F269E2             andi $18, $15, 27106
6790	602C  AFB206BC             sw $18, 1724($29)
6791	6030  3C11FFFD             lui $17, 65533
6792	6034  3631FFFD             ori $17, $17, 65533
6793	6038  3C140000             lui $20, 0
6794	603C  36940000             ori $20, $20, 0
6795	6040  32920000             andi $18, $20, 0
6796	6044  AFB206C0             sw $18, 1728($29)
6797	6048  02319025             or $18, $17, $17
6798	604C  35F269E2             ori $18, $15, 27106
6799	6050  AFB206C4             sw $18, 1732($29)
6800	6054  3C11FFFD             lui $17, 65533
6801	6058  3631FFFD             ori $17, $17, 65533
6802	605C  3C140000             lui $20, 0
6803	6060  36940000             ori $20, $20, 0
6804	6064  36920000             ori $18, $20, 0
6805	6068  AFB206C8             sw $18, 1736($29)
6806	606C  02319025             or $18, $17, $17
6807	6070  29F269E2             slti $18, $15, 27106
6808	6074  AFB206CC             sw $18, 1740($29)
6809	6078  3C11FFFD             lui $17, 65533
6810	607C  3631FFFD             ori $17, $17, 65533
6811	6080  3C140000             lui $20, 0
6812	6084  36940000             ori $20, $20, 0
6813	6088  2A920000             slti $18, $20, 0
6814	608C  AFB206D0             sw $18, 1744($29)
6815	6090  02319025             or $18, $17, $17
6816	6094  29F269E2             sltiu $18, $15, 27106
6817	6098  AFB206D4             sw $18, 1748($29)
6818	609C  3C11FFFD             lui $17, 65533
6819	60A0  3631FFFD             ori $17, $17, 65533
6820	60A4  3C140000             lui $20, 0
6821	60A8  36940000             ori $20, $20, 0
6822	60AC  2A920000             sltiu $18, $20, 0
6823	60B0  AFB206D8             sw $18, 1752($29)
6824	60B4  02319025             or $18, $17, $17
6825	60B8  39F269E2             xori $18, $15, 27106
6826	60BC  AFB206DC             sw $18, 1756($29)
6827	60C0  3C11FFFD             lui $17, 65533
6828	60C4  3631FFFD             ori $17, $17, 65533
6829	60C8  3C140000             lui $20, 0
6830	60CC  36940000             ori $20, $20, 0
6831	60D0  3A920000             xori $18, $20, 0
6832	60D4  AFB206E0             sw $18, 1760($29)
6833	60D8  0C001EE5             jal increment_offset
6834	60DC  0C001EDA             jal load_patterns
6835	60E0  02319025             or $18, $17, $17
6836	60E4  25F2481D             addiu $18, $15, 18461
6837	60E8  AFB206E8             sw $18, 1768($29)
6838	60EC  3C11FFFD             lui $17, 65533
6839	60F0  3631FFFD             ori $17, $17, 65533
6840	60F4  3C140000             lui $20, 0
6841	60F8  36940000             ori $20, $20, 0
6842	60FC  26920000             addiu $18, $20, 0
6843	6100  AFB206EC             sw $18, 1772($29)
6844	6104  02319025             or $18, $17, $17
6845	6108  31F2481D             andi $18, $15, 18461
6846	610C  AFB206F0             sw $18, 1776($29)
6847	6110  3C11FFFD             lui $17, 65533
6848	6114  3631FFFD             ori $17, $17, 65533
6849	6118  3C140000             lui $20, 0
6850	611C  36940000             ori $20, $20, 0
6851	6120  32920000             andi $18, $20, 0
6852	6124  AFB206F4             sw $18, 1780($29)
6853	6128  02319025             or $18, $17, $17
6854	612C  35F2481D             ori $18, $15, 18461
6855	6130  AFB206F8             sw $18, 1784($29)
6856	6134  3C11FFFD             lui $17, 65533
6857	6138  3631FFFD             ori $17, $17, 65533
6858	613C  3C140000             lui $20, 0
6859	6140  36940000             ori $20, $20, 0
6860	6144  36920000             ori $18, $20, 0
6861	6148  AFB206FC             sw $18, 1788($29)
6862	614C  02319025             or $18, $17, $17
6863	6150  29F2481D             slti $18, $15, 18461
6864	6154  AFB20700             sw $18, 1792($29)
6865	6158  3C11FFFD             lui $17, 65533
6866	615C  3631FFFD             ori $17, $17, 65533
6867	6160  3C140000             lui $20, 0
6868	6164  36940000             ori $20, $20, 0
6869	6168  2A920000             slti $18, $20, 0
6870	616C  AFB20704             sw $18, 1796($29)
6871	6170  02319025             or $18, $17, $17
6872	6174  29F2481D             sltiu $18, $15, 18461
6873	6178  AFB20708             sw $18, 1800($29)
6874	617C  3C11FFFD             lui $17, 65533
6875	6180  3631FFFD             ori $17, $17, 65533
6876	6184  3C140000             lui $20, 0
6877	6188  36940000             ori $20, $20, 0
6878	618C  2A920000             sltiu $18, $20, 0
6879	6190  AFB2070C             sw $18, 1804($29)
6880	6194  02319025             or $18, $17, $17
6881	6198  39F2481D             xori $18, $15, 18461
6882	619C  AFB20710             sw $18, 1808($29)
6883	61A0  3C11FFFD             lui $17, 65533
6884	61A4  3631FFFD             ori $17, $17, 65533
6885	61A8  3C140000             lui $20, 0
6886	61AC  36940000             ori $20, $20, 0
6887	61B0  3A920000             xori $18, $20, 0
6888	61B4  AFB20714             sw $18, 1812($29)
6889	61B8  0C001EE5             jal increment_offset
6890	61BC  0C001EDA             jal load_patterns
6891	61C0  02319025             or $18, $17, $17
6892	61C4  25F24987             addiu $18, $15, 18823
6893	61C8  AFB2071C             sw $18, 1820($29)
6894	61CC  3C11FFFD             lui $17, 65533
6895	61D0  3631FFFD             ori $17, $17, 65533
6896	61D4  3C140000             lui $20, 0
6897	61D8  36940000             ori $20, $20, 0
6898	61DC  26920000             addiu $18, $20, 0
6899	61E0  AFB20720             sw $18, 1824($29)
6900	61E4  02319025             or $18, $17, $17
6901	61E8  31F24987             andi $18, $15, 18823
6902	61EC  AFB20724             sw $18, 1828($29)
6903	61F0  3C11FFFD             lui $17, 65533
6904	61F4  3631FFFD             ori $17, $17, 65533
6905	61F8  3C140000             lui $20, 0
6906	61FC  36940000             ori $20, $20, 0
6907	6200  32920000             andi $18, $20, 0
6908	6204  AFB20728             sw $18, 1832($29)
6909	6208  02319025             or $18, $17, $17
6910	620C  35F24987             ori $18, $15, 18823
6911	6210  AFB2072C             sw $18, 1836($29)
6912	6214  3C11FFFD             lui $17, 65533
6913	6218  3631FFFD             ori $17, $17, 65533
6914	621C  3C140000             lui $20, 0
6915	6220  36940000             ori $20, $20, 0
6916	6224  36920000             ori $18, $20, 0
6917	6228  AFB20730             sw $18, 1840($29)
6918	622C  02319025             or $18, $17, $17
6919	6230  29F24987             slti $18, $15, 18823
6920	6234  AFB20734             sw $18, 1844($29)
6921	6238  3C11FFFD             lui $17, 65533
6922	623C  3631FFFD             ori $17, $17, 65533
6923	6240  3C140000             lui $20, 0
6924	6244  36940000             ori $20, $20, 0
6925	6248  2A920000             slti $18, $20, 0
6926	624C  AFB20738             sw $18, 1848($29)
6927	6250  02319025             or $18, $17, $17
6928	6254  29F24987             sltiu $18, $15, 18823
6929	6258  AFB2073C             sw $18, 1852($29)
6930	625C  3C11FFFD             lui $17, 65533
6931	6260  3631FFFD             ori $17, $17, 65533
6932	6264  3C140000             lui $20, 0
6933	6268  36940000             ori $20, $20, 0
6934	626C  2A920000             sltiu $18, $20, 0
6935	6270  AFB20740             sw $18, 1856($29)
6936	6274  02319025             or $18, $17, $17
6937	6278  39F24987             xori $18, $15, 18823
6938	627C  AFB20744             sw $18, 1860($29)
6939	6280  3C11FFFD             lui $17, 65533
6940	6284  3631FFFD             ori $17, $17, 65533
6941	6288  3C140000             lui $20, 0
6942	628C  36940000             ori $20, $20, 0
6943	6290  3A920000             xori $18, $20, 0
6944	6294  AFB20748             sw $18, 1864($29)
6945	6298  0C001EE5             jal increment_offset
6946	629C  0C001EDA             jal load_patterns
6947	62A0  02319025             or $18, $17, $17
6948	62A4  25F27A49             addiu $18, $15, 31305
6949	62A8  AFB20750             sw $18, 1872($29)
6950	62AC  3C11FFFD             lui $17, 65533
6951	62B0  3631FFFD             ori $17, $17, 65533
6952	62B4  3C140000             lui $20, 0
6953	62B8  36940000             ori $20, $20, 0
6954	62BC  26920000             addiu $18, $20, 0
6955	62C0  AFB20754             sw $18, 1876($29)
6956	62C4  02319025             or $18, $17, $17
6957	62C8  31F27A49             andi $18, $15, 31305
6958	62CC  AFB20758             sw $18, 1880($29)
6959	62D0  3C11FFFD             lui $17, 65533
6960	62D4  3631FFFD             ori $17, $17, 65533
6961	62D8  3C140000             lui $20, 0
6962	62DC  36940000             ori $20, $20, 0
6963	62E0  32920000             andi $18, $20, 0
6964	62E4  AFB2075C             sw $18, 1884($29)
6965	62E8  02319025             or $18, $17, $17
6966	62EC  35F27A49             ori $18, $15, 31305
6967	62F0  AFB20760             sw $18, 1888($29)
6968	62F4  3C11FFFD             lui $17, 65533
6969	62F8  3631FFFD             ori $17, $17, 65533
6970	62FC  3C140000             lui $20, 0
6971	6300  36940000             ori $20, $20, 0
6972	6304  36920000             ori $18, $20, 0
6973	6308  AFB20764             sw $18, 1892($29)
6974	630C  02319025             or $18, $17, $17
6975	6310  29F27A49             slti $18, $15, 31305
6976	6314  AFB20768             sw $18, 1896($29)
6977	6318  3C11FFFD             lui $17, 65533
6978	631C  3631FFFD             ori $17, $17, 65533
6979	6320  3C140000             lui $20, 0
6980	6324  36940000             ori $20, $20, 0
6981	6328  2A920000             slti $18, $20, 0
6982	632C  AFB2076C             sw $18, 1900($29)
6983	6330  02319025             or $18, $17, $17
6984	6334  29F27A49             sltiu $18, $15, 31305
6985	6338  AFB20770             sw $18, 1904($29)
6986	633C  3C11FFFD             lui $17, 65533
6987	6340  3631FFFD             ori $17, $17, 65533
6988	6344  3C140000             lui $20, 0
6989	6348  36940000             ori $20, $20, 0
6990	634C  2A920000             sltiu $18, $20, 0
6991	6350  AFB20774             sw $18, 1908($29)
6992	6354  02319025             or $18, $17, $17
6993	6358  39F27A49             xori $18, $15, 31305
6994	635C  AFB20778             sw $18, 1912($29)
6995	6360  3C11FFFD             lui $17, 65533
6996	6364  3631FFFD             ori $17, $17, 65533
6997	6368  3C140000             lui $20, 0
6998	636C  36940000             ori $20, $20, 0
6999	6370  3A920000             xori $18, $20, 0
7000	6374  AFB2077C             sw $18, 1916($29)
7001	6378  0C001EE5             jal increment_offset
7002	637C  0C001EDA             jal load_patterns
7003	6380  02319025             or $18, $17, $17
7004	6384  25F2AF83             addiu $18, $15, 44931
7005	6388  AFB20784             sw $18, 1924($29)
7006	638C  3C11FFFD             lui $17, 65533
7007	6390  3631FFFD             ori $17, $17, 65533
7008	6394  3C140000             lui $20, 0
7009	6398  36940000             ori $20, $20, 0
7010	639C  26920000             addiu $18, $20, 0
7011	63A0  AFB20788             sw $18, 1928($29)
7012	63A4  02319025             or $18, $17, $17
7013	63A8  31F2AF83             andi $18, $15, 44931
7014	63AC  AFB2078C             sw $18, 1932($29)
7015	63B0  3C11FFFD             lui $17, 65533
7016	63B4  3631FFFD             ori $17, $17, 65533
7017	63B8  3C140000             lui $20, 0
7018	63BC  36940000             ori $20, $20, 0
7019	63C0  32920000             andi $18, $20, 0
7020	63C4  AFB20790             sw $18, 1936($29)
7021	63C8  02319025             or $18, $17, $17
7022	63CC  35F2AF83             ori $18, $15, 44931
7023	63D0  AFB20794             sw $18, 1940($29)
7024	63D4  3C11FFFD             lui $17, 65533
7025	63D8  3631FFFD             ori $17, $17, 65533
7026	63DC  3C140000             lui $20, 0
7027	63E0  36940000             ori $20, $20, 0
7028	63E4  36920000             ori $18, $20, 0
7029	63E8  AFB20798             sw $18, 1944($29)
7030	63EC  02319025             or $18, $17, $17
7031	63F0  29F2AF83             slti $18, $15, 44931
7032	63F4  AFB2079C             sw $18, 1948($29)
7033	63F8  3C11FFFD             lui $17, 65533
7034	63FC  3631FFFD             ori $17, $17, 65533
7035	6400  3C140000             lui $20, 0
7036	6404  36940000             ori $20, $20, 0
7037	6408  2A920000             slti $18, $20, 0
7038	640C  AFB207A0             sw $18, 1952($29)
7039	6410  02319025             or $18, $17, $17
7040	6414  29F2AF83             sltiu $18, $15, 44931
7041	6418  AFB207A4             sw $18, 1956($29)
7042	641C  3C11FFFD             lui $17, 65533
7043	6420  3631FFFD             ori $17, $17, 65533
7044	6424  3C140000             lui $20, 0
7045	6428  36940000             ori $20, $20, 0
7046	642C  2A920000             sltiu $18, $20, 0
7047	6430  AFB207A8             sw $18, 1960($29)
7048	6434  02319025             or $18, $17, $17
7049	6438  39F2AF83             xori $18, $15, 44931
7050	643C  AFB207AC             sw $18, 1964($29)
7051	6440  3C11FFFD             lui $17, 65533
7052	6444  3631FFFD             ori $17, $17, 65533
7053	6448  3C140000             lui $20, 0
7054	644C  36940000             ori $20, $20, 0
7055	6450  3A920000             xori $18, $20, 0
7056	6454  AFB207B0             sw $18, 1968($29)
7057	6458  0C001EE5             jal increment_offset
7058	645C  0C001EDA             jal load_patterns
7059	6460  02319025             or $18, $17, $17
7060	6464  25F2A2DF             addiu $18, $15, 41695
7061	6468  AFB207B8             sw $18, 1976($29)
7062	646C  3C11FFFD             lui $17, 65533
7063	6470  3631FFFD             ori $17, $17, 65533
7064	6474  3C140000             lui $20, 0
7065	6478  36940000             ori $20, $20, 0
7066	647C  26920000             addiu $18, $20, 0
7067	6480  AFB207BC             sw $18, 1980($29)
7068	6484  02319025             or $18, $17, $17
7069	6488  31F2A2DF             andi $18, $15, 41695
7070	648C  AFB207C0             sw $18, 1984($29)
7071	6490  3C11FFFD             lui $17, 65533
7072	6494  3631FFFD             ori $17, $17, 65533
7073	6498  3C140000             lui $20, 0
7074	649C  36940000             ori $20, $20, 0
7075	64A0  32920000             andi $18, $20, 0
7076	64A4  AFB207C4             sw $18, 1988($29)
7077	64A8  02319025             or $18, $17, $17
7078	64AC  35F2A2DF             ori $18, $15, 41695
7079	64B0  AFB207C8             sw $18, 1992($29)
7080	64B4  3C11FFFD             lui $17, 65533
7081	64B8  3631FFFD             ori $17, $17, 65533
7082	64BC  3C140000             lui $20, 0
7083	64C0  36940000             ori $20, $20, 0
7084	64C4  36920000             ori $18, $20, 0
7085	64C8  AFB207CC             sw $18, 1996($29)
7086	64CC  02319025             or $18, $17, $17
7087	64D0  29F2A2DF             slti $18, $15, 41695
7088	64D4  AFB207D0             sw $18, 2000($29)
7089	64D8  3C11FFFD             lui $17, 65533
7090	64DC  3631FFFD             ori $17, $17, 65533
7091	64E0  3C140000             lui $20, 0
7092	64E4  36940000             ori $20, $20, 0
7093	64E8  2A920000             slti $18, $20, 0
7094	64EC  AFB207D4             sw $18, 2004($29)
7095	64F0  02319025             or $18, $17, $17
7096	64F4  29F2A2DF             sltiu $18, $15, 41695
7097	64F8  AFB207D8             sw $18, 2008($29)
7098	64FC  3C11FFFD             lui $17, 65533
7099	6500  3631FFFD             ori $17, $17, 65533
7100	6504  3C140000             lui $20, 0
7101	6508  36940000             ori $20, $20, 0
7102	650C  2A920000             sltiu $18, $20, 0
7103	6510  AFB207DC             sw $18, 2012($29)
7104	6514  02319025             or $18, $17, $17
7105	6518  39F2A2DF             xori $18, $15, 41695
7106	651C  AFB207E0             sw $18, 2016($29)
7107	6520  3C11FFFD             lui $17, 65533
7108	6524  3631FFFD             ori $17, $17, 65533
7109	6528  3C140000             lui $20, 0
7110	652C  36940000             ori $20, $20, 0
7111	6530  3A920000             xori $18, $20, 0
7112	6534  AFB207E4             sw $18, 2020($29)
7113	6538  0C001EE5             jal increment_offset
7114	653C  0C001EDA             jal load_patterns
7115	6540  02319025             or $18, $17, $17
7116	6544  25F202AD             addiu $18, $15, 685
7117	6548  AFB207EC             sw $18, 2028($29)
7118	654C  3C11FFFD             lui $17, 65533
7119	6550  3631FFFD             ori $17, $17, 65533
7120	6554  3C140000             lui $20, 0
7121	6558  36940000             ori $20, $20, 0
7122	655C  26920000             addiu $18, $20, 0
7123	6560  AFB207F0             sw $18, 2032($29)
7124	6564  02319025             or $18, $17, $17
7125	6568  31F202AD             andi $18, $15, 685
7126	656C  AFB207F4             sw $18, 2036($29)
7127	6570  3C11FFFD             lui $17, 65533
7128	6574  3631FFFD             ori $17, $17, 65533
7129	6578  3C140000             lui $20, 0
7130	657C  36940000             ori $20, $20, 0
7131	6580  32920000             andi $18, $20, 0
7132	6584  AFB207F8             sw $18, 2040($29)
7133	6588  02319025             or $18, $17, $17
7134	658C  35F202AD             ori $18, $15, 685
7135	6590  AFB207FC             sw $18, 2044($29)
7136	6594  3C11FFFD             lui $17, 65533
7137	6598  3631FFFD             ori $17, $17, 65533
7138	659C  3C140000             lui $20, 0
7139	65A0  36940000             ori $20, $20, 0
7140	65A4  36920000             ori $18, $20, 0
7141	65A8  AFB20800             sw $18, 2048($29)
7142	65AC  02319025             or $18, $17, $17
7143	65B0  29F202AD             slti $18, $15, 685
7144	65B4  AFB20804             sw $18, 2052($29)
7145	65B8  3C11FFFD             lui $17, 65533
7146	65BC  3631FFFD             ori $17, $17, 65533
7147	65C0  3C140000             lui $20, 0
7148	65C4  36940000             ori $20, $20, 0
7149	65C8  2A920000             slti $18, $20, 0
7150	65CC  AFB20808             sw $18, 2056($29)
7151	65D0  02319025             or $18, $17, $17
7152	65D4  29F202AD             sltiu $18, $15, 685
7153	65D8  AFB2080C             sw $18, 2060($29)
7154	65DC  3C11FFFD             lui $17, 65533
7155	65E0  3631FFFD             ori $17, $17, 65533
7156	65E4  3C140000             lui $20, 0
7157	65E8  36940000             ori $20, $20, 0
7158	65EC  2A920000             sltiu $18, $20, 0
7159	65F0  AFB20810             sw $18, 2064($29)
7160	65F4  02319025             or $18, $17, $17
7161	65F8  39F202AD             xori $18, $15, 685
7162	65FC  AFB20814             sw $18, 2068($29)
7163	6600  3C11FFFD             lui $17, 65533
7164	6604  3631FFFD             ori $17, $17, 65533
7165	6608  3C140000             lui $20, 0
7166	660C  36940000             ori $20, $20, 0
7167	6610  3A920000             xori $18, $20, 0
7168	6614  AFB20818             sw $18, 2072($29)
7169	6618  0C001EE5             jal increment_offset
7170	661C  0C001EDA             jal load_patterns
7171	6620  02319025             or $18, $17, $17
7172	6624  25F25D70             addiu $18, $15, 23920
7173	6628  AFB20820             sw $18, 2080($29)
7174	662C  3C11FFFD             lui $17, 65533
7175	6630  3631FFFD             ori $17, $17, 65533
7176	6634  3C140000             lui $20, 0
7177	6638  36940000             ori $20, $20, 0
7178	663C  26920000             addiu $18, $20, 0
7179	6640  AFB20824             sw $18, 2084($29)
7180	6644  02319025             or $18, $17, $17
7181	6648  31F25D70             andi $18, $15, 23920
7182	664C  AFB20828             sw $18, 2088($29)
7183	6650  3C11FFFD             lui $17, 65533
7184	6654  3631FFFD             ori $17, $17, 65533
7185	6658  3C140000             lui $20, 0
7186	665C  36940000             ori $20, $20, 0
7187	6660  32920000             andi $18, $20, 0
7188	6664  AFB2082C             sw $18, 2092($29)
7189	6668  02319025             or $18, $17, $17
7190	666C  35F25D70             ori $18, $15, 23920
7191	6670  AFB20830             sw $18, 2096($29)
7192	6674  3C11FFFD             lui $17, 65533
7193	6678  3631FFFD             ori $17, $17, 65533
7194	667C  3C140000             lui $20, 0
7195	6680  36940000             ori $20, $20, 0
7196	6684  36920000             ori $18, $20, 0
7197	6688  AFB20834             sw $18, 2100($29)
7198	668C  02319025             or $18, $17, $17
7199	6690  29F25D70             slti $18, $15, 23920
7200	6694  AFB20838             sw $18, 2104($29)
7201	6698  3C11FFFD             lui $17, 65533
7202	669C  3631FFFD             ori $17, $17, 65533
7203	66A0  3C140000             lui $20, 0
7204	66A4  36940000             ori $20, $20, 0
7205	66A8  2A920000             slti $18, $20, 0
7206	66AC  AFB2083C             sw $18, 2108($29)
7207	66B0  02319025             or $18, $17, $17
7208	66B4  29F25D70             sltiu $18, $15, 23920
7209	66B8  AFB20840             sw $18, 2112($29)
7210	66BC  3C11FFFD             lui $17, 65533
7211	66C0  3631FFFD             ori $17, $17, 65533
7212	66C4  3C140000             lui $20, 0
7213	66C8  36940000             ori $20, $20, 0
7214	66CC  2A920000             sltiu $18, $20, 0
7215	66D0  AFB20844             sw $18, 2116($29)
7216	66D4  02319025             or $18, $17, $17
7217	66D8  39F25D70             xori $18, $15, 23920
7218	66DC  AFB20848             sw $18, 2120($29)
7219	66E0  3C11FFFD             lui $17, 65533
7220	66E4  3631FFFD             ori $17, $17, 65533
7221	66E8  3C140000             lui $20, 0
7222	66EC  36940000             ori $20, $20, 0
7223	66F0  3A920000             xori $18, $20, 0
7224	66F4  AFB2084C             sw $18, 2124($29)
7225	66F8  0C001EE5             jal increment_offset
7226	66FC  0C001EDA             jal load_patterns
7227	6700  02319025             or $18, $17, $17
7228	6704  25F27410             addiu $18, $15, 29712
7229	6708  AFB20854             sw $18, 2132($29)
7230	670C  3C11FFFD             lui $17, 65533
7231	6710  3631FFFD             ori $17, $17, 65533
7232	6714  3C140000             lui $20, 0
7233	6718  36940000             ori $20, $20, 0
7234	671C  26920000             addiu $18, $20, 0
7235	6720  AFB20858             sw $18, 2136($29)
7236	6724  02319025             or $18, $17, $17
7237	6728  31F27410             andi $18, $15, 29712
7238	672C  AFB2085C             sw $18, 2140($29)
7239	6730  3C11FFFD             lui $17, 65533
7240	6734  3631FFFD             ori $17, $17, 65533
7241	6738  3C140000             lui $20, 0
7242	673C  36940000             ori $20, $20, 0
7243	6740  32920000             andi $18, $20, 0
7244	6744  AFB20860             sw $18, 2144($29)
7245	6748  02319025             or $18, $17, $17
7246	674C  35F27410             ori $18, $15, 29712
7247	6750  AFB20864             sw $18, 2148($29)
7248	6754  3C11FFFD             lui $17, 65533
7249	6758  3631FFFD             ori $17, $17, 65533
7250	675C  3C140000             lui $20, 0
7251	6760  36940000             ori $20, $20, 0
7252	6764  36920000             ori $18, $20, 0
7253	6768  AFB20868             sw $18, 2152($29)
7254	676C  02319025             or $18, $17, $17
7255	6770  29F27410             slti $18, $15, 29712
7256	6774  AFB2086C             sw $18, 2156($29)
7257	6778  3C11FFFD             lui $17, 65533
7258	677C  3631FFFD             ori $17, $17, 65533
7259	6780  3C140000             lui $20, 0
7260	6784  36940000             ori $20, $20, 0
7261	6788  2A920000             slti $18, $20, 0
7262	678C  AFB20870             sw $18, 2160($29)
7263	6790  02319025             or $18, $17, $17
7264	6794  29F27410             sltiu $18, $15, 29712
7265	6798  AFB20874             sw $18, 2164($29)
7266	679C  3C11FFFD             lui $17, 65533
7267	67A0  3631FFFD             ori $17, $17, 65533
7268	67A4  3C140000             lui $20, 0
7269	67A8  36940000             ori $20, $20, 0
7270	67AC  2A920000             sltiu $18, $20, 0
7271	67B0  AFB20878             sw $18, 2168($29)
7272	67B4  02319025             or $18, $17, $17
7273	67B8  39F27410             xori $18, $15, 29712
7274	67BC  AFB2087C             sw $18, 2172($29)
7275	67C0  3C11FFFD             lui $17, 65533
7276	67C4  3631FFFD             ori $17, $17, 65533
7277	67C8  3C140000             lui $20, 0
7278	67CC  36940000             ori $20, $20, 0
7279	67D0  3A920000             xori $18, $20, 0
7280	67D4  AFB20880             sw $18, 2176($29)
7281	67D8  0C001EE5             jal increment_offset
7282	67DC  0C001EDA             jal load_patterns
7283	67E0  02319025             or $18, $17, $17
7284	67E4  25F2D17E             addiu $18, $15, 53630
7285	67E8  AFB20888             sw $18, 2184($29)
7286	67EC  3C11FFFD             lui $17, 65533
7287	67F0  3631FFFD             ori $17, $17, 65533
7288	67F4  3C140000             lui $20, 0
7289	67F8  36940000             ori $20, $20, 0
7290	67FC  26920000             addiu $18, $20, 0
7291	6800  AFB2088C             sw $18, 2188($29)
7292	6804  02319025             or $18, $17, $17
7293	6808  31F2D17E             andi $18, $15, 53630
7294	680C  AFB20890             sw $18, 2192($29)
7295	6810  3C11FFFD             lui $17, 65533
7296	6814  3631FFFD             ori $17, $17, 65533
7297	6818  3C140000             lui $20, 0
7298	681C  36940000             ori $20, $20, 0
7299	6820  32920000             andi $18, $20, 0
7300	6824  AFB20894             sw $18, 2196($29)
7301	6828  02319025             or $18, $17, $17
7302	682C  35F2D17E             ori $18, $15, 53630
7303	6830  AFB20898             sw $18, 2200($29)
7304	6834  3C11FFFD             lui $17, 65533
7305	6838  3631FFFD             ori $17, $17, 65533
7306	683C  3C140000             lui $20, 0
7307	6840  36940000             ori $20, $20, 0
7308	6844  36920000             ori $18, $20, 0
7309	6848  AFB2089C             sw $18, 2204($29)
7310	684C  02319025             or $18, $17, $17
7311	6850  29F2D17E             slti $18, $15, 53630
7312	6854  AFB208A0             sw $18, 2208($29)
7313	6858  3C11FFFD             lui $17, 65533
7314	685C  3631FFFD             ori $17, $17, 65533
7315	6860  3C140000             lui $20, 0
7316	6864  36940000             ori $20, $20, 0
7317	6868  2A920000             slti $18, $20, 0
7318	686C  AFB208A4             sw $18, 2212($29)
7319	6870  02319025             or $18, $17, $17
7320	6874  29F2D17E             sltiu $18, $15, 53630
7321	6878  AFB208A8             sw $18, 2216($29)
7322	687C  3C11FFFD             lui $17, 65533
7323	6880  3631FFFD             ori $17, $17, 65533
7324	6884  3C140000             lui $20, 0
7325	6888  36940000             ori $20, $20, 0
7326	688C  2A920000             sltiu $18, $20, 0
7327	6890  AFB208AC             sw $18, 2220($29)
7328	6894  02319025             or $18, $17, $17
7329	6898  39F2D17E             xori $18, $15, 53630
7330	689C  AFB208B0             sw $18, 2224($29)
7331	68A0  3C11FFFD             lui $17, 65533
7332	68A4  3631FFFD             ori $17, $17, 65533
7333	68A8  3C140000             lui $20, 0
7334	68AC  36940000             ori $20, $20, 0
7335	68B0  3A920000             xori $18, $20, 0
7336	68B4  AFB208B4             sw $18, 2228($29)
7337	68B8  0C001EE5             jal increment_offset
7338	68BC  0C001EDA             jal load_patterns
7339	68C0  02319025             or $18, $17, $17
7340	68C4  25F2AB28             addiu $18, $15, 43816
7341	68C8  AFB208BC             sw $18, 2236($29)
7342	68CC  3C11FFFD             lui $17, 65533
7343	68D0  3631FFFD             ori $17, $17, 65533
7344	68D4  3C140000             lui $20, 0
7345	68D8  36940000             ori $20, $20, 0
7346	68DC  26920000             addiu $18, $20, 0
7347	68E0  AFB208C0             sw $18, 2240($29)
7348	68E4  02319025             or $18, $17, $17
7349	68E8  31F2AB28             andi $18, $15, 43816
7350	68EC  AFB208C4             sw $18, 2244($29)
7351	68F0  3C11FFFD             lui $17, 65533
7352	68F4  3631FFFD             ori $17, $17, 65533
7353	68F8  3C140000             lui $20, 0
7354	68FC  36940000             ori $20, $20, 0
7355	6900  32920000             andi $18, $20, 0
7356	6904  AFB208C8             sw $18, 2248($29)
7357	6908  02319025             or $18, $17, $17
7358	690C  35F2AB28             ori $18, $15, 43816
7359	6910  AFB208CC             sw $18, 2252($29)
7360	6914  3C11FFFD             lui $17, 65533
7361	6918  3631FFFD             ori $17, $17, 65533
7362	691C  3C140000             lui $20, 0
7363	6920  36940000             ori $20, $20, 0
7364	6924  36920000             ori $18, $20, 0
7365	6928  AFB208D0             sw $18, 2256($29)
7366	692C  02319025             or $18, $17, $17
7367	6930  29F2AB28             slti $18, $15, 43816
7368	6934  AFB208D4             sw $18, 2260($29)
7369	6938  3C11FFFD             lui $17, 65533
7370	693C  3631FFFD             ori $17, $17, 65533
7371	6940  3C140000             lui $20, 0
7372	6944  36940000             ori $20, $20, 0
7373	6948  2A920000             slti $18, $20, 0
7374	694C  AFB208D8             sw $18, 2264($29)
7375	6950  02319025             or $18, $17, $17
7376	6954  29F2AB28             sltiu $18, $15, 43816
7377	6958  AFB208DC             sw $18, 2268($29)
7378	695C  3C11FFFD             lui $17, 65533
7379	6960  3631FFFD             ori $17, $17, 65533
7380	6964  3C140000             lui $20, 0
7381	6968  36940000             ori $20, $20, 0
7382	696C  2A920000             sltiu $18, $20, 0
7383	6970  AFB208E0             sw $18, 2272($29)
7384	6974  02319025             or $18, $17, $17
7385	6978  39F2AB28             xori $18, $15, 43816
7386	697C  AFB208E4             sw $18, 2276($29)
7387	6980  3C11FFFD             lui $17, 65533
7388	6984  3631FFFD             ori $17, $17, 65533
7389	6988  3C140000             lui $20, 0
7390	698C  36940000             ori $20, $20, 0
7391	6990  3A920000             xori $18, $20, 0
7392	6994  AFB208E8             sw $18, 2280($29)
7393	6998  0C001EE5             jal increment_offset
7394	699C  0C001EDA             jal load_patterns
7395	69A0  02319025             or $18, $17, $17
7396	69A4  25F2A1AF             addiu $18, $15, 41391
7397	69A8  AFB208F0             sw $18, 2288($29)
7398	69AC  3C11FFFD             lui $17, 65533
7399	69B0  3631FFFD             ori $17, $17, 65533
7400	69B4  3C140000             lui $20, 0
7401	69B8  36940000             ori $20, $20, 0
7402	69BC  26920000             addiu $18, $20, 0
7403	69C0  AFB208F4             sw $18, 2292($29)
7404	69C4  02319025             or $18, $17, $17
7405	69C8  31F2A1AF             andi $18, $15, 41391
7406	69CC  AFB208F8             sw $18, 2296($29)
7407	69D0  3C11FFFD             lui $17, 65533
7408	69D4  3631FFFD             ori $17, $17, 65533
7409	69D8  3C140000             lui $20, 0
7410	69DC  36940000             ori $20, $20, 0
7411	69E0  32920000             andi $18, $20, 0
7412	69E4  AFB208FC             sw $18, 2300($29)
7413	69E8  02319025             or $18, $17, $17
7414	69EC  35F2A1AF             ori $18, $15, 41391
7415	69F0  AFB20900             sw $18, 2304($29)
7416	69F4  3C11FFFD             lui $17, 65533
7417	69F8  3631FFFD             ori $17, $17, 65533
7418	69FC  3C140000             lui $20, 0
7419	6A00  36940000             ori $20, $20, 0
7420	6A04  36920000             ori $18, $20, 0
7421	6A08  AFB20904             sw $18, 2308($29)
7422	6A0C  02319025             or $18, $17, $17
7423	6A10  29F2A1AF             slti $18, $15, 41391
7424	6A14  AFB20908             sw $18, 2312($29)
7425	6A18  3C11FFFD             lui $17, 65533
7426	6A1C  3631FFFD             ori $17, $17, 65533
7427	6A20  3C140000             lui $20, 0
7428	6A24  36940000             ori $20, $20, 0
7429	6A28  2A920000             slti $18, $20, 0
7430	6A2C  AFB2090C             sw $18, 2316($29)
7431	6A30  02319025             or $18, $17, $17
7432	6A34  29F2A1AF             sltiu $18, $15, 41391
7433	6A38  AFB20910             sw $18, 2320($29)
7434	6A3C  3C11FFFD             lui $17, 65533
7435	6A40  3631FFFD             ori $17, $17, 65533
7436	6A44  3C140000             lui $20, 0
7437	6A48  36940000             ori $20, $20, 0
7438	6A4C  2A920000             sltiu $18, $20, 0
7439	6A50  AFB20914             sw $18, 2324($29)
7440	6A54  02319025             or $18, $17, $17
7441	6A58  39F2A1AF             xori $18, $15, 41391
7442	6A5C  AFB20918             sw $18, 2328($29)
7443	6A60  3C11FFFD             lui $17, 65533
7444	6A64  3631FFFD             ori $17, $17, 65533
7445	6A68  3C140000             lui $20, 0
7446	6A6C  36940000             ori $20, $20, 0
7447	6A70  3A920000             xori $18, $20, 0
7448	6A74  AFB2091C             sw $18, 2332($29)
7449	6A78  0C001EE5             jal increment_offset
7450	6A7C  0C001EDA             jal load_patterns
7451	6A80  02319025             or $18, $17, $17
7452	6A84  25F21A1F             addiu $18, $15, 6687
7453	6A88  AFB20924             sw $18, 2340($29)
7454	6A8C  3C11FFFD             lui $17, 65533
7455	6A90  3631FFFD             ori $17, $17, 65533
7456	6A94  3C140000             lui $20, 0
7457	6A98  36940000             ori $20, $20, 0
7458	6A9C  26920000             addiu $18, $20, 0
7459	6AA0  AFB20928             sw $18, 2344($29)
7460	6AA4  02319025             or $18, $17, $17
7461	6AA8  31F21A1F             andi $18, $15, 6687
7462	6AAC  AFB2092C             sw $18, 2348($29)
7463	6AB0  3C11FFFD             lui $17, 65533
7464	6AB4  3631FFFD             ori $17, $17, 65533
7465	6AB8  3C140000             lui $20, 0
7466	6ABC  36940000             ori $20, $20, 0
7467	6AC0  32920000             andi $18, $20, 0
7468	6AC4  AFB20930             sw $18, 2352($29)
7469	6AC8  02319025             or $18, $17, $17
7470	6ACC  35F21A1F             ori $18, $15, 6687
7471	6AD0  AFB20934             sw $18, 2356($29)
7472	6AD4  3C11FFFD             lui $17, 65533
7473	6AD8  3631FFFD             ori $17, $17, 65533
7474	6ADC  3C140000             lui $20, 0
7475	6AE0  36940000             ori $20, $20, 0
7476	6AE4  36920000             ori $18, $20, 0
7477	6AE8  AFB20938             sw $18, 2360($29)
7478	6AEC  02319025             or $18, $17, $17
7479	6AF0  29F21A1F             slti $18, $15, 6687
7480	6AF4  AFB2093C             sw $18, 2364($29)
7481	6AF8  3C11FFFD             lui $17, 65533
7482	6AFC  3631FFFD             ori $17, $17, 65533
7483	6B00  3C140000             lui $20, 0
7484	6B04  36940000             ori $20, $20, 0
7485	6B08  2A920000             slti $18, $20, 0
7486	6B0C  AFB20940             sw $18, 2368($29)
7487	6B10  02319025             or $18, $17, $17
7488	6B14  29F21A1F             sltiu $18, $15, 6687
7489	6B18  AFB20944             sw $18, 2372($29)
7490	6B1C  3C11FFFD             lui $17, 65533
7491	6B20  3631FFFD             ori $17, $17, 65533
7492	6B24  3C140000             lui $20, 0
7493	6B28  36940000             ori $20, $20, 0
7494	6B2C  2A920000             sltiu $18, $20, 0
7495	6B30  AFB20948             sw $18, 2376($29)
7496	6B34  02319025             or $18, $17, $17
7497	6B38  39F21A1F             xori $18, $15, 6687
7498	6B3C  AFB2094C             sw $18, 2380($29)
7499	6B40  3C11FFFD             lui $17, 65533
7500	6B44  3631FFFD             ori $17, $17, 65533
7501	6B48  3C140000             lui $20, 0
7502	6B4C  36940000             ori $20, $20, 0
7503	6B50  3A920000             xori $18, $20, 0
7504	6B54  AFB20950             sw $18, 2384($29)
7505	6B58  0C001EE5             jal increment_offset
7506	6B5C  0C001EDA             jal load_patterns
7507	6B60  02319025             or $18, $17, $17
7508	6B64  25F22369             addiu $18, $15, 9065
7509	6B68  AFB20958             sw $18, 2392($29)
7510	6B6C  3C11FFFD             lui $17, 65533
7511	6B70  3631FFFD             ori $17, $17, 65533
7512	6B74  3C140000             lui $20, 0
7513	6B78  36940000             ori $20, $20, 0
7514	6B7C  26920000             addiu $18, $20, 0
7515	6B80  AFB2095C             sw $18, 2396($29)
7516	6B84  02319025             or $18, $17, $17
7517	6B88  31F22369             andi $18, $15, 9065
7518	6B8C  AFB20960             sw $18, 2400($29)
7519	6B90  3C11FFFD             lui $17, 65533
7520	6B94  3631FFFD             ori $17, $17, 65533
7521	6B98  3C140000             lui $20, 0
7522	6B9C  36940000             ori $20, $20, 0
7523	6BA0  32920000             andi $18, $20, 0
7524	6BA4  AFB20964             sw $18, 2404($29)
7525	6BA8  02319025             or $18, $17, $17
7526	6BAC  35F22369             ori $18, $15, 9065
7527	6BB0  AFB20968             sw $18, 2408($29)
7528	6BB4  3C11FFFD             lui $17, 65533
7529	6BB8  3631FFFD             ori $17, $17, 65533
7530	6BBC  3C140000             lui $20, 0
7531	6BC0  36940000             ori $20, $20, 0
7532	6BC4  36920000             ori $18, $20, 0
7533	6BC8  AFB2096C             sw $18, 2412($29)
7534	6BCC  02319025             or $18, $17, $17
7535	6BD0  29F22369             slti $18, $15, 9065
7536	6BD4  AFB20970             sw $18, 2416($29)
7537	6BD8  3C11FFFD             lui $17, 65533
7538	6BDC  3631FFFD             ori $17, $17, 65533
7539	6BE0  3C140000             lui $20, 0
7540	6BE4  36940000             ori $20, $20, 0
7541	6BE8  2A920000             slti $18, $20, 0
7542	6BEC  AFB20974             sw $18, 2420($29)
7543	6BF0  02319025             or $18, $17, $17
7544	6BF4  29F22369             sltiu $18, $15, 9065
7545	6BF8  AFB20978             sw $18, 2424($29)
7546	6BFC  3C11FFFD             lui $17, 65533
7547	6C00  3631FFFD             ori $17, $17, 65533
7548	6C04  3C140000             lui $20, 0
7549	6C08  36940000             ori $20, $20, 0
7550	6C0C  2A920000             sltiu $18, $20, 0
7551	6C10  AFB2097C             sw $18, 2428($29)
7552	6C14  02319025             or $18, $17, $17
7553	6C18  39F22369             xori $18, $15, 9065
7554	6C1C  AFB20980             sw $18, 2432($29)
7555	6C20  3C11FFFD             lui $17, 65533
7556	6C24  3631FFFD             ori $17, $17, 65533
7557	6C28  3C140000             lui $20, 0
7558	6C2C  36940000             ori $20, $20, 0
7559	6C30  3A920000             xori $18, $20, 0
7560	6C34  AFB20984             sw $18, 2436($29)
7561	6C38  0C001EE5             jal increment_offset
7562	6C3C  0C001EDA             jal load_patterns
7563	6C40  02319025             or $18, $17, $17
7564	6C44  25F2AFBE             addiu $18, $15, 44990
7565	6C48  AFB2098C             sw $18, 2444($29)
7566	6C4C  3C11FFFD             lui $17, 65533
7567	6C50  3631FFFD             ori $17, $17, 65533
7568	6C54  3C140000             lui $20, 0
7569	6C58  36940000             ori $20, $20, 0
7570	6C5C  26920000             addiu $18, $20, 0
7571	6C60  AFB20990             sw $18, 2448($29)
7572	6C64  02319025             or $18, $17, $17
7573	6C68  31F2AFBE             andi $18, $15, 44990
7574	6C6C  AFB20994             sw $18, 2452($29)
7575	6C70  3C11FFFD             lui $17, 65533
7576	6C74  3631FFFD             ori $17, $17, 65533
7577	6C78  3C140000             lui $20, 0
7578	6C7C  36940000             ori $20, $20, 0
7579	6C80  32920000             andi $18, $20, 0
7580	6C84  AFB20998             sw $18, 2456($29)
7581	6C88  02319025             or $18, $17, $17
7582	6C8C  35F2AFBE             ori $18, $15, 44990
7583	6C90  AFB2099C             sw $18, 2460($29)
7584	6C94  3C11FFFD             lui $17, 65533
7585	6C98  3631FFFD             ori $17, $17, 65533
7586	6C9C  3C140000             lui $20, 0
7587	6CA0  36940000             ori $20, $20, 0
7588	6CA4  36920000             ori $18, $20, 0
7589	6CA8  AFB209A0             sw $18, 2464($29)
7590	6CAC  02319025             or $18, $17, $17
7591	6CB0  29F2AFBE             slti $18, $15, 44990
7592	6CB4  AFB209A4             sw $18, 2468($29)
7593	6CB8  3C11FFFD             lui $17, 65533
7594	6CBC  3631FFFD             ori $17, $17, 65533
7595	6CC0  3C140000             lui $20, 0
7596	6CC4  36940000             ori $20, $20, 0
7597	6CC8  2A920000             slti $18, $20, 0
7598	6CCC  AFB209A8             sw $18, 2472($29)
7599	6CD0  02319025             or $18, $17, $17
7600	6CD4  29F2AFBE             sltiu $18, $15, 44990
7601	6CD8  AFB209AC             sw $18, 2476($29)
7602	6CDC  3C11FFFD             lui $17, 65533
7603	6CE0  3631FFFD             ori $17, $17, 65533
7604	6CE4  3C140000             lui $20, 0
7605	6CE8  36940000             ori $20, $20, 0
7606	6CEC  2A920000             sltiu $18, $20, 0
7607	6CF0  AFB209B0             sw $18, 2480($29)
7608	6CF4  02319025             or $18, $17, $17
7609	6CF8  39F2AFBE             xori $18, $15, 44990
7610	6CFC  AFB209B4             sw $18, 2484($29)
7611	6D00  3C11FFFD             lui $17, 65533
7612	6D04  3631FFFD             ori $17, $17, 65533
7613	6D08  3C140000             lui $20, 0
7614	6D0C  36940000             ori $20, $20, 0
7615	6D10  3A920000             xori $18, $20, 0
7616	6D14  AFB209B8             sw $18, 2488($29)
7617	6D18  0C001EE5             jal increment_offset
7618	6D1C  0C001EDA             jal load_patterns
7619	6D20  02319025             or $18, $17, $17
7620	6D24  25F26877             addiu $18, $15, 26743
7621	6D28  AFB209C0             sw $18, 2496($29)
7622	6D2C  3C11FFFD             lui $17, 65533
7623	6D30  3631FFFD             ori $17, $17, 65533
7624	6D34  3C140000             lui $20, 0
7625	6D38  36940000             ori $20, $20, 0
7626	6D3C  26920000             addiu $18, $20, 0
7627	6D40  AFB209C4             sw $18, 2500($29)
7628	6D44  02319025             or $18, $17, $17
7629	6D48  31F26877             andi $18, $15, 26743
7630	6D4C  AFB209C8             sw $18, 2504($29)
7631	6D50  3C11FFFD             lui $17, 65533
7632	6D54  3631FFFD             ori $17, $17, 65533
7633	6D58  3C140000             lui $20, 0
7634	6D5C  36940000             ori $20, $20, 0
7635	6D60  32920000             andi $18, $20, 0
7636	6D64  AFB209CC             sw $18, 2508($29)
7637	6D68  02319025             or $18, $17, $17
7638	6D6C  35F26877             ori $18, $15, 26743
7639	6D70  AFB209D0             sw $18, 2512($29)
7640	6D74  3C11FFFD             lui $17, 65533
7641	6D78  3631FFFD             ori $17, $17, 65533
7642	6D7C  3C140000             lui $20, 0
7643	6D80  36940000             ori $20, $20, 0
7644	6D84  36920000             ori $18, $20, 0
7645	6D88  AFB209D4             sw $18, 2516($29)
7646	6D8C  02319025             or $18, $17, $17
7647	6D90  29F26877             slti $18, $15, 26743
7648	6D94  AFB209D8             sw $18, 2520($29)
7649	6D98  3C11FFFD             lui $17, 65533
7650	6D9C  3631FFFD             ori $17, $17, 65533
7651	6DA0  3C140000             lui $20, 0
7652	6DA4  36940000             ori $20, $20, 0
7653	6DA8  2A920000             slti $18, $20, 0
7654	6DAC  AFB209DC             sw $18, 2524($29)
7655	6DB0  02319025             or $18, $17, $17
7656	6DB4  29F26877             sltiu $18, $15, 26743
7657	6DB8  AFB209E0             sw $18, 2528($29)
7658	6DBC  3C11FFFD             lui $17, 65533
7659	6DC0  3631FFFD             ori $17, $17, 65533
7660	6DC4  3C140000             lui $20, 0
7661	6DC8  36940000             ori $20, $20, 0
7662	6DCC  2A920000             sltiu $18, $20, 0
7663	6DD0  AFB209E4             sw $18, 2532($29)
7664	6DD4  02319025             or $18, $17, $17
7665	6DD8  39F26877             xori $18, $15, 26743
7666	6DDC  AFB209E8             sw $18, 2536($29)
7667	6DE0  3C11FFFD             lui $17, 65533
7668	6DE4  3631FFFD             ori $17, $17, 65533
7669	6DE8  3C140000             lui $20, 0
7670	6DEC  36940000             ori $20, $20, 0
7671	6DF0  3A920000             xori $18, $20, 0
7672	6DF4  AFB209EC             sw $18, 2540($29)
7673	6DF8  0C001EE5             jal increment_offset
7674	6DFC  0C001EDA             jal load_patterns
7675	6E00  02319025             or $18, $17, $17
7676	6E04  25F2FBA0             addiu $18, $15, 64416
7677	6E08  AFB209F4             sw $18, 2548($29)
7678	6E0C  3C11FFFD             lui $17, 65533
7679	6E10  3631FFFD             ori $17, $17, 65533
7680	6E14  3C140000             lui $20, 0
7681	6E18  36940000             ori $20, $20, 0
7682	6E1C  26920000             addiu $18, $20, 0
7683	6E20  AFB209F8             sw $18, 2552($29)
7684	6E24  02319025             or $18, $17, $17
7685	6E28  31F2FBA0             andi $18, $15, 64416
7686	6E2C  AFB209FC             sw $18, 2556($29)
7687	6E30  3C11FFFD             lui $17, 65533
7688	6E34  3631FFFD             ori $17, $17, 65533
7689	6E38  3C140000             lui $20, 0
7690	6E3C  36940000             ori $20, $20, 0
7691	6E40  32920000             andi $18, $20, 0
7692	6E44  AFB20A00             sw $18, 2560($29)
7693	6E48  02319025             or $18, $17, $17
7694	6E4C  35F2FBA0             ori $18, $15, 64416
7695	6E50  AFB20A04             sw $18, 2564($29)
7696	6E54  3C11FFFD             lui $17, 65533
7697	6E58  3631FFFD             ori $17, $17, 65533
7698	6E5C  3C140000             lui $20, 0
7699	6E60  36940000             ori $20, $20, 0
7700	6E64  36920000             ori $18, $20, 0
7701	6E68  AFB20A08             sw $18, 2568($29)
7702	6E6C  02319025             or $18, $17, $17
7703	6E70  29F2FBA0             slti $18, $15, 64416
7704	6E74  AFB20A0C             sw $18, 2572($29)
7705	6E78  3C11FFFD             lui $17, 65533
7706	6E7C  3631FFFD             ori $17, $17, 65533
7707	6E80  3C140000             lui $20, 0
7708	6E84  36940000             ori $20, $20, 0
7709	6E88  2A920000             slti $18, $20, 0
7710	6E8C  AFB20A10             sw $18, 2576($29)
7711	6E90  02319025             or $18, $17, $17
7712	6E94  29F2FBA0             sltiu $18, $15, 64416
7713	6E98  AFB20A14             sw $18, 2580($29)
7714	6E9C  3C11FFFD             lui $17, 65533
7715	6EA0  3631FFFD             ori $17, $17, 65533
7716	6EA4  3C140000             lui $20, 0
7717	6EA8  36940000             ori $20, $20, 0
7718	6EAC  2A920000             sltiu $18, $20, 0
7719	6EB0  AFB20A18             sw $18, 2584($29)
7720	6EB4  02319025             or $18, $17, $17
7721	6EB8  39F2FBA0             xori $18, $15, 64416
7722	6EBC  AFB20A1C             sw $18, 2588($29)
7723	6EC0  3C11FFFD             lui $17, 65533
7724	6EC4  3631FFFD             ori $17, $17, 65533
7725	6EC8  3C140000             lui $20, 0
7726	6ECC  36940000             ori $20, $20, 0
7727	6ED0  3A920000             xori $18, $20, 0
7728	6ED4  AFB20A20             sw $18, 2592($29)
7729	6ED8  0C001EE5             jal increment_offset
7730	6EDC  0C001EDA             jal load_patterns
7731	6EE0  02319025             or $18, $17, $17
7732	6EE4  25F2CFF9             addiu $18, $15, 53241
7733	6EE8  AFB20A28             sw $18, 2600($29)
7734	6EEC  3C11FFFD             lui $17, 65533
7735	6EF0  3631FFFD             ori $17, $17, 65533
7736	6EF4  3C140000             lui $20, 0
7737	6EF8  36940000             ori $20, $20, 0
7738	6EFC  26920000             addiu $18, $20, 0
7739	6F00  AFB20A2C             sw $18, 2604($29)
7740	6F04  02319025             or $18, $17, $17
7741	6F08  31F2CFF9             andi $18, $15, 53241
7742	6F0C  AFB20A30             sw $18, 2608($29)
7743	6F10  3C11FFFD             lui $17, 65533
7744	6F14  3631FFFD             ori $17, $17, 65533
7745	6F18  3C140000             lui $20, 0
7746	6F1C  36940000             ori $20, $20, 0
7747	6F20  32920000             andi $18, $20, 0
7748	6F24  AFB20A34             sw $18, 2612($29)
7749	6F28  02319025             or $18, $17, $17
7750	6F2C  35F2CFF9             ori $18, $15, 53241
7751	6F30  AFB20A38             sw $18, 2616($29)
7752	6F34  3C11FFFD             lui $17, 65533
7753	6F38  3631FFFD             ori $17, $17, 65533
7754	6F3C  3C140000             lui $20, 0
7755	6F40  36940000             ori $20, $20, 0
7756	6F44  36920000             ori $18, $20, 0
7757	6F48  AFB20A3C             sw $18, 2620($29)
7758	6F4C  02319025             or $18, $17, $17
7759	6F50  29F2CFF9             slti $18, $15, 53241
7760	6F54  AFB20A40             sw $18, 2624($29)
7761	6F58  3C11FFFD             lui $17, 65533
7762	6F5C  3631FFFD             ori $17, $17, 65533
7763	6F60  3C140000             lui $20, 0
7764	6F64  36940000             ori $20, $20, 0
7765	6F68  2A920000             slti $18, $20, 0
7766	6F6C  AFB20A44             sw $18, 2628($29)
7767	6F70  02319025             or $18, $17, $17
7768	6F74  29F2CFF9             sltiu $18, $15, 53241
7769	6F78  AFB20A48             sw $18, 2632($29)
7770	6F7C  3C11FFFD             lui $17, 65533
7771	6F80  3631FFFD             ori $17, $17, 65533
7772	6F84  3C140000             lui $20, 0
7773	6F88  36940000             ori $20, $20, 0
7774	6F8C  2A920000             sltiu $18, $20, 0
7775	6F90  AFB20A4C             sw $18, 2636($29)
7776	6F94  02319025             or $18, $17, $17
7777	6F98  39F2CFF9             xori $18, $15, 53241
7778	6F9C  AFB20A50             sw $18, 2640($29)
7779	6FA0  3C11FFFD             lui $17, 65533
7780	6FA4  3631FFFD             ori $17, $17, 65533
7781	6FA8  3C140000             lui $20, 0
7782	6FAC  36940000             ori $20, $20, 0
7783	6FB0  3A920000             xori $18, $20, 0
7784	6FB4  AFB20A54             sw $18, 2644($29)
7785	6FB8  0C001EE5             jal increment_offset
7786	6FBC  0C001EDA             jal load_patterns
7787	6FC0  02319025             or $18, $17, $17
7788	6FC4  25F2B14E             addiu $18, $15, 45390
7789	6FC8  AFB20A5C             sw $18, 2652($29)
7790	6FCC  3C11FFFD             lui $17, 65533
7791	6FD0  3631FFFD             ori $17, $17, 65533
7792	6FD4  3C140000             lui $20, 0
7793	6FD8  36940000             ori $20, $20, 0
7794	6FDC  26920000             addiu $18, $20, 0
7795	6FE0  AFB20A60             sw $18, 2656($29)
7796	6FE4  02319025             or $18, $17, $17
7797	6FE8  31F2B14E             andi $18, $15, 45390
7798	6FEC  AFB20A64             sw $18, 2660($29)
7799	6FF0  3C11FFFD             lui $17, 65533
7800	6FF4  3631FFFD             ori $17, $17, 65533
7801	6FF8  3C140000             lui $20, 0
7802	6FFC  36940000             ori $20, $20, 0
7803	7000  32920000             andi $18, $20, 0
7804	7004  AFB20A68             sw $18, 2664($29)
7805	7008  02319025             or $18, $17, $17
7806	700C  35F2B14E             ori $18, $15, 45390
7807	7010  AFB20A6C             sw $18, 2668($29)
7808	7014  3C11FFFD             lui $17, 65533
7809	7018  3631FFFD             ori $17, $17, 65533
7810	701C  3C140000             lui $20, 0
7811	7020  36940000             ori $20, $20, 0
7812	7024  36920000             ori $18, $20, 0
7813	7028  AFB20A70             sw $18, 2672($29)
7814	702C  02319025             or $18, $17, $17
7815	7030  29F2B14E             slti $18, $15, 45390
7816	7034  AFB20A74             sw $18, 2676($29)
7817	7038  3C11FFFD             lui $17, 65533
7818	703C  3631FFFD             ori $17, $17, 65533
7819	7040  3C140000             lui $20, 0
7820	7044  36940000             ori $20, $20, 0
7821	7048  2A920000             slti $18, $20, 0
7822	704C  AFB20A78             sw $18, 2680($29)
7823	7050  02319025             or $18, $17, $17
7824	7054  29F2B14E             sltiu $18, $15, 45390
7825	7058  AFB20A7C             sw $18, 2684($29)
7826	705C  3C11FFFD             lui $17, 65533
7827	7060  3631FFFD             ori $17, $17, 65533
7828	7064  3C140000             lui $20, 0
7829	7068  36940000             ori $20, $20, 0
7830	706C  2A920000             sltiu $18, $20, 0
7831	7070  AFB20A80             sw $18, 2688($29)
7832	7074  02319025             or $18, $17, $17
7833	7078  39F2B14E             xori $18, $15, 45390
7834	707C  AFB20A84             sw $18, 2692($29)
7835	7080  3C11FFFD             lui $17, 65533
7836	7084  3631FFFD             ori $17, $17, 65533
7837	7088  3C140000             lui $20, 0
7838	708C  36940000             ori $20, $20, 0
7839	7090  3A920000             xori $18, $20, 0
7840	7094  AFB20A88             sw $18, 2696($29)
7841	7098  0C001EE5             jal increment_offset
7842	709C  0C001EDA             jal load_patterns
7843	70A0  02319025             or $18, $17, $17
7844	70A4  25F28ACC             addiu $18, $15, 35532
7845	70A8  AFB20A90             sw $18, 2704($29)
7846	70AC  3C11FFFD             lui $17, 65533
7847	70B0  3631FFFD             ori $17, $17, 65533
7848	70B4  3C140000             lui $20, 0
7849	70B8  36940000             ori $20, $20, 0
7850	70BC  26920000             addiu $18, $20, 0
7851	70C0  AFB20A94             sw $18, 2708($29)
7852	70C4  02319025             or $18, $17, $17
7853	70C8  31F28ACC             andi $18, $15, 35532
7854	70CC  AFB20A98             sw $18, 2712($29)
7855	70D0  3C11FFFD             lui $17, 65533
7856	70D4  3631FFFD             ori $17, $17, 65533
7857	70D8  3C140000             lui $20, 0
7858	70DC  36940000             ori $20, $20, 0
7859	70E0  32920000             andi $18, $20, 0
7860	70E4  AFB20A9C             sw $18, 2716($29)
7861	70E8  02319025             or $18, $17, $17
7862	70EC  35F28ACC             ori $18, $15, 35532
7863	70F0  AFB20AA0             sw $18, 2720($29)
7864	70F4  3C11FFFD             lui $17, 65533
7865	70F8  3631FFFD             ori $17, $17, 65533
7866	70FC  3C140000             lui $20, 0
7867	7100  36940000             ori $20, $20, 0
7868	7104  36920000             ori $18, $20, 0
7869	7108  AFB20AA4             sw $18, 2724($29)
7870	710C  02319025             or $18, $17, $17
7871	7110  29F28ACC             slti $18, $15, 35532
7872	7114  AFB20AA8             sw $18, 2728($29)
7873	7118  3C11FFFD             lui $17, 65533
7874	711C  3631FFFD             ori $17, $17, 65533
7875	7120  3C140000             lui $20, 0
7876	7124  36940000             ori $20, $20, 0
7877	7128  2A920000             slti $18, $20, 0
7878	712C  AFB20AAC             sw $18, 2732($29)
7879	7130  02319025             or $18, $17, $17
7880	7134  29F28ACC             sltiu $18, $15, 35532
7881	7138  AFB20AB0             sw $18, 2736($29)
7882	713C  3C11FFFD             lui $17, 65533
7883	7140  3631FFFD             ori $17, $17, 65533
7884	7144  3C140000             lui $20, 0
7885	7148  36940000             ori $20, $20, 0
7886	714C  2A920000             sltiu $18, $20, 0
7887	7150  AFB20AB4             sw $18, 2740($29)
7888	7154  02319025             or $18, $17, $17
7889	7158  39F28ACC             xori $18, $15, 35532
7890	715C  AFB20AB8             sw $18, 2744($29)
7891	7160  3C11FFFD             lui $17, 65533
7892	7164  3631FFFD             ori $17, $17, 65533
7893	7168  3C140000             lui $20, 0
7894	716C  36940000             ori $20, $20, 0
7895	7170  3A920000             xori $18, $20, 0
7896	7174  AFB20ABC             sw $18, 2748($29)
7897	7178  0C001EE5             jal increment_offset
7898	717C  0C001EDA             jal load_patterns
7899	7180  02319025             or $18, $17, $17
7900	7184  25F20159             addiu $18, $15, 345
7901	7188  AFB20AC4             sw $18, 2756($29)
7902	718C  3C11FFFD             lui $17, 65533
7903	7190  3631FFFD             ori $17, $17, 65533
7904	7194  3C140000             lui $20, 0
7905	7198  36940000             ori $20, $20, 0
7906	719C  26920000             addiu $18, $20, 0
7907	71A0  AFB20AC8             sw $18, 2760($29)
7908	71A4  02319025             or $18, $17, $17
7909	71A8  31F20159             andi $18, $15, 345
7910	71AC  AFB20ACC             sw $18, 2764($29)
7911	71B0  3C11FFFD             lui $17, 65533
7912	71B4  3631FFFD             ori $17, $17, 65533
7913	71B8  3C140000             lui $20, 0
7914	71BC  36940000             ori $20, $20, 0
7915	71C0  32920000             andi $18, $20, 0
7916	71C4  AFB20AD0             sw $18, 2768($29)
7917	71C8  02319025             or $18, $17, $17
7918	71CC  35F20159             ori $18, $15, 345
7919	71D0  AFB20AD4             sw $18, 2772($29)
7920	71D4  3C11FFFD             lui $17, 65533
7921	71D8  3631FFFD             ori $17, $17, 65533
7922	71DC  3C140000             lui $20, 0
7923	71E0  36940000             ori $20, $20, 0
7924	71E4  36920000             ori $18, $20, 0
7925	71E8  AFB20AD8             sw $18, 2776($29)
7926	71EC  02319025             or $18, $17, $17
7927	71F0  29F20159             slti $18, $15, 345
7928	71F4  AFB20ADC             sw $18, 2780($29)
7929	71F8  3C11FFFD             lui $17, 65533
7930	71FC  3631FFFD             ori $17, $17, 65533
7931	7200  3C140000             lui $20, 0
7932	7204  36940000             ori $20, $20, 0
7933	7208  2A920000             slti $18, $20, 0
7934	720C  AFB20AE0             sw $18, 2784($29)
7935	7210  02319025             or $18, $17, $17
7936	7214  29F20159             sltiu $18, $15, 345
7937	7218  AFB20AE4             sw $18, 2788($29)
7938	721C  3C11FFFD             lui $17, 65533
7939	7220  3631FFFD             ori $17, $17, 65533
7940	7224  3C140000             lui $20, 0
7941	7228  36940000             ori $20, $20, 0
7942	722C  2A920000             sltiu $18, $20, 0
7943	7230  AFB20AE8             sw $18, 2792($29)
7944	7234  02319025             or $18, $17, $17
7945	7238  39F20159             xori $18, $15, 345
7946	723C  AFB20AEC             sw $18, 2796($29)
7947	7240  3C11FFFD             lui $17, 65533
7948	7244  3631FFFD             ori $17, $17, 65533
7949	7248  3C140000             lui $20, 0
7950	724C  36940000             ori $20, $20, 0
7951	7250  3A920000             xori $18, $20, 0
7952	7254  AFB20AF0             sw $18, 2800($29)
7953	7258  0C001EE5             jal increment_offset
7954	725C  0C001EDA             jal load_patterns
7955	7260  02319025             or $18, $17, $17
7956	7264  25F25882             addiu $18, $15, 22658
7957	7268  AFB20AF8             sw $18, 2808($29)
7958	726C  3C11FFFD             lui $17, 65533
7959	7270  3631FFFD             ori $17, $17, 65533
7960	7274  3C140000             lui $20, 0
7961	7278  36940000             ori $20, $20, 0
7962	727C  26920000             addiu $18, $20, 0
7963	7280  AFB20AFC             sw $18, 2812($29)
7964	7284  02319025             or $18, $17, $17
7965	7288  31F25882             andi $18, $15, 22658
7966	728C  AFB20B00             sw $18, 2816($29)
7967	7290  3C11FFFD             lui $17, 65533
7968	7294  3631FFFD             ori $17, $17, 65533
7969	7298  3C140000             lui $20, 0
7970	729C  36940000             ori $20, $20, 0
7971	72A0  32920000             andi $18, $20, 0
7972	72A4  AFB20B04             sw $18, 2820($29)
7973	72A8  02319025             or $18, $17, $17
7974	72AC  35F25882             ori $18, $15, 22658
7975	72B0  AFB20B08             sw $18, 2824($29)
7976	72B4  3C11FFFD             lui $17, 65533
7977	72B8  3631FFFD             ori $17, $17, 65533
7978	72BC  3C140000             lui $20, 0
7979	72C0  36940000             ori $20, $20, 0
7980	72C4  36920000             ori $18, $20, 0
7981	72C8  AFB20B0C             sw $18, 2828($29)
7982	72CC  02319025             or $18, $17, $17
7983	72D0  29F25882             slti $18, $15, 22658
7984	72D4  AFB20B10             sw $18, 2832($29)
7985	72D8  3C11FFFD             lui $17, 65533
7986	72DC  3631FFFD             ori $17, $17, 65533
7987	72E0  3C140000             lui $20, 0
7988	72E4  36940000             ori $20, $20, 0
7989	72E8  2A920000             slti $18, $20, 0
7990	72EC  AFB20B14             sw $18, 2836($29)
7991	72F0  02319025             or $18, $17, $17
7992	72F4  29F25882             sltiu $18, $15, 22658
7993	72F8  AFB20B18             sw $18, 2840($29)
7994	72FC  3C11FFFD             lui $17, 65533
7995	7300  3631FFFD             ori $17, $17, 65533
7996	7304  3C140000             lui $20, 0
7997	7308  36940000             ori $20, $20, 0
7998	730C  2A920000             sltiu $18, $20, 0
7999	7310  AFB20B1C             sw $18, 2844($29)
8000	7314  02319025             or $18, $17, $17
8001	7318  39F25882             xori $18, $15, 22658
8002	731C  AFB20B20             sw $18, 2848($29)
8003	7320  3C11FFFD             lui $17, 65533
8004	7324  3631FFFD             ori $17, $17, 65533
8005	7328  3C140000             lui $20, 0
8006	732C  36940000             ori $20, $20, 0
8007	7330  3A920000             xori $18, $20, 0
8008	7334  AFB20B24             sw $18, 2852($29)
8009	7338  0C001EE5             jal increment_offset
8010	733C  0C001EDA             jal load_patterns
8011	7340  02319025             or $18, $17, $17
8012	7344  25F21EC8             addiu $18, $15, 7880
8013	7348  AFB20B2C             sw $18, 2860($29)
8014	734C  3C11FFFD             lui $17, 65533
8015	7350  3631FFFD             ori $17, $17, 65533
8016	7354  3C140000             lui $20, 0
8017	7358  36940000             ori $20, $20, 0
8018	735C  26920000             addiu $18, $20, 0
8019	7360  AFB20B30             sw $18, 2864($29)
8020	7364  02319025             or $18, $17, $17
8021	7368  31F21EC8             andi $18, $15, 7880
8022	736C  AFB20B34             sw $18, 2868($29)
8023	7370  3C11FFFD             lui $17, 65533
8024	7374  3631FFFD             ori $17, $17, 65533
8025	7378  3C140000             lui $20, 0
8026	737C  36940000             ori $20, $20, 0
8027	7380  32920000             andi $18, $20, 0
8028	7384  AFB20B38             sw $18, 2872($29)
8029	7388  02319025             or $18, $17, $17
8030	738C  35F21EC8             ori $18, $15, 7880
8031	7390  AFB20B3C             sw $18, 2876($29)
8032	7394  3C11FFFD             lui $17, 65533
8033	7398  3631FFFD             ori $17, $17, 65533
8034	739C  3C140000             lui $20, 0
8035	73A0  36940000             ori $20, $20, 0
8036	73A4  36920000             ori $18, $20, 0
8037	73A8  AFB20B40             sw $18, 2880($29)
8038	73AC  02319025             or $18, $17, $17
8039	73B0  29F21EC8             slti $18, $15, 7880
8040	73B4  AFB20B44             sw $18, 2884($29)
8041	73B8  3C11FFFD             lui $17, 65533
8042	73BC  3631FFFD             ori $17, $17, 65533
8043	73C0  3C140000             lui $20, 0
8044	73C4  36940000             ori $20, $20, 0
8045	73C8  2A920000             slti $18, $20, 0
8046	73CC  AFB20B48             sw $18, 2888($29)
8047	73D0  02319025             or $18, $17, $17
8048	73D4  29F21EC8             sltiu $18, $15, 7880
8049	73D8  AFB20B4C             sw $18, 2892($29)
8050	73DC  3C11FFFD             lui $17, 65533
8051	73E0  3631FFFD             ori $17, $17, 65533
8052	73E4  3C140000             lui $20, 0
8053	73E8  36940000             ori $20, $20, 0
8054	73EC  2A920000             sltiu $18, $20, 0
8055	73F0  AFB20B50             sw $18, 2896($29)
8056	73F4  02319025             or $18, $17, $17
8057	73F8  39F21EC8             xori $18, $15, 7880
8058	73FC  AFB20B54             sw $18, 2900($29)
8059	7400  3C11FFFD             lui $17, 65533
8060	7404  3631FFFD             ori $17, $17, 65533
8061	7408  3C140000             lui $20, 0
8062	740C  36940000             ori $20, $20, 0
8063	7410  3A920000             xori $18, $20, 0
8064	7414  AFB20B58             sw $18, 2904($29)
8065	7418  0C001EE5             jal increment_offset
8066	741C  0C001EDA             jal load_patterns
8067	7420  02319025             or $18, $17, $17
8068	7424  25F2D51C             addiu $18, $15, 54556
8069	7428  AFB20B60             sw $18, 2912($29)
8070	742C  3C11FFFD             lui $17, 65533
8071	7430  3631FFFD             ori $17, $17, 65533
8072	7434  3C140000             lui $20, 0
8073	7438  36940000             ori $20, $20, 0
8074	743C  26920000             addiu $18, $20, 0
8075	7440  AFB20B64             sw $18, 2916($29)
8076	7444  02319025             or $18, $17, $17
8077	7448  31F2D51C             andi $18, $15, 54556
8078	744C  AFB20B68             sw $18, 2920($29)
8079	7450  3C11FFFD             lui $17, 65533
8080	7454  3631FFFD             ori $17, $17, 65533
8081	7458  3C140000             lui $20, 0
8082	745C  36940000             ori $20, $20, 0
8083	7460  32920000             andi $18, $20, 0
8084	7464  AFB20B6C             sw $18, 2924($29)
8085	7468  02319025             or $18, $17, $17
8086	746C  35F2D51C             ori $18, $15, 54556
8087	7470  AFB20B70             sw $18, 2928($29)
8088	7474  3C11FFFD             lui $17, 65533
8089	7478  3631FFFD             ori $17, $17, 65533
8090	747C  3C140000             lui $20, 0
8091	7480  36940000             ori $20, $20, 0
8092	7484  36920000             ori $18, $20, 0
8093	7488  AFB20B74             sw $18, 2932($29)
8094	748C  02319025             or $18, $17, $17
8095	7490  29F2D51C             slti $18, $15, 54556
8096	7494  AFB20B78             sw $18, 2936($29)
8097	7498  3C11FFFD             lui $17, 65533
8098	749C  3631FFFD             ori $17, $17, 65533
8099	74A0  3C140000             lui $20, 0
8100	74A4  36940000             ori $20, $20, 0
8101	74A8  2A920000             slti $18, $20, 0
8102	74AC  AFB20B7C             sw $18, 2940($29)
8103	74B0  02319025             or $18, $17, $17
8104	74B4  29F2D51C             sltiu $18, $15, 54556
8105	74B8  AFB20B80             sw $18, 2944($29)
8106	74BC  3C11FFFD             lui $17, 65533
8107	74C0  3631FFFD             ori $17, $17, 65533
8108	74C4  3C140000             lui $20, 0
8109	74C8  36940000             ori $20, $20, 0
8110	74CC  2A920000             sltiu $18, $20, 0
8111	74D0  AFB20B84             sw $18, 2948($29)
8112	74D4  02319025             or $18, $17, $17
8113	74D8  39F2D51C             xori $18, $15, 54556
8114	74DC  AFB20B88             sw $18, 2952($29)
8115	74E0  3C11FFFD             lui $17, 65533
8116	74E4  3631FFFD             ori $17, $17, 65533
8117	74E8  3C140000             lui $20, 0
8118	74EC  36940000             ori $20, $20, 0
8119	74F0  3A920000             xori $18, $20, 0
8120	74F4  AFB20B8C             sw $18, 2956($29)
8121	74F8  0C001EE5             jal increment_offset
8122	74FC  0C001EDA             jal load_patterns
8123	7500  02319025             or $18, $17, $17
8124	7504  25F2C4E8             addiu $18, $15, 50408
8125	7508  AFB20B94             sw $18, 2964($29)
8126	750C  3C11FFFD             lui $17, 65533
8127	7510  3631FFFD             ori $17, $17, 65533
8128	7514  3C140000             lui $20, 0
8129	7518  36940000             ori $20, $20, 0
8130	751C  26920000             addiu $18, $20, 0
8131	7520  AFB20B98             sw $18, 2968($29)
8132	7524  02319025             or $18, $17, $17
8133	7528  31F2C4E8             andi $18, $15, 50408
8134	752C  AFB20B9C             sw $18, 2972($29)
8135	7530  3C11FFFD             lui $17, 65533
8136	7534  3631FFFD             ori $17, $17, 65533
8137	7538  3C140000             lui $20, 0
8138	753C  36940000             ori $20, $20, 0
8139	7540  32920000             andi $18, $20, 0
8140	7544  AFB20BA0             sw $18, 2976($29)
8141	7548  02319025             or $18, $17, $17
8142	754C  35F2C4E8             ori $18, $15, 50408
8143	7550  AFB20BA4             sw $18, 2980($29)
8144	7554  3C11FFFD             lui $17, 65533
8145	7558  3631FFFD             ori $17, $17, 65533
8146	755C  3C140000             lui $20, 0
8147	7560  36940000             ori $20, $20, 0
8148	7564  36920000             ori $18, $20, 0
8149	7568  AFB20BA8             sw $18, 2984($29)
8150	756C  02319025             or $18, $17, $17
8151	7570  29F2C4E8             slti $18, $15, 50408
8152	7574  AFB20BAC             sw $18, 2988($29)
8153	7578  3C11FFFD             lui $17, 65533
8154	757C  3631FFFD             ori $17, $17, 65533
8155	7580  3C140000             lui $20, 0
8156	7584  36940000             ori $20, $20, 0
8157	7588  2A920000             slti $18, $20, 0
8158	758C  AFB20BB0             sw $18, 2992($29)
8159	7590  02319025             or $18, $17, $17
8160	7594  29F2C4E8             sltiu $18, $15, 50408
8161	7598  AFB20BB4             sw $18, 2996($29)
8162	759C  3C11FFFD             lui $17, 65533
8163	75A0  3631FFFD             ori $17, $17, 65533
8164	75A4  3C140000             lui $20, 0
8165	75A8  36940000             ori $20, $20, 0
8166	75AC  2A920000             sltiu $18, $20, 0
8167	75B0  AFB20BB8             sw $18, 3000($29)
8168	75B4  02319025             or $18, $17, $17
8169	75B8  39F2C4E8             xori $18, $15, 50408
8170	75BC  AFB20BBC             sw $18, 3004($29)
8171	75C0  3C11FFFD             lui $17, 65533
8172	75C4  3631FFFD             ori $17, $17, 65533
8173	75C8  3C140000             lui $20, 0
8174	75CC  36940000             ori $20, $20, 0
8175	75D0  3A920000             xori $18, $20, 0
8176	75D4  AFB20BC0             sw $18, 3008($29)
8177	75D8  0C001EE5             jal increment_offset
8178	75DC  0C001EDA             jal load_patterns
8179	75E0  02319025             or $18, $17, $17
8180	75E4  25F25CB0             addiu $18, $15, 23728
8181	75E8  AFB20BC8             sw $18, 3016($29)
8182	75EC  3C11FFFD             lui $17, 65533
8183	75F0  3631FFFD             ori $17, $17, 65533
8184	75F4  3C140000             lui $20, 0
8185	75F8  36940000             ori $20, $20, 0
8186	75FC  26920000             addiu $18, $20, 0
8187	7600  AFB20BCC             sw $18, 3020($29)
8188	7604  02319025             or $18, $17, $17
8189	7608  31F25CB0             andi $18, $15, 23728
8190	760C  AFB20BD0             sw $18, 3024($29)
8191	7610  3C11FFFD             lui $17, 65533
8192	7614  3631FFFD             ori $17, $17, 65533
8193	7618  3C140000             lui $20, 0
8194	761C  36940000             ori $20, $20, 0
8195	7620  32920000             andi $18, $20, 0
8196	7624  AFB20BD4             sw $18, 3028($29)
8197	7628  02319025             or $18, $17, $17
8198	762C  35F25CB0             ori $18, $15, 23728
8199	7630  AFB20BD8             sw $18, 3032($29)
8200	7634  3C11FFFD             lui $17, 65533
8201	7638  3631FFFD             ori $17, $17, 65533
8202	763C  3C140000             lui $20, 0
8203	7640  36940000             ori $20, $20, 0
8204	7644  36920000             ori $18, $20, 0
8205	7648  AFB20BDC             sw $18, 3036($29)
8206	764C  02319025             or $18, $17, $17
8207	7650  29F25CB0             slti $18, $15, 23728
8208	7654  AFB20BE0             sw $18, 3040($29)
8209	7658  3C11FFFD             lui $17, 65533
8210	765C  3631FFFD             ori $17, $17, 65533
8211	7660  3C140000             lui $20, 0
8212	7664  36940000             ori $20, $20, 0
8213	7668  2A920000             slti $18, $20, 0
8214	766C  AFB20BE4             sw $18, 3044($29)
8215	7670  02319025             or $18, $17, $17
8216	7674  29F25CB0             sltiu $18, $15, 23728
8217	7678  AFB20BE8             sw $18, 3048($29)
8218	767C  3C11FFFD             lui $17, 65533
8219	7680  3631FFFD             ori $17, $17, 65533
8220	7684  3C140000             lui $20, 0
8221	7688  36940000             ori $20, $20, 0
8222	768C  2A920000             sltiu $18, $20, 0
8223	7690  AFB20BEC             sw $18, 3052($29)
8224	7694  02319025             or $18, $17, $17
8225	7698  39F25CB0             xori $18, $15, 23728
8226	769C  AFB20BF0             sw $18, 3056($29)
8227	76A0  3C11FFFD             lui $17, 65533
8228	76A4  3631FFFD             ori $17, $17, 65533
8229	76A8  3C140000             lui $20, 0
8230	76AC  36940000             ori $20, $20, 0
8231	76B0  3A920000             xori $18, $20, 0
8232	76B4  AFB20BF4             sw $18, 3060($29)
8233	76B8  0C001EE5             jal increment_offset
8234	76BC  0C001EDA             jal load_patterns
8235	76C0  02319025             or $18, $17, $17
8236	76C4  25F206C5             addiu $18, $15, 1733
8237	76C8  AFB20BFC             sw $18, 3068($29)
8238	76CC  3C11FFFD             lui $17, 65533
8239	76D0  3631FFFD             ori $17, $17, 65533
8240	76D4  3C140000             lui $20, 0
8241	76D8  36940000             ori $20, $20, 0
8242	76DC  26920000             addiu $18, $20, 0
8243	76E0  AFB20C00             sw $18, 3072($29)
8244	76E4  02319025             or $18, $17, $17
8245	76E8  31F206C5             andi $18, $15, 1733
8246	76EC  AFB20C04             sw $18, 3076($29)
8247	76F0  3C11FFFD             lui $17, 65533
8248	76F4  3631FFFD             ori $17, $17, 65533
8249	76F8  3C140000             lui $20, 0
8250	76FC  36940000             ori $20, $20, 0
8251	7700  32920000             andi $18, $20, 0
8252	7704  AFB20C08             sw $18, 3080($29)
8253	7708  02319025             or $18, $17, $17
8254	770C  35F206C5             ori $18, $15, 1733
8255	7710  AFB20C0C             sw $18, 3084($29)
8256	7714  3C11FFFD             lui $17, 65533
8257	7718  3631FFFD             ori $17, $17, 65533
8258	771C  3C140000             lui $20, 0
8259	7720  36940000             ori $20, $20, 0
8260	7724  36920000             ori $18, $20, 0
8261	7728  AFB20C10             sw $18, 3088($29)
8262	772C  02319025             or $18, $17, $17
8263	7730  29F206C5             slti $18, $15, 1733
8264	7734  AFB20C14             sw $18, 3092($29)
8265	7738  3C11FFFD             lui $17, 65533
8266	773C  3631FFFD             ori $17, $17, 65533
8267	7740  3C140000             lui $20, 0
8268	7744  36940000             ori $20, $20, 0
8269	7748  2A920000             slti $18, $20, 0
8270	774C  AFB20C18             sw $18, 3096($29)
8271	7750  02319025             or $18, $17, $17
8272	7754  29F206C5             sltiu $18, $15, 1733
8273	7758  AFB20C1C             sw $18, 3100($29)
8274	775C  3C11FFFD             lui $17, 65533
8275	7760  3631FFFD             ori $17, $17, 65533
8276	7764  3C140000             lui $20, 0
8277	7768  36940000             ori $20, $20, 0
8278	776C  2A920000             sltiu $18, $20, 0
8279	7770  AFB20C20             sw $18, 3104($29)
8280	7774  02319025             or $18, $17, $17
8281	7778  39F206C5             xori $18, $15, 1733
8282	777C  AFB20C24             sw $18, 3108($29)
8283	7780  3C11FFFD             lui $17, 65533
8284	7784  3631FFFD             ori $17, $17, 65533
8285	7788  3C140000             lui $20, 0
8286	778C  36940000             ori $20, $20, 0
8287	7790  3A920000             xori $18, $20, 0
8288	7794  AFB20C28             sw $18, 3112($29)
8289	7798  0C001EE5             jal increment_offset
8290	779C  0C001EDA             jal load_patterns
8291	77A0  02319025             or $18, $17, $17
8292	77A4  25F287AA             addiu $18, $15, 34730
8293	77A8  AFB20C30             sw $18, 3120($29)
8294	77AC  3C11FFFD             lui $17, 65533
8295	77B0  3631FFFD             ori $17, $17, 65533
8296	77B4  3C140000             lui $20, 0
8297	77B8  36940000             ori $20, $20, 0
8298	77BC  26920000             addiu $18, $20, 0
8299	77C0  AFB20C34             sw $18, 3124($29)
8300	77C4  02319025             or $18, $17, $17
8301	77C8  31F287AA             andi $18, $15, 34730
8302	77CC  AFB20C38             sw $18, 3128($29)
8303	77D0  3C11FFFD             lui $17, 65533
8304	77D4  3631FFFD             ori $17, $17, 65533
8305	77D8  3C140000             lui $20, 0
8306	77DC  36940000             ori $20, $20, 0
8307	77E0  32920000             andi $18, $20, 0
8308	77E4  AFB20C3C             sw $18, 3132($29)
8309	77E8  02319025             or $18, $17, $17
8310	77EC  35F287AA             ori $18, $15, 34730
8311	77F0  AFB20C40             sw $18, 3136($29)
8312	77F4  3C11FFFD             lui $17, 65533
8313	77F8  3631FFFD             ori $17, $17, 65533
8314	77FC  3C140000             lui $20, 0
8315	7800  36940000             ori $20, $20, 0
8316	7804  36920000             ori $18, $20, 0
8317	7808  AFB20C44             sw $18, 3140($29)
8318	780C  02319025             or $18, $17, $17
8319	7810  29F287AA             slti $18, $15, 34730
8320	7814  AFB20C48             sw $18, 3144($29)
8321	7818  3C11FFFD             lui $17, 65533
8322	781C  3631FFFD             ori $17, $17, 65533
8323	7820  3C140000             lui $20, 0
8324	7824  36940000             ori $20, $20, 0
8325	7828  2A920000             slti $18, $20, 0
8326	782C  AFB20C4C             sw $18, 3148($29)
8327	7830  02319025             or $18, $17, $17
8328	7834  29F287AA             sltiu $18, $15, 34730
8329	7838  AFB20C50             sw $18, 3152($29)
8330	783C  3C11FFFD             lui $17, 65533
8331	7840  3631FFFD             ori $17, $17, 65533
8332	7844  3C140000             lui $20, 0
8333	7848  36940000             ori $20, $20, 0
8334	784C  2A920000             sltiu $18, $20, 0
8335	7850  AFB20C54             sw $18, 3156($29)
8336	7854  02319025             or $18, $17, $17
8337	7858  39F287AA             xori $18, $15, 34730
8338	785C  AFB20C58             sw $18, 3160($29)
8339	7860  3C11FFFD             lui $17, 65533
8340	7864  3631FFFD             ori $17, $17, 65533
8341	7868  3C140000             lui $20, 0
8342	786C  36940000             ori $20, $20, 0
8343	7870  3A920000             xori $18, $20, 0
8344	7874  AFB20C5C             sw $18, 3164($29)
8345	7878  0C001EE5             jal increment_offset
8346	787C  0C001EDA             jal load_patterns
8347	7880  02319025             or $18, $17, $17
8348	7884  25F2FAC3             addiu $18, $15, 64195
8349	7888  AFB20C64             sw $18, 3172($29)
8350	788C  3C11FFFD             lui $17, 65533
8351	7890  3631FFFD             ori $17, $17, 65533
8352	7894  3C140000             lui $20, 0
8353	7898  36940000             ori $20, $20, 0
8354	789C  26920000             addiu $18, $20, 0
8355	78A0  AFB20C68             sw $18, 3176($29)
8356	78A4  02319025             or $18, $17, $17
8357	78A8  31F2FAC3             andi $18, $15, 64195
8358	78AC  AFB20C6C             sw $18, 3180($29)
8359	78B0  3C11FFFD             lui $17, 65533
8360	78B4  3631FFFD             ori $17, $17, 65533
8361	78B8  3C140000             lui $20, 0
8362	78BC  36940000             ori $20, $20, 0
8363	78C0  32920000             andi $18, $20, 0
8364	78C4  AFB20C70             sw $18, 3184($29)
8365	78C8  02319025             or $18, $17, $17
8366	78CC  35F2FAC3             ori $18, $15, 64195
8367	78D0  AFB20C74             sw $18, 3188($29)
8368	78D4  3C11FFFD             lui $17, 65533
8369	78D8  3631FFFD             ori $17, $17, 65533
8370	78DC  3C140000             lui $20, 0
8371	78E0  36940000             ori $20, $20, 0
8372	78E4  36920000             ori $18, $20, 0
8373	78E8  AFB20C78             sw $18, 3192($29)
8374	78EC  02319025             or $18, $17, $17
8375	78F0  29F2FAC3             slti $18, $15, 64195
8376	78F4  AFB20C7C             sw $18, 3196($29)
8377	78F8  3C11FFFD             lui $17, 65533
8378	78FC  3631FFFD             ori $17, $17, 65533
8379	7900  3C140000             lui $20, 0
8380	7904  36940000             ori $20, $20, 0
8381	7908  2A920000             slti $18, $20, 0
8382	790C  AFB20C80             sw $18, 3200($29)
8383	7910  02319025             or $18, $17, $17
8384	7914  29F2FAC3             sltiu $18, $15, 64195
8385	7918  AFB20C84             sw $18, 3204($29)
8386	791C  3C11FFFD             lui $17, 65533
8387	7920  3631FFFD             ori $17, $17, 65533
8388	7924  3C140000             lui $20, 0
8389	7928  36940000             ori $20, $20, 0
8390	792C  2A920000             sltiu $18, $20, 0
8391	7930  AFB20C88             sw $18, 3208($29)
8392	7934  02319025             or $18, $17, $17
8393	7938  39F2FAC3             xori $18, $15, 64195
8394	793C  AFB20C8C             sw $18, 3212($29)
8395	7940  3C11FFFD             lui $17, 65533
8396	7944  3631FFFD             ori $17, $17, 65533
8397	7948  3C140000             lui $20, 0
8398	794C  36940000             ori $20, $20, 0
8399	7950  3A920000             xori $18, $20, 0
8400	7954  AFB20C90             sw $18, 3216($29)
8401	7958  0C001EE5             jal increment_offset
8402	795C  0C001EDA             jal load_patterns
8403	7960  02319025             or $18, $17, $17
8404	7964  25F2DB2C             addiu $18, $15, 56108
8405	7968  AFB20C98             sw $18, 3224($29)
8406	796C  3C11FFFD             lui $17, 65533
8407	7970  3631FFFD             ori $17, $17, 65533
8408	7974  3C140000             lui $20, 0
8409	7978  36940000             ori $20, $20, 0
8410	797C  26920000             addiu $18, $20, 0
8411	7980  AFB20C9C             sw $18, 3228($29)
8412	7984  02319025             or $18, $17, $17
8413	7988  31F2DB2C             andi $18, $15, 56108
8414	798C  AFB20CA0             sw $18, 3232($29)
8415	7990  3C11FFFD             lui $17, 65533
8416	7994  3631FFFD             ori $17, $17, 65533
8417	7998  3C140000             lui $20, 0
8418	799C  36940000             ori $20, $20, 0
8419	79A0  32920000             andi $18, $20, 0
8420	79A4  AFB20CA4             sw $18, 3236($29)
8421	79A8  02319025             or $18, $17, $17
8422	79AC  35F2DB2C             ori $18, $15, 56108
8423	79B0  AFB20CA8             sw $18, 3240($29)
8424	79B4  3C11FFFD             lui $17, 65533
8425	79B8  3631FFFD             ori $17, $17, 65533
8426	79BC  3C140000             lui $20, 0
8427	79C0  36940000             ori $20, $20, 0
8428	79C4  36920000             ori $18, $20, 0
8429	79C8  AFB20CAC             sw $18, 3244($29)
8430	79CC  02319025             or $18, $17, $17
8431	79D0  29F2DB2C             slti $18, $15, 56108
8432	79D4  AFB20CB0             sw $18, 3248($29)
8433	79D8  3C11FFFD             lui $17, 65533
8434	79DC  3631FFFD             ori $17, $17, 65533
8435	79E0  3C140000             lui $20, 0
8436	79E4  36940000             ori $20, $20, 0
8437	79E8  2A920000             slti $18, $20, 0
8438	79EC  AFB20CB4             sw $18, 3252($29)
8439	79F0  02319025             or $18, $17, $17
8440	79F4  29F2DB2C             sltiu $18, $15, 56108
8441	79F8  AFB20CB8             sw $18, 3256($29)
8442	79FC  3C11FFFD             lui $17, 65533
8443	7A00  3631FFFD             ori $17, $17, 65533
8444	7A04  3C140000             lui $20, 0
8445	7A08  36940000             ori $20, $20, 0
8446	7A0C  2A920000             sltiu $18, $20, 0
8447	7A10  AFB20CBC             sw $18, 3260($29)
8448	7A14  02319025             or $18, $17, $17
8449	7A18  39F2DB2C             xori $18, $15, 56108
8450	7A1C  AFB20CC0             sw $18, 3264($29)
8451	7A20  3C11FFFD             lui $17, 65533
8452	7A24  3631FFFD             ori $17, $17, 65533
8453	7A28  3C140000             lui $20, 0
8454	7A2C  36940000             ori $20, $20, 0
8455	7A30  3A920000             xori $18, $20, 0
8456	7A34  AFB20CC4             sw $18, 3268($29)
8457	7A38  0C001EE5             jal increment_offset
8458	7A3C  0C001EDA             jal load_patterns
8459	7A40  02319025             or $18, $17, $17
8460	7A44  25F2FC93             addiu $18, $15, 64659
8461	7A48  AFB20CCC             sw $18, 3276($29)
8462	7A4C  3C11FFFD             lui $17, 65533
8463	7A50  3631FFFD             ori $17, $17, 65533
8464	7A54  3C140000             lui $20, 0
8465	7A58  36940000             ori $20, $20, 0
8466	7A5C  26920000             addiu $18, $20, 0
8467	7A60  AFB20CD0             sw $18, 3280($29)
8468	7A64  02319025             or $18, $17, $17
8469	7A68  31F2FC93             andi $18, $15, 64659
8470	7A6C  AFB20CD4             sw $18, 3284($29)
8471	7A70  3C11FFFD             lui $17, 65533
8472	7A74  3631FFFD             ori $17, $17, 65533
8473	7A78  3C140000             lui $20, 0
8474	7A7C  36940000             ori $20, $20, 0
8475	7A80  32920000             andi $18, $20, 0
8476	7A84  AFB20CD8             sw $18, 3288($29)
8477	7A88  02319025             or $18, $17, $17
8478	7A8C  35F2FC93             ori $18, $15, 64659
8479	7A90  AFB20CDC             sw $18, 3292($29)
8480	7A94  3C11FFFD             lui $17, 65533
8481	7A98  3631FFFD             ori $17, $17, 65533
8482	7A9C  3C140000             lui $20, 0
8483	7AA0  36940000             ori $20, $20, 0
8484	7AA4  36920000             ori $18, $20, 0
8485	7AA8  AFB20CE0             sw $18, 3296($29)
8486	7AAC  02319025             or $18, $17, $17
8487	7AB0  29F2FC93             slti $18, $15, 64659
8488	7AB4  AFB20CE4             sw $18, 3300($29)
8489	7AB8  3C11FFFD             lui $17, 65533
8490	7ABC  3631FFFD             ori $17, $17, 65533
8491	7AC0  3C140000             lui $20, 0
8492	7AC4  36940000             ori $20, $20, 0
8493	7AC8  2A920000             slti $18, $20, 0
8494	7ACC  AFB20CE8             sw $18, 3304($29)
8495	7AD0  02319025             or $18, $17, $17
8496	7AD4  29F2FC93             sltiu $18, $15, 64659
8497	7AD8  AFB20CEC             sw $18, 3308($29)
8498	7ADC  3C11FFFD             lui $17, 65533
8499	7AE0  3631FFFD             ori $17, $17, 65533
8500	7AE4  3C140000             lui $20, 0
8501	7AE8  36940000             ori $20, $20, 0
8502	7AEC  2A920000             sltiu $18, $20, 0
8503	7AF0  AFB20CF0             sw $18, 3312($29)
8504	7AF4  02319025             or $18, $17, $17
8505	7AF8  39F2FC93             xori $18, $15, 64659
8506	7AFC  AFB20CF4             sw $18, 3316($29)
8507	7B00  3C11FFFD             lui $17, 65533
8508	7B04  3631FFFD             ori $17, $17, 65533
8509	7B08  3C140000             lui $20, 0
8510	7B0C  36940000             ori $20, $20, 0
8511	7B10  3A920000             xori $18, $20, 0
8512	7B14  AFB20CF8             sw $18, 3320($29)
8513	7B18  0C001EE5             jal increment_offset
8514	                          
8515	                          ;..........system call..........;
8516	7B1C  0C001EF3             jal init_cp
8517	7B20  08001EC9             j syscalls
8518	                          
8519	                          syscalls:
8520	7B24  0000000C             syscall
8521	                          
8522	                          ;..........break..........;
8523	7B28  0C001EF3             jal init_cp
8524	7B2C  08001ECC             j breaks
8525	                          
8526	                          breaks:
8527	7B30  0000000D             break
8528	                          ;..........hilo test..........;
8529	7B34  0C001EDD            jal reset_offsets
8530	7B38  0C001EE2            jal reset_hi_lo
8531	                          hilo_register_operation:
8532	7B3C  0C001F20             jal init_upward_1
8533	7B40  0C001F9A             jal hi_upward_0
8534	7B44  0C002031             jal hi_downward_1
8535	7B48  0C002122             jal lo_upward_0
8536	7B4C  0C0021B9             jal lo_downward_1
8537	7B50  0C001F5D             jal init_upward_0
8538	7B54  0C0022AA             jal hi_upward_1
8539	7B58  0C002341             jal hi_downward_0
8540	7B5C  0C002432             jal lo_upward_1
8541	7B60  0C0024C9             jal lo_downward_0
8542	                          
8543	7B64  08002985            j end
8544	                          
8545	                          load_patterns:
8546	7B68  8FCF0000             lw $15, 0($30)
8547	7B6C  8FD00004             lw $16, 4($30)
8548	7B70  03E00008             jr $31
8549	                          
8550	                          reset_offsets:
8551	7B74  3C1E0001             lui $30, 1
8552	7B78  37DE0008             ori $30, $30, 8
8553	7B7C  037BD826             xor $27, $27, $27
8554	7B80  02529026             xor $18, $18, $18
8555	7B84  03E00008             jr $31
8556	                          
8557	                          reset_hi_lo:
8558	7B88  00000011             mthi $0
8559	7B8C  00000013             mtlo $0
8560	7B90  03E00008             jr $31
8561	                          
8562	                          increment_offset:
8563	7B94  23DE0008             addi $30, $30, 8
8564	7B98  237B0002             addi $27, $27, 2
8565	7B9C  23BD0004             addi $29, $29, 4
8566	7BA0  03E00008             jr $31
8567	                          
8568	                          increment_immediate:
8569	7BA4  23DE0008             addi $30, $30, 8
8570	7BA8  23BD0004             addi $29, $29, 4
8571	7BAC  03E00008             jr $31
8572	                          
8573	                          increment:
8574	7BB0  23BD0004             addi $29, $29, 4
8575	7BB4  03E00008             jr $31
8576	                          
8577	                          store_branch:
8578	7BB8  AFAF0000             sw $15, 0($29)
8579	7BBC  03E00008             jr $31
8580	                          
8581	                          store:
8582	7BC0  AFB20000             sw $18, 0($29)
8583	7BC4  AFB30004             sw $19, 4($29)
8584	7BC8  03E00008             jr $31
8585	                          
8586	                          init_cp:
8587	7BCC  40806000             mtc0 $0, $12
8588	7BD0  40806800             mtc0 $0, $13
8589	7BD4  40807000             mtc0 $0, $14
8590	7BD8  40807800             mtc0 $0, $15
8591	7BDC  03E00008             jr $31
8592	                          
8593	                          ;..........Branch templates..........;
8594	                          branch_beq:
8595	7BE0  23F90000             addi $25, $31, 0
8596	7BE4  11F0FFF5             beq $15, $16, store_branch
8597	7BE8  00000000             sll $0, $0, 0
8598	7BEC  AFB00000             sw $16, 0($29)
8599	7BF0  03200008             jr $25
8600	                          
8601	                          branch_bne:
8602	7BF4  23F90000             addi $25, $31, 0
8603	7BF8  15F0FFF0             bne $15, $16, store_branch
8604	7BFC  00000000             sll $0, $0, 0
8605	7C00  AFB00000             sw $16, 0($29)
8606	7C04  03200008             jr $25
8607	                          
8608	                          branch_bgez:
8609	7C08  23F90000             addi $25, $31, 0
8610	7C0C  05E1FFEB             bgez $15, store_branch
8611	7C10  00000000             sll $0, $0, 0
8612	7C14  AFB00000             sw $16, 0($29)
8613	7C18  03200008             jr $25
8614	                          
8615	                          branch_bgezal:
8616	7C1C  23F90000             addi $25, $31, 0
8617	7C20  05F1FFE6             bgezal $15, store_branch
8618	7C24  00000000             sll $0, $0, 0
8619	7C28  AFB00000             sw $16, 0($29)
8620	7C2C  03200008             jr $25
8621	                          
8622	                          branch_bgtz:
8623	7C30  23F90000             addi $25, $31, 0
8624	7C34  1DE0FFE1             bgtz $15, store_branch
8625	7C38  00000000             sll $0, $0, 0
8626	7C3C  AFB00000             sw $16, 0($29)
8627	7C40  03200008             jr $25
8628	                          
8629	                          branch_blez:
8630	7C44  23F90000             addi $25, $31, 0
8631	7C48  19E0FFDC             blez $15, store_branch
8632	7C4C  00000000             sll $0, $0, 0
8633	7C50  AFB00000             sw $16, 0($29)
8634	7C54  03200008             jr $25
8635	                          
8636	                          branch_bltz:
8637	7C58  23F90000             addi $25, $31, 0
8638	7C5C  05E0FFD7             bltz $15, store_branch
8639	7C60  00000000             sll $0, $0, 0
8640	7C64  AFB00000             sw $16, 0($29)
8641	7C68  03200008             jr $25
8642	                          
8643	                          branch_bltzal:
8644	7C6C  23F90000             addi $25, $31, 0
8645	7C70  05F0FFD2             bltzal $15, store_branch
8646	7C74  00000000             sll $0, $0, 0
8647	7C78  AFB00000             sw $16, 0($29)
8648	7C7C  03200008             jr $25
8649	                          
8650	                          ;..........register_initialization..........;
8651	                          init_upward_1:
8652	7C80  3C00FFFF             lui $0, 65535
8653	7C84  3400FFFF             ori $0, $0, 65535
8654	7C88  3C01FFFF             lui $1, 65535
8655	7C8C  3421FFFF             ori $1, $1, 65535
8656	7C90  3C02FFFF             lui $2, 65535
8657	7C94  3442FFFF             ori $2, $2, 65535
8658	7C98  3C03FFFF             lui $3, 65535
8659	7C9C  3463FFFF             ori $3, $3, 65535
8660	7CA0  3C04FFFF             lui $4, 65535
8661	7CA4  3484FFFF             ori $4, $4, 65535
8662	7CA8  3C05FFFF             lui $5, 65535
8663	7CAC  34A5FFFF             ori $5, $5, 65535
8664	7CB0  3C06FFFF             lui $6, 65535
8665	7CB4  34C6FFFF             ori $6, $6, 65535
8666	7CB8  3C07FFFF             lui $7, 65535
8667	7CBC  34E7FFFF             ori $7, $7, 65535
8668	7CC0  3C08FFFF             lui $8, 65535
8669	7CC4  3508FFFF             ori $8, $8, 65535
8670	7CC8  3C09FFFF             lui $9, 65535
8671	7CCC  3529FFFF             ori $9, $9, 65535
8672	7CD0  3C0AFFFF             lui $10, 65535
8673	7CD4  354AFFFF             ori $10, $10, 65535
8674	7CD8  3C0BFFFF             lui $11, 65535
8675	7CDC  356BFFFF             ori $11, $11, 65535
8676	7CE0  3C0CFFFF             lui $12, 65535
8677	7CE4  358CFFFF             ori $12, $12, 65535
8678	7CE8  3C0DFFFF             lui $13, 65535
8679	7CEC  35ADFFFF             ori $13, $13, 65535
8680	7CF0  3C0EFFFF             lui $14, 65535
8681	7CF4  35CEFFFF             ori $14, $14, 65535
8682	7CF8  3C0FFFFF             lui $15, 65535
8683	7CFC  35EFFFFF             ori $15, $15, 65535
8684	7D00  3C10FFFF             lui $16, 65535
8685	7D04  3610FFFF             ori $16, $16, 65535
8686	7D08  3C11FFFF             lui $17, 65535
8687	7D0C  3631FFFF             ori $17, $17, 65535
8688	7D10  3C12FFFF             lui $18, 65535
8689	7D14  3652FFFF             ori $18, $18, 65535
8690	7D18  3C13FFFF             lui $19, 65535
8691	7D1C  3673FFFF             ori $19, $19, 65535
8692	7D20  3C14FFFF             lui $20, 65535
8693	7D24  3694FFFF             ori $20, $20, 65535
8694	7D28  3C15FFFF             lui $21, 65535
8695	7D2C  36B5FFFF             ori $21, $21, 65535
8696	7D30  3C16FFFF             lui $22, 65535
8697	7D34  36D6FFFF             ori $22, $22, 65535
8698	7D38  3C17FFFF             lui $23, 65535
8699	7D3C  36F7FFFF             ori $23, $23, 65535
8700	7D40  3C18FFFF             lui $24, 65535
8701	7D44  3718FFFF             ori $24, $24, 65535
8702	7D48  3C19FFFF             lui $25, 65535
8703	7D4C  3739FFFF             ori $25, $25, 65535
8704	7D50  3C1AFFFF             lui $26, 65535
8705	7D54  375AFFFF             ori $26, $26, 65535
8706	7D58  3C1BFFFF             lui $27, 65535
8707	7D5C  377BFFFF             ori $27, $27, 65535
8708	7D60  3C1CFFFF             lui $28, 65535
8709	7D64  379CFFFF             ori $28, $28, 65535
8710	7D68  3C1EFFFF             lui $30, 65535
8711	7D6C  37DEFFFF             ori $30, $30, 65535
8712	7D70  03E00008             jr $31
8713	                          
8714	                          init_upward_0:
8715	7D74  3C000000             lui $0, 0
8716	7D78  34000000             ori $0, $0, 0
8717	7D7C  3C010000             lui $1, 0
8718	7D80  34210000             ori $1, $1, 0
8719	7D84  3C020000             lui $2, 0
8720	7D88  34420000             ori $2, $2, 0
8721	7D8C  3C030000             lui $3, 0
8722	7D90  34630000             ori $3, $3, 0
8723	7D94  3C040000             lui $4, 0
8724	7D98  34840000             ori $4, $4, 0
8725	7D9C  3C050000             lui $5, 0
8726	7DA0  34A50000             ori $5, $5, 0
8727	7DA4  3C060000             lui $6, 0
8728	7DA8  34C60000             ori $6, $6, 0
8729	7DAC  3C070000             lui $7, 0
8730	7DB0  34E70000             ori $7, $7, 0
8731	7DB4  3C080000             lui $8, 0
8732	7DB8  35080000             ori $8, $8, 0
8733	7DBC  3C090000             lui $9, 0
8734	7DC0  35290000             ori $9, $9, 0
8735	7DC4  3C0A0000             lui $10, 0
8736	7DC8  354A0000             ori $10, $10, 0
8737	7DCC  3C0B0000             lui $11, 0
8738	7DD0  356B0000             ori $11, $11, 0
8739	7DD4  3C0C0000             lui $12, 0
8740	7DD8  358C0000             ori $12, $12, 0
8741	7DDC  3C0D0000             lui $13, 0
8742	7DE0  35AD0000             ori $13, $13, 0
8743	7DE4  3C0E0000             lui $14, 0
8744	7DE8  35CE0000             ori $14, $14, 0
8745	7DEC  3C0F0000             lui $15, 0
8746	7DF0  35EF0000             ori $15, $15, 0
8747	7DF4  3C100000             lui $16, 0
8748	7DF8  36100000             ori $16, $16, 0
8749	7DFC  3C110000             lui $17, 0
8750	7E00  36310000             ori $17, $17, 0
8751	7E04  3C120000             lui $18, 0
8752	7E08  36520000             ori $18, $18, 0
8753	7E0C  3C130000             lui $19, 0
8754	7E10  36730000             ori $19, $19, 0
8755	7E14  3C140000             lui $20, 0
8756	7E18  36940000             ori $20, $20, 0
8757	7E1C  3C150000             lui $21, 0
8758	7E20  36B50000             ori $21, $21, 0
8759	7E24  3C160000             lui $22, 0
8760	7E28  36D60000             ori $22, $22, 0
8761	7E2C  3C170000             lui $23, 0
8762	7E30  36F70000             ori $23, $23, 0
8763	7E34  3C180000             lui $24, 0
8764	7E38  37180000             ori $24, $24, 0
8765	7E3C  3C190000             lui $25, 0
8766	7E40  37390000             ori $25, $25, 0
8767	7E44  3C1A0000             lui $26, 0
8768	7E48  375A0000             ori $26, $26, 0
8769	7E4C  3C1B0000             lui $27, 0
8770	7E50  377B0000             ori $27, $27, 0
8771	7E54  3C1C0000             lui $28, 0
8772	7E58  379C0000             ori $28, $28, 0
8773	7E5C  3C1E0000             lui $30, 0
8774	7E60  37DE0000             ori $30, $30, 0
8775	7E64  03E00008             jr $31
8776	                          
8777	                          hi_upward_0:
8778	7E68  00000011             mthi $0
8779	7E6C  00000010             mfhi $0
8780	7E70  AFA002E8             sw $0, 744($29)
8781	7E74  3C000000             lui $0, 0
8782	7E78  34000000             ori $0, $0, 0
8783	7E7C  00200011             mthi $1
8784	7E80  00000810             mfhi $1
8785	7E84  AFA102EC             sw $1, 748($29)
8786	7E88  3C010000             lui $1, 0
8787	7E8C  34210000             ori $1, $1, 0
8788	7E90  00400011             mthi $2
8789	7E94  00001010             mfhi $2
8790	7E98  AFA202F0             sw $2, 752($29)
8791	7E9C  3C020000             lui $2, 0
8792	7EA0  34420000             ori $2, $2, 0
8793	7EA4  00600011             mthi $3
8794	7EA8  00001810             mfhi $3
8795	7EAC  AFA302F4             sw $3, 756($29)
8796	7EB0  3C030000             lui $3, 0
8797	7EB4  34630000             ori $3, $3, 0
8798	7EB8  00800011             mthi $4
8799	7EBC  00002010             mfhi $4
8800	7EC0  AFA402F8             sw $4, 760($29)
8801	7EC4  3C040000             lui $4, 0
8802	7EC8  34840000             ori $4, $4, 0
8803	7ECC  00A00011             mthi $5
8804	7ED0  00002810             mfhi $5
8805	7ED4  AFA502FC             sw $5, 764($29)
8806	7ED8  3C050000             lui $5, 0
8807	7EDC  34A50000             ori $5, $5, 0
8808	7EE0  00C00011             mthi $6
8809	7EE4  00003010             mfhi $6
8810	7EE8  AFA60300             sw $6, 768($29)
8811	7EEC  3C060000             lui $6, 0
8812	7EF0  34C60000             ori $6, $6, 0
8813	7EF4  00E00011             mthi $7
8814	7EF8  00003810             mfhi $7
8815	7EFC  AFA70304             sw $7, 772($29)
8816	7F00  3C070000             lui $7, 0
8817	7F04  34E70000             ori $7, $7, 0
8818	7F08  01000011             mthi $8
8819	7F0C  00004010             mfhi $8
8820	7F10  AFA80308             sw $8, 776($29)
8821	7F14  3C080000             lui $8, 0
8822	7F18  35080000             ori $8, $8, 0
8823	7F1C  01200011             mthi $9
8824	7F20  00004810             mfhi $9
8825	7F24  AFA9030C             sw $9, 780($29)
8826	7F28  3C090000             lui $9, 0
8827	7F2C  35290000             ori $9, $9, 0
8828	7F30  01400011             mthi $10
8829	7F34  00005010             mfhi $10
8830	7F38  AFAA0310             sw $10, 784($29)
8831	7F3C  3C0A0000             lui $10, 0
8832	7F40  354A0000             ori $10, $10, 0
8833	7F44  01600011             mthi $11
8834	7F48  00005810             mfhi $11
8835	7F4C  AFAB0314             sw $11, 788($29)
8836	7F50  3C0B0000             lui $11, 0
8837	7F54  356B0000             ori $11, $11, 0
8838	7F58  01800011             mthi $12
8839	7F5C  00006010             mfhi $12
8840	7F60  AFAC0318             sw $12, 792($29)
8841	7F64  3C0C0000             lui $12, 0
8842	7F68  358C0000             ori $12, $12, 0
8843	7F6C  01A00011             mthi $13
8844	7F70  00006810             mfhi $13
8845	7F74  AFAD031C             sw $13, 796($29)
8846	7F78  3C0D0000             lui $13, 0
8847	7F7C  35AD0000             ori $13, $13, 0
8848	7F80  01C00011             mthi $14
8849	7F84  00007010             mfhi $14
8850	7F88  AFAE0320             sw $14, 800($29)
8851	7F8C  3C0E0000             lui $14, 0
8852	7F90  35CE0000             ori $14, $14, 0
8853	7F94  01E00011             mthi $15
8854	7F98  00007810             mfhi $15
8855	7F9C  AFAF0324             sw $15, 804($29)
8856	7FA0  3C0F0000             lui $15, 0
8857	7FA4  35EF0000             ori $15, $15, 0
8858	7FA8  02000011             mthi $16
8859	7FAC  00008010             mfhi $16
8860	7FB0  AFB00328             sw $16, 808($29)
8861	7FB4  3C100000             lui $16, 0
8862	7FB8  36100000             ori $16, $16, 0
8863	7FBC  02200011             mthi $17
8864	7FC0  00008810             mfhi $17
8865	7FC4  AFB1032C             sw $17, 812($29)
8866	7FC8  3C110000             lui $17, 0
8867	7FCC  36310000             ori $17, $17, 0
8868	7FD0  02400011             mthi $18
8869	7FD4  00009010             mfhi $18
8870	7FD8  AFB20330             sw $18, 816($29)
8871	7FDC  3C120000             lui $18, 0
8872	7FE0  36520000             ori $18, $18, 0
8873	7FE4  02600011             mthi $19
8874	7FE8  00009810             mfhi $19
8875	7FEC  AFB30334             sw $19, 820($29)
8876	7FF0  3C130000             lui $19, 0
8877	7FF4  36730000             ori $19, $19, 0
8878	7FF8  02800011             mthi $20
8879	7FFC  0000A010             mfhi $20
8880	8000  AFB40338             sw $20, 824($29)
8881	8004  3C140000             lui $20, 0
8882	8008  36940000             ori $20, $20, 0
8883	800C  02A00011             mthi $21
8884	8010  0000A810             mfhi $21
8885	8014  AFB5033C             sw $21, 828($29)
8886	8018  3C150000             lui $21, 0
8887	801C  36B50000             ori $21, $21, 0
8888	8020  02C00011             mthi $22
8889	8024  0000B010             mfhi $22
8890	8028  AFB60340             sw $22, 832($29)
8891	802C  3C160000             lui $22, 0
8892	8030  36D60000             ori $22, $22, 0
8893	8034  02E00011             mthi $23
8894	8038  0000B810             mfhi $23
8895	803C  AFB70344             sw $23, 836($29)
8896	8040  3C170000             lui $23, 0
8897	8044  36F70000             ori $23, $23, 0
8898	8048  03000011             mthi $24
8899	804C  0000C010             mfhi $24
8900	8050  AFB80348             sw $24, 840($29)
8901	8054  3C180000             lui $24, 0
8902	8058  37180000             ori $24, $24, 0
8903	805C  03200011             mthi $25
8904	8060  0000C810             mfhi $25
8905	8064  AFB9034C             sw $25, 844($29)
8906	8068  3C190000             lui $25, 0
8907	806C  37390000             ori $25, $25, 0
8908	8070  03400011             mthi $26
8909	8074  0000D010             mfhi $26
8910	8078  AFBA0350             sw $26, 848($29)
8911	807C  3C1A0000             lui $26, 0
8912	8080  375A0000             ori $26, $26, 0
8913	8084  03600011             mthi $27
8914	8088  0000D810             mfhi $27
8915	808C  AFBB0354             sw $27, 852($29)
8916	8090  3C1B0000             lui $27, 0
8917	8094  377B0000             ori $27, $27, 0
8918	8098  03800011             mthi $28
8919	809C  0000E010             mfhi $28
8920	80A0  AFBC0358             sw $28, 856($29)
8921	80A4  3C1C0000             lui $28, 0
8922	80A8  379C0000             ori $28, $28, 0
8923	80AC  03C00011             mthi $30
8924	80B0  0000F010             mfhi $30
8925	80B4  AFBE035C             sw $30, 860($29)
8926	80B8  3C1E0000             lui $30, 0
8927	80BC  37DE0000             ori $30, $30, 0
8928	80C0  03E00008             jr $31
8929	                          
8930	                          hi_downward_1:
8931	80C4  00000011             mthi $0
8932	80C8  00000010             mfhi $0
8933	80CC  AFA00360             sw $0, 864($29)
8934	80D0  3C00FFFF             lui $0, 65535
8935	80D4  3400FFFF             ori $0, $0, 65535
8936	80D8  00000011             mthi $0
8937	80DC  00000010             mfhi $0
8938	80E0  AFA00364             sw $0, 868($29)
8939	80E4  03C00011             mthi $30
8940	80E8  0000F010             mfhi $30
8941	80EC  AFBE0368             sw $30, 872($29)
8942	80F0  3C1EFFFF             lui $30, 65535
8943	80F4  37DEFFFF             ori $30, $30, 65535
8944	80F8  03C00011             mthi $30
8945	80FC  0000F010             mfhi $30
8946	8100  AFBE036C             sw $30, 876($29)
8947	8104  03800011             mthi $28
8948	8108  0000E010             mfhi $28
8949	810C  AFBC0370             sw $28, 880($29)
8950	8110  3C1CFFFF             lui $28, 65535
8951	8114  379CFFFF             ori $28, $28, 65535
8952	8118  03800011             mthi $28
8953	811C  0000E010             mfhi $28
8954	8120  AFBC0374             sw $28, 884($29)
8955	8124  03600011             mthi $27
8956	8128  0000D810             mfhi $27
8957	812C  AFBB0378             sw $27, 888($29)
8958	8130  3C1BFFFF             lui $27, 65535
8959	8134  377BFFFF             ori $27, $27, 65535
8960	8138  03600011             mthi $27
8961	813C  0000D810             mfhi $27
8962	8140  AFBB037C             sw $27, 892($29)
8963	8144  03400011             mthi $26
8964	8148  0000D010             mfhi $26
8965	814C  AFBA0380             sw $26, 896($29)
8966	8150  3C1AFFFF             lui $26, 65535
8967	8154  375AFFFF             ori $26, $26, 65535
8968	8158  03400011             mthi $26
8969	815C  0000D010             mfhi $26
8970	8160  AFBA0384             sw $26, 900($29)
8971	8164  03200011             mthi $25
8972	8168  0000C810             mfhi $25
8973	816C  AFB90388             sw $25, 904($29)
8974	8170  3C19FFFF             lui $25, 65535
8975	8174  3739FFFF             ori $25, $25, 65535
8976	8178  03200011             mthi $25
8977	817C  0000C810             mfhi $25
8978	8180  AFB9038C             sw $25, 908($29)
8979	8184  03000011             mthi $24
8980	8188  0000C010             mfhi $24
8981	818C  AFB80390             sw $24, 912($29)
8982	8190  3C18FFFF             lui $24, 65535
8983	8194  3718FFFF             ori $24, $24, 65535
8984	8198  03000011             mthi $24
8985	819C  0000C010             mfhi $24
8986	81A0  AFB80394             sw $24, 916($29)
8987	81A4  02E00011             mthi $23
8988	81A8  0000B810             mfhi $23
8989	81AC  AFB70398             sw $23, 920($29)
8990	81B0  3C17FFFF             lui $23, 65535
8991	81B4  36F7FFFF             ori $23, $23, 65535
8992	81B8  02E00011             mthi $23
8993	81BC  0000B810             mfhi $23
8994	81C0  AFB7039C             sw $23, 924($29)
8995	81C4  02C00011             mthi $22
8996	81C8  0000B010             mfhi $22
8997	81CC  AFB603A0             sw $22, 928($29)
8998	81D0  3C16FFFF             lui $22, 65535
8999	81D4  36D6FFFF             ori $22, $22, 65535
9000	81D8  02C00011             mthi $22
9001	81DC  0000B010             mfhi $22
9002	81E0  AFB603A4             sw $22, 932($29)
9003	81E4  02A00011             mthi $21
9004	81E8  0000A810             mfhi $21
9005	81EC  AFB503A8             sw $21, 936($29)
9006	81F0  3C15FFFF             lui $21, 65535
9007	81F4  36B5FFFF             ori $21, $21, 65535
9008	81F8  02A00011             mthi $21
9009	81FC  0000A810             mfhi $21
9010	8200  AFB503AC             sw $21, 940($29)
9011	8204  02800011             mthi $20
9012	8208  0000A010             mfhi $20
9013	820C  AFB403B0             sw $20, 944($29)
9014	8210  3C14FFFF             lui $20, 65535
9015	8214  3694FFFF             ori $20, $20, 65535
9016	8218  02800011             mthi $20
9017	821C  0000A010             mfhi $20
9018	8220  AFB403B4             sw $20, 948($29)
9019	8224  02600011             mthi $19
9020	8228  00009810             mfhi $19
9021	822C  AFB303B8             sw $19, 952($29)
9022	8230  3C13FFFF             lui $19, 65535
9023	8234  3673FFFF             ori $19, $19, 65535
9024	8238  02600011             mthi $19
9025	823C  00009810             mfhi $19
9026	8240  AFB303BC             sw $19, 956($29)
9027	8244  02400011             mthi $18
9028	8248  00009010             mfhi $18
9029	824C  AFB203C0             sw $18, 960($29)
9030	8250  3C12FFFF             lui $18, 65535
9031	8254  3652FFFF             ori $18, $18, 65535
9032	8258  02400011             mthi $18
9033	825C  00009010             mfhi $18
9034	8260  AFB203C4             sw $18, 964($29)
9035	8264  02200011             mthi $17
9036	8268  00008810             mfhi $17
9037	826C  AFB103C8             sw $17, 968($29)
9038	8270  3C11FFFF             lui $17, 65535
9039	8274  3631FFFF             ori $17, $17, 65535
9040	8278  02200011             mthi $17
9041	827C  00008810             mfhi $17
9042	8280  AFB103CC             sw $17, 972($29)
9043	8284  02000011             mthi $16
9044	8288  00008010             mfhi $16
9045	828C  AFB003D0             sw $16, 976($29)
9046	8290  3C10FFFF             lui $16, 65535
9047	8294  3610FFFF             ori $16, $16, 65535
9048	8298  02000011             mthi $16
9049	829C  00008010             mfhi $16
9050	82A0  AFB003D4             sw $16, 980($29)
9051	82A4  01E00011             mthi $15
9052	82A8  00007810             mfhi $15
9053	82AC  AFAF03D8             sw $15, 984($29)
9054	82B0  3C0FFFFF             lui $15, 65535
9055	82B4  35EFFFFF             ori $15, $15, 65535
9056	82B8  01E00011             mthi $15
9057	82BC  00007810             mfhi $15
9058	82C0  AFAF03DC             sw $15, 988($29)
9059	82C4  01C00011             mthi $14
9060	82C8  00007010             mfhi $14
9061	82CC  AFAE03E0             sw $14, 992($29)
9062	82D0  3C0EFFFF             lui $14, 65535
9063	82D4  35CEFFFF             ori $14, $14, 65535
9064	82D8  01C00011             mthi $14
9065	82DC  00007010             mfhi $14
9066	82E0  AFAE03E4             sw $14, 996($29)
9067	82E4  01A00011             mthi $13
9068	82E8  00006810             mfhi $13
9069	82EC  AFAD03E8             sw $13, 1000($29)
9070	82F0  3C0DFFFF             lui $13, 65535
9071	82F4  35ADFFFF             ori $13, $13, 65535
9072	82F8  01A00011             mthi $13
9073	82FC  00006810             mfhi $13
9074	8300  AFAD03EC             sw $13, 1004($29)
9075	8304  01800011             mthi $12
9076	8308  00006010             mfhi $12
9077	830C  AFAC03F0             sw $12, 1008($29)
9078	8310  3C0CFFFF             lui $12, 65535
9079	8314  358CFFFF             ori $12, $12, 65535
9080	8318  01800011             mthi $12
9081	831C  00006010             mfhi $12
9082	8320  AFAC03F4             sw $12, 1012($29)
9083	8324  01600011             mthi $11
9084	8328  00005810             mfhi $11
9085	832C  AFAB03F8             sw $11, 1016($29)
9086	8330  3C0BFFFF             lui $11, 65535
9087	8334  356BFFFF             ori $11, $11, 65535
9088	8338  01600011             mthi $11
9089	833C  00005810             mfhi $11
9090	8340  AFAB03FC             sw $11, 1020($29)
9091	8344  01400011             mthi $10
9092	8348  00005010             mfhi $10
9093	834C  AFAA0400             sw $10, 1024($29)
9094	8350  3C0AFFFF             lui $10, 65535
9095	8354  354AFFFF             ori $10, $10, 65535
9096	8358  01400011             mthi $10
9097	835C  00005010             mfhi $10
9098	8360  AFAA0404             sw $10, 1028($29)
9099	8364  01200011             mthi $9
9100	8368  00004810             mfhi $9
9101	836C  AFA90408             sw $9, 1032($29)
9102	8370  3C09FFFF             lui $9, 65535
9103	8374  3529FFFF             ori $9, $9, 65535
9104	8378  01200011             mthi $9
9105	837C  00004810             mfhi $9
9106	8380  AFA9040C             sw $9, 1036($29)
9107	8384  01000011             mthi $8
9108	8388  00004010             mfhi $8
9109	838C  AFA80410             sw $8, 1040($29)
9110	8390  3C08FFFF             lui $8, 65535
9111	8394  3508FFFF             ori $8, $8, 65535
9112	8398  01000011             mthi $8
9113	839C  00004010             mfhi $8
9114	83A0  AFA80414             sw $8, 1044($29)
9115	83A4  00E00011             mthi $7
9116	83A8  00003810             mfhi $7
9117	83AC  AFA70418             sw $7, 1048($29)
9118	83B0  3C07FFFF             lui $7, 65535
9119	83B4  34E7FFFF             ori $7, $7, 65535
9120	83B8  00E00011             mthi $7
9121	83BC  00003810             mfhi $7
9122	83C0  AFA7041C             sw $7, 1052($29)
9123	83C4  00C00011             mthi $6
9124	83C8  00003010             mfhi $6
9125	83CC  AFA60420             sw $6, 1056($29)
9126	83D0  3C06FFFF             lui $6, 65535
9127	83D4  34C6FFFF             ori $6, $6, 65535
9128	83D8  00C00011             mthi $6
9129	83DC  00003010             mfhi $6
9130	83E0  AFA60424             sw $6, 1060($29)
9131	83E4  00A00011             mthi $5
9132	83E8  00002810             mfhi $5
9133	83EC  AFA50428             sw $5, 1064($29)
9134	83F0  3C05FFFF             lui $5, 65535
9135	83F4  34A5FFFF             ori $5, $5, 65535
9136	83F8  00A00011             mthi $5
9137	83FC  00002810             mfhi $5
9138	8400  AFA5042C             sw $5, 1068($29)
9139	8404  00800011             mthi $4
9140	8408  00002010             mfhi $4
9141	840C  AFA40430             sw $4, 1072($29)
9142	8410  3C04FFFF             lui $4, 65535
9143	8414  3484FFFF             ori $4, $4, 65535
9144	8418  00800011             mthi $4
9145	841C  00002010             mfhi $4
9146	8420  AFA40434             sw $4, 1076($29)
9147	8424  00600011             mthi $3
9148	8428  00001810             mfhi $3
9149	842C  AFA30438             sw $3, 1080($29)
9150	8430  3C03FFFF             lui $3, 65535
9151	8434  3463FFFF             ori $3, $3, 65535
9152	8438  00600011             mthi $3
9153	843C  00001810             mfhi $3
9154	8440  AFA3043C             sw $3, 1084($29)
9155	8444  00400011             mthi $2
9156	8448  00001010             mfhi $2
9157	844C  AFA20440             sw $2, 1088($29)
9158	8450  3C02FFFF             lui $2, 65535
9159	8454  3442FFFF             ori $2, $2, 65535
9160	8458  00400011             mthi $2
9161	845C  00001010             mfhi $2
9162	8460  AFA20444             sw $2, 1092($29)
9163	8464  00200011             mthi $1
9164	8468  00000810             mfhi $1
9165	846C  AFA10448             sw $1, 1096($29)
9166	8470  3C01FFFF             lui $1, 65535
9167	8474  3421FFFF             ori $1, $1, 65535
9168	8478  00200011             mthi $1
9169	847C  00000810             mfhi $1
9170	8480  AFA1044C             sw $1, 1100($29)
9171	8484  03E00008             jr $31
9172	                          
9173	                          lo_upward_0:
9174	8488  00000013             mtlo $0
9175	848C  00000012             mflo $0
9176	8490  AFA00450             sw $0, 1104($29)
9177	8494  3C000000             lui $0, 0
9178	8498  34000000             ori $0, $0, 0
9179	849C  00200013             mtlo $1
9180	84A0  00000812             mflo $1
9181	84A4  AFA10454             sw $1, 1108($29)
9182	84A8  3C010000             lui $1, 0
9183	84AC  34210000             ori $1, $1, 0
9184	84B0  00400013             mtlo $2
9185	84B4  00001012             mflo $2
9186	84B8  AFA20458             sw $2, 1112($29)
9187	84BC  3C020000             lui $2, 0
9188	84C0  34420000             ori $2, $2, 0
9189	84C4  00600013             mtlo $3
9190	84C8  00001812             mflo $3
9191	84CC  AFA3045C             sw $3, 1116($29)
9192	84D0  3C030000             lui $3, 0
9193	84D4  34630000             ori $3, $3, 0
9194	84D8  00800013             mtlo $4
9195	84DC  00002012             mflo $4
9196	84E0  AFA40460             sw $4, 1120($29)
9197	84E4  3C040000             lui $4, 0
9198	84E8  34840000             ori $4, $4, 0
9199	84EC  00A00013             mtlo $5
9200	84F0  00002812             mflo $5
9201	84F4  AFA50464             sw $5, 1124($29)
9202	84F8  3C050000             lui $5, 0
9203	84FC  34A50000             ori $5, $5, 0
9204	8500  00C00013             mtlo $6
9205	8504  00003012             mflo $6
9206	8508  AFA60468             sw $6, 1128($29)
9207	850C  3C060000             lui $6, 0
9208	8510  34C60000             ori $6, $6, 0
9209	8514  00E00013             mtlo $7
9210	8518  00003812             mflo $7
9211	851C  AFA7046C             sw $7, 1132($29)
9212	8520  3C070000             lui $7, 0
9213	8524  34E70000             ori $7, $7, 0
9214	8528  01000013             mtlo $8
9215	852C  00004012             mflo $8
9216	8530  AFA80470             sw $8, 1136($29)
9217	8534  3C080000             lui $8, 0
9218	8538  35080000             ori $8, $8, 0
9219	853C  01200013             mtlo $9
9220	8540  00004812             mflo $9
9221	8544  AFA90474             sw $9, 1140($29)
9222	8548  3C090000             lui $9, 0
9223	854C  35290000             ori $9, $9, 0
9224	8550  01400013             mtlo $10
9225	8554  00005012             mflo $10
9226	8558  AFAA0478             sw $10, 1144($29)
9227	855C  3C0A0000             lui $10, 0
9228	8560  354A0000             ori $10, $10, 0
9229	8564  01600013             mtlo $11
9230	8568  00005812             mflo $11
9231	856C  AFAB047C             sw $11, 1148($29)
9232	8570  3C0B0000             lui $11, 0
9233	8574  356B0000             ori $11, $11, 0
9234	8578  01800013             mtlo $12
9235	857C  00006012             mflo $12
9236	8580  AFAC0480             sw $12, 1152($29)
9237	8584  3C0C0000             lui $12, 0
9238	8588  358C0000             ori $12, $12, 0
9239	858C  01A00013             mtlo $13
9240	8590  00006812             mflo $13
9241	8594  AFAD0484             sw $13, 1156($29)
9242	8598  3C0D0000             lui $13, 0
9243	859C  35AD0000             ori $13, $13, 0
9244	85A0  01C00013             mtlo $14
9245	85A4  00007012             mflo $14
9246	85A8  AFAE0488             sw $14, 1160($29)
9247	85AC  3C0E0000             lui $14, 0
9248	85B0  35CE0000             ori $14, $14, 0
9249	85B4  01E00013             mtlo $15
9250	85B8  00007812             mflo $15
9251	85BC  AFAF048C             sw $15, 1164($29)
9252	85C0  3C0F0000             lui $15, 0
9253	85C4  35EF0000             ori $15, $15, 0
9254	85C8  02000013             mtlo $16
9255	85CC  00008012             mflo $16
9256	85D0  AFB00490             sw $16, 1168($29)
9257	85D4  3C100000             lui $16, 0
9258	85D8  36100000             ori $16, $16, 0
9259	85DC  02200013             mtlo $17
9260	85E0  00008812             mflo $17
9261	85E4  AFB10494             sw $17, 1172($29)
9262	85E8  3C110000             lui $17, 0
9263	85EC  36310000             ori $17, $17, 0
9264	85F0  02400013             mtlo $18
9265	85F4  00009012             mflo $18
9266	85F8  AFB20498             sw $18, 1176($29)
9267	85FC  3C120000             lui $18, 0
9268	8600  36520000             ori $18, $18, 0
9269	8604  02600013             mtlo $19
9270	8608  00009812             mflo $19
9271	860C  AFB3049C             sw $19, 1180($29)
9272	8610  3C130000             lui $19, 0
9273	8614  36730000             ori $19, $19, 0
9274	8618  02800013             mtlo $20
9275	861C  0000A012             mflo $20
9276	8620  AFB404A0             sw $20, 1184($29)
9277	8624  3C140000             lui $20, 0
9278	8628  36940000             ori $20, $20, 0
9279	862C  02A00013             mtlo $21
9280	8630  0000A812             mflo $21
9281	8634  AFB504A4             sw $21, 1188($29)
9282	8638  3C150000             lui $21, 0
9283	863C  36B50000             ori $21, $21, 0
9284	8640  02C00013             mtlo $22
9285	8644  0000B012             mflo $22
9286	8648  AFB604A8             sw $22, 1192($29)
9287	864C  3C160000             lui $22, 0
9288	8650  36D60000             ori $22, $22, 0
9289	8654  02E00013             mtlo $23
9290	8658  0000B812             mflo $23
9291	865C  AFB704AC             sw $23, 1196($29)
9292	8660  3C170000             lui $23, 0
9293	8664  36F70000             ori $23, $23, 0
9294	8668  03000013             mtlo $24
9295	866C  0000C012             mflo $24
9296	8670  AFB804B0             sw $24, 1200($29)
9297	8674  3C180000             lui $24, 0
9298	8678  37180000             ori $24, $24, 0
9299	867C  03200013             mtlo $25
9300	8680  0000C812             mflo $25
9301	8684  AFB904B4             sw $25, 1204($29)
9302	8688  3C190000             lui $25, 0
9303	868C  37390000             ori $25, $25, 0
9304	8690  03400013             mtlo $26
9305	8694  0000D012             mflo $26
9306	8698  AFBA04B8             sw $26, 1208($29)
9307	869C  3C1A0000             lui $26, 0
9308	86A0  375A0000             ori $26, $26, 0
9309	86A4  03600013             mtlo $27
9310	86A8  0000D812             mflo $27
9311	86AC  AFBB04BC             sw $27, 1212($29)
9312	86B0  3C1B0000             lui $27, 0
9313	86B4  377B0000             ori $27, $27, 0
9314	86B8  03800013             mtlo $28
9315	86BC  0000E012             mflo $28
9316	86C0  AFBC04C0             sw $28, 1216($29)
9317	86C4  3C1C0000             lui $28, 0
9318	86C8  379C0000             ori $28, $28, 0
9319	86CC  03C00013             mtlo $30
9320	86D0  0000F012             mflo $30
9321	86D4  AFBE04C4             sw $30, 1220($29)
9322	86D8  3C1E0000             lui $30, 0
9323	86DC  37DE0000             ori $30, $30, 0
9324	86E0  03E00008             jr $31
9325	                          
9326	                          lo_downward_1:
9327	86E4  00000013             mtlo $0
9328	86E8  00000012             mflo $0
9329	86EC  AFA004C8             sw $0, 1224($29)
9330	86F0  3C00FFFF             lui $0, 65535
9331	86F4  3400FFFF             ori $0, $0, 65535
9332	86F8  00000013             mtlo $0
9333	86FC  00000012             mflo $0
9334	8700  AFA004CC             sw $0, 1228($29)
9335	8704  03C00013             mtlo $30
9336	8708  0000F012             mflo $30
9337	870C  AFBE04D0             sw $30, 1232($29)
9338	8710  3C1EFFFF             lui $30, 65535
9339	8714  37DEFFFF             ori $30, $30, 65535
9340	8718  03C00013             mtlo $30
9341	871C  0000F012             mflo $30
9342	8720  AFBE04D4             sw $30, 1236($29)
9343	8724  03800013             mtlo $28
9344	8728  0000E012             mflo $28
9345	872C  AFBC04D8             sw $28, 1240($29)
9346	8730  3C1CFFFF             lui $28, 65535
9347	8734  379CFFFF             ori $28, $28, 65535
9348	8738  03800013             mtlo $28
9349	873C  0000E012             mflo $28
9350	8740  AFBC04DC             sw $28, 1244($29)
9351	8744  03600013             mtlo $27
9352	8748  0000D812             mflo $27
9353	874C  AFBB04E0             sw $27, 1248($29)
9354	8750  3C1BFFFF             lui $27, 65535
9355	8754  377BFFFF             ori $27, $27, 65535
9356	8758  03600013             mtlo $27
9357	875C  0000D812             mflo $27
9358	8760  AFBB04E4             sw $27, 1252($29)
9359	8764  03400013             mtlo $26
9360	8768  0000D012             mflo $26
9361	876C  AFBA04E8             sw $26, 1256($29)
9362	8770  3C1AFFFF             lui $26, 65535
9363	8774  375AFFFF             ori $26, $26, 65535
9364	8778  03400013             mtlo $26
9365	877C  0000D012             mflo $26
9366	8780  AFBA04EC             sw $26, 1260($29)
9367	8784  03200013             mtlo $25
9368	8788  0000C812             mflo $25
9369	878C  AFB904F0             sw $25, 1264($29)
9370	8790  3C19FFFF             lui $25, 65535
9371	8794  3739FFFF             ori $25, $25, 65535
9372	8798  03200013             mtlo $25
9373	879C  0000C812             mflo $25
9374	87A0  AFB904F4             sw $25, 1268($29)
9375	87A4  03000013             mtlo $24
9376	87A8  0000C012             mflo $24
9377	87AC  AFB804F8             sw $24, 1272($29)
9378	87B0  3C18FFFF             lui $24, 65535
9379	87B4  3718FFFF             ori $24, $24, 65535
9380	87B8  03000013             mtlo $24
9381	87BC  0000C012             mflo $24
9382	87C0  AFB804FC             sw $24, 1276($29)
9383	87C4  02E00013             mtlo $23
9384	87C8  0000B812             mflo $23
9385	87CC  AFB70500             sw $23, 1280($29)
9386	87D0  3C17FFFF             lui $23, 65535
9387	87D4  36F7FFFF             ori $23, $23, 65535
9388	87D8  02E00013             mtlo $23
9389	87DC  0000B812             mflo $23
9390	87E0  AFB70504             sw $23, 1284($29)
9391	87E4  02C00013             mtlo $22
9392	87E8  0000B012             mflo $22
9393	87EC  AFB60508             sw $22, 1288($29)
9394	87F0  3C16FFFF             lui $22, 65535
9395	87F4  36D6FFFF             ori $22, $22, 65535
9396	87F8  02C00013             mtlo $22
9397	87FC  0000B012             mflo $22
9398	8800  AFB6050C             sw $22, 1292($29)
9399	8804  02A00013             mtlo $21
9400	8808  0000A812             mflo $21
9401	880C  AFB50510             sw $21, 1296($29)
9402	8810  3C15FFFF             lui $21, 65535
9403	8814  36B5FFFF             ori $21, $21, 65535
9404	8818  02A00013             mtlo $21
9405	881C  0000A812             mflo $21
9406	8820  AFB50514             sw $21, 1300($29)
9407	8824  02800013             mtlo $20
9408	8828  0000A012             mflo $20
9409	882C  AFB40518             sw $20, 1304($29)
9410	8830  3C14FFFF             lui $20, 65535
9411	8834  3694FFFF             ori $20, $20, 65535
9412	8838  02800013             mtlo $20
9413	883C  0000A012             mflo $20
9414	8840  AFB4051C             sw $20, 1308($29)
9415	8844  02600013             mtlo $19
9416	8848  00009812             mflo $19
9417	884C  AFB30520             sw $19, 1312($29)
9418	8850  3C13FFFF             lui $19, 65535
9419	8854  3673FFFF             ori $19, $19, 65535
9420	8858  02600013             mtlo $19
9421	885C  00009812             mflo $19
9422	8860  AFB30524             sw $19, 1316($29)
9423	8864  02400013             mtlo $18
9424	8868  00009012             mflo $18
9425	886C  AFB20528             sw $18, 1320($29)
9426	8870  3C12FFFF             lui $18, 65535
9427	8874  3652FFFF             ori $18, $18, 65535
9428	8878  02400013             mtlo $18
9429	887C  00009012             mflo $18
9430	8880  AFB2052C             sw $18, 1324($29)
9431	8884  02200013             mtlo $17
9432	8888  00008812             mflo $17
9433	888C  AFB10530             sw $17, 1328($29)
9434	8890  3C11FFFF             lui $17, 65535
9435	8894  3631FFFF             ori $17, $17, 65535
9436	8898  02200013             mtlo $17
9437	889C  00008812             mflo $17
9438	88A0  AFB10534             sw $17, 1332($29)
9439	88A4  02000013             mtlo $16
9440	88A8  00008012             mflo $16
9441	88AC  AFB00538             sw $16, 1336($29)
9442	88B0  3C10FFFF             lui $16, 65535
9443	88B4  3610FFFF             ori $16, $16, 65535
9444	88B8  02000013             mtlo $16
9445	88BC  00008012             mflo $16
9446	88C0  AFB0053C             sw $16, 1340($29)
9447	88C4  01E00013             mtlo $15
9448	88C8  00007812             mflo $15
9449	88CC  AFAF0540             sw $15, 1344($29)
9450	88D0  3C0FFFFF             lui $15, 65535
9451	88D4  35EFFFFF             ori $15, $15, 65535
9452	88D8  01E00013             mtlo $15
9453	88DC  00007812             mflo $15
9454	88E0  AFAF0544             sw $15, 1348($29)
9455	88E4  01C00013             mtlo $14
9456	88E8  00007012             mflo $14
9457	88EC  AFAE0548             sw $14, 1352($29)
9458	88F0  3C0EFFFF             lui $14, 65535
9459	88F4  35CEFFFF             ori $14, $14, 65535
9460	88F8  01C00013             mtlo $14
9461	88FC  00007012             mflo $14
9462	8900  AFAE054C             sw $14, 1356($29)
9463	8904  01A00013             mtlo $13
9464	8908  00006812             mflo $13
9465	890C  AFAD0550             sw $13, 1360($29)
9466	8910  3C0DFFFF             lui $13, 65535
9467	8914  35ADFFFF             ori $13, $13, 65535
9468	8918  01A00013             mtlo $13
9469	891C  00006812             mflo $13
9470	8920  AFAD0554             sw $13, 1364($29)
9471	8924  01800013             mtlo $12
9472	8928  00006012             mflo $12
9473	892C  AFAC0558             sw $12, 1368($29)
9474	8930  3C0CFFFF             lui $12, 65535
9475	8934  358CFFFF             ori $12, $12, 65535
9476	8938  01800013             mtlo $12
9477	893C  00006012             mflo $12
9478	8940  AFAC055C             sw $12, 1372($29)
9479	8944  01600013             mtlo $11
9480	8948  00005812             mflo $11
9481	894C  AFAB0560             sw $11, 1376($29)
9482	8950  3C0BFFFF             lui $11, 65535
9483	8954  356BFFFF             ori $11, $11, 65535
9484	8958  01600013             mtlo $11
9485	895C  00005812             mflo $11
9486	8960  AFAB0564             sw $11, 1380($29)
9487	8964  01400013             mtlo $10
9488	8968  00005012             mflo $10
9489	896C  AFAA0568             sw $10, 1384($29)
9490	8970  3C0AFFFF             lui $10, 65535
9491	8974  354AFFFF             ori $10, $10, 65535
9492	8978  01400013             mtlo $10
9493	897C  00005012             mflo $10
9494	8980  AFAA056C             sw $10, 1388($29)
9495	8984  01200013             mtlo $9
9496	8988  00004812             mflo $9
9497	898C  AFA90570             sw $9, 1392($29)
9498	8990  3C09FFFF             lui $9, 65535
9499	8994  3529FFFF             ori $9, $9, 65535
9500	8998  01200013             mtlo $9
9501	899C  00004812             mflo $9
9502	89A0  AFA90574             sw $9, 1396($29)
9503	89A4  01000013             mtlo $8
9504	89A8  00004012             mflo $8
9505	89AC  AFA80578             sw $8, 1400($29)
9506	89B0  3C08FFFF             lui $8, 65535
9507	89B4  3508FFFF             ori $8, $8, 65535
9508	89B8  01000013             mtlo $8
9509	89BC  00004012             mflo $8
9510	89C0  AFA8057C             sw $8, 1404($29)
9511	89C4  00E00013             mtlo $7
9512	89C8  00003812             mflo $7
9513	89CC  AFA70580             sw $7, 1408($29)
9514	89D0  3C07FFFF             lui $7, 65535
9515	89D4  34E7FFFF             ori $7, $7, 65535
9516	89D8  00E00013             mtlo $7
9517	89DC  00003812             mflo $7
9518	89E0  AFA70584             sw $7, 1412($29)
9519	89E4  00C00013             mtlo $6
9520	89E8  00003012             mflo $6
9521	89EC  AFA60588             sw $6, 1416($29)
9522	89F0  3C06FFFF             lui $6, 65535
9523	89F4  34C6FFFF             ori $6, $6, 65535
9524	89F8  00C00013             mtlo $6
9525	89FC  00003012             mflo $6
9526	8A00  AFA6058C             sw $6, 1420($29)
9527	8A04  00A00013             mtlo $5
9528	8A08  00002812             mflo $5
9529	8A0C  AFA50590             sw $5, 1424($29)
9530	8A10  3C05FFFF             lui $5, 65535
9531	8A14  34A5FFFF             ori $5, $5, 65535
9532	8A18  00A00013             mtlo $5
9533	8A1C  00002812             mflo $5
9534	8A20  AFA50594             sw $5, 1428($29)
9535	8A24  00800013             mtlo $4
9536	8A28  00002012             mflo $4
9537	8A2C  AFA40598             sw $4, 1432($29)
9538	8A30  3C04FFFF             lui $4, 65535
9539	8A34  3484FFFF             ori $4, $4, 65535
9540	8A38  00800013             mtlo $4
9541	8A3C  00002012             mflo $4
9542	8A40  AFA4059C             sw $4, 1436($29)
9543	8A44  00600013             mtlo $3
9544	8A48  00001812             mflo $3
9545	8A4C  AFA305A0             sw $3, 1440($29)
9546	8A50  3C03FFFF             lui $3, 65535
9547	8A54  3463FFFF             ori $3, $3, 65535
9548	8A58  00600013             mtlo $3
9549	8A5C  00001812             mflo $3
9550	8A60  AFA305A4             sw $3, 1444($29)
9551	8A64  00400013             mtlo $2
9552	8A68  00001012             mflo $2
9553	8A6C  AFA205A8             sw $2, 1448($29)
9554	8A70  3C02FFFF             lui $2, 65535
9555	8A74  3442FFFF             ori $2, $2, 65535
9556	8A78  00400013             mtlo $2
9557	8A7C  00001012             mflo $2
9558	8A80  AFA205AC             sw $2, 1452($29)
9559	8A84  00200013             mtlo $1
9560	8A88  00000812             mflo $1
9561	8A8C  AFA105B0             sw $1, 1456($29)
9562	8A90  3C01FFFF             lui $1, 65535
9563	8A94  3421FFFF             ori $1, $1, 65535
9564	8A98  00200013             mtlo $1
9565	8A9C  00000812             mflo $1
9566	8AA0  AFA105B4             sw $1, 1460($29)
9567	8AA4  03E00008             jr $31
9568	                          
9569	                          hi_upward_1:
9570	8AA8  00000011             mthi $0
9571	8AAC  00000010             mfhi $0
9572	8AB0  AFA005B8             sw $0, 1464($29)
9573	8AB4  3C00FFFF             lui $0, 65535
9574	8AB8  3400FFFF             ori $0, $0, 65535
9575	8ABC  00200011             mthi $1
9576	8AC0  00000810             mfhi $1
9577	8AC4  AFA105BC             sw $1, 1468($29)
9578	8AC8  3C01FFFF             lui $1, 65535
9579	8ACC  3421FFFF             ori $1, $1, 65535
9580	8AD0  00400011             mthi $2
9581	8AD4  00001010             mfhi $2
9582	8AD8  AFA205C0             sw $2, 1472($29)
9583	8ADC  3C02FFFF             lui $2, 65535
9584	8AE0  3442FFFF             ori $2, $2, 65535
9585	8AE4  00600011             mthi $3
9586	8AE8  00001810             mfhi $3
9587	8AEC  AFA305C4             sw $3, 1476($29)
9588	8AF0  3C03FFFF             lui $3, 65535
9589	8AF4  3463FFFF             ori $3, $3, 65535
9590	8AF8  00800011             mthi $4
9591	8AFC  00002010             mfhi $4
9592	8B00  AFA405C8             sw $4, 1480($29)
9593	8B04  3C04FFFF             lui $4, 65535
9594	8B08  3484FFFF             ori $4, $4, 65535
9595	8B0C  00A00011             mthi $5
9596	8B10  00002810             mfhi $5
9597	8B14  AFA505CC             sw $5, 1484($29)
9598	8B18  3C05FFFF             lui $5, 65535
9599	8B1C  34A5FFFF             ori $5, $5, 65535
9600	8B20  00C00011             mthi $6
9601	8B24  00003010             mfhi $6
9602	8B28  AFA605D0             sw $6, 1488($29)
9603	8B2C  3C06FFFF             lui $6, 65535
9604	8B30  34C6FFFF             ori $6, $6, 65535
9605	8B34  00E00011             mthi $7
9606	8B38  00003810             mfhi $7
9607	8B3C  AFA705D4             sw $7, 1492($29)
9608	8B40  3C07FFFF             lui $7, 65535
9609	8B44  34E7FFFF             ori $7, $7, 65535
9610	8B48  01000011             mthi $8
9611	8B4C  00004010             mfhi $8
9612	8B50  AFA805D8             sw $8, 1496($29)
9613	8B54  3C08FFFF             lui $8, 65535
9614	8B58  3508FFFF             ori $8, $8, 65535
9615	8B5C  01200011             mthi $9
9616	8B60  00004810             mfhi $9
9617	8B64  AFA905DC             sw $9, 1500($29)
9618	8B68  3C09FFFF             lui $9, 65535
9619	8B6C  3529FFFF             ori $9, $9, 65535
9620	8B70  01400011             mthi $10
9621	8B74  00005010             mfhi $10
9622	8B78  AFAA05E0             sw $10, 1504($29)
9623	8B7C  3C0AFFFF             lui $10, 65535
9624	8B80  354AFFFF             ori $10, $10, 65535
9625	8B84  01600011             mthi $11
9626	8B88  00005810             mfhi $11
9627	8B8C  AFAB05E4             sw $11, 1508($29)
9628	8B90  3C0BFFFF             lui $11, 65535
9629	8B94  356BFFFF             ori $11, $11, 65535
9630	8B98  01800011             mthi $12
9631	8B9C  00006010             mfhi $12
9632	8BA0  AFAC05E8             sw $12, 1512($29)
9633	8BA4  3C0CFFFF             lui $12, 65535
9634	8BA8  358CFFFF             ori $12, $12, 65535
9635	8BAC  01A00011             mthi $13
9636	8BB0  00006810             mfhi $13
9637	8BB4  AFAD05EC             sw $13, 1516($29)
9638	8BB8  3C0DFFFF             lui $13, 65535
9639	8BBC  35ADFFFF             ori $13, $13, 65535
9640	8BC0  01C00011             mthi $14
9641	8BC4  00007010             mfhi $14
9642	8BC8  AFAE05F0             sw $14, 1520($29)
9643	8BCC  3C0EFFFF             lui $14, 65535
9644	8BD0  35CEFFFF             ori $14, $14, 65535
9645	8BD4  01E00011             mthi $15
9646	8BD8  00007810             mfhi $15
9647	8BDC  AFAF05F4             sw $15, 1524($29)
9648	8BE0  3C0FFFFF             lui $15, 65535
9649	8BE4  35EFFFFF             ori $15, $15, 65535
9650	8BE8  02000011             mthi $16
9651	8BEC  00008010             mfhi $16
9652	8BF0  AFB005F8             sw $16, 1528($29)
9653	8BF4  3C10FFFF             lui $16, 65535
9654	8BF8  3610FFFF             ori $16, $16, 65535
9655	8BFC  02200011             mthi $17
9656	8C00  00008810             mfhi $17
9657	8C04  AFB105FC             sw $17, 1532($29)
9658	8C08  3C11FFFF             lui $17, 65535
9659	8C0C  3631FFFF             ori $17, $17, 65535
9660	8C10  02400011             mthi $18
9661	8C14  00009010             mfhi $18
9662	8C18  AFB20600             sw $18, 1536($29)
9663	8C1C  3C12FFFF             lui $18, 65535
9664	8C20  3652FFFF             ori $18, $18, 65535
9665	8C24  02600011             mthi $19
9666	8C28  00009810             mfhi $19
9667	8C2C  AFB30604             sw $19, 1540($29)
9668	8C30  3C13FFFF             lui $19, 65535
9669	8C34  3673FFFF             ori $19, $19, 65535
9670	8C38  02800011             mthi $20
9671	8C3C  0000A010             mfhi $20
9672	8C40  AFB40608             sw $20, 1544($29)
9673	8C44  3C14FFFF             lui $20, 65535
9674	8C48  3694FFFF             ori $20, $20, 65535
9675	8C4C  02A00011             mthi $21
9676	8C50  0000A810             mfhi $21
9677	8C54  AFB5060C             sw $21, 1548($29)
9678	8C58  3C15FFFF             lui $21, 65535
9679	8C5C  36B5FFFF             ori $21, $21, 65535
9680	8C60  02C00011             mthi $22
9681	8C64  0000B010             mfhi $22
9682	8C68  AFB60610             sw $22, 1552($29)
9683	8C6C  3C16FFFF             lui $22, 65535
9684	8C70  36D6FFFF             ori $22, $22, 65535
9685	8C74  02E00011             mthi $23
9686	8C78  0000B810             mfhi $23
9687	8C7C  AFB70614             sw $23, 1556($29)
9688	8C80  3C17FFFF             lui $23, 65535
9689	8C84  36F7FFFF             ori $23, $23, 65535
9690	8C88  03000011             mthi $24
9691	8C8C  0000C010             mfhi $24
9692	8C90  AFB80618             sw $24, 1560($29)
9693	8C94  3C18FFFF             lui $24, 65535
9694	8C98  3718FFFF             ori $24, $24, 65535
9695	8C9C  03200011             mthi $25
9696	8CA0  0000C810             mfhi $25
9697	8CA4  AFB9061C             sw $25, 1564($29)
9698	8CA8  3C19FFFF             lui $25, 65535
9699	8CAC  3739FFFF             ori $25, $25, 65535
9700	8CB0  03400011             mthi $26
9701	8CB4  0000D010             mfhi $26
9702	8CB8  AFBA0620             sw $26, 1568($29)
9703	8CBC  3C1AFFFF             lui $26, 65535
9704	8CC0  375AFFFF             ori $26, $26, 65535
9705	8CC4  03600011             mthi $27
9706	8CC8  0000D810             mfhi $27
9707	8CCC  AFBB0624             sw $27, 1572($29)
9708	8CD0  3C1BFFFF             lui $27, 65535
9709	8CD4  377BFFFF             ori $27, $27, 65535
9710	8CD8  03800011             mthi $28
9711	8CDC  0000E010             mfhi $28
9712	8CE0  AFBC0628             sw $28, 1576($29)
9713	8CE4  3C1CFFFF             lui $28, 65535
9714	8CE8  379CFFFF             ori $28, $28, 65535
9715	8CEC  03C00011             mthi $30
9716	8CF0  0000F010             mfhi $30
9717	8CF4  AFBE062C             sw $30, 1580($29)
9718	8CF8  3C1EFFFF             lui $30, 65535
9719	8CFC  37DEFFFF             ori $30, $30, 65535
9720	8D00  03E00008             jr $31
9721	                          
9722	                          hi_downward_0:
9723	8D04  00000011             mthi $0
9724	8D08  00000010             mfhi $0
9725	8D0C  AFA00630             sw $0, 1584($29)
9726	8D10  3C000000             lui $0, 0
9727	8D14  34000000             ori $0, $0, 0
9728	8D18  00000011             mthi $0
9729	8D1C  00000010             mfhi $0
9730	8D20  AFA00634             sw $0, 1588($29)
9731	8D24  03C00011             mthi $30
9732	8D28  0000F010             mfhi $30
9733	8D2C  AFBE0638             sw $30, 1592($29)
9734	8D30  3C1E0000             lui $30, 0
9735	8D34  37DE0000             ori $30, $30, 0
9736	8D38  03C00011             mthi $30
9737	8D3C  0000F010             mfhi $30
9738	8D40  AFBE063C             sw $30, 1596($29)
9739	8D44  03800011             mthi $28
9740	8D48  0000E010             mfhi $28
9741	8D4C  AFBC0640             sw $28, 1600($29)
9742	8D50  3C1C0000             lui $28, 0
9743	8D54  379C0000             ori $28, $28, 0
9744	8D58  03800011             mthi $28
9745	8D5C  0000E010             mfhi $28
9746	8D60  AFBC0644             sw $28, 1604($29)
9747	8D64  03600011             mthi $27
9748	8D68  0000D810             mfhi $27
9749	8D6C  AFBB0648             sw $27, 1608($29)
9750	8D70  3C1B0000             lui $27, 0
9751	8D74  377B0000             ori $27, $27, 0
9752	8D78  03600011             mthi $27
9753	8D7C  0000D810             mfhi $27
9754	8D80  AFBB064C             sw $27, 1612($29)
9755	8D84  03400011             mthi $26
9756	8D88  0000D010             mfhi $26
9757	8D8C  AFBA0650             sw $26, 1616($29)
9758	8D90  3C1A0000             lui $26, 0
9759	8D94  375A0000             ori $26, $26, 0
9760	8D98  03400011             mthi $26
9761	8D9C  0000D010             mfhi $26
9762	8DA0  AFBA0654             sw $26, 1620($29)
9763	8DA4  03200011             mthi $25
9764	8DA8  0000C810             mfhi $25
9765	8DAC  AFB90658             sw $25, 1624($29)
9766	8DB0  3C190000             lui $25, 0
9767	8DB4  37390000             ori $25, $25, 0
9768	8DB8  03200011             mthi $25
9769	8DBC  0000C810             mfhi $25
9770	8DC0  AFB9065C             sw $25, 1628($29)
9771	8DC4  03000011             mthi $24
9772	8DC8  0000C010             mfhi $24
9773	8DCC  AFB80660             sw $24, 1632($29)
9774	8DD0  3C180000             lui $24, 0
9775	8DD4  37180000             ori $24, $24, 0
9776	8DD8  03000011             mthi $24
9777	8DDC  0000C010             mfhi $24
9778	8DE0  AFB80664             sw $24, 1636($29)
9779	8DE4  02E00011             mthi $23
9780	8DE8  0000B810             mfhi $23
9781	8DEC  AFB70668             sw $23, 1640($29)
9782	8DF0  3C170000             lui $23, 0
9783	8DF4  36F70000             ori $23, $23, 0
9784	8DF8  02E00011             mthi $23
9785	8DFC  0000B810             mfhi $23
9786	8E00  AFB7066C             sw $23, 1644($29)
9787	8E04  02C00011             mthi $22
9788	8E08  0000B010             mfhi $22
9789	8E0C  AFB60670             sw $22, 1648($29)
9790	8E10  3C160000             lui $22, 0
9791	8E14  36D60000             ori $22, $22, 0
9792	8E18  02C00011             mthi $22
9793	8E1C  0000B010             mfhi $22
9794	8E20  AFB60674             sw $22, 1652($29)
9795	8E24  02A00011             mthi $21
9796	8E28  0000A810             mfhi $21
9797	8E2C  AFB50678             sw $21, 1656($29)
9798	8E30  3C150000             lui $21, 0
9799	8E34  36B50000             ori $21, $21, 0
9800	8E38  02A00011             mthi $21
9801	8E3C  0000A810             mfhi $21
9802	8E40  AFB5067C             sw $21, 1660($29)
9803	8E44  02800011             mthi $20
9804	8E48  0000A010             mfhi $20
9805	8E4C  AFB40680             sw $20, 1664($29)
9806	8E50  3C140000             lui $20, 0
9807	8E54  36940000             ori $20, $20, 0
9808	8E58  02800011             mthi $20
9809	8E5C  0000A010             mfhi $20
9810	8E60  AFB40684             sw $20, 1668($29)
9811	8E64  02600011             mthi $19
9812	8E68  00009810             mfhi $19
9813	8E6C  AFB30688             sw $19, 1672($29)
9814	8E70  3C130000             lui $19, 0
9815	8E74  36730000             ori $19, $19, 0
9816	8E78  02600011             mthi $19
9817	8E7C  00009810             mfhi $19
9818	8E80  AFB3068C             sw $19, 1676($29)
9819	8E84  02400011             mthi $18
9820	8E88  00009010             mfhi $18
9821	8E8C  AFB20690             sw $18, 1680($29)
9822	8E90  3C120000             lui $18, 0
9823	8E94  36520000             ori $18, $18, 0
9824	8E98  02400011             mthi $18
9825	8E9C  00009010             mfhi $18
9826	8EA0  AFB20694             sw $18, 1684($29)
9827	8EA4  02200011             mthi $17
9828	8EA8  00008810             mfhi $17
9829	8EAC  AFB10698             sw $17, 1688($29)
9830	8EB0  3C110000             lui $17, 0
9831	8EB4  36310000             ori $17, $17, 0
9832	8EB8  02200011             mthi $17
9833	8EBC  00008810             mfhi $17
9834	8EC0  AFB1069C             sw $17, 1692($29)
9835	8EC4  02000011             mthi $16
9836	8EC8  00008010             mfhi $16
9837	8ECC  AFB006A0             sw $16, 1696($29)
9838	8ED0  3C100000             lui $16, 0
9839	8ED4  36100000             ori $16, $16, 0
9840	8ED8  02000011             mthi $16
9841	8EDC  00008010             mfhi $16
9842	8EE0  AFB006A4             sw $16, 1700($29)
9843	8EE4  01E00011             mthi $15
9844	8EE8  00007810             mfhi $15
9845	8EEC  AFAF06A8             sw $15, 1704($29)
9846	8EF0  3C0F0000             lui $15, 0
9847	8EF4  35EF0000             ori $15, $15, 0
9848	8EF8  01E00011             mthi $15
9849	8EFC  00007810             mfhi $15
9850	8F00  AFAF06AC             sw $15, 1708($29)
9851	8F04  01C00011             mthi $14
9852	8F08  00007010             mfhi $14
9853	8F0C  AFAE06B0             sw $14, 1712($29)
9854	8F10  3C0E0000             lui $14, 0
9855	8F14  35CE0000             ori $14, $14, 0
9856	8F18  01C00011             mthi $14
9857	8F1C  00007010             mfhi $14
9858	8F20  AFAE06B4             sw $14, 1716($29)
9859	8F24  01A00011             mthi $13
9860	8F28  00006810             mfhi $13
9861	8F2C  AFAD06B8             sw $13, 1720($29)
9862	8F30  3C0D0000             lui $13, 0
9863	8F34  35AD0000             ori $13, $13, 0
9864	8F38  01A00011             mthi $13
9865	8F3C  00006810             mfhi $13
9866	8F40  AFAD06BC             sw $13, 1724($29)
9867	8F44  01800011             mthi $12
9868	8F48  00006010             mfhi $12
9869	8F4C  AFAC06C0             sw $12, 1728($29)
9870	8F50  3C0C0000             lui $12, 0
9871	8F54  358C0000             ori $12, $12, 0
9872	8F58  01800011             mthi $12
9873	8F5C  00006010             mfhi $12
9874	8F60  AFAC06C4             sw $12, 1732($29)
9875	8F64  01600011             mthi $11
9876	8F68  00005810             mfhi $11
9877	8F6C  AFAB06C8             sw $11, 1736($29)
9878	8F70  3C0B0000             lui $11, 0
9879	8F74  356B0000             ori $11, $11, 0
9880	8F78  01600011             mthi $11
9881	8F7C  00005810             mfhi $11
9882	8F80  AFAB06CC             sw $11, 1740($29)
9883	8F84  01400011             mthi $10
9884	8F88  00005010             mfhi $10
9885	8F8C  AFAA06D0             sw $10, 1744($29)
9886	8F90  3C0A0000             lui $10, 0
9887	8F94  354A0000             ori $10, $10, 0
9888	8F98  01400011             mthi $10
9889	8F9C  00005010             mfhi $10
9890	8FA0  AFAA06D4             sw $10, 1748($29)
9891	8FA4  01200011             mthi $9
9892	8FA8  00004810             mfhi $9
9893	8FAC  AFA906D8             sw $9, 1752($29)
9894	8FB0  3C090000             lui $9, 0
9895	8FB4  35290000             ori $9, $9, 0
9896	8FB8  01200011             mthi $9
9897	8FBC  00004810             mfhi $9
9898	8FC0  AFA906DC             sw $9, 1756($29)
9899	8FC4  01000011             mthi $8
9900	8FC8  00004010             mfhi $8
9901	8FCC  AFA806E0             sw $8, 1760($29)
9902	8FD0  3C080000             lui $8, 0
9903	8FD4  35080000             ori $8, $8, 0
9904	8FD8  01000011             mthi $8
9905	8FDC  00004010             mfhi $8
9906	8FE0  AFA806E4             sw $8, 1764($29)
9907	8FE4  00E00011             mthi $7
9908	8FE8  00003810             mfhi $7
9909	8FEC  AFA706E8             sw $7, 1768($29)
9910	8FF0  3C070000             lui $7, 0
9911	8FF4  34E70000             ori $7, $7, 0
9912	8FF8  00E00011             mthi $7
9913	8FFC  00003810             mfhi $7
9914	9000  AFA706EC             sw $7, 1772($29)
9915	9004  00C00011             mthi $6
9916	9008  00003010             mfhi $6
9917	900C  AFA606F0             sw $6, 1776($29)
9918	9010  3C060000             lui $6, 0
9919	9014  34C60000             ori $6, $6, 0
9920	9018  00C00011             mthi $6
9921	901C  00003010             mfhi $6
9922	9020  AFA606F4             sw $6, 1780($29)
9923	9024  00A00011             mthi $5
9924	9028  00002810             mfhi $5
9925	902C  AFA506F8             sw $5, 1784($29)
9926	9030  3C050000             lui $5, 0
9927	9034  34A50000             ori $5, $5, 0
9928	9038  00A00011             mthi $5
9929	903C  00002810             mfhi $5
9930	9040  AFA506FC             sw $5, 1788($29)
9931	9044  00800011             mthi $4
9932	9048  00002010             mfhi $4
9933	904C  AFA40700             sw $4, 1792($29)
9934	9050  3C040000             lui $4, 0
9935	9054  34840000             ori $4, $4, 0
9936	9058  00800011             mthi $4
9937	905C  00002010             mfhi $4
9938	9060  AFA40704             sw $4, 1796($29)
9939	9064  00600011             mthi $3
9940	9068  00001810             mfhi $3
9941	906C  AFA30708             sw $3, 1800($29)
9942	9070  3C030000             lui $3, 0
9943	9074  34630000             ori $3, $3, 0
9944	9078  00600011             mthi $3
9945	907C  00001810             mfhi $3
9946	9080  AFA3070C             sw $3, 1804($29)
9947	9084  00400011             mthi $2
9948	9088  00001010             mfhi $2
9949	908C  AFA20710             sw $2, 1808($29)
9950	9090  3C020000             lui $2, 0
9951	9094  34420000             ori $2, $2, 0
9952	9098  00400011             mthi $2
9953	909C  00001010             mfhi $2
9954	90A0  AFA20714             sw $2, 1812($29)
9955	90A4  00200011             mthi $1
9956	90A8  00000810             mfhi $1
9957	90AC  AFA10718             sw $1, 1816($29)
9958	90B0  3C010000             lui $1, 0
9959	90B4  34210000             ori $1, $1, 0
9960	90B8  00200011             mthi $1
9961	90BC  00000810             mfhi $1
9962	90C0  AFA1071C             sw $1, 1820($29)
9963	90C4  03E00008             jr $31
9964	                          
9965	                          lo_upward_1:
9966	90C8  00000013             mtlo $0
9967	90CC  00000012             mflo $0
9968	90D0  AFA00720             sw $0, 1824($29)
9969	90D4  3C00FFFF             lui $0, 65535
9970	90D8  3400FFFF             ori $0, $0, 65535
9971	90DC  00200013             mtlo $1
9972	90E0  00000812             mflo $1
9973	90E4  AFA10724             sw $1, 1828($29)
9974	90E8  3C01FFFF             lui $1, 65535
9975	90EC  3421FFFF             ori $1, $1, 65535
9976	90F0  00400013             mtlo $2
9977	90F4  00001012             mflo $2
9978	90F8  AFA20728             sw $2, 1832($29)
9979	90FC  3C02FFFF             lui $2, 65535
9980	9100  3442FFFF             ori $2, $2, 65535
9981	9104  00600013             mtlo $3
9982	9108  00001812             mflo $3
9983	910C  AFA3072C             sw $3, 1836($29)
9984	9110  3C03FFFF             lui $3, 65535
9985	9114  3463FFFF             ori $3, $3, 65535
9986	9118  00800013             mtlo $4
9987	911C  00002012             mflo $4
9988	9120  AFA40730             sw $4, 1840($29)
9989	9124  3C04FFFF             lui $4, 65535
9990	9128  3484FFFF             ori $4, $4, 65535
9991	912C  00A00013             mtlo $5
9992	9130  00002812             mflo $5
9993	9134  AFA50734             sw $5, 1844($29)
9994	9138  3C05FFFF             lui $5, 65535
9995	913C  34A5FFFF             ori $5, $5, 65535
9996	9140  00C00013             mtlo $6
9997	9144  00003012             mflo $6
9998	9148  AFA60738             sw $6, 1848($29)
9999	914C  3C06FFFF             lui $6, 65535
10000	9150  34C6FFFF             ori $6, $6, 65535
10001	9154  00E00013             mtlo $7
10002	9158  00003812             mflo $7
10003	915C  AFA7073C             sw $7, 1852($29)
10004	9160  3C07FFFF             lui $7, 65535
10005	9164  34E7FFFF             ori $7, $7, 65535
10006	9168  01000013             mtlo $8
10007	916C  00004012             mflo $8
10008	9170  AFA80740             sw $8, 1856($29)
10009	9174  3C08FFFF             lui $8, 65535
10010	9178  3508FFFF             ori $8, $8, 65535
10011	917C  01200013             mtlo $9
10012	9180  00004812             mflo $9
10013	9184  AFA90744             sw $9, 1860($29)
10014	9188  3C09FFFF             lui $9, 65535
10015	918C  3529FFFF             ori $9, $9, 65535
10016	9190  01400013             mtlo $10
10017	9194  00005012             mflo $10
10018	9198  AFAA0748             sw $10, 1864($29)
10019	919C  3C0AFFFF             lui $10, 65535
10020	91A0  354AFFFF             ori $10, $10, 65535
10021	91A4  01600013             mtlo $11
10022	91A8  00005812             mflo $11
10023	91AC  AFAB074C             sw $11, 1868($29)
10024	91B0  3C0BFFFF             lui $11, 65535
10025	91B4  356BFFFF             ori $11, $11, 65535
10026	91B8  01800013             mtlo $12
10027	91BC  00006012             mflo $12
10028	91C0  AFAC0750             sw $12, 1872($29)
10029	91C4  3C0CFFFF             lui $12, 65535
10030	91C8  358CFFFF             ori $12, $12, 65535
10031	91CC  01A00013             mtlo $13
10032	91D0  00006812             mflo $13
10033	91D4  AFAD0754             sw $13, 1876($29)
10034	91D8  3C0DFFFF             lui $13, 65535
10035	91DC  35ADFFFF             ori $13, $13, 65535
10036	91E0  01C00013             mtlo $14
10037	91E4  00007012             mflo $14
10038	91E8  AFAE0758             sw $14, 1880($29)
10039	91EC  3C0EFFFF             lui $14, 65535
10040	91F0  35CEFFFF             ori $14, $14, 65535
10041	91F4  01E00013             mtlo $15
10042	91F8  00007812             mflo $15
10043	91FC  AFAF075C             sw $15, 1884($29)
10044	9200  3C0FFFFF             lui $15, 65535
10045	9204  35EFFFFF             ori $15, $15, 65535
10046	9208  02000013             mtlo $16
10047	920C  00008012             mflo $16
10048	9210  AFB00760             sw $16, 1888($29)
10049	9214  3C10FFFF             lui $16, 65535
10050	9218  3610FFFF             ori $16, $16, 65535
10051	921C  02200013             mtlo $17
10052	9220  00008812             mflo $17
10053	9224  AFB10764             sw $17, 1892($29)
10054	9228  3C11FFFF             lui $17, 65535
10055	922C  3631FFFF             ori $17, $17, 65535
10056	9230  02400013             mtlo $18
10057	9234  00009012             mflo $18
10058	9238  AFB20768             sw $18, 1896($29)
10059	923C  3C12FFFF             lui $18, 65535
10060	9240  3652FFFF             ori $18, $18, 65535
10061	9244  02600013             mtlo $19
10062	9248  00009812             mflo $19
10063	924C  AFB3076C             sw $19, 1900($29)
10064	9250  3C13FFFF             lui $19, 65535
10065	9254  3673FFFF             ori $19, $19, 65535
10066	9258  02800013             mtlo $20
10067	925C  0000A012             mflo $20
10068	9260  AFB40770             sw $20, 1904($29)
10069	9264  3C14FFFF             lui $20, 65535
10070	9268  3694FFFF             ori $20, $20, 65535
10071	926C  02A00013             mtlo $21
10072	9270  0000A812             mflo $21
10073	9274  AFB50774             sw $21, 1908($29)
10074	9278  3C15FFFF             lui $21, 65535
10075	927C  36B5FFFF             ori $21, $21, 65535
10076	9280  02C00013             mtlo $22
10077	9284  0000B012             mflo $22
10078	9288  AFB60778             sw $22, 1912($29)
10079	928C  3C16FFFF             lui $22, 65535
10080	9290  36D6FFFF             ori $22, $22, 65535
10081	9294  02E00013             mtlo $23
10082	9298  0000B812             mflo $23
10083	929C  AFB7077C             sw $23, 1916($29)
10084	92A0  3C17FFFF             lui $23, 65535
10085	92A4  36F7FFFF             ori $23, $23, 65535
10086	92A8  03000013             mtlo $24
10087	92AC  0000C012             mflo $24
10088	92B0  AFB80780             sw $24, 1920($29)
10089	92B4  3C18FFFF             lui $24, 65535
10090	92B8  3718FFFF             ori $24, $24, 65535
10091	92BC  03200013             mtlo $25
10092	92C0  0000C812             mflo $25
10093	92C4  AFB90784             sw $25, 1924($29)
10094	92C8  3C19FFFF             lui $25, 65535
10095	92CC  3739FFFF             ori $25, $25, 65535
10096	92D0  03400013             mtlo $26
10097	92D4  0000D012             mflo $26
10098	92D8  AFBA0788             sw $26, 1928($29)
10099	92DC  3C1AFFFF             lui $26, 65535
10100	92E0  375AFFFF             ori $26, $26, 65535
10101	92E4  03600013             mtlo $27
10102	92E8  0000D812             mflo $27
10103	92EC  AFBB078C             sw $27, 1932($29)
10104	92F0  3C1BFFFF             lui $27, 65535
10105	92F4  377BFFFF             ori $27, $27, 65535
10106	92F8  03800013             mtlo $28
10107	92FC  0000E012             mflo $28
10108	9300  AFBC0790             sw $28, 1936($29)
10109	9304  3C1CFFFF             lui $28, 65535
10110	9308  379CFFFF             ori $28, $28, 65535
10111	930C  03C00013             mtlo $30
10112	9310  0000F012             mflo $30
10113	9314  AFBE0794             sw $30, 1940($29)
10114	9318  3C1EFFFF             lui $30, 65535
10115	931C  37DEFFFF             ori $30, $30, 65535
10116	9320  03E00008             jr $31
10117	                          
10118	                          lo_downward_0:
10119	9324  00000013             mtlo $0
10120	9328  00000012             mflo $0
10121	932C  AFA00798             sw $0, 1944($29)
10122	9330  3C000000             lui $0, 0
10123	9334  34000000             ori $0, $0, 0
10124	9338  00000013             mtlo $0
10125	933C  00000012             mflo $0
10126	9340  AFA0079C             sw $0, 1948($29)
10127	9344  03C00013             mtlo $30
10128	9348  0000F012             mflo $30
10129	934C  AFBE07A0             sw $30, 1952($29)
10130	9350  3C1E0000             lui $30, 0
10131	9354  37DE0000             ori $30, $30, 0
10132	9358  03C00013             mtlo $30
10133	935C  0000F012             mflo $30
10134	9360  AFBE07A4             sw $30, 1956($29)
10135	9364  03800013             mtlo $28
10136	9368  0000E012             mflo $28
10137	936C  AFBC07A8             sw $28, 1960($29)
10138	9370  3C1C0000             lui $28, 0
10139	9374  379C0000             ori $28, $28, 0
10140	9378  03800013             mtlo $28
10141	937C  0000E012             mflo $28
10142	9380  AFBC07AC             sw $28, 1964($29)
10143	9384  03600013             mtlo $27
10144	9388  0000D812             mflo $27
10145	938C  AFBB07B0             sw $27, 1968($29)
10146	9390  3C1B0000             lui $27, 0
10147	9394  377B0000             ori $27, $27, 0
10148	9398  03600013             mtlo $27
10149	939C  0000D812             mflo $27
10150	93A0  AFBB07B4             sw $27, 1972($29)
10151	93A4  03400013             mtlo $26
10152	93A8  0000D012             mflo $26
10153	93AC  AFBA07B8             sw $26, 1976($29)
10154	93B0  3C1A0000             lui $26, 0
10155	93B4  375A0000             ori $26, $26, 0
10156	93B8  03400013             mtlo $26
10157	93BC  0000D012             mflo $26
10158	93C0  AFBA07BC             sw $26, 1980($29)
10159	93C4  03200013             mtlo $25
10160	93C8  0000C812             mflo $25
10161	93CC  AFB907C0             sw $25, 1984($29)
10162	93D0  3C190000             lui $25, 0
10163	93D4  37390000             ori $25, $25, 0
10164	93D8  03200013             mtlo $25
10165	93DC  0000C812             mflo $25
10166	93E0  AFB907C4             sw $25, 1988($29)
10167	93E4  03000013             mtlo $24
10168	93E8  0000C012             mflo $24
10169	93EC  AFB807C8             sw $24, 1992($29)
10170	93F0  3C180000             lui $24, 0
10171	93F4  37180000             ori $24, $24, 0
10172	93F8  03000013             mtlo $24
10173	93FC  0000C012             mflo $24
10174	9400  AFB807CC             sw $24, 1996($29)
10175	9404  02E00013             mtlo $23
10176	9408  0000B812             mflo $23
10177	940C  AFB707D0             sw $23, 2000($29)
10178	9410  3C170000             lui $23, 0
10179	9414  36F70000             ori $23, $23, 0
10180	9418  02E00013             mtlo $23
10181	941C  0000B812             mflo $23
10182	9420  AFB707D4             sw $23, 2004($29)
10183	9424  02C00013             mtlo $22
10184	9428  0000B012             mflo $22
10185	942C  AFB607D8             sw $22, 2008($29)
10186	9430  3C160000             lui $22, 0
10187	9434  36D60000             ori $22, $22, 0
10188	9438  02C00013             mtlo $22
10189	943C  0000B012             mflo $22
10190	9440  AFB607DC             sw $22, 2012($29)
10191	9444  02A00013             mtlo $21
10192	9448  0000A812             mflo $21
10193	944C  AFB507E0             sw $21, 2016($29)
10194	9450  3C150000             lui $21, 0
10195	9454  36B50000             ori $21, $21, 0
10196	9458  02A00013             mtlo $21
10197	945C  0000A812             mflo $21
10198	9460  AFB507E4             sw $21, 2020($29)
10199	9464  02800013             mtlo $20
10200	9468  0000A012             mflo $20
10201	946C  AFB407E8             sw $20, 2024($29)
10202	9470  3C140000             lui $20, 0
10203	9474  36940000             ori $20, $20, 0
10204	9478  02800013             mtlo $20
10205	947C  0000A012             mflo $20
10206	9480  AFB407EC             sw $20, 2028($29)
10207	9484  02600013             mtlo $19
10208	9488  00009812             mflo $19
10209	948C  AFB307F0             sw $19, 2032($29)
10210	9490  3C130000             lui $19, 0
10211	9494  36730000             ori $19, $19, 0
10212	9498  02600013             mtlo $19
10213	949C  00009812             mflo $19
10214	94A0  AFB307F4             sw $19, 2036($29)
10215	94A4  02400013             mtlo $18
10216	94A8  00009012             mflo $18
10217	94AC  AFB207F8             sw $18, 2040($29)
10218	94B0  3C120000             lui $18, 0
10219	94B4  36520000             ori $18, $18, 0
10220	94B8  02400013             mtlo $18
10221	94BC  00009012             mflo $18
10222	94C0  AFB207FC             sw $18, 2044($29)
10223	94C4  02200013             mtlo $17
10224	94C8  00008812             mflo $17
10225	94CC  AFB10800             sw $17, 2048($29)
10226	94D0  3C110000             lui $17, 0
10227	94D4  36310000             ori $17, $17, 0
10228	94D8  02200013             mtlo $17
10229	94DC  00008812             mflo $17
10230	94E0  AFB10804             sw $17, 2052($29)
10231	94E4  02000013             mtlo $16
10232	94E8  00008012             mflo $16
10233	94EC  AFB00808             sw $16, 2056($29)
10234	94F0  3C100000             lui $16, 0
10235	94F4  36100000             ori $16, $16, 0
10236	94F8  02000013             mtlo $16
10237	94FC  00008012             mflo $16
10238	9500  AFB0080C             sw $16, 2060($29)
10239	9504  01E00013             mtlo $15
10240	9508  00007812             mflo $15
10241	950C  AFAF0810             sw $15, 2064($29)
10242	9510  3C0F0000             lui $15, 0
10243	9514  35EF0000             ori $15, $15, 0
10244	9518  01E00013             mtlo $15
10245	951C  00007812             mflo $15
10246	9520  AFAF0814             sw $15, 2068($29)
10247	9524  01C00013             mtlo $14
10248	9528  00007012             mflo $14
10249	952C  AFAE0818             sw $14, 2072($29)
10250	9530  3C0E0000             lui $14, 0
10251	9534  35CE0000             ori $14, $14, 0
10252	9538  01C00013             mtlo $14
10253	953C  00007012             mflo $14
10254	9540  AFAE081C             sw $14, 2076($29)
10255	9544  01A00013             mtlo $13
10256	9548  00006812             mflo $13
10257	954C  AFAD0820             sw $13, 2080($29)
10258	9550  3C0D0000             lui $13, 0
10259	9554  35AD0000             ori $13, $13, 0
10260	9558  01A00013             mtlo $13
10261	955C  00006812             mflo $13
10262	9560  AFAD0824             sw $13, 2084($29)
10263	9564  01800013             mtlo $12
10264	9568  00006012             mflo $12
10265	956C  AFAC0828             sw $12, 2088($29)
10266	9570  3C0C0000             lui $12, 0
10267	9574  358C0000             ori $12, $12, 0
10268	9578  01800013             mtlo $12
10269	957C  00006012             mflo $12
10270	9580  AFAC082C             sw $12, 2092($29)
10271	9584  01600013             mtlo $11
10272	9588  00005812             mflo $11
10273	958C  AFAB0830             sw $11, 2096($29)
10274	9590  3C0B0000             lui $11, 0
10275	9594  356B0000             ori $11, $11, 0
10276	9598  01600013             mtlo $11
10277	959C  00005812             mflo $11
10278	95A0  AFAB0834             sw $11, 2100($29)
10279	95A4  01400013             mtlo $10
10280	95A8  00005012             mflo $10
10281	95AC  AFAA0838             sw $10, 2104($29)
10282	95B0  3C0A0000             lui $10, 0
10283	95B4  354A0000             ori $10, $10, 0
10284	95B8  01400013             mtlo $10
10285	95BC  00005012             mflo $10
10286	95C0  AFAA083C             sw $10, 2108($29)
10287	95C4  01200013             mtlo $9
10288	95C8  00004812             mflo $9
10289	95CC  AFA90840             sw $9, 2112($29)
10290	95D0  3C090000             lui $9, 0
10291	95D4  35290000             ori $9, $9, 0
10292	95D8  01200013             mtlo $9
10293	95DC  00004812             mflo $9
10294	95E0  AFA90844             sw $9, 2116($29)
10295	95E4  01000013             mtlo $8
10296	95E8  00004012             mflo $8
10297	95EC  AFA80848             sw $8, 2120($29)
10298	95F0  3C080000             lui $8, 0
10299	95F4  35080000             ori $8, $8, 0
10300	95F8  01000013             mtlo $8
10301	95FC  00004012             mflo $8
10302	9600  AFA8084C             sw $8, 2124($29)
10303	9604  00E00013             mtlo $7
10304	9608  00003812             mflo $7
10305	960C  AFA70850             sw $7, 2128($29)
10306	9610  3C070000             lui $7, 0
10307	9614  34E70000             ori $7, $7, 0
10308	9618  00E00013             mtlo $7
10309	961C  00003812             mflo $7
10310	9620  AFA70854             sw $7, 2132($29)
10311	9624  00C00013             mtlo $6
10312	9628  00003012             mflo $6
10313	962C  AFA60858             sw $6, 2136($29)
10314	9630  3C060000             lui $6, 0
10315	9634  34C60000             ori $6, $6, 0
10316	9638  00C00013             mtlo $6
10317	963C  00003012             mflo $6
10318	9640  AFA6085C             sw $6, 2140($29)
10319	9644  00A00013             mtlo $5
10320	9648  00002812             mflo $5
10321	964C  AFA50860             sw $5, 2144($29)
10322	9650  3C050000             lui $5, 0
10323	9654  34A50000             ori $5, $5, 0
10324	9658  00A00013             mtlo $5
10325	965C  00002812             mflo $5
10326	9660  AFA50864             sw $5, 2148($29)
10327	9664  00800013             mtlo $4
10328	9668  00002012             mflo $4
10329	966C  AFA40868             sw $4, 2152($29)
10330	9670  3C040000             lui $4, 0
10331	9674  34840000             ori $4, $4, 0
10332	9678  00800013             mtlo $4
10333	967C  00002012             mflo $4
10334	9680  AFA4086C             sw $4, 2156($29)
10335	9684  00600013             mtlo $3
10336	9688  00001812             mflo $3
10337	968C  AFA30870             sw $3, 2160($29)
10338	9690  3C030000             lui $3, 0
10339	9694  34630000             ori $3, $3, 0
10340	9698  00600013             mtlo $3
10341	969C  00001812             mflo $3
10342	96A0  AFA30874             sw $3, 2164($29)
10343	96A4  00400013             mtlo $2
10344	96A8  00001012             mflo $2
10345	96AC  AFA20878             sw $2, 2168($29)
10346	96B0  3C020000             lui $2, 0
10347	96B4  34420000             ori $2, $2, 0
10348	96B8  00400013             mtlo $2
10349	96BC  00001012             mflo $2
10350	96C0  AFA2087C             sw $2, 2172($29)
10351	96C4  00200013             mtlo $1
10352	96C8  00000812             mflo $1
10353	96CC  AFA10880             sw $1, 2176($29)
10354	96D0  3C010000             lui $1, 0
10355	96D4  34210000             ori $1, $1, 0
10356	96D8  00200013             mtlo $1
10357	96DC  00000812             mflo $1
10358	96E0  AFA10884             sw $1, 2180($29)
10359	96E4  03E00008             jr $31
10360	                          
10361	                          ;..........memory_initialization..........;
10362	                          init_patterns:
10363	96E8  3C089E35             lui $8, 40501
10364	96EC  35080588             ori $8, $8, 1416
10365	96F0  AFC80000             sw $8, 0($30)
10366	96F4  3C097ADB             lui $9, 31451
10367	96F8  3529C9F5             ori $9, $9, 51701
10368	96FC  AFC90004             sw $9, 4($30)
10369	9700  3C0A538F             lui $10, 21391
10370	9704  354A1A25             ori $10, $10, 6693
10371	9708  AFCA0008             sw $10, 8($30)
10372	970C  3C0BE404             lui $11, 58372
10373	9710  356B3471             ori $11, $11, 13425
10374	9714  AFCB000C             sw $11, 12($30)
10375	9718  3C0CA1FD             lui $12, 41469
10376	971C  358CC9BC             ori $12, $12, 51644
10377	9720  AFCC0010             sw $12, 16($30)
10378	9724  3C0D6F54             lui $13, 28500
10379	9728  35AD10BD             ori $13, $13, 4285
10380	972C  AFCD0014             sw $13, 20($30)
10381	9730  3C0EC079             lui $14, 49273
10382	9734  35CEFADF             ori $14, $14, 64223
10383	9738  AFCE0018             sw $14, 24($30)
10384	973C  3C0FC301             lui $15, 49921
10385	9740  35EFB496             ori $15, $15, 46230
10386	9744  AFCF001C             sw $15, 28($30)
10387	9748  3C08CC5E             lui $8, 52318
10388	974C  3508732E             ori $8, $8, 29486
10389	9750  AFC80020             sw $8, 32($30)
10390	9754  3C0906F1             lui $9, 1777
10391	9758  35295773             ori $9, $9, 22387
10392	975C  AFC90024             sw $9, 36($30)
10393	9760  3C0A7B1B             lui $10, 31515
10394	9764  354A94C0             ori $10, $10, 38080
10395	9768  AFCA0028             sw $10, 40($30)
10396	976C  3C0B6411             lui $11, 25617
10397	9770  356B496F             ori $11, $11, 18799
10398	9774  AFCB002C             sw $11, 44($30)
10399	9778  3C0CA212             lui $12, 41490
10400	977C  358C7B62             ori $12, $12, 31586
10401	9780  AFCC0030             sw $12, 48($30)
10402	9784  3C0DB0BB             lui $13, 45243
10403	9788  35ADC2E1             ori $13, $13, 49889
10404	978C  AFCD0034             sw $13, 52($30)
10405	9790  3C0EAA71             lui $14, 43633
10406	9794  35CEBF37             ori $14, $14, 48951
10407	9798  AFCE0038             sw $14, 56($30)
10408	979C  3C0F5641             lui $15, 22081
10409	97A0  35EF8CB7             ori $15, $15, 36023
10410	97A4  AFCF003C             sw $15, 60($30)
10411	97A8  3C0877F7             lui $8, 30711
10412	97AC  35087F7A             ori $8, $8, 32634
10413	97B0  AFC80040             sw $8, 64($30)
10414	97B4  3C09BF8E             lui $9, 49038
10415	97B8  3529356A             ori $9, $9, 13674
10416	97BC  AFC90044             sw $9, 68($30)
10417	97C0  3C0A7665             lui $10, 30309
10418	97C4  354A003F             ori $10, $10, 63
10419	97C8  AFCA0048             sw $10, 72($30)
10420	97CC  3C0B00A0             lui $11, 160
10421	97D0  356BEEC1             ori $11, $11, 61121
10422	97D4  AFCB004C             sw $11, 76($30)
10423	97D8  3C0C1B9A             lui $12, 7066
10424	97DC  358C7178             ori $12, $12, 29048
10425	97E0  AFCC0050             sw $12, 80($30)
10426	97E4  3C0D2633             lui $13, 9779
10427	97E8  35AD24B1             ori $13, $13, 9393
10428	97EC  AFCD0054             sw $13, 84($30)
10429	97F0  3C0E59CE             lui $14, 22990
10430	97F4  35CE2847             ori $14, $14, 10311
10431	97F8  AFCE0058             sw $14, 88($30)
10432	97FC  3C0F88C0             lui $15, 35008
10433	9800  35EF2838             ori $15, $15, 10296
10434	9804  AFCF005C             sw $15, 92($30)
10435	9808  3C08D5DF             lui $8, 54751
10436	980C  3508DF1F             ori $8, $8, 57119
10437	9810  AFC80060             sw $8, 96($30)
10438	9814  3C0976E1             lui $9, 30433
10439	9818  35295531             ori $9, $9, 21809
10440	981C  AFC90064             sw $9, 100($30)
10441	9820  3C0A0B16             lui $10, 2838
10442	9824  354A73DD             ori $10, $10, 29661
10443	9828  AFCA0068             sw $10, 104($30)
10444	982C  3C0BFA87             lui $11, 64135
10445	9830  356B20C3             ori $11, $11, 8387
10446	9834  AFCB006C             sw $11, 108($30)
10447	9838  3C0C5424             lui $12, 21540
10448	983C  358CFEE6             ori $12, $12, 65254
10449	9840  AFCC0070             sw $12, 112($30)
10450	9844  3C0DBC04             lui $13, 48132
10451	9848  35AD7CDD             ori $13, $13, 31965
10452	984C  AFCD0074             sw $13, 116($30)
10453	9850  3C0E2102             lui $14, 8450
10454	9854  35CE01D2             ori $14, $14, 466
10455	9858  AFCE0078             sw $14, 120($30)
10456	985C  3C0FF437             lui $15, 62519
10457	9860  35EF766A             ori $15, $15, 30314
10458	9864  AFCF007C             sw $15, 124($30)
10459	9868  3C0824EF             lui $8, 9455
10460	986C  35080321             ori $8, $8, 801
10461	9870  AFC80080             sw $8, 128($30)
10462	9874  3C090D00             lui $9, 3328
10463	9878  3529E5EC             ori $9, $9, 58860
10464	987C  AFC90084             sw $9, 132($30)
10465	9880  3C0AF3F9             lui $10, 62457
10466	9884  354AB2CF             ori $10, $10, 45775
10467	9888  AFCA0088             sw $10, 136($30)
10468	988C  3C0BEFAB             lui $11, 61355
10469	9890  356BFD41             ori $11, $11, 64833
10470	9894  AFCB008C             sw $11, 140($30)
10471	9898  3C0CEA9A             lui $12, 60058
10472	989C  358C781F             ori $12, $12, 30751
10473	98A0  AFCC0090             sw $12, 144($30)
10474	98A4  3C0D89FA             lui $13, 35322
10475	98A8  35AD0238             ori $13, $13, 568
10476	98AC  AFCD0094             sw $13, 148($30)
10477	98B0  3C0E7F57             lui $14, 32599
10478	98B4  35CE2F59             ori $14, $14, 12121
10479	98B8  AFCE0098             sw $14, 152($30)
10480	98BC  3C0F9F58             lui $15, 40792
10481	98C0  35EFC8FE             ori $15, $15, 51454
10482	98C4  AFCF009C             sw $15, 156($30)
10483	98C8  3C0808DB             lui $8, 2267
10484	98CC  35088620             ori $8, $8, 34336
10485	98D0  AFC800A0             sw $8, 160($30)
10486	98D4  3C09BD2F             lui $9, 48431
10487	98D8  35297FCF             ori $9, $9, 32719
10488	98DC  AFC900A4             sw $9, 164($30)
10489	98E0  3C0A617A             lui $10, 24954
10490	98E4  354A4C7C             ori $10, $10, 19580
10491	98E8  AFCA00A8             sw $10, 168($30)
10492	98EC  3C0B8184             lui $11, 33156
10493	98F0  356B4CC2             ori $11, $11, 19650
10494	98F4  AFCB00AC             sw $11, 172($30)
10495	98F8  3C0CA421             lui $12, 42017
10496	98FC  358C1E8E             ori $12, $12, 7822
10497	9900  AFCC00B0             sw $12, 176($30)
10498	9904  3C0D9B1F             lui $13, 39711
10499	9908  35ADA8D0             ori $13, $13, 43216
10500	990C  AFCD00B4             sw $13, 180($30)
10501	9910  3C0E7B7A             lui $14, 31610
10502	9914  35CE539C             ori $14, $14, 21404
10503	9918  AFCE00B8             sw $14, 184($30)
10504	991C  3C0F3CDA             lui $15, 15578
10505	9920  35EF8748             ori $15, $15, 34632
10506	9924  AFCF00BC             sw $15, 188($30)
10507	9928  3C08C2F3             lui $8, 49907
10508	992C  350837EE             ori $8, $8, 14318
10509	9930  AFC800C0             sw $8, 192($30)
10510	9934  3C0913B1             lui $9, 5041
10511	9938  3529999C             ori $9, $9, 39324
10512	993C  AFC900C4             sw $9, 196($30)
10513	9940  3C0A492E             lui $10, 18734
10514	9944  354A1559             ori $10, $10, 5465
10515	9948  AFCA00C8             sw $10, 200($30)
10516	994C  3C0B7DC3             lui $11, 32195
10517	9950  356BD796             ori $11, $11, 55190
10518	9954  AFCB00CC             sw $11, 204($30)
10519	9958  3C0C630F             lui $12, 25359
10520	995C  358C88A4             ori $12, $12, 34980
10521	9960  AFCC00D0             sw $12, 208($30)
10522	9964  3C0D4A1D             lui $13, 18973
10523	9968  35ADCC26             ori $13, $13, 52262
10524	996C  AFCD00D4             sw $13, 212($30)
10525	9970  3C0E69BD             lui $14, 27069
10526	9974  35CE4BF1             ori $14, $14, 19441
10527	9978  AFCE00D8             sw $14, 216($30)
10528	997C  3C0FF539             lui $15, 62777
10529	9980  35EF4B2C             ori $15, $15, 19244
10530	9984  AFCF00DC             sw $15, 220($30)
10531	9988  3C08E66F             lui $8, 58991
10532	998C  35089FFF             ori $8, $8, 40959
10533	9990  AFC800E0             sw $8, 224($30)
10534	9994  3C093A52             lui $9, 14930
10535	9998  3529B336             ori $9, $9, 45878
10536	999C  AFC900E4             sw $9, 228($30)
10537	99A0  3C0A6E36             lui $10, 28214
10538	99A4  354AE63B             ori $10, $10, 58939
10539	99A8  AFCA00E8             sw $10, 232($30)
10540	99AC  3C0BA54A             lui $11, 42314
10541	99B0  356B2A22             ori $11, $11, 10786
10542	99B4  AFCB00EC             sw $11, 236($30)
10543	99B8  3C0C5DE3             lui $12, 24035
10544	99BC  358CC87D             ori $12, $12, 51325
10545	99C0  AFCC00F0             sw $12, 240($30)
10546	99C4  3C0DFAFF             lui $13, 64255
10547	99C8  35AD57D7             ori $13, $13, 22487
10548	99CC  AFCD00F4             sw $13, 244($30)
10549	99D0  3C0EF5EE             lui $14, 62958
10550	99D4  35CECBB9             ori $14, $14, 52153
10551	99D8  AFCE00F8             sw $14, 248($30)
10552	99DC  3C0F23DA             lui $15, 9178
10553	99E0  35EF9FFE             ori $15, $15, 40958
10554	99E4  AFCF00FC             sw $15, 252($30)
10555	99E8  3C08C674             lui $8, 50804
10556	99EC  3508B7A1             ori $8, $8, 47009
10557	99F0  AFC80100             sw $8, 256($30)
10558	99F4  3C09DEC6             lui $9, 57030
10559	99F8  352938A4             ori $9, $9, 14500
10560	99FC  AFC90104             sw $9, 260($30)
10561	9A00  3C0A320C             lui $10, 12812
10562	9A04  354A3E08             ori $10, $10, 15880
10563	9A08  AFCA0108             sw $10, 264($30)
10564	9A0C  3C0B5FF3             lui $11, 24563
10565	9A10  356B69E2             ori $11, $11, 27106
10566	9A14  AFCB010C             sw $11, 268($30)
10567	9A18  3C0C444A             lui $12, 17482
10568	9A1C  358CD9E0             ori $12, $12, 55776
10569	9A20  AFCC0110             sw $12, 272($30)
10570	9A24  3C0D9AEC             lui $13, 39660
10571	9A28  35AD481D             ori $13, $13, 18461
10572	9A2C  AFCD0114             sw $13, 276($30)
10573	9A30  3C0E92CC             lui $14, 37580
10574	9A34  35CEA7AB             ori $14, $14, 42923
10575	9A38  AFCE0118             sw $14, 280($30)
10576	9A3C  3C0F2F48             lui $15, 12104
10577	9A40  35EF4987             ori $15, $15, 18823
10578	9A44  AFCF011C             sw $15, 284($30)
10579	9A48  3C08CA01             lui $8, 51713
10580	9A4C  35081305             ori $8, $8, 4869
10581	9A50  AFC80120             sw $8, 288($30)
10582	9A54  3C090400             lui $9, 1024
10583	9A58  35297A49             ori $9, $9, 31305
10584	9A5C  AFC90124             sw $9, 292($30)
10585	9A60  3C0A7AED             lui $10, 31469
10586	9A64  354ABC3C             ori $10, $10, 48188
10587	9A68  AFCA0128             sw $10, 296($30)
10588	9A6C  3C0B040C             lui $11, 1036
10589	9A70  356BAF83             ori $11, $11, 44931
10590	9A74  AFCB012C             sw $11, 300($30)
10591	9A78  3C0CD049             lui $12, 53321
10592	9A7C  358C3BE2             ori $12, $12, 15330
10593	9A80  AFCC0130             sw $12, 304($30)
10594	9A84  3C0D6BB4             lui $13, 27572
10595	9A88  35ADA2DF             ori $13, $13, 41695
10596	9A8C  AFCD0134             sw $13, 308($30)
10597	9A90  3C0E360F             lui $14, 13839
10598	9A94  35CE5FD4             ori $14, $14, 24532
10599	9A98  AFCE0138             sw $14, 312($30)
10600	9A9C  3C0F44C0             lui $15, 17600
10601	9AA0  35EF02AD             ori $15, $15, 685
10602	9AA4  AFCF013C             sw $15, 316($30)
10603	9AA8  3C085A73             lui $8, 23155
10604	9AAC  3508B333             ori $8, $8, 45875
10605	9AB0  AFC80140             sw $8, 320($30)
10606	9AB4  3C09A601             lui $9, 42497
10607	9AB8  35295D70             ori $9, $9, 23920
10608	9ABC  AFC90144             sw $9, 324($30)
10609	9AC0  3C0A0030             lui $10, 48
10610	9AC4  354AD5C7             ori $10, $10, 54727
10611	9AC8  AFCA0148             sw $10, 328($30)
10612	9ACC  3C0B8030             lui $11, 32816
10613	9AD0  356B7410             ori $11, $11, 29712
10614	9AD4  AFCB014C             sw $11, 332($30)
10615	9AD8  3C0C1E54             lui $12, 7764
10616	9ADC  358C4D36             ori $12, $12, 19766
10617	9AE0  AFCC0150             sw $12, 336($30)
10618	9AE4  3C0DF688             lui $13, 63112
10619	9AE8  35ADD17E             ori $13, $13, 53630
10620	9AEC  AFCD0154             sw $13, 340($30)
10621	9AF0  3C0E6A0E             lui $14, 27150
10622	9AF4  35CEEC25             ori $14, $14, 60453
10623	9AF8  AFCE0158             sw $14, 344($30)
10624	9AFC  3C0FC774             lui $15, 51060
10625	9B00  35EFAB28             ori $15, $15, 43816
10626	9B04  AFCF015C             sw $15, 348($30)
10627	9B08  3C088467             lui $8, 33895
10628	9B0C  3508459B             ori $8, $8, 17819
10629	9B10  AFC80160             sw $8, 352($30)
10630	9B14  3C099458             lui $9, 37976
10631	9B18  3529A1AF             ori $9, $9, 41391
10632	9B1C  AFC90164             sw $9, 356($30)
10633	9B20  3C0AD3DA             lui $10, 54234
10634	9B24  354A60C3             ori $10, $10, 24771
10635	9B28  AFCA0168             sw $10, 360($30)
10636	9B2C  3C0BA915             lui $11, 43285
10637	9B30  356B1A1F             ori $11, $11, 6687
10638	9B34  AFCB016C             sw $11, 364($30)
10639	9B38  3C0C3345             lui $12, 13125
10640	9B3C  358C8640             ori $12, $12, 34368
10641	9B40  AFCC0170             sw $12, 368($30)
10642	9B44  3C0D6BF0             lui $13, 27632
10643	9B48  35AD2369             ori $13, $13, 9065
10644	9B4C  AFCD0174             sw $13, 372($30)
10645	9B50  3C0E7396             lui $14, 29590
10646	9B54  35CE77E7             ori $14, $14, 30695
10647	9B58  AFCE0178             sw $14, 376($30)
10648	9B5C  3C0F617B             lui $15, 24955
10649	9B60  35EFAFBE             ori $15, $15, 44990
10650	9B64  AFCF017C             sw $15, 380($30)
10651	9B68  3C08B17F             lui $8, 45439
10652	9B6C  35082CD7             ori $8, $8, 11479
10653	9B70  AFC80180             sw $8, 384($30)
10654	9B74  3C091E66             lui $9, 7782
10655	9B78  35296877             ori $9, $9, 26743
10656	9B7C  AFC90184             sw $9, 388($30)
10657	9B80  3C0A8F34             lui $10, 36660
10658	9B84  354A2083             ori $10, $10, 8323
10659	9B88  AFCA0188             sw $10, 392($30)
10660	9B8C  3C0B427E             lui $11, 17022
10661	9B90  356BFBA0             ori $11, $11, 64416
10662	9B94  AFCB018C             sw $11, 396($30)
10663	9B98  3C0C366C             lui $12, 13932
10664	9B9C  358C3540             ori $12, $12, 13632
10665	9BA0  AFCC0190             sw $12, 400($30)
10666	9BA4  3C0DD154             lui $13, 53588
10667	9BA8  35ADCFF9             ori $13, $13, 53241
10668	9BAC  AFCD0194             sw $13, 404($30)
10669	9BB0  3C0EEC54             lui $14, 60500
10670	9BB4  35CEF3BF             ori $14, $14, 62399
10671	9BB8  AFCE0198             sw $14, 408($30)
10672	9BBC  3C0FEFBF             lui $15, 61375
10673	9BC0  35EFB14E             ori $15, $15, 45390
10674	9BC4  AFCF019C             sw $15, 412($30)
10675	9BC8  3C08D6FF             lui $8, 55039
10676	9BCC  350859FC             ori $8, $8, 23036
10677	9BD0  AFC801A0             sw $8, 416($30)
10678	9BD4  3C091136             lui $9, 4406
10679	9BD8  35298ACC             ori $9, $9, 35532
10680	9BDC  AFC901A4             sw $9, 420($30)
10681	9BE0  3C0A3904             lui $10, 14596
10682	9BE4  354AD35F             ori $10, $10, 54111
10683	9BE8  AFCA01A8             sw $10, 424($30)
10684	9BEC  3C0B3601             lui $11, 13825
10685	9BF0  356B0159             ori $11, $11, 345
10686	9BF4  AFCB01AC             sw $11, 428($30)
10687	9BF8  3C0CAA39             lui $12, 43577
10688	9BFC  358CE3CD             ori $12, $12, 58317
10689	9C00  AFCC01B0             sw $12, 432($30)
10690	9C04  3C0DC052             lui $13, 49234
10691	9C08  35AD5882             ori $13, $13, 22658
10692	9C0C  AFCD01B4             sw $13, 436($30)
10693	9C10  3C0EE47B             lui $14, 58491
10694	9C14  35CE892D             ori $14, $14, 35117
10695	9C18  AFCE01B8             sw $14, 440($30)
10696	9C1C  3C0F93AD             lui $15, 37805
10697	9C20  35EF1EC8             ori $15, $15, 7880
10698	9C24  AFCF01BC             sw $15, 444($30)
10699	9C28  3C080C00             lui $8, 3072
10700	9C2C  3508D4D5             ori $8, $8, 54485
10701	9C30  AFC801C0             sw $8, 448($30)
10702	9C34  3C09ADB9             lui $9, 44473
10703	9C38  3529D51C             ori $9, $9, 54556
10704	9C3C  AFC901C4             sw $9, 452($30)
10705	9C40  3C0AF40D             lui $10, 62477
10706	9C44  354AFD03             ori $10, $10, 64771
10707	9C48  AFCA01C8             sw $10, 456($30)
10708	9C4C  3C0B2A32             lui $11, 10802
10709	9C50  356BC4E8             ori $11, $11, 50408
10710	9C54  AFCB01CC             sw $11, 460($30)
10711	9C58  3C0C934A             lui $12, 37706
10712	9C5C  358CB64F             ori $12, $12, 46671
10713	9C60  AFCC01D0             sw $12, 464($30)
10714	9C64  3C0DAC4B             lui $13, 44107
10715	9C68  35AD5CB0             ori $13, $13, 23728
10716	9C6C  AFCD01D4             sw $13, 468($30)
10717	9C70  3C0EFCF0             lui $14, 64752
10718	9C74  35CE96DF             ori $14, $14, 38623
10719	9C78  AFCE01D8             sw $14, 472($30)
10720	9C7C  3C0FFA4D             lui $15, 64077
10721	9C80  35EF06C5             ori $15, $15, 1733
10722	9C84  AFCF01DC             sw $15, 476($30)
10723	9C88  3C08DD04             lui $8, 56580
10724	9C8C  3508919A             ori $8, $8, 37274
10725	9C90  AFC801E0             sw $8, 480($30)
10726	9C94  3C09A2FB             lui $9, 41723
10727	9C98  352987AA             ori $9, $9, 34730
10728	9C9C  AFC901E4             sw $9, 484($30)
10729	9CA0  3C0A4F66             lui $10, 20326
10730	9CA4  354A0934             ori $10, $10, 2356
10731	9CA8  AFCA01E8             sw $10, 488($30)
10732	9CAC  3C0B1DFD             lui $11, 7677
10733	9CB0  356BFAC3             ori $11, $11, 64195
10734	9CB4  AFCB01EC             sw $11, 492($30)
10735	9CB8  3C0CBB04             lui $12, 47876
10736	9CBC  358CDB2B             ori $12, $12, 56107
10737	9CC0  AFCC01F0             sw $12, 496($30)
10738	9CC4  3C0DFA6D             lui $13, 64109
10739	9CC8  35ADDB2C             ori $13, $13, 56108
10740	9CCC  AFCD01F4             sw $13, 500($30)
10741	9CD0  3C0EFB7C             lui $14, 64380
10742	9CD4  35CE3AE7             ori $14, $14, 15079
10743	9CD8  AFCE01F8             sw $14, 504($30)
10744	9CDC  3C0F049E             lui $15, 1182
10745	9CE0  35EFFC93             ori $15, $15, 64659
10746	9CE4  AFCF01FC             sw $15, 508($30)
10747	9CE8  03E00008             jr $31
10748	                          
10749	                          load_branch:
10750	9CEC  8FCF0200             lw $15, 512($30)
10751	9CF0  8FD00204             lw $16, 516($30)
10752	9CF4  03E00008             jr $31
10753	                          
10754	                          ;..........branch_memory_initialization..........;
10755	                          init_branch:
10756	9CF8  3C08FFFF             lui $8, 65535
10757	9CFC  3508FFFF             ori $8, $8, 65535
10758	9D00  AFC80200             sw $8, 512($30)
10759	9D04  3C09FFFF             lui $9, 65535
10760	9D08  3529FFFF             ori $9, $9, 65535
10761	9D0C  AFC90204             sw $9, 516($30)
10762	9D10  3C0A7FFF             lui $10, 32767
10763	9D14  354AFFFF             ori $10, $10, 65535
10764	9D18  AFCA0208             sw $10, 520($30)
10765	9D1C  3C0BFFFF             lui $11, 65535
10766	9D20  356BFFFF             ori $11, $11, 65535
10767	9D24  AFCB020C             sw $11, 524($30)
10768	9D28  3C0CBFFF             lui $12, 49151
10769	9D2C  358CFFFF             ori $12, $12, 65535
10770	9D30  AFCC0210             sw $12, 528($30)
10771	9D34  3C0DFFFF             lui $13, 65535
10772	9D38  35ADFFFF             ori $13, $13, 65535
10773	9D3C  AFCD0214             sw $13, 532($30)
10774	9D40  3C0EDFFF             lui $14, 57343
10775	9D44  35CEFFFF             ori $14, $14, 65535
10776	9D48  AFCE0218             sw $14, 536($30)
10777	9D4C  3C0FFFFF             lui $15, 65535
10778	9D50  35EFFFFF             ori $15, $15, 65535
10779	9D54  AFCF021C             sw $15, 540($30)
10780	9D58  3C08EFFF             lui $8, 61439
10781	9D5C  3508FFFF             ori $8, $8, 65535
10782	9D60  AFC80220             sw $8, 544($30)
10783	9D64  3C09FFFF             lui $9, 65535
10784	9D68  3529FFFF             ori $9, $9, 65535
10785	9D6C  AFC90224             sw $9, 548($30)
10786	9D70  3C0AF7FF             lui $10, 63487
10787	9D74  354AFFFF             ori $10, $10, 65535
10788	9D78  AFCA0228             sw $10, 552($30)
10789	9D7C  3C0BFFFF             lui $11, 65535
10790	9D80  356BFFFF             ori $11, $11, 65535
10791	9D84  AFCB022C             sw $11, 556($30)
10792	9D88  3C0C7BFF             lui $12, 31743
10793	9D8C  358CFFFF             ori $12, $12, 65535
10794	9D90  AFCC0230             sw $12, 560($30)
10795	9D94  3C0DFFFF             lui $13, 65535
10796	9D98  35ADFFFF             ori $13, $13, 65535
10797	9D9C  AFCD0234             sw $13, 564($30)
10798	9DA0  3C0EFDFF             lui $14, 65023
10799	9DA4  35CEFFFF             ori $14, $14, 65535
10800	9DA8  AFCE0238             sw $14, 568($30)
10801	9DAC  3C0FFFFF             lui $15, 65535
10802	9DB0  35EFFFFF             ori $15, $15, 65535
10803	9DB4  AFCF023C             sw $15, 572($30)
10804	9DB8  3C08FEFF             lui $8, 65279
10805	9DBC  3508FFFF             ori $8, $8, 65535
10806	9DC0  AFC80240             sw $8, 576($30)
10807	9DC4  3C09FFFF             lui $9, 65535
10808	9DC8  3529FFFF             ori $9, $9, 65535
10809	9DCC  AFC90244             sw $9, 580($30)
10810	9DD0  3C0AFF7F             lui $10, 65407
10811	9DD4  354AFFFF             ori $10, $10, 65535
10812	9DD8  AFCA0248             sw $10, 584($30)
10813	9DDC  3C0BFFFF             lui $11, 65535
10814	9DE0  356BFFFF             ori $11, $11, 65535
10815	9DE4  AFCB024C             sw $11, 588($30)
10816	9DE8  3C0CFFBF             lui $12, 65471
10817	9DEC  358CFFFF             ori $12, $12, 65535
10818	9DF0  AFCC0250             sw $12, 592($30)
10819	9DF4  3C0DFFFF             lui $13, 65535
10820	9DF8  35ADFFFF             ori $13, $13, 65535
10821	9DFC  AFCD0254             sw $13, 596($30)
10822	9E00  3C0EFFDF             lui $14, 65503
10823	9E04  35CEFFFF             ori $14, $14, 65535
10824	9E08  AFCE0258             sw $14, 600($30)
10825	9E0C  3C0FFFFF             lui $15, 65535
10826	9E10  35EFFFFF             ori $15, $15, 65535
10827	9E14  AFCF025C             sw $15, 604($30)
10828	9E18  3C08FFEF             lui $8, 65519
10829	9E1C  3508FFFF             ori $8, $8, 65535
10830	9E20  AFC80260             sw $8, 608($30)
10831	9E24  3C09FFFF             lui $9, 65535
10832	9E28  3529FFFF             ori $9, $9, 65535
10833	9E2C  AFC90264             sw $9, 612($30)
10834	9E30  3C0AFFF7             lui $10, 65527
10835	9E34  354AFFFF             ori $10, $10, 65535
10836	9E38  AFCA0268             sw $10, 616($30)
10837	9E3C  3C0BFFFF             lui $11, 65535
10838	9E40  356BFFFF             ori $11, $11, 65535
10839	9E44  AFCB026C             sw $11, 620($30)
10840	9E48  3C0CFFFB             lui $12, 65531
10841	9E4C  358CFFFF             ori $12, $12, 65535
10842	9E50  AFCC0270             sw $12, 624($30)
10843	9E54  3C0DFFFF             lui $13, 65535
10844	9E58  35ADFFFF             ori $13, $13, 65535
10845	9E5C  AFCD0274             sw $13, 628($30)
10846	9E60  3C0EFFFD             lui $14, 65533
10847	9E64  35CEFFFF             ori $14, $14, 65535
10848	9E68  AFCE0278             sw $14, 632($30)
10849	9E6C  3C0FFFFF             lui $15, 65535
10850	9E70  35EFFFFF             ori $15, $15, 65535
10851	9E74  AFCF027C             sw $15, 636($30)
10852	9E78  3C08FFFE             lui $8, 65534
10853	9E7C  3508FFFF             ori $8, $8, 65535
10854	9E80  AFC80280             sw $8, 640($30)
10855	9E84  3C09FFFF             lui $9, 65535
10856	9E88  3529FFFF             ori $9, $9, 65535
10857	9E8C  AFC90284             sw $9, 644($30)
10858	9E90  3C0AFFFF             lui $10, 65535
10859	9E94  354A7FFF             ori $10, $10, 32767
10860	9E98  AFCA0288             sw $10, 648($30)
10861	9E9C  3C0BFFFF             lui $11, 65535
10862	9EA0  356BFFFF             ori $11, $11, 65535
10863	9EA4  AFCB028C             sw $11, 652($30)
10864	9EA8  3C0CFFFF             lui $12, 65535
10865	9EAC  358CBFFF             ori $12, $12, 49151
10866	9EB0  AFCC0290             sw $12, 656($30)
10867	9EB4  3C0DFFFF             lui $13, 65535
10868	9EB8  35ADFFFF             ori $13, $13, 65535
10869	9EBC  AFCD0294             sw $13, 660($30)
10870	9EC0  3C0EFFFF             lui $14, 65535
10871	9EC4  35CEDFFF             ori $14, $14, 57343
10872	9EC8  AFCE0298             sw $14, 664($30)
10873	9ECC  3C0FFFFF             lui $15, 65535
10874	9ED0  35EFFFFF             ori $15, $15, 65535
10875	9ED4  AFCF029C             sw $15, 668($30)
10876	9ED8  3C08FFFF             lui $8, 65535
10877	9EDC  3508EFFF             ori $8, $8, 61439
10878	9EE0  AFC802A0             sw $8, 672($30)
10879	9EE4  3C09FFFF             lui $9, 65535
10880	9EE8  3529FFFF             ori $9, $9, 65535
10881	9EEC  AFC902A4             sw $9, 676($30)
10882	9EF0  3C0AFFFF             lui $10, 65535
10883	9EF4  354AF7FF             ori $10, $10, 63487
10884	9EF8  AFCA02A8             sw $10, 680($30)
10885	9EFC  3C0BFFFF             lui $11, 65535
10886	9F00  356BFFFF             ori $11, $11, 65535
10887	9F04  AFCB02AC             sw $11, 684($30)
10888	9F08  3C0CFFFF             lui $12, 65535
10889	9F0C  358CFBFF             ori $12, $12, 64511
10890	9F10  AFCC02B0             sw $12, 688($30)
10891	9F14  3C0DFFFF             lui $13, 65535
10892	9F18  35ADFFFF             ori $13, $13, 65535
10893	9F1C  AFCD02B4             sw $13, 692($30)
10894	9F20  3C0EFFFF             lui $14, 65535
10895	9F24  35CEFDFF             ori $14, $14, 65023
10896	9F28  AFCE02B8             sw $14, 696($30)
10897	9F2C  3C0FFFFF             lui $15, 65535
10898	9F30  35EFFFFF             ori $15, $15, 65535
10899	9F34  AFCF02BC             sw $15, 700($30)
10900	9F38  3C08FFFF             lui $8, 65535
10901	9F3C  3508FEFF             ori $8, $8, 65279
10902	9F40  AFC802C0             sw $8, 704($30)
10903	9F44  3C09FFFF             lui $9, 65535
10904	9F48  3529FFFF             ori $9, $9, 65535
10905	9F4C  AFC902C4             sw $9, 708($30)
10906	9F50  3C0AFFFF             lui $10, 65535
10907	9F54  354AFF7F             ori $10, $10, 65407
10908	9F58  AFCA02C8             sw $10, 712($30)
10909	9F5C  3C0BFFFF             lui $11, 65535
10910	9F60  356BFFFF             ori $11, $11, 65535
10911	9F64  AFCB02CC             sw $11, 716($30)
10912	9F68  3C0CFFFF             lui $12, 65535
10913	9F6C  358CFFBF             ori $12, $12, 65471
10914	9F70  AFCC02D0             sw $12, 720($30)
10915	9F74  3C0DFFFF             lui $13, 65535
10916	9F78  35ADFFFF             ori $13, $13, 65535
10917	9F7C  AFCD02D4             sw $13, 724($30)
10918	9F80  3C0EFFFF             lui $14, 65535
10919	9F84  35CEFFDF             ori $14, $14, 65503
10920	9F88  AFCE02D8             sw $14, 728($30)
10921	9F8C  3C0FFFFF             lui $15, 65535
10922	9F90  35EFFFFF             ori $15, $15, 65535
10923	9F94  AFCF02DC             sw $15, 732($30)
10924	9F98  3C08FFFF             lui $8, 65535
10925	9F9C  3508FFEF             ori $8, $8, 65519
10926	9FA0  AFC802E0             sw $8, 736($30)
10927	9FA4  3C09FFFF             lui $9, 65535
10928	9FA8  3529FFFF             ori $9, $9, 65535
10929	9FAC  AFC902E4             sw $9, 740($30)
10930	9FB0  3C0AFFFF             lui $10, 65535
10931	9FB4  354AFFF7             ori $10, $10, 65527
10932	9FB8  AFCA02E8             sw $10, 744($30)
10933	9FBC  3C0BFFFF             lui $11, 65535
10934	9FC0  356BFFFF             ori $11, $11, 65535
10935	9FC4  AFCB02EC             sw $11, 748($30)
10936	9FC8  3C0CFFFF             lui $12, 65535
10937	9FCC  358CFFFB             ori $12, $12, 65531
10938	9FD0  AFCC02F0             sw $12, 752($30)
10939	9FD4  3C0DFFFF             lui $13, 65535
10940	9FD8  35ADFFFF             ori $13, $13, 65535
10941	9FDC  AFCD02F4             sw $13, 756($30)
10942	9FE0  3C0EFFFF             lui $14, 65535
10943	9FE4  35CEFFFD             ori $14, $14, 65533
10944	9FE8  AFCE02F8             sw $14, 760($30)
10945	9FEC  3C0FFFFF             lui $15, 65535
10946	9FF0  35EFFFFF             ori $15, $15, 65535
10947	9FF4  AFCF02FC             sw $15, 764($30)
10948	9FF8  3C08FFFF             lui $8, 65535
10949	9FFC  3508FFFE             ori $8, $8, 65534
10950	A000  AFC80300             sw $8, 768($30)
10951	A004  3C09FFFF             lui $9, 65535
10952	A008  3529FFFF             ori $9, $9, 65535
10953	A00C  AFC90304             sw $9, 772($30)
10954	A010  3C0AFFFF             lui $10, 65535
10955	A014  354AFFFF             ori $10, $10, 65535
10956	A018  AFCA0308             sw $10, 776($30)
10957	A01C  3C0B7FFF             lui $11, 32767
10958	A020  356BFFFF             ori $11, $11, 65535
10959	A024  AFCB030C             sw $11, 780($30)
10960	A028  3C0CFFFF             lui $12, 65535
10961	A02C  358CFFFF             ori $12, $12, 65535
10962	A030  AFCC0310             sw $12, 784($30)
10963	A034  3C0DBFFF             lui $13, 49151
10964	A038  35ADFFFF             ori $13, $13, 65535
10965	A03C  AFCD0314             sw $13, 788($30)
10966	A040  3C0EFFFF             lui $14, 65535
10967	A044  35CEFFFF             ori $14, $14, 65535
10968	A048  AFCE0318             sw $14, 792($30)
10969	A04C  3C0FDFFF             lui $15, 57343
10970	A050  35EFFFFF             ori $15, $15, 65535
10971	A054  AFCF031C             sw $15, 796($30)
10972	A058  3C08FFFF             lui $8, 65535
10973	A05C  3508FFFF             ori $8, $8, 65535
10974	A060  AFC80320             sw $8, 800($30)
10975	A064  3C09EFFF             lui $9, 61439
10976	A068  3529FFFF             ori $9, $9, 65535
10977	A06C  AFC90324             sw $9, 804($30)
10978	A070  3C0AFFFF             lui $10, 65535
10979	A074  354AFFFF             ori $10, $10, 65535
10980	A078  AFCA0328             sw $10, 808($30)
10981	A07C  3C0BF7FF             lui $11, 63487
10982	A080  356BFFFF             ori $11, $11, 65535
10983	A084  AFCB032C             sw $11, 812($30)
10984	A088  3C0CFFFF             lui $12, 65535
10985	A08C  358CFFFF             ori $12, $12, 65535
10986	A090  AFCC0330             sw $12, 816($30)
10987	A094  3C0D7BFF             lui $13, 31743
10988	A098  35ADFFFF             ori $13, $13, 65535
10989	A09C  AFCD0334             sw $13, 820($30)
10990	A0A0  3C0EFFFF             lui $14, 65535
10991	A0A4  35CEFFFF             ori $14, $14, 65535
10992	A0A8  AFCE0338             sw $14, 824($30)
10993	A0AC  3C0FFDFF             lui $15, 65023
10994	A0B0  35EFFFFF             ori $15, $15, 65535
10995	A0B4  AFCF033C             sw $15, 828($30)
10996	A0B8  3C08FFFF             lui $8, 65535
10997	A0BC  3508FFFF             ori $8, $8, 65535
10998	A0C0  AFC80340             sw $8, 832($30)
10999	A0C4  3C09FEFF             lui $9, 65279
11000	A0C8  3529FFFF             ori $9, $9, 65535
11001	A0CC  AFC90344             sw $9, 836($30)
11002	A0D0  3C0AFFFF             lui $10, 65535
11003	A0D4  354AFFFF             ori $10, $10, 65535
11004	A0D8  AFCA0348             sw $10, 840($30)
11005	A0DC  3C0BFF7F             lui $11, 65407
11006	A0E0  356BFFFF             ori $11, $11, 65535
11007	A0E4  AFCB034C             sw $11, 844($30)
11008	A0E8  3C0CFFFF             lui $12, 65535
11009	A0EC  358CFFFF             ori $12, $12, 65535
11010	A0F0  AFCC0350             sw $12, 848($30)
11011	A0F4  3C0DFFBF             lui $13, 65471
11012	A0F8  35ADFFFF             ori $13, $13, 65535
11013	A0FC  AFCD0354             sw $13, 852($30)
11014	A100  3C0EFFFF             lui $14, 65535
11015	A104  35CEFFFF             ori $14, $14, 65535
11016	A108  AFCE0358             sw $14, 856($30)
11017	A10C  3C0FFFDF             lui $15, 65503
11018	A110  35EFFFFF             ori $15, $15, 65535
11019	A114  AFCF035C             sw $15, 860($30)
11020	A118  3C08FFFF             lui $8, 65535
11021	A11C  3508FFFF             ori $8, $8, 65535
11022	A120  AFC80360             sw $8, 864($30)
11023	A124  3C09FFEF             lui $9, 65519
11024	A128  3529FFFF             ori $9, $9, 65535
11025	A12C  AFC90364             sw $9, 868($30)
11026	A130  3C0AFFFF             lui $10, 65535
11027	A134  354AFFFF             ori $10, $10, 65535
11028	A138  AFCA0368             sw $10, 872($30)
11029	A13C  3C0BFFF7             lui $11, 65527
11030	A140  356BFFFF             ori $11, $11, 65535
11031	A144  AFCB036C             sw $11, 876($30)
11032	A148  3C0CFFFF             lui $12, 65535
11033	A14C  358CFFFF             ori $12, $12, 65535
11034	A150  AFCC0370             sw $12, 880($30)
11035	A154  3C0DFFFB             lui $13, 65531
11036	A158  35ADFFFF             ori $13, $13, 65535
11037	A15C  AFCD0374             sw $13, 884($30)
11038	A160  3C0EFFFF             lui $14, 65535
11039	A164  35CEFFFF             ori $14, $14, 65535
11040	A168  AFCE0378             sw $14, 888($30)
11041	A16C  3C0FFFFD             lui $15, 65533
11042	A170  35EFFFFF             ori $15, $15, 65535
11043	A174  AFCF037C             sw $15, 892($30)
11044	A178  3C08FFFF             lui $8, 65535
11045	A17C  3508FFFF             ori $8, $8, 65535
11046	A180  AFC80380             sw $8, 896($30)
11047	A184  3C09FFFE             lui $9, 65534
11048	A188  3529FFFF             ori $9, $9, 65535
11049	A18C  AFC90384             sw $9, 900($30)
11050	A190  3C0AFFFF             lui $10, 65535
11051	A194  354AFFFF             ori $10, $10, 65535
11052	A198  AFCA0388             sw $10, 904($30)
11053	A19C  3C0BFFFF             lui $11, 65535
11054	A1A0  356B7FFF             ori $11, $11, 32767
11055	A1A4  AFCB038C             sw $11, 908($30)
11056	A1A8  3C0CFFFF             lui $12, 65535
11057	A1AC  358CFFFF             ori $12, $12, 65535
11058	A1B0  AFCC0390             sw $12, 912($30)
11059	A1B4  3C0DFFFF             lui $13, 65535
11060	A1B8  35ADBFFF             ori $13, $13, 49151
11061	A1BC  AFCD0394             sw $13, 916($30)
11062	A1C0  3C0EFFFF             lui $14, 65535
11063	A1C4  35CEFFFF             ori $14, $14, 65535
11064	A1C8  AFCE0398             sw $14, 920($30)
11065	A1CC  3C0FFFFF             lui $15, 65535
11066	A1D0  35EFDFFF             ori $15, $15, 57343
11067	A1D4  AFCF039C             sw $15, 924($30)
11068	A1D8  3C08FFFF             lui $8, 65535
11069	A1DC  3508FFFF             ori $8, $8, 65535
11070	A1E0  AFC803A0             sw $8, 928($30)
11071	A1E4  3C09FFFF             lui $9, 65535
11072	A1E8  3529EFFF             ori $9, $9, 61439
11073	A1EC  AFC903A4             sw $9, 932($30)
11074	A1F0  3C0AFFFF             lui $10, 65535
11075	A1F4  354AFFFF             ori $10, $10, 65535
11076	A1F8  AFCA03A8             sw $10, 936($30)
11077	A1FC  3C0BFFFF             lui $11, 65535
11078	A200  356BF7FF             ori $11, $11, 63487
11079	A204  AFCB03AC             sw $11, 940($30)
11080	A208  3C0CFFFF             lui $12, 65535
11081	A20C  358CFFFF             ori $12, $12, 65535
11082	A210  AFCC03B0             sw $12, 944($30)
11083	A214  3C0DFFFF             lui $13, 65535
11084	A218  35ADFBFF             ori $13, $13, 64511
11085	A21C  AFCD03B4             sw $13, 948($30)
11086	A220  3C0EFFFF             lui $14, 65535
11087	A224  35CEFFFF             ori $14, $14, 65535
11088	A228  AFCE03B8             sw $14, 952($30)
11089	A22C  3C0FFFFF             lui $15, 65535
11090	A230  35EFFDFF             ori $15, $15, 65023
11091	A234  AFCF03BC             sw $15, 956($30)
11092	A238  3C08FFFF             lui $8, 65535
11093	A23C  3508FFFF             ori $8, $8, 65535
11094	A240  AFC803C0             sw $8, 960($30)
11095	A244  3C09FFFF             lui $9, 65535
11096	A248  3529FEFF             ori $9, $9, 65279
11097	A24C  AFC903C4             sw $9, 964($30)
11098	A250  3C0AFFFF             lui $10, 65535
11099	A254  354AFFFF             ori $10, $10, 65535
11100	A258  AFCA03C8             sw $10, 968($30)
11101	A25C  3C0BFFFF             lui $11, 65535
11102	A260  356BFF7F             ori $11, $11, 65407
11103	A264  AFCB03CC             sw $11, 972($30)
11104	A268  3C0CFFFF             lui $12, 65535
11105	A26C  358CFFFF             ori $12, $12, 65535
11106	A270  AFCC03D0             sw $12, 976($30)
11107	A274  3C0DFFFF             lui $13, 65535
11108	A278  35ADFFBF             ori $13, $13, 65471
11109	A27C  AFCD03D4             sw $13, 980($30)
11110	A280  3C0EFFFF             lui $14, 65535
11111	A284  35CEFFFF             ori $14, $14, 65535
11112	A288  AFCE03D8             sw $14, 984($30)
11113	A28C  3C0FFFFF             lui $15, 65535
11114	A290  35EFFFDF             ori $15, $15, 65503
11115	A294  AFCF03DC             sw $15, 988($30)
11116	A298  3C08FFFF             lui $8, 65535
11117	A29C  3508FFFF             ori $8, $8, 65535
11118	A2A0  AFC803E0             sw $8, 992($30)
11119	A2A4  3C09FFFF             lui $9, 65535
11120	A2A8  3529FFEF             ori $9, $9, 65519
11121	A2AC  AFC903E4             sw $9, 996($30)
11122	A2B0  3C0AFFFF             lui $10, 65535
11123	A2B4  354AFFFF             ori $10, $10, 65535
11124	A2B8  AFCA03E8             sw $10, 1000($30)
11125	A2BC  3C0BFFFF             lui $11, 65535
11126	A2C0  356BFFF7             ori $11, $11, 65527
11127	A2C4  AFCB03EC             sw $11, 1004($30)
11128	A2C8  3C0CFFFF             lui $12, 65535
11129	A2CC  358CFFFF             ori $12, $12, 65535
11130	A2D0  AFCC03F0             sw $12, 1008($30)
11131	A2D4  3C0DFFFF             lui $13, 65535
11132	A2D8  35ADFFFB             ori $13, $13, 65531
11133	A2DC  AFCD03F4             sw $13, 1012($30)
11134	A2E0  3C0EFFFF             lui $14, 65535
11135	A2E4  35CEFFFF             ori $14, $14, 65535
11136	A2E8  AFCE03F8             sw $14, 1016($30)
11137	A2EC  3C0FFFFF             lui $15, 65535
11138	A2F0  35EFFFFD             ori $15, $15, 65533
11139	A2F4  AFCF03FC             sw $15, 1020($30)
11140	A2F8  3C08FFFF             lui $8, 65535
11141	A2FC  3508FFFF             ori $8, $8, 65535
11142	A300  AFC80400             sw $8, 1024($30)
11143	A304  3C09FFFF             lui $9, 65535
11144	A308  3529FFFE             ori $9, $9, 65534
11145	A30C  AFC90404             sw $9, 1028($30)
11146	A310  3C0A7FFF             lui $10, 32767
11147	A314  354AFFFF             ori $10, $10, 65535
11148	A318  AFCA0408             sw $10, 1032($30)
11149	A31C  3C0B7FFF             lui $11, 32767
11150	A320  356BFFFF             ori $11, $11, 65535
11151	A324  AFCB040C             sw $11, 1036($30)
11152	A328  3C0CBFFF             lui $12, 49151
11153	A32C  358CFFFF             ori $12, $12, 65535
11154	A330  AFCC0410             sw $12, 1040($30)
11155	A334  3C0DBFFF             lui $13, 49151
11156	A338  35ADFFFF             ori $13, $13, 65535
11157	A33C  AFCD0414             sw $13, 1044($30)
11158	A340  3C0EDFFF             lui $14, 57343
11159	A344  35CEFFFF             ori $14, $14, 65535
11160	A348  AFCE0418             sw $14, 1048($30)
11161	A34C  3C0FDFFF             lui $15, 57343
11162	A350  35EFFFFF             ori $15, $15, 65535
11163	A354  AFCF041C             sw $15, 1052($30)
11164	A358  3C08EFFF             lui $8, 61439
11165	A35C  3508FFFF             ori $8, $8, 65535
11166	A360  AFC80420             sw $8, 1056($30)
11167	A364  3C09EFFF             lui $9, 61439
11168	A368  3529FFFF             ori $9, $9, 65535
11169	A36C  AFC90424             sw $9, 1060($30)
11170	A370  3C0AF7FF             lui $10, 63487
11171	A374  354AFFFF             ori $10, $10, 65535
11172	A378  AFCA0428             sw $10, 1064($30)
11173	A37C  3C0BF7FF             lui $11, 63487
11174	A380  356BFFFF             ori $11, $11, 65535
11175	A384  AFCB042C             sw $11, 1068($30)
11176	A388  3C0C7BFF             lui $12, 31743
11177	A38C  358CFFFF             ori $12, $12, 65535
11178	A390  AFCC0430             sw $12, 1072($30)
11179	A394  3C0D7BFF             lui $13, 31743
11180	A398  35ADFFFF             ori $13, $13, 65535
11181	A39C  AFCD0434             sw $13, 1076($30)
11182	A3A0  3C0EFDFF             lui $14, 65023
11183	A3A4  35CEFFFF             ori $14, $14, 65535
11184	A3A8  AFCE0438             sw $14, 1080($30)
11185	A3AC  3C0FFDFF             lui $15, 65023
11186	A3B0  35EFFFFF             ori $15, $15, 65535
11187	A3B4  AFCF043C             sw $15, 1084($30)
11188	A3B8  3C08FEFF             lui $8, 65279
11189	A3BC  3508FFFF             ori $8, $8, 65535
11190	A3C0  AFC80440             sw $8, 1088($30)
11191	A3C4  3C09FEFF             lui $9, 65279
11192	A3C8  3529FFFF             ori $9, $9, 65535
11193	A3CC  AFC90444             sw $9, 1092($30)
11194	A3D0  3C0AFF7F             lui $10, 65407
11195	A3D4  354AFFFF             ori $10, $10, 65535
11196	A3D8  AFCA0448             sw $10, 1096($30)
11197	A3DC  3C0BFF7F             lui $11, 65407
11198	A3E0  356BFFFF             ori $11, $11, 65535
11199	A3E4  AFCB044C             sw $11, 1100($30)
11200	A3E8  3C0CFFBF             lui $12, 65471
11201	A3EC  358CFFFF             ori $12, $12, 65535
11202	A3F0  AFCC0450             sw $12, 1104($30)
11203	A3F4  3C0DFFBF             lui $13, 65471
11204	A3F8  35ADFFFF             ori $13, $13, 65535
11205	A3FC  AFCD0454             sw $13, 1108($30)
11206	A400  3C0EFFDF             lui $14, 65503
11207	A404  35CEFFFF             ori $14, $14, 65535
11208	A408  AFCE0458             sw $14, 1112($30)
11209	A40C  3C0FFFDF             lui $15, 65503
11210	A410  35EFFFFF             ori $15, $15, 65535
11211	A414  AFCF045C             sw $15, 1116($30)
11212	A418  3C08FFEF             lui $8, 65519
11213	A41C  3508FFFF             ori $8, $8, 65535
11214	A420  AFC80460             sw $8, 1120($30)
11215	A424  3C09FFEF             lui $9, 65519
11216	A428  3529FFFF             ori $9, $9, 65535
11217	A42C  AFC90464             sw $9, 1124($30)
11218	A430  3C0AFFF7             lui $10, 65527
11219	A434  354AFFFF             ori $10, $10, 65535
11220	A438  AFCA0468             sw $10, 1128($30)
11221	A43C  3C0BFFF7             lui $11, 65527
11222	A440  356BFFFF             ori $11, $11, 65535
11223	A444  AFCB046C             sw $11, 1132($30)
11224	A448  3C0CFFFB             lui $12, 65531
11225	A44C  358CFFFF             ori $12, $12, 65535
11226	A450  AFCC0470             sw $12, 1136($30)
11227	A454  3C0DFFFB             lui $13, 65531
11228	A458  35ADFFFF             ori $13, $13, 65535
11229	A45C  AFCD0474             sw $13, 1140($30)
11230	A460  3C0EFFFD             lui $14, 65533
11231	A464  35CEFFFF             ori $14, $14, 65535
11232	A468  AFCE0478             sw $14, 1144($30)
11233	A46C  3C0FFFFD             lui $15, 65533
11234	A470  35EFFFFF             ori $15, $15, 65535
11235	A474  AFCF047C             sw $15, 1148($30)
11236	A478  3C08FFFE             lui $8, 65534
11237	A47C  3508FFFF             ori $8, $8, 65535
11238	A480  AFC80480             sw $8, 1152($30)
11239	A484  3C09FFFE             lui $9, 65534
11240	A488  3529FFFF             ori $9, $9, 65535
11241	A48C  AFC90484             sw $9, 1156($30)
11242	A490  3C0AFFFF             lui $10, 65535
11243	A494  354A7FFF             ori $10, $10, 32767
11244	A498  AFCA0488             sw $10, 1160($30)
11245	A49C  3C0BFFFF             lui $11, 65535
11246	A4A0  356B7FFF             ori $11, $11, 32767
11247	A4A4  AFCB048C             sw $11, 1164($30)
11248	A4A8  3C0CFFFF             lui $12, 65535
11249	A4AC  358CBFFF             ori $12, $12, 49151
11250	A4B0  AFCC0490             sw $12, 1168($30)
11251	A4B4  3C0DFFFF             lui $13, 65535
11252	A4B8  35ADBFFF             ori $13, $13, 49151
11253	A4BC  AFCD0494             sw $13, 1172($30)
11254	A4C0  3C0EFFFF             lui $14, 65535
11255	A4C4  35CEDFFF             ori $14, $14, 57343
11256	A4C8  AFCE0498             sw $14, 1176($30)
11257	A4CC  3C0FFFFF             lui $15, 65535
11258	A4D0  35EFDFFF             ori $15, $15, 57343
11259	A4D4  AFCF049C             sw $15, 1180($30)
11260	A4D8  3C08FFFF             lui $8, 65535
11261	A4DC  3508EFFF             ori $8, $8, 61439
11262	A4E0  AFC804A0             sw $8, 1184($30)
11263	A4E4  3C09FFFF             lui $9, 65535
11264	A4E8  3529EFFF             ori $9, $9, 61439
11265	A4EC  AFC904A4             sw $9, 1188($30)
11266	A4F0  3C0AFFFF             lui $10, 65535
11267	A4F4  354AF7FF             ori $10, $10, 63487
11268	A4F8  AFCA04A8             sw $10, 1192($30)
11269	A4FC  3C0BFFFF             lui $11, 65535
11270	A500  356BF7FF             ori $11, $11, 63487
11271	A504  AFCB04AC             sw $11, 1196($30)
11272	A508  3C0CFFFF             lui $12, 65535
11273	A50C  358CFBFF             ori $12, $12, 64511
11274	A510  AFCC04B0             sw $12, 1200($30)
11275	A514  3C0DFFFF             lui $13, 65535
11276	A518  35ADFBFF             ori $13, $13, 64511
11277	A51C  AFCD04B4             sw $13, 1204($30)
11278	A520  3C0EFFFF             lui $14, 65535
11279	A524  35CEFDFF             ori $14, $14, 65023
11280	A528  AFCE04B8             sw $14, 1208($30)
11281	A52C  3C0FFFFF             lui $15, 65535
11282	A530  35EFFDFF             ori $15, $15, 65023
11283	A534  AFCF04BC             sw $15, 1212($30)
11284	A538  3C08FFFF             lui $8, 65535
11285	A53C  3508FEFF             ori $8, $8, 65279
11286	A540  AFC804C0             sw $8, 1216($30)
11287	A544  3C09FFFF             lui $9, 65535
11288	A548  3529FEFF             ori $9, $9, 65279
11289	A54C  AFC904C4             sw $9, 1220($30)
11290	A550  3C0AFFFF             lui $10, 65535
11291	A554  354AFF7F             ori $10, $10, 65407
11292	A558  AFCA04C8             sw $10, 1224($30)
11293	A55C  3C0BFFFF             lui $11, 65535
11294	A560  356BFF7F             ori $11, $11, 65407
11295	A564  AFCB04CC             sw $11, 1228($30)
11296	A568  3C0CFFFF             lui $12, 65535
11297	A56C  358CFFBF             ori $12, $12, 65471
11298	A570  AFCC04D0             sw $12, 1232($30)
11299	A574  3C0DFFFF             lui $13, 65535
11300	A578  35ADFFBF             ori $13, $13, 65471
11301	A57C  AFCD04D4             sw $13, 1236($30)
11302	A580  3C0EFFFF             lui $14, 65535
11303	A584  35CEFFDF             ori $14, $14, 65503
11304	A588  AFCE04D8             sw $14, 1240($30)
11305	A58C  3C0FFFFF             lui $15, 65535
11306	A590  35EFFFDF             ori $15, $15, 65503
11307	A594  AFCF04DC             sw $15, 1244($30)
11308	A598  3C08FFFF             lui $8, 65535
11309	A59C  3508FFEF             ori $8, $8, 65519
11310	A5A0  AFC804E0             sw $8, 1248($30)
11311	A5A4  3C09FFFF             lui $9, 65535
11312	A5A8  3529FFEF             ori $9, $9, 65519
11313	A5AC  AFC904E4             sw $9, 1252($30)
11314	A5B0  3C0AFFFF             lui $10, 65535
11315	A5B4  354AFFF7             ori $10, $10, 65527
11316	A5B8  AFCA04E8             sw $10, 1256($30)
11317	A5BC  3C0BFFFF             lui $11, 65535
11318	A5C0  356BFFF7             ori $11, $11, 65527
11319	A5C4  AFCB04EC             sw $11, 1260($30)
11320	A5C8  3C0CFFFF             lui $12, 65535
11321	A5CC  358CFFFB             ori $12, $12, 65531
11322	A5D0  AFCC04F0             sw $12, 1264($30)
11323	A5D4  3C0DFFFF             lui $13, 65535
11324	A5D8  35ADFFFB             ori $13, $13, 65531
11325	A5DC  AFCD04F4             sw $13, 1268($30)
11326	A5E0  3C0EFFFF             lui $14, 65535
11327	A5E4  35CEFFFD             ori $14, $14, 65533
11328	A5E8  AFCE04F8             sw $14, 1272($30)
11329	A5EC  3C0FFFFF             lui $15, 65535
11330	A5F0  35EFFFFD             ori $15, $15, 65533
11331	A5F4  AFCF04FC             sw $15, 1276($30)
11332	A5F8  3C08FFFF             lui $8, 65535
11333	A5FC  3508FFFE             ori $8, $8, 65534
11334	A600  AFC80500             sw $8, 1280($30)
11335	A604  3C09FFFF             lui $9, 65535
11336	A608  3529FFFE             ori $9, $9, 65534
11337	A60C  AFC90504             sw $9, 1284($30)
11338	A610  03E00008             jr $31
11339	                          
11340	                          end:
11341	A614  08002985              j end
11342	                          
Table des tiquettes :
end	A614
init_branch	9CF8
load_branch	9CEC
init_patterns	96E8
lo_downward_0	9324
lo_upward_1	90C8
hi_downward_0	8D04
hi_upward_1	8AA8
lo_downward_1	86E4
lo_upward_0	8488
hi_downward_1	80C4
hi_upward_0	7E68
init_upward_0	7D74
init_upward_1	7C80
branch_bltzal	7C6C
branch_bltz	7C58
branch_blez	7C44
branch_bgtz	7C30
branch_bgezal	7C1C
branch_bgez	7C08
branch_bne	7BF4
branch_beq	7BE0
init_cp	7BCC
store	7BC0
store_branch	7BB8
increment	7BB0
increment_immediate	7BA4
increment_offset	7B94
reset_hi_lo	7B88
reset_offsets	7B74
load_patterns	7B68
hilo_register_operation	7B3C
breaks	7B30
syscalls	7B24
operation_immediate	431C
operation_bltzal	4308
operation_bltz	42F4
operation_blez	42E0
operation_bgtz	42CC
operation_bgezal	42B8
operation_bgez	42A4
operation_bne	4290
operation_beq	427C
operation_lw0_sw0	4260
operation_lw_sw	424C
operation_mfc0	4220
operation_mtc0	41FC
operation_addi	3CF8
operation_multu_sra_hi	3CD0
operation_multu_sra_lo	3CA8
operation_multu_srl_hi	3C80
operation_multu_srl_lo	3C58
operation_multu_sll_hi	3C30
operation_multu_sll_lo	3C08
operation_multu_srlv_hi	3BE0
operation_multu_srlv_lo	3BB8
operation_multu_srav_hi	3B90
operation_multu_srav_lo	3B68
operation_multu_sltu_hi	3B40
operation_multu_sltu_lo	3B18
operation_multu_slt_hi	3AF0
operation_multu_slt_lo	3AC8
operation_multu_sllv_hi	3AA0
operation_multu_sllv_lo	3A78
operation_multu_xor_hi	3A50
operation_multu_xor_lo	3A28
operation_multu_subu_hi	3A00
operation_multu_subu_lo	39D8
operation_multu_or_hi	39B0
operation_multu_or_lo	3988
operation_multu_nor_hi	3960
operation_multu_nor_lo	3938
operation_multu_and_hi	3910
operation_multu_and_lo	38E8
operation_multu_addu_hi	38C0
operation_multu_addu_lo	3898
operation_mult_sra_hi	3870
operation_mult_sra_lo	3848
operation_mult_srl_hi	3820
operation_mult_srl_lo	37F8
operation_mult_sll_hi	37D0
operation_mult_sll_lo	37A8
operation_mult_srlv_hi	3780
operation_mult_srlv_lo	3758
operation_mult_srav_hi	3730
operation_mult_srav_lo	3708
operation_mult_sltu_hi	36E0
operation_mult_sltu_lo	36B8
operation_mult_slt_hi	3690
operation_mult_slt_lo	3668
operation_mult_sllv_hi	3640
operation_mult_sllv_lo	3618
operation_mult_xor_hi	35F0
operation_mult_xor_lo	35C8
operation_mult_subu_hi	35A0
operation_mult_subu_lo	3578
operation_mult_or_hi	3550
operation_mult_or_lo	3528
operation_mult_nor_hi	3500
operation_mult_nor_lo	34D8
operation_mult_and_hi	34B0
operation_mult_and_lo	3488
operation_mult_addu_hi	3460
operation_mult_addu_lo	3438
operation_sra_srl	3410
operation_sra_sll	33E8
operation_sra_srlv	33C0
operation_sra_srav	3398
operation_sra_sltu	3370
operation_sra_slt	3348
operation_sra_sllv	3320
operation_sra_xor	32F8
operation_sra_subu	32D0
operation_sra_or	32A8
operation_sra_nor	3280
operation_sra_and	3258
operation_sra_addu	3230
operation_srl_sra	3208
operation_srl_sll	31E0
operation_srl_srlv	31B8
operation_srl_srav	3190
operation_srl_sltu	3168
operation_srl_slt	3140
operation_srl_sllv	3118
operation_srl_xor	30F0
operation_srl_subu	30C8
operation_srl_or	30A0
operation_srl_nor	3078
operation_srl_and	3050
operation_srl_addu	3028
operation_sll_sra	3000
operation_sll_srl	2FD8
operation_sll_srlv	2FB0
operation_sll_srav	2F88
operation_sll_sltu	2F60
operation_sll_slt	2F38
operation_sll_sllv	2F10
operation_sll_xor	2EE8
operation_sll_subu	2EC0
operation_sll_or	2E98
operation_sll_nor	2E70
operation_sll_and	2E48
operation_sll_addu	2E20
operation_srlv_sra	2DFC
operation_srlv_srl	2DD8
operation_srlv_sll	2DB4
operation_srlv_srav	2D90
operation_srlv_sltu	2D6C
operation_srlv_slt	2D48
operation_srlv_sllv	2D24
operation_srlv_xor	2D00
operation_srlv_subu	2CDC
operation_srlv_or	2CB8
operation_srlv_nor	2C94
operation_srlv_and	2C70
operation_srlv_addu	2C4C
operation_srav_sra	2C28
operation_srav_srl	2C04
operation_srav_sll	2BE0
operation_srav_srlv	2BBC
operation_srav_sltu	2B98
operation_srav_slt	2B74
operation_srav_sllv	2B50
operation_srav_xor	2B2C
operation_srav_subu	2B08
operation_srav_or	2AE4
operation_srav_nor	2AC0
operation_srav_and	2A9C
operation_srav_addu	2A78
operation_sltu_sra	2A54
operation_sltu_srl	2A30
operation_sltu_sll	2A0C
operation_sltu_srlv	29E8
operation_sltu_srav	29C4
operation_sltu_slt	29A0
operation_sltu_sllv	297C
operation_sltu_xor	2958
operation_sltu_subu	2934
operation_sltu_or	2910
operation_sltu_nor	28EC
operation_sltu_and	28C8
operation_sltu_addu	28A4
operation_slt_sra	2880
operation_slt_srl	285C
operation_slt_sll	2838
operation_slt_srlv	2814
operation_slt_srav	27F0
operation_slt_sltu	27CC
operation_slt_sllv	27A8
operation_slt_xor	2784
operation_slt_subu	2760
operation_slt_or	273C
operation_slt_nor	2718
operation_slt_and	26F4
operation_slt_addu	26D0
operation_sllv_sra	26AC
operation_sllv_srl	2688
operation_sllv_sll	2664
operation_sllv_srlv	2640
operation_sllv_srav	261C
operation_sllv_sltu	25F8
operation_sllv_slt	25D4
operation_sllv_xor	25B0
operation_sllv_subu	258C
operation_sllv_or	2568
operation_sllv_nor	2544
operation_sllv_and	2520
operation_sllv_addu	24FC
operation_xor_sra	24D8
operation_xor_srl	24B4
operation_xor_sll	2490
operation_xor_srlv	246C
operation_xor_srav	2448
operation_xor_sltu	2424
operation_xor_slt	2400
operation_xor_sllv	23DC
operation_xor_subu	23B8
operation_xor_or	2394
operation_xor_nor	2370
operation_xor_and	234C
operation_xor_addu	2328
operation_subu_sra	2304
operation_subu_srl	22E0
operation_subu_sll	22BC
operation_subu_srlv	2298
operation_subu_srav	2274
operation_subu_sltu	2250
operation_subu_slt	222C
operation_subu_sllv	2208
operation_subu_xor	21E4
operation_subu_or	21C0
operation_subu_nor	219C
operation_subu_and	2178
operation_subu_addu	2154
operation_or_sra	2130
operation_or_srl	210C
operation_or_sll	20E8
operation_or_srlv	20C4
operation_or_srav	20A0
operation_or_sltu	207C
operation_or_slt	2058
operation_or_sllv	2034
operation_or_xor	2010
operation_or_subu	1FEC
operation_or_nor	1FC8
operation_or_and	1FA4
operation_or_addu	1F80
operation_nor_sra	1F5C
operation_nor_srl	1F38
operation_nor_sll	1F14
operation_nor_srlv	1EF0
operation_nor_srav	1ECC
operation_nor_sltu	1EA8
operation_nor_slt	1E84
operation_nor_sllv	1E60
operation_nor_xor	1E3C
operation_nor_subu	1E18
operation_nor_or	1DF4
operation_nor_and	1DD0
operation_nor_addu	1DAC
operation_and_sra	1D88
operation_and_srl	1D64
operation_and_sll	1D40
operation_and_srlv	1D1C
operation_and_srav	1CF8
operation_and_sltu	1CD4
operation_and_slt	1CB0
operation_and_sllv	1C8C
operation_and_xor	1C68
operation_and_subu	1C44
operation_and_or	1C20
operation_and_nor	1BFC
operation_and_addu	1BD8
operation_addu_sra	1BB4
operation_addu_srl	1B90
operation_addu_sll	1B6C
operation_addu_srlv	1B48
operation_addu_srav	1B24
operation_addu_sltu	1B00
operation_addu_slt	1ADC
operation_addu_sllv	1AB8
operation_addu_xor	1A94
operation_addu_subu	1A70
operation_addu_or	1A4C
operation_addu_nor	1A28
operation_addu_and	1A04
cop0_register	17F0
continue	0F88
pipeline_operation	0C80
reg_special	00C8
main	00C8
_reset	0048
exception_handler	0008
