1	                          ;CODE MEMORY: (0x00000000-0x0000FFFF)
2	                          ;DATA MEMORY: (0x00010000-0x0001FFFF)
3	                          
4	                          org 0000
5	                          
6	0000  400D8000            mfc0 $16, $13
7	0004  12000011            beq $16, $0, _reset
8	                          
9	                          exception_handler:
10	0008  400C8000             mfc0 $16, $12
11	000C  400D8800             mfc0 $17, $13
12	0010  400E9800             mfc0 $19, $14
13	0014  400FA000             mfc0 $20, $15
14	0018  AFB00000             sw $16, 0($29)
15	001C  AFB10004             sw $17, 4($29)
16	0020  AFB30008             sw $19, 8($29)
17	0024  AFB4000C             sw $20, 12($29)
18	0028  22730004             addi $19, $19, 4
19	002C  40937000             mtc0 $19, $14
20	0030  400CA800             mfc0 $21, $12
21	0034  22B5FFFD             addi $21, $21, 65533
22	0038  36B50001             ori $21, $21, 1
23	003C  40956000             mtc0 $21, $12
24	0040  40200004             cop0 4
25	0044  02600008             jr $19
26	                          
27	                          _reset:
28	0048  00000026             xor $0, $0, $0
29	004C  00210826             xor $1, $1, $1
30	0050  00421026             xor $2, $2, $2
31	0054  00631826             xor $3, $3, $3
32	0058  00842026             xor $4, $4, $4
33	005C  00A52826             xor $5, $5, $5
34	0060  00C63026             xor $6, $6, $6
35	0064  00E73826             xor $7, $7, $7
36	0068  01084026             xor $8, $8, $8
37	006C  01294826             xor $9, $9, $9
38	0070  014A5026             xor $10, $10, $10
39	0074  016B5826             xor $11, $11, $11
40	0078  018C6026             xor $12, $12, $12
41	007C  01AD6826             xor $13, $13, $13
42	0080  01CE7026             xor $14, $14, $14
43	0084  01EF7826             xor $15, $15, $15
44	0088  02108026             xor $16, $16, $16
45	008C  02318826             xor $17, $17, $17
46	0090  02529026             xor $18, $18, $18
47	0094  02739826             xor $19, $19, $19
48	0098  0294A026             xor $20, $20, $20
49	009C  02B5A826             xor $21, $21, $21
50	00A0  02D6B026             xor $22, $22, $22
51	00A4  02F7B826             xor $23, $23, $23
52	00A8  0318C026             xor $24, $24, $24
53	00AC  0339C826             xor $25, $25, $25
54	00B0  035AD026             xor $26, $26, $26
55	00B4  037BD826             xor $27, $27, $27
56	00B8  039CE026             xor $28, $28, $28
57	00BC  03BDE826             xor $29, $29, $29
58	00C0  03DEF026             xor $30, $30, $30
59	00C4  03FFF826             xor $31, $31, $31
60	                          
61	                          main:
62	                          ;........initialize all registers..............;
63	                          reg_special:
64	00C8  3C00FFFF             lui $0, 65535
65	00CC  3400FFFF             ori $0, $0, 65535
66	00D0  3C01FFFF             lui $1, 65535
67	00D4  3421FFFF             ori $1, $1, 65535
68	00D8  3C02FFFF             lui $2, 65535
69	00DC  3442FFFF             ori $2, $2, 65535
70	00E0  3C03FFFF             lui $3, 65535
71	00E4  3463FFFF             ori $3, $3, 65535
72	00E8  3C04FFFF             lui $4, 65535
73	00EC  3484FFFF             ori $4, $4, 65535
74	00F0  3C05FFFF             lui $5, 65535
75	00F4  34A5FFFF             ori $5, $5, 65535
76	00F8  3C06FFFF             lui $6, 65535
77	00FC  34C6FFFF             ori $6, $6, 65535
78	0100  3C07FFFF             lui $7, 65535
79	0104  34E7FFFF             ori $7, $7, 65535
80	0108  3C08FFFF             lui $8, 65535
81	010C  3508FFFF             ori $8, $8, 65535
82	0110  3C09FFFF             lui $9, 65535
83	0114  3529FFFF             ori $9, $9, 65535
84	0118  3C0AFFFF             lui $10, 65535
85	011C  354AFFFF             ori $10, $10, 65535
86	0120  3C0BFFFF             lui $11, 65535
87	0124  356BFFFF             ori $11, $11, 65535
88	0128  3C0CFFFF             lui $12, 65535
89	012C  358CFFFF             ori $12, $12, 65535
90	0130  3C0DFFFF             lui $13, 65535
91	0134  35ADFFFF             ori $13, $13, 65535
92	0138  3C0EFFFF             lui $14, 65535
93	013C  35CEFFFF             ori $14, $14, 65535
94	0140  3C0FFFFF             lui $15, 65535
95	0144  35EFFFFF             ori $15, $15, 65535
96	0148  3C10FFFF             lui $16, 65535
97	014C  3610FFFF             ori $16, $16, 65535
98	0150  3C11FFFF             lui $17, 65535
99	0154  3631FFFF             ori $17, $17, 65535
100	0158  3C12FFFF             lui $18, 65535
101	015C  3652FFFF             ori $18, $18, 65535
102	0160  3C13FFFF             lui $19, 65535
103	0164  3673FFFF             ori $19, $19, 65535
104	0168  3C14FFFF             lui $20, 65535
105	016C  3694FFFF             ori $20, $20, 65535
106	0170  3C15FFFF             lui $21, 65535
107	0174  36B5FFFF             ori $21, $21, 65535
108	0178  3C16FFFF             lui $22, 65535
109	017C  36D6FFFF             ori $22, $22, 65535
110	0180  3C17FFFF             lui $23, 65535
111	0184  36F7FFFF             ori $23, $23, 65535
112	0188  3C18FFFF             lui $24, 65535
113	018C  3718FFFF             ori $24, $24, 65535
114	0190  3C19FFFF             lui $25, 65535
115	0194  3739FFFF             ori $25, $25, 65535
116	0198  3C1AFFFF             lui $26, 65535
117	019C  375AFFFF             ori $26, $26, 65535
118	01A0  3C1BFFFF             lui $27, 65535
119	01A4  377BFFFF             ori $27, $27, 65535
120	01A8  3C1CFFFF             lui $28, 65535
121	01AC  379CFFFF             ori $28, $28, 65535
122	01B0  3C1DFFFF             lui $29, 65535
123	01B4  37BDFFFF             ori $29, $29, 65535
124	01B8  3C1EFFFF             lui $30, 65535
125	01BC  37DEFFFF             ori $30, $30, 65535
126	01C0  3C1FFFFF             lui $31, 65535
127	01C4  37FFFFFF             ori $31, $31, 65535
128	                          
129	                          ;........test special purpose registers........;
130	01C8  3C010001             lui $1, 1
131	01CC  342107D0             ori $1, $1, 2000
132	                          
133	01D0  00000024             and $0, $0, $0
134	01D4  AC200000             sw $0, 0($1)
135	01D8  3C000000             lui $0, 0
136	01DC  34000000             ori $0, $0, 0
137	01E0  00421024             and $2, $2, $2
138	01E4  AC220004             sw $2, 4($1)
139	01E8  3C020000             lui $2, 0
140	01EC  34420000             ori $2, $2, 0
141	01F0  00631824             and $3, $3, $3
142	01F4  AC230008             sw $3, 8($1)
143	01F8  3C030000             lui $3, 0
144	01FC  34630000             ori $3, $3, 0
145	0200  00842024             and $4, $4, $4
146	0204  AC24000C             sw $4, 12($1)
147	0208  3C040000             lui $4, 0
148	020C  34840000             ori $4, $4, 0
149	0210  00A52824             and $5, $5, $5
150	0214  AC250010             sw $5, 16($1)
151	0218  3C050000             lui $5, 0
152	021C  34A50000             ori $5, $5, 0
153	0220  00C63024             and $6, $6, $6
154	0224  AC260014             sw $6, 20($1)
155	0228  3C060000             lui $6, 0
156	022C  34C60000             ori $6, $6, 0
157	0230  00E73824             and $7, $7, $7
158	0234  AC270018             sw $7, 24($1)
159	0238  3C070000             lui $7, 0
160	023C  34E70000             ori $7, $7, 0
161	0240  01084024             and $8, $8, $8
162	0244  AC28001C             sw $8, 28($1)
163	0248  3C080000             lui $8, 0
164	024C  35080000             ori $8, $8, 0
165	0250  01294824             and $9, $9, $9
166	0254  AC290020             sw $9, 32($1)
167	0258  3C090000             lui $9, 0
168	025C  35290000             ori $9, $9, 0
169	0260  014A5024             and $10, $10, $10
170	0264  AC2A0024             sw $10, 36($1)
171	0268  3C0A0000             lui $10, 0
172	026C  354A0000             ori $10, $10, 0
173	0270  016B5824             and $11, $11, $11
174	0274  AC2B0028             sw $11, 40($1)
175	0278  3C0B0000             lui $11, 0
176	027C  356B0000             ori $11, $11, 0
177	0280  018C6024             and $12, $12, $12
178	0284  AC2C002C             sw $12, 44($1)
179	0288  3C0C0000             lui $12, 0
180	028C  358C0000             ori $12, $12, 0
181	0290  01AD6824             and $13, $13, $13
182	0294  AC2D0030             sw $13, 48($1)
183	0298  3C0D0000             lui $13, 0
184	029C  35AD0000             ori $13, $13, 0
185	02A0  01CE7024             and $14, $14, $14
186	02A4  AC2E0034             sw $14, 52($1)
187	02A8  3C0E0000             lui $14, 0
188	02AC  35CE0000             ori $14, $14, 0
189	02B0  01EF7824             and $15, $15, $15
190	02B4  AC2F0038             sw $15, 56($1)
191	02B8  3C0F0000             lui $15, 0
192	02BC  35EF0000             ori $15, $15, 0
193	02C0  02108024             and $16, $16, $16
194	02C4  AC30003C             sw $16, 60($1)
195	02C8  3C100000             lui $16, 0
196	02CC  36100000             ori $16, $16, 0
197	02D0  02318824             and $17, $17, $17
198	02D4  AC310040             sw $17, 64($1)
199	02D8  3C110000             lui $17, 0
200	02DC  36310000             ori $17, $17, 0
201	02E0  02529024             and $18, $18, $18
202	02E4  AC320044             sw $18, 68($1)
203	02E8  3C120000             lui $18, 0
204	02EC  36520000             ori $18, $18, 0
205	02F0  02739824             and $19, $19, $19
206	02F4  AC330048             sw $19, 72($1)
207	02F8  3C130000             lui $19, 0
208	02FC  36730000             ori $19, $19, 0
209	0300  0294A024             and $20, $20, $20
210	0304  AC34004C             sw $20, 76($1)
211	0308  3C140000             lui $20, 0
212	030C  36940000             ori $20, $20, 0
213	0310  02B5A824             and $21, $21, $21
214	0314  AC350050             sw $21, 80($1)
215	0318  3C150000             lui $21, 0
216	031C  36B50000             ori $21, $21, 0
217	0320  02D6B024             and $22, $22, $22
218	0324  AC360054             sw $22, 84($1)
219	0328  3C160000             lui $22, 0
220	032C  36D60000             ori $22, $22, 0
221	0330  02F7B824             and $23, $23, $23
222	0334  AC370058             sw $23, 88($1)
223	0338  3C170000             lui $23, 0
224	033C  36F70000             ori $23, $23, 0
225	0340  0318C024             and $24, $24, $24
226	0344  AC38005C             sw $24, 92($1)
227	0348  3C180000             lui $24, 0
228	034C  37180000             ori $24, $24, 0
229	0350  0339C824             and $25, $25, $25
230	0354  AC390060             sw $25, 96($1)
231	0358  3C190000             lui $25, 0
232	035C  37390000             ori $25, $25, 0
233	0360  035AD024             and $26, $26, $26
234	0364  AC3A0064             sw $26, 100($1)
235	0368  3C1A0000             lui $26, 0
236	036C  375A0000             ori $26, $26, 0
237	0370  037BD824             and $27, $27, $27
238	0374  AC3B0068             sw $27, 104($1)
239	0378  3C1B0000             lui $27, 0
240	037C  377B0000             ori $27, $27, 0
241	0380  039CE024             and $28, $28, $28
242	0384  AC3C006C             sw $28, 108($1)
243	0388  3C1C0000             lui $28, 0
244	038C  379C0000             ori $28, $28, 0
245	0390  03BDE824             and $29, $29, $29
246	0394  AC3D0070             sw $29, 112($1)
247	0398  3C1D0000             lui $29, 0
248	039C  37BD0000             ori $29, $29, 0
249	03A0  03DEF024             and $30, $30, $30
250	03A4  AC3E0074             sw $30, 116($1)
251	03A8  3C1E0000             lui $30, 0
252	03AC  37DE0000             ori $30, $30, 0
253	03B0  03FFF824             and $31, $31, $31
254	03B4  AC3F0078             sw $31, 120($1)
255	03B8  3C1F0000             lui $31, 0
256	03BC  37FF0000             ori $31, $31, 0
257	                          
258	03C0  00000027             nor $0, $0, $0
259	03C4  AC20007C             sw $0, 124($1)
260	03C8  3C00FFFF             lui $0, 65535
261	03CC  3400FFFF             ori $0, $0, 65535
262	03D0  00000024             and $0, $0, $0
263	03D4  AC200080             sw $0, 128($1)
264	03D8  03FFF827             nor $31, $31, $31
265	03DC  AC3F0084             sw $31, 132($1)
266	03E0  3C1FFFFF             lui $31, 65535
267	03E4  37FFFFFF             ori $31, $31, 65535
268	03E8  03FFF824             and $31, $31, $31
269	03EC  AC3F0088             sw $31, 136($1)
270	03F0  03DEF027             nor $30, $30, $30
271	03F4  AC3E008C             sw $30, 140($1)
272	03F8  3C1EFFFF             lui $30, 65535
273	03FC  37DEFFFF             ori $30, $30, 65535
274	0400  03DEF024             and $30, $30, $30
275	0404  AC3E0090             sw $30, 144($1)
276	0408  03BDE827             nor $29, $29, $29
277	040C  AC3D0094             sw $29, 148($1)
278	0410  3C1DFFFF             lui $29, 65535
279	0414  37BDFFFF             ori $29, $29, 65535
280	0418  03BDE824             and $29, $29, $29
281	041C  AC3D0098             sw $29, 152($1)
282	0420  039CE027             nor $28, $28, $28
283	0424  AC3C009C             sw $28, 156($1)
284	0428  3C1CFFFF             lui $28, 65535
285	042C  379CFFFF             ori $28, $28, 65535
286	0430  039CE024             and $28, $28, $28
287	0434  AC3C00A0             sw $28, 160($1)
288	0438  037BD827             nor $27, $27, $27
289	043C  AC3B00A4             sw $27, 164($1)
290	0440  3C1BFFFF             lui $27, 65535
291	0444  377BFFFF             ori $27, $27, 65535
292	0448  037BD824             and $27, $27, $27
293	044C  AC3B00A8             sw $27, 168($1)
294	0450  035AD027             nor $26, $26, $26
295	0454  AC3A00AC             sw $26, 172($1)
296	0458  3C1AFFFF             lui $26, 65535
297	045C  375AFFFF             ori $26, $26, 65535
298	0460  035AD024             and $26, $26, $26
299	0464  AC3A00B0             sw $26, 176($1)
300	0468  0339C827             nor $25, $25, $25
301	046C  AC3900B4             sw $25, 180($1)
302	0470  3C19FFFF             lui $25, 65535
303	0474  3739FFFF             ori $25, $25, 65535
304	0478  0339C824             and $25, $25, $25
305	047C  AC3900B8             sw $25, 184($1)
306	0480  0318C027             nor $24, $24, $24
307	0484  AC3800BC             sw $24, 188($1)
308	0488  3C18FFFF             lui $24, 65535
309	048C  3718FFFF             ori $24, $24, 65535
310	0490  0318C024             and $24, $24, $24
311	0494  AC3800C0             sw $24, 192($1)
312	0498  02F7B827             nor $23, $23, $23
313	049C  AC3700C4             sw $23, 196($1)
314	04A0  3C17FFFF             lui $23, 65535
315	04A4  36F7FFFF             ori $23, $23, 65535
316	04A8  02F7B824             and $23, $23, $23
317	04AC  AC3700C8             sw $23, 200($1)
318	04B0  02D6B027             nor $22, $22, $22
319	04B4  AC3600CC             sw $22, 204($1)
320	04B8  3C16FFFF             lui $22, 65535
321	04BC  36D6FFFF             ori $22, $22, 65535
322	04C0  02D6B024             and $22, $22, $22
323	04C4  AC3600D0             sw $22, 208($1)
324	04C8  02B5A827             nor $21, $21, $21
325	04CC  AC3500D4             sw $21, 212($1)
326	04D0  3C15FFFF             lui $21, 65535
327	04D4  36B5FFFF             ori $21, $21, 65535
328	04D8  02B5A824             and $21, $21, $21
329	04DC  AC3500D8             sw $21, 216($1)
330	04E0  0294A027             nor $20, $20, $20
331	04E4  AC3400DC             sw $20, 220($1)
332	04E8  3C14FFFF             lui $20, 65535
333	04EC  3694FFFF             ori $20, $20, 65535
334	04F0  0294A024             and $20, $20, $20
335	04F4  AC3400E0             sw $20, 224($1)
336	04F8  02739827             nor $19, $19, $19
337	04FC  AC3300E4             sw $19, 228($1)
338	0500  3C13FFFF             lui $19, 65535
339	0504  3673FFFF             ori $19, $19, 65535
340	0508  02739824             and $19, $19, $19
341	050C  AC3300E8             sw $19, 232($1)
342	0510  02529027             nor $18, $18, $18
343	0514  AC3200EC             sw $18, 236($1)
344	0518  3C12FFFF             lui $18, 65535
345	051C  3652FFFF             ori $18, $18, 65535
346	0520  02529024             and $18, $18, $18
347	0524  AC3200F0             sw $18, 240($1)
348	0528  02318827             nor $17, $17, $17
349	052C  AC3100F4             sw $17, 244($1)
350	0530  3C11FFFF             lui $17, 65535
351	0534  3631FFFF             ori $17, $17, 65535
352	0538  02318824             and $17, $17, $17
353	053C  AC3100F8             sw $17, 248($1)
354	0540  02108027             nor $16, $16, $16
355	0544  AC3000FC             sw $16, 252($1)
356	0548  3C10FFFF             lui $16, 65535
357	054C  3610FFFF             ori $16, $16, 65535
358	0550  02108024             and $16, $16, $16
359	0554  AC300100             sw $16, 256($1)
360	0558  01EF7827             nor $15, $15, $15
361	055C  AC2F0104             sw $15, 260($1)
362	0560  3C0FFFFF             lui $15, 65535
363	0564  35EFFFFF             ori $15, $15, 65535
364	0568  01EF7824             and $15, $15, $15
365	056C  AC2F0108             sw $15, 264($1)
366	0570  01CE7027             nor $14, $14, $14
367	0574  AC2E010C             sw $14, 268($1)
368	0578  3C0EFFFF             lui $14, 65535
369	057C  35CEFFFF             ori $14, $14, 65535
370	0580  01CE7024             and $14, $14, $14
371	0584  AC2E0110             sw $14, 272($1)
372	0588  01AD6827             nor $13, $13, $13
373	058C  AC2D0114             sw $13, 276($1)
374	0590  3C0DFFFF             lui $13, 65535
375	0594  35ADFFFF             ori $13, $13, 65535
376	0598  01AD6824             and $13, $13, $13
377	059C  AC2D0118             sw $13, 280($1)
378	05A0  018C6027             nor $12, $12, $12
379	05A4  AC2C011C             sw $12, 284($1)
380	05A8  3C0CFFFF             lui $12, 65535
381	05AC  358CFFFF             ori $12, $12, 65535
382	05B0  018C6024             and $12, $12, $12
383	05B4  AC2C0120             sw $12, 288($1)
384	05B8  016B5827             nor $11, $11, $11
385	05BC  AC2B0124             sw $11, 292($1)
386	05C0  3C0BFFFF             lui $11, 65535
387	05C4  356BFFFF             ori $11, $11, 65535
388	05C8  016B5824             and $11, $11, $11
389	05CC  AC2B0128             sw $11, 296($1)
390	05D0  014A5027             nor $10, $10, $10
391	05D4  AC2A012C             sw $10, 300($1)
392	05D8  3C0AFFFF             lui $10, 65535
393	05DC  354AFFFF             ori $10, $10, 65535
394	05E0  014A5024             and $10, $10, $10
395	05E4  AC2A0130             sw $10, 304($1)
396	05E8  01294827             nor $9, $9, $9
397	05EC  AC290134             sw $9, 308($1)
398	05F0  3C09FFFF             lui $9, 65535
399	05F4  3529FFFF             ori $9, $9, 65535
400	05F8  01294824             and $9, $9, $9
401	05FC  AC290138             sw $9, 312($1)
402	0600  01084027             nor $8, $8, $8
403	0604  AC28013C             sw $8, 316($1)
404	0608  3C08FFFF             lui $8, 65535
405	060C  3508FFFF             ori $8, $8, 65535
406	0610  01084024             and $8, $8, $8
407	0614  AC280140             sw $8, 320($1)
408	0618  00E73827             nor $7, $7, $7
409	061C  AC270144             sw $7, 324($1)
410	0620  3C07FFFF             lui $7, 65535
411	0624  34E7FFFF             ori $7, $7, 65535
412	0628  00E73824             and $7, $7, $7
413	062C  AC270148             sw $7, 328($1)
414	0630  00C63027             nor $6, $6, $6
415	0634  AC26014C             sw $6, 332($1)
416	0638  3C06FFFF             lui $6, 65535
417	063C  34C6FFFF             ori $6, $6, 65535
418	0640  00C63024             and $6, $6, $6
419	0644  AC260150             sw $6, 336($1)
420	0648  00A52827             nor $5, $5, $5
421	064C  AC250154             sw $5, 340($1)
422	0650  3C05FFFF             lui $5, 65535
423	0654  34A5FFFF             ori $5, $5, 65535
424	0658  00A52824             and $5, $5, $5
425	065C  AC250158             sw $5, 344($1)
426	0660  00842027             nor $4, $4, $4
427	0664  AC24015C             sw $4, 348($1)
428	0668  3C04FFFF             lui $4, 65535
429	066C  3484FFFF             ori $4, $4, 65535
430	0670  00842024             and $4, $4, $4
431	0674  AC240160             sw $4, 352($1)
432	0678  00631827             nor $3, $3, $3
433	067C  AC230164             sw $3, 356($1)
434	0680  3C03FFFF             lui $3, 65535
435	0684  3463FFFF             ori $3, $3, 65535
436	0688  00631824             and $3, $3, $3
437	068C  AC230168             sw $3, 360($1)
438	0690  00421027             nor $2, $2, $2
439	0694  AC22016C             sw $2, 364($1)
440	0698  3C02FFFF             lui $2, 65535
441	069C  3442FFFF             ori $2, $2, 65535
442	06A0  00421024             and $2, $2, $2
443	06A4  AC220170             sw $2, 368($1)
444	                          
445	                          ;.............special register mirror.............;
446	06A8  3C000000             lui $0, 0
447	06AC  34000000             ori $0, $0, 0
448	06B0  3C020000             lui $2, 0
449	06B4  34420000             ori $2, $2, 0
450	06B8  3C030000             lui $3, 0
451	06BC  34630000             ori $3, $3, 0
452	06C0  3C040000             lui $4, 0
453	06C4  34840000             ori $4, $4, 0
454	06C8  3C050000             lui $5, 0
455	06CC  34A50000             ori $5, $5, 0
456	06D0  3C060000             lui $6, 0
457	06D4  34C60000             ori $6, $6, 0
458	06D8  3C070000             lui $7, 0
459	06DC  34E70000             ori $7, $7, 0
460	06E0  3C080000             lui $8, 0
461	06E4  35080000             ori $8, $8, 0
462	06E8  3C090000             lui $9, 0
463	06EC  35290000             ori $9, $9, 0
464	06F0  3C0A0000             lui $10, 0
465	06F4  354A0000             ori $10, $10, 0
466	06F8  3C0B0000             lui $11, 0
467	06FC  356B0000             ori $11, $11, 0
468	0700  3C0C0000             lui $12, 0
469	0704  358C0000             ori $12, $12, 0
470	0708  3C0D0000             lui $13, 0
471	070C  35AD0000             ori $13, $13, 0
472	0710  3C0E0000             lui $14, 0
473	0714  35CE0000             ori $14, $14, 0
474	0718  3C0F0000             lui $15, 0
475	071C  35EF0000             ori $15, $15, 0
476	0720  3C100000             lui $16, 0
477	0724  36100000             ori $16, $16, 0
478	0728  3C110000             lui $17, 0
479	072C  36310000             ori $17, $17, 0
480	0730  3C120000             lui $18, 0
481	0734  36520000             ori $18, $18, 0
482	0738  3C130000             lui $19, 0
483	073C  36730000             ori $19, $19, 0
484	0740  3C140000             lui $20, 0
485	0744  36940000             ori $20, $20, 0
486	0748  3C150000             lui $21, 0
487	074C  36B50000             ori $21, $21, 0
488	0750  3C160000             lui $22, 0
489	0754  36D60000             ori $22, $22, 0
490	0758  3C170000             lui $23, 0
491	075C  36F70000             ori $23, $23, 0
492	0760  3C180000             lui $24, 0
493	0764  37180000             ori $24, $24, 0
494	0768  3C190000             lui $25, 0
495	076C  37390000             ori $25, $25, 0
496	0770  3C1A0000             lui $26, 0
497	0774  375A0000             ori $26, $26, 0
498	0778  3C1B0000             lui $27, 0
499	077C  377B0000             ori $27, $27, 0
500	0780  3C1C0000             lui $28, 0
501	0784  379C0000             ori $28, $28, 0
502	0788  3C1D0000             lui $29, 0
503	078C  37BD0000             ori $29, $29, 0
504	0790  3C1E0000             lui $30, 0
505	0794  37DE0000             ori $30, $30, 0
506	0798  3C1F0000             lui $31, 0
507	079C  37FF0000             ori $31, $31, 0
508	                          
509	07A0  00000027             nor $0, $0, $0
510	07A4  AC200174             sw $0, 372($1)
511	07A8  3C00FFFF             lui $0, 65535
512	07AC  3400FFFF             ori $0, $0, 65535
513	07B0  00421027             nor $2, $2, $2
514	07B4  AC220178             sw $2, 376($1)
515	07B8  3C02FFFF             lui $2, 65535
516	07BC  3442FFFF             ori $2, $2, 65535
517	07C0  00631827             nor $3, $3, $3
518	07C4  AC23017C             sw $3, 380($1)
519	07C8  3C03FFFF             lui $3, 65535
520	07CC  3463FFFF             ori $3, $3, 65535
521	07D0  00842027             nor $4, $4, $4
522	07D4  AC240180             sw $4, 384($1)
523	07D8  3C04FFFF             lui $4, 65535
524	07DC  3484FFFF             ori $4, $4, 65535
525	07E0  00A52827             nor $5, $5, $5
526	07E4  AC250184             sw $5, 388($1)
527	07E8  3C05FFFF             lui $5, 65535
528	07EC  34A5FFFF             ori $5, $5, 65535
529	07F0  00C63027             nor $6, $6, $6
530	07F4  AC260188             sw $6, 392($1)
531	07F8  3C06FFFF             lui $6, 65535
532	07FC  34C6FFFF             ori $6, $6, 65535
533	0800  00E73827             nor $7, $7, $7
534	0804  AC27018C             sw $7, 396($1)
535	0808  3C07FFFF             lui $7, 65535
536	080C  34E7FFFF             ori $7, $7, 65535
537	0810  01084027             nor $8, $8, $8
538	0814  AC280190             sw $8, 400($1)
539	0818  3C08FFFF             lui $8, 65535
540	081C  3508FFFF             ori $8, $8, 65535
541	0820  01294827             nor $9, $9, $9
542	0824  AC290194             sw $9, 404($1)
543	0828  3C09FFFF             lui $9, 65535
544	082C  3529FFFF             ori $9, $9, 65535
545	0830  014A5027             nor $10, $10, $10
546	0834  AC2A0198             sw $10, 408($1)
547	0838  3C0AFFFF             lui $10, 65535
548	083C  354AFFFF             ori $10, $10, 65535
549	0840  016B5827             nor $11, $11, $11
550	0844  AC2B019C             sw $11, 412($1)
551	0848  3C0BFFFF             lui $11, 65535
552	084C  356BFFFF             ori $11, $11, 65535
553	0850  018C6027             nor $12, $12, $12
554	0854  AC2C01A0             sw $12, 416($1)
555	0858  3C0CFFFF             lui $12, 65535
556	085C  358CFFFF             ori $12, $12, 65535
557	0860  01AD6827             nor $13, $13, $13
558	0864  AC2D01A4             sw $13, 420($1)
559	0868  3C0DFFFF             lui $13, 65535
560	086C  35ADFFFF             ori $13, $13, 65535
561	0870  01CE7027             nor $14, $14, $14
562	0874  AC2E01A8             sw $14, 424($1)
563	0878  3C0EFFFF             lui $14, 65535
564	087C  35CEFFFF             ori $14, $14, 65535
565	0880  01EF7827             nor $15, $15, $15
566	0884  AC2F01AC             sw $15, 428($1)
567	0888  3C0FFFFF             lui $15, 65535
568	088C  35EFFFFF             ori $15, $15, 65535
569	0890  02108027             nor $16, $16, $16
570	0894  AC3001B0             sw $16, 432($1)
571	0898  3C10FFFF             lui $16, 65535
572	089C  3610FFFF             ori $16, $16, 65535
573	08A0  02318827             nor $17, $17, $17
574	08A4  AC3101B4             sw $17, 436($1)
575	08A8  3C11FFFF             lui $17, 65535
576	08AC  3631FFFF             ori $17, $17, 65535
577	08B0  02529027             nor $18, $18, $18
578	08B4  AC3201B8             sw $18, 440($1)
579	08B8  3C12FFFF             lui $18, 65535
580	08BC  3652FFFF             ori $18, $18, 65535
581	08C0  02739827             nor $19, $19, $19
582	08C4  AC3301BC             sw $19, 444($1)
583	08C8  3C13FFFF             lui $19, 65535
584	08CC  3673FFFF             ori $19, $19, 65535
585	08D0  0294A027             nor $20, $20, $20
586	08D4  AC3401C0             sw $20, 448($1)
587	08D8  3C14FFFF             lui $20, 65535
588	08DC  3694FFFF             ori $20, $20, 65535
589	08E0  02B5A827             nor $21, $21, $21
590	08E4  AC3501C4             sw $21, 452($1)
591	08E8  3C15FFFF             lui $21, 65535
592	08EC  36B5FFFF             ori $21, $21, 65535
593	08F0  02D6B027             nor $22, $22, $22
594	08F4  AC3601C8             sw $22, 456($1)
595	08F8  3C16FFFF             lui $22, 65535
596	08FC  36D6FFFF             ori $22, $22, 65535
597	0900  02F7B827             nor $23, $23, $23
598	0904  AC3701CC             sw $23, 460($1)
599	0908  3C17FFFF             lui $23, 65535
600	090C  36F7FFFF             ori $23, $23, 65535
601	0910  0318C027             nor $24, $24, $24
602	0914  AC3801D0             sw $24, 464($1)
603	0918  3C18FFFF             lui $24, 65535
604	091C  3718FFFF             ori $24, $24, 65535
605	0920  0339C827             nor $25, $25, $25
606	0924  AC3901D4             sw $25, 468($1)
607	0928  3C19FFFF             lui $25, 65535
608	092C  3739FFFF             ori $25, $25, 65535
609	0930  035AD027             nor $26, $26, $26
610	0934  AC3A01D8             sw $26, 472($1)
611	0938  3C1AFFFF             lui $26, 65535
612	093C  375AFFFF             ori $26, $26, 65535
613	0940  037BD827             nor $27, $27, $27
614	0944  AC3B01DC             sw $27, 476($1)
615	0948  3C1BFFFF             lui $27, 65535
616	094C  377BFFFF             ori $27, $27, 65535
617	0950  039CE027             nor $28, $28, $28
618	0954  AC3C01E0             sw $28, 480($1)
619	0958  3C1CFFFF             lui $28, 65535
620	095C  379CFFFF             ori $28, $28, 65535
621	0960  03BDE827             nor $29, $29, $29
622	0964  AC3D01E4             sw $29, 484($1)
623	0968  3C1DFFFF             lui $29, 65535
624	096C  37BDFFFF             ori $29, $29, 65535
625	0970  03DEF027             nor $30, $30, $30
626	0974  AC3E01E8             sw $30, 488($1)
627	0978  3C1EFFFF             lui $30, 65535
628	097C  37DEFFFF             ori $30, $30, 65535
629	0980  03FFF827             nor $31, $31, $31
630	0984  AC3F01EC             sw $31, 492($1)
631	0988  3C1FFFFF             lui $31, 65535
632	098C  37FFFFFF             ori $31, $31, 65535
633	                          
634	0990  00000024             and $0, $0, $0
635	0994  AC2001F0             sw $0, 496($1)
636	0998  3C000000             lui $0, 0
637	099C  34000000             ori $0, $0, 0
638	09A0  00000024             and $0, $0, $0
639	09A4  AC2001F4             sw $0, 500($1)
640	09A8  03FFF824             and $31, $31, $31
641	09AC  AC3F01F8             sw $31, 504($1)
642	09B0  3C1F0000             lui $31, 0
643	09B4  37FF0000             ori $31, $31, 0
644	09B8  03FFF824             and $31, $31, $31
645	09BC  AC3F01FC             sw $31, 508($1)
646	09C0  03DEF024             and $30, $30, $30
647	09C4  AC3E0200             sw $30, 512($1)
648	09C8  3C1E0000             lui $30, 0
649	09CC  37DE0000             ori $30, $30, 0
650	09D0  03DEF024             and $30, $30, $30
651	09D4  AC3E0204             sw $30, 516($1)
652	09D8  03BDE824             and $29, $29, $29
653	09DC  AC3D0208             sw $29, 520($1)
654	09E0  3C1D0000             lui $29, 0
655	09E4  37BD0000             ori $29, $29, 0
656	09E8  03BDE824             and $29, $29, $29
657	09EC  AC3D020C             sw $29, 524($1)
658	09F0  039CE024             and $28, $28, $28
659	09F4  AC3C0210             sw $28, 528($1)
660	09F8  3C1C0000             lui $28, 0
661	09FC  379C0000             ori $28, $28, 0
662	0A00  039CE024             and $28, $28, $28
663	0A04  AC3C0214             sw $28, 532($1)
664	0A08  037BD824             and $27, $27, $27
665	0A0C  AC3B0218             sw $27, 536($1)
666	0A10  3C1B0000             lui $27, 0
667	0A14  377B0000             ori $27, $27, 0
668	0A18  037BD824             and $27, $27, $27
669	0A1C  AC3B021C             sw $27, 540($1)
670	0A20  035AD024             and $26, $26, $26
671	0A24  AC3A0220             sw $26, 544($1)
672	0A28  3C1A0000             lui $26, 0
673	0A2C  375A0000             ori $26, $26, 0
674	0A30  035AD024             and $26, $26, $26
675	0A34  AC3A0224             sw $26, 548($1)
676	0A38  0339C824             and $25, $25, $25
677	0A3C  AC390228             sw $25, 552($1)
678	0A40  3C190000             lui $25, 0
679	0A44  37390000             ori $25, $25, 0
680	0A48  0339C824             and $25, $25, $25
681	0A4C  AC39022C             sw $25, 556($1)
682	0A50  0318C024             and $24, $24, $24
683	0A54  AC380230             sw $24, 560($1)
684	0A58  3C180000             lui $24, 0
685	0A5C  37180000             ori $24, $24, 0
686	0A60  0318C024             and $24, $24, $24
687	0A64  AC380234             sw $24, 564($1)
688	0A68  02F7B824             and $23, $23, $23
689	0A6C  AC370238             sw $23, 568($1)
690	0A70  3C170000             lui $23, 0
691	0A74  36F70000             ori $23, $23, 0
692	0A78  02F7B824             and $23, $23, $23
693	0A7C  AC37023C             sw $23, 572($1)
694	0A80  02D6B024             and $22, $22, $22
695	0A84  AC360240             sw $22, 576($1)
696	0A88  3C160000             lui $22, 0
697	0A8C  36D60000             ori $22, $22, 0
698	0A90  02D6B024             and $22, $22, $22
699	0A94  AC360244             sw $22, 580($1)
700	0A98  02B5A824             and $21, $21, $21
701	0A9C  AC350248             sw $21, 584($1)
702	0AA0  3C150000             lui $21, 0
703	0AA4  36B50000             ori $21, $21, 0
704	0AA8  02B5A824             and $21, $21, $21
705	0AAC  AC35024C             sw $21, 588($1)
706	0AB0  0294A024             and $20, $20, $20
707	0AB4  AC340250             sw $20, 592($1)
708	0AB8  3C140000             lui $20, 0
709	0ABC  36940000             ori $20, $20, 0
710	0AC0  0294A024             and $20, $20, $20
711	0AC4  AC340254             sw $20, 596($1)
712	0AC8  02739824             and $19, $19, $19
713	0ACC  AC330258             sw $19, 600($1)
714	0AD0  3C130000             lui $19, 0
715	0AD4  36730000             ori $19, $19, 0
716	0AD8  02739824             and $19, $19, $19
717	0ADC  AC33025C             sw $19, 604($1)
718	0AE0  02529024             and $18, $18, $18
719	0AE4  AC320260             sw $18, 608($1)
720	0AE8  3C120000             lui $18, 0
721	0AEC  36520000             ori $18, $18, 0
722	0AF0  02529024             and $18, $18, $18
723	0AF4  AC320264             sw $18, 612($1)
724	0AF8  02318824             and $17, $17, $17
725	0AFC  AC310268             sw $17, 616($1)
726	0B00  3C110000             lui $17, 0
727	0B04  36310000             ori $17, $17, 0
728	0B08  02318824             and $17, $17, $17
729	0B0C  AC31026C             sw $17, 620($1)
730	0B10  02108024             and $16, $16, $16
731	0B14  AC300270             sw $16, 624($1)
732	0B18  3C100000             lui $16, 0
733	0B1C  36100000             ori $16, $16, 0
734	0B20  02108024             and $16, $16, $16
735	0B24  AC300274             sw $16, 628($1)
736	0B28  01EF7824             and $15, $15, $15
737	0B2C  AC2F0278             sw $15, 632($1)
738	0B30  3C0F0000             lui $15, 0
739	0B34  35EF0000             ori $15, $15, 0
740	0B38  01EF7824             and $15, $15, $15
741	0B3C  AC2F027C             sw $15, 636($1)
742	0B40  01CE7024             and $14, $14, $14
743	0B44  AC2E0280             sw $14, 640($1)
744	0B48  3C0E0000             lui $14, 0
745	0B4C  35CE0000             ori $14, $14, 0
746	0B50  01CE7024             and $14, $14, $14
747	0B54  AC2E0284             sw $14, 644($1)
748	0B58  01AD6824             and $13, $13, $13
749	0B5C  AC2D0288             sw $13, 648($1)
750	0B60  3C0D0000             lui $13, 0
751	0B64  35AD0000             ori $13, $13, 0
752	0B68  01AD6824             and $13, $13, $13
753	0B6C  AC2D028C             sw $13, 652($1)
754	0B70  018C6024             and $12, $12, $12
755	0B74  AC2C0290             sw $12, 656($1)
756	0B78  3C0C0000             lui $12, 0
757	0B7C  358C0000             ori $12, $12, 0
758	0B80  018C6024             and $12, $12, $12
759	0B84  AC2C0294             sw $12, 660($1)
760	0B88  016B5824             and $11, $11, $11
761	0B8C  AC2B0298             sw $11, 664($1)
762	0B90  3C0B0000             lui $11, 0
763	0B94  356B0000             ori $11, $11, 0
764	0B98  016B5824             and $11, $11, $11
765	0B9C  AC2B029C             sw $11, 668($1)
766	0BA0  014A5024             and $10, $10, $10
767	0BA4  AC2A02A0             sw $10, 672($1)
768	0BA8  3C0A0000             lui $10, 0
769	0BAC  354A0000             ori $10, $10, 0
770	0BB0  014A5024             and $10, $10, $10
771	0BB4  AC2A02A4             sw $10, 676($1)
772	0BB8  01294824             and $9, $9, $9
773	0BBC  AC2902A8             sw $9, 680($1)
774	0BC0  3C090000             lui $9, 0
775	0BC4  35290000             ori $9, $9, 0
776	0BC8  01294824             and $9, $9, $9
777	0BCC  AC2902AC             sw $9, 684($1)
778	0BD0  01084024             and $8, $8, $8
779	0BD4  AC2802B0             sw $8, 688($1)
780	0BD8  3C080000             lui $8, 0
781	0BDC  35080000             ori $8, $8, 0
782	0BE0  01084024             and $8, $8, $8
783	0BE4  AC2802B4             sw $8, 692($1)
784	0BE8  00E73824             and $7, $7, $7
785	0BEC  AC2702B8             sw $7, 696($1)
786	0BF0  3C070000             lui $7, 0
787	0BF4  34E70000             ori $7, $7, 0
788	0BF8  00E73824             and $7, $7, $7
789	0BFC  AC2702BC             sw $7, 700($1)
790	0C00  00C63024             and $6, $6, $6
791	0C04  AC2602C0             sw $6, 704($1)
792	0C08  3C060000             lui $6, 0
793	0C0C  34C60000             ori $6, $6, 0
794	0C10  00C63024             and $6, $6, $6
795	0C14  AC2602C4             sw $6, 708($1)
796	0C18  00A52824             and $5, $5, $5
797	0C1C  AC2502C8             sw $5, 712($1)
798	0C20  3C050000             lui $5, 0
799	0C24  34A50000             ori $5, $5, 0
800	0C28  00A52824             and $5, $5, $5
801	0C2C  AC2502CC             sw $5, 716($1)
802	0C30  00842024             and $4, $4, $4
803	0C34  AC2402D0             sw $4, 720($1)
804	0C38  3C040000             lui $4, 0
805	0C3C  34840000             ori $4, $4, 0
806	0C40  00842024             and $4, $4, $4
807	0C44  AC2402D4             sw $4, 724($1)
808	0C48  00631824             and $3, $3, $3
809	0C4C  AC2302D8             sw $3, 728($1)
810	0C50  3C030000             lui $3, 0
811	0C54  34630000             ori $3, $3, 0
812	0C58  00631824             and $3, $3, $3
813	0C5C  AC2302DC             sw $3, 732($1)
814	0C60  00421024             and $2, $2, $2
815	0C64  AC2202E0             sw $2, 736($1)
816	0C68  3C020000             lui $2, 0
817	0C6C  34420000             ori $2, $2, 0
818	0C70  00421024             and $2, $2, $2
819	0C74  AC2202E4             sw $2, 740($1)
820	                          
821	                          ;..........pipeline test..........;
822	0C78  3C1D0001            lui $29, 1
823	0C7C  37BD1388            ori $29, $29, 5000
824	                          
825	                          pipeline_operation:
826	                          ;.............pipeline test_alu.............;
827	0C80  3C010000             lui $1, 0
828	0C84  34210000             ori $1, $1, 0
829	0C88  3C1FFFFF             lui $31, 65535
830	0C8C  37FFFFFF             ori $31, $31, 65535
831	0C90  00000000             sll $0, $0, 0
832	0C94  00000000             sll $0, $0, 0
833	0C98  03FF0824             and $1, $31, $31
834	0C9C  003F1024             and $2, $1, $31
835	0CA0  00000000             sll $0, $0, 0
836	0CA4  AFA20000             sw $2, 0($29)
837	                          
838	0CA8  3C01FFFF             lui $1, 65535
839	0CAC  3421FFFF             ori $1, $1, 65535
840	0CB0  3C1F0000             lui $31, 0
841	0CB4  37FF0000             ori $31, $31, 0
842	0CB8  00000000             sll $0, $0, 0
843	0CBC  00000000             sll $0, $0, 0
844	0CC0  03FF0824             and $1, $31, $31
845	0CC4  003F1024             and $2, $1, $31
846	0CC8  00000000             sll $0, $0, 0
847	0CCC  AFA20004             sw $2, 4($29)
848	                          
849	0CD0  3C010000             lui $1, 0
850	0CD4  34210000             ori $1, $1, 0
851	0CD8  3C1FFFFF             lui $31, 65535
852	0CDC  37FFFFFF             ori $31, $31, 65535
853	0CE0  00000000             sll $0, $0, 0
854	0CE4  00000000             sll $0, $0, 0
855	0CE8  03FF0824             and $1, $31, $31
856	0CEC  03E11024             and $2, $31, $1
857	0CF0  00000000             sll $0, $0, 0
858	0CF4  AFA20008             sw $2, 8($29)
859	                          
860	0CF8  3C01FFFF             lui $1, 65535
861	0CFC  3421FFFF             ori $1, $1, 65535
862	0D00  3C1F0000             lui $31, 0
863	0D04  37FF0000             ori $31, $31, 0
864	0D08  00000000             sll $0, $0, 0
865	0D0C  00000000             sll $0, $0, 0
866	0D10  03FF0824             and $1, $31, $31
867	0D14  03E11024             and $2, $31, $1
868	0D18  00000000             sll $0, $0, 0
869	0D1C  AFA2000C             sw $2, 12($29)
870	                          
871	0D20  3C010000             lui $1, 0
872	0D24  34210000             ori $1, $1, 0
873	0D28  3C1FFFFF             lui $31, 65535
874	0D2C  37FFFFFF             ori $31, $31, 65535
875	0D30  00000000             sll $0, $0, 0
876	0D34  03FF0824             and $1, $31, $31
877	0D38  003F0824             and $1, $1, $31
878	0D3C  003F1024             and $2, $1, $31
879	0D40  00000000             sll $0, $0, 0
880	0D44  AFA20010             sw $2, 16($29)
881	                          
882	0D48  3C01FFFF             lui $1, 65535
883	0D4C  3421FFFF             ori $1, $1, 65535
884	0D50  3C1F0000             lui $31, 0
885	0D54  37FF0000             ori $31, $31, 0
886	0D58  00000000             sll $0, $0, 0
887	0D5C  03FF0824             and $1, $31, $31
888	0D60  003F0824             and $1, $1, $31
889	0D64  003F1024             and $2, $1, $31
890	0D68  00000000             sll $0, $0, 0
891	0D6C  AFA20014             sw $2, 20($29)
892	                          
893	0D70  3C010000             lui $1, 0
894	0D74  34210000             ori $1, $1, 0
895	0D78  3C1FFFFF             lui $31, 65535
896	0D7C  37FFFFFF             ori $31, $31, 65535
897	0D80  00000000             sll $0, $0, 0
898	0D84  00000000             sll $0, $0, 0
899	0D88  0021F824             and $31, $1, $1
900	0D8C  03E11024             and $2, $31, $1
901	0D90  00000000             sll $0, $0, 0
902	0D94  AFA20018             sw $2, 24($29)
903	                          
904	0D98  3C01FFFF             lui $1, 65535
905	0D9C  3421FFFF             ori $1, $1, 65535
906	0DA0  3C1F0000             lui $31, 0
907	0DA4  37FF0000             ori $31, $31, 0
908	0DA8  00000000             sll $0, $0, 0
909	0DAC  00000000             sll $0, $0, 0
910	0DB0  0021F824             and $31, $1, $1
911	0DB4  03E11024             and $2, $31, $1
912	0DB8  00000000             sll $0, $0, 0
913	0DBC  AFA2001C             sw $2, 28($29)
914	                          
915	0DC0  3C010000             lui $1, 0
916	0DC4  34210000             ori $1, $1, 0
917	0DC8  3C1FFFFF             lui $31, 65535
918	0DCC  37FFFFFF             ori $31, $31, 65535
919	0DD0  00000000             sll $0, $0, 0
920	0DD4  00000000             sll $0, $0, 0
921	0DD8  0021F824             and $31, $1, $1
922	0DDC  003F1024             and $2, $1, $31
923	0DE0  00000000             sll $0, $0, 0
924	0DE4  AFA20020             sw $2, 32($29)
925	                          
926	0DE8  3C01FFFF             lui $1, 65535
927	0DEC  3421FFFF             ori $1, $1, 65535
928	0DF0  3C1F0000             lui $31, 0
929	0DF4  37FF0000             ori $31, $31, 0
930	0DF8  00000000             sll $0, $0, 0
931	0DFC  00000000             sll $0, $0, 0
932	0E00  0021F824             and $31, $1, $1
933	0E04  003F1024             and $2, $1, $31
934	0E08  00000000             sll $0, $0, 0
935	0E0C  AFA20024             sw $2, 36($29)
936	                          
937	0E10  3C010000             lui $1, 0
938	0E14  34210000             ori $1, $1, 0
939	0E18  3C1FFFFF             lui $31, 65535
940	0E1C  37FFFFFF             ori $31, $31, 65535
941	0E20  00000000             sll $0, $0, 0
942	0E24  0021F824             and $31, $1, $1
943	0E28  03E1F824             and $31, $31, $1
944	0E2C  03E11024             and $2, $31, $1
945	0E30  00000000             sll $0, $0, 0
946	0E34  AFA20028             sw $2, 40($29)
947	                          
948	0E38  3C01FFFF             lui $1, 65535
949	0E3C  3421FFFF             ori $1, $1, 65535
950	0E40  3C1F0000             lui $31, 0
951	0E44  37FF0000             ori $31, $31, 0
952	0E48  00000000             sll $0, $0, 0
953	0E4C  0021F824             and $31, $1, $1
954	0E50  03E1F824             and $31, $31, $1
955	0E54  03E11024             and $2, $31, $1
956	0E58  00000000             sll $0, $0, 0
957	0E5C  AFA2002C             sw $2, 44($29)
958	                          
959	                          ;.............pipeline test_load_alu.............;
960	0E60  3C01FFFF             lui $1, 65535
961	0E64  3421FFFF             ori $1, $1, 65535
962	0E68  AFA10030             sw $1, 48($29)
963	0E6C  00000000             sll $0, $0, 0
964	0E70  3C010000             lui $1, 0
965	0E74  34210000             ori $1, $1, 0
966	0E78  3C1FFFFF             lui $31, 65535
967	0E7C  37FFFFFF             ori $31, $31, 65535
968	0E80  8FA10030             lw $1, 48($29)
969	0E84  00000000             sll $0, $0, 0
970	0E88  003F1024             and $2, $1, $31
971	0E8C  AFA20034             sw $2, 52($29)
972	                          
973	0E90  3C010000             lui $1, 0
974	0E94  34210000             ori $1, $1, 0
975	0E98  AFA10038             sw $1, 56($29)
976	0E9C  00000000             sll $0, $0, 0
977	0EA0  3C01FFFF             lui $1, 65535
978	0EA4  3421FFFF             ori $1, $1, 65535
979	0EA8  3C1FFFFF             lui $31, 65535
980	0EAC  37FFFFFF             ori $31, $31, 65535
981	0EB0  8FA10038             lw $1, 56($29)
982	0EB4  00000000             sll $0, $0, 0
983	0EB8  003F1024             and $2, $1, $31
984	0EBC  AFA2003C             sw $2, 60($29)
985	                          
986	0EC0  3C01FFFF             lui $1, 65535
987	0EC4  3421FFFF             ori $1, $1, 65535
988	0EC8  AFA10040             sw $1, 64($29)
989	0ECC  00000000             sll $0, $0, 0
990	0ED0  3C010000             lui $1, 0
991	0ED4  34210000             ori $1, $1, 0
992	0ED8  3C1FFFFF             lui $31, 65535
993	0EDC  37FFFFFF             ori $31, $31, 65535
994	0EE0  8FA10040             lw $1, 64($29)
995	0EE4  00000000             sll $0, $0, 0
996	0EE8  03E11024             and $2, $31, $1
997	0EEC  AFA20044             sw $2, 68($29)
998	                          
999	0EF0  3C010000             lui $1, 0
1000	0EF4  34210000             ori $1, $1, 0
1001	0EF8  AFA10048             sw $1, 72($29)
1002	0EFC  00000000             sll $0, $0, 0
1003	0F00  3C01FFFF             lui $1, 65535
1004	0F04  3421FFFF             ori $1, $1, 65535
1005	0F08  3C1FFFFF             lui $31, 65535
1006	0F0C  37FFFFFF             ori $31, $31, 65535
1007	0F10  8FA10048             lw $1, 72($29)
1008	0F14  00000000             sll $0, $0, 0
1009	0F18  03E11024             and $2, $31, $1
1010	0F1C  AFA2004C             sw $2, 76($29)
1011	                          
1012	                          ;.............pipeline test_store_load_data.............;
1013	0F20  3C010000             lui $1, 0
1014	0F24  34210000             ori $1, $1, 0
1015	0F28  3C1FFFFF             lui $31, 65535
1016	0F2C  37FFFFFF             ori $31, $31, 65535
1017	0F30  AFA10050             sw $1, 80($29)
1018	0F34  00000000             sll $0, $0, 0
1019	0F38  AFBF0050             sw $31, 80($29)
1020	0F3C  8FBF0050             lw $31, 80($29)
1021	0F40  00000000             sll $0, $0, 0
1022	0F44  00000000             sll $0, $0, 0
1023	0F48  00000000             sll $0, $0, 0
1024	0F4C  AFBF0054             sw $31, 84($29)
1025	                          
1026	                          ;.............pipeline test_load_store_data.............;
1027	0F50  3C01FFFF             lui $1, 65535
1028	0F54  3421FFFF             ori $1, $1, 65535
1029	0F58  AFA10058             sw $1, 88($29)
1030	0F5C  3C010000             lui $1, 0
1031	0F60  34210000             ori $1, $1, 0
1032	0F64  8FA10058             lw $1, 88($29)
1033	0F68  00000000             sll $0, $0, 0
1034	0F6C  AFA1005C             sw $1, 92($29)
1035	                          
1036	                          ;.............pipeline control hazard.............;
1037	0F70  3C010000             lui $1, 0
1038	0F74  34210000             ori $1, $1, 0
1039	0F78  3C1EFFFF             lui $30, 65535
1040	0F7C  37DEFFFF             ori $30, $30, 65535
1041	0F80  003E9024             and $18, $1, $30
1042	0F84  17C10001             bne $30, $1, continue
1043	                          continue:
1044	0F88  AFB20060            sw $18, 96($29)
1045	                          
1046	                          ;.............pipeline addressing hazard store.............;
1047	0F8C  3C010000             lui $1, 0
1048	0F90  34210000             ori $1, $1, 0
1049	0F94  003D0821             addu $1, $1, $29
1050	0F98  AC210064             sw $1, 100($1)
1051	0F9C  3C1FFFFF             lui $31, 65535
1052	0FA0  37FFFFFF             ori $31, $31, 65535
1053	0FA4  8C3F0064             lw $31, 100($1)
1054	0FA8  AFFF0064             sw $31, 100($31)
1055	                          
1056	                          ;.............comparator test.............;
1057	0FAC  3C000000             lui $0, 0
1058	0FB0  34000000             ori $0, $0, 0
1059	0FB4  3C1FFFFF             lui $31, 65535
1060	0FB8  37FFFFFF             ori $31, $31, 65535
1061	0FBC  00000000             sll $0, $0, 0
1062	0FC0  03FF0024             and $0, $31, $31
1063	0FC4  001F1024             and $2, $0, $31
1064	0FC8  AFA20068             sw $2, 104($29)
1065	                          
1066	0FCC  3C1E0000             lui $30, 0
1067	0FD0  37DE0000             ori $30, $30, 0
1068	0FD4  3C1FFFFF             lui $31, 65535
1069	0FD8  37FFFFFF             ori $31, $31, 65535
1070	0FDC  00000000             sll $0, $0, 0
1071	0FE0  03FFF024             and $30, $31, $31
1072	0FE4  03DF1024             and $2, $30, $31
1073	0FE8  AFA2006C             sw $2, 108($29)
1074	                          
1075	0FEC  3C000000             lui $0, 0
1076	0FF0  34000000             ori $0, $0, 0
1077	0FF4  3C1FFFFF             lui $31, 65535
1078	0FF8  37FFFFFF             ori $31, $31, 65535
1079	0FFC  00000000             sll $0, $0, 0
1080	1000  03FF0024             and $0, $31, $31
1081	1004  03E01024             and $2, $31, $0
1082	1008  AFA20070             sw $2, 112($29)
1083	                          
1084	100C  3C1E0000             lui $30, 0
1085	1010  37DE0000             ori $30, $30, 0
1086	1014  3C1FFFFF             lui $31, 65535
1087	1018  37FFFFFF             ori $31, $31, 65535
1088	101C  00000000             sll $0, $0, 0
1089	1020  03FFF024             and $30, $31, $31
1090	1024  03FE1024             and $2, $31, $30
1091	1028  AFA20074             sw $2, 116($29)
1092	                          
1093	                          ;.............comparator contd (changing result address).............;
1094	102C  3C140000             lui $20, 0
1095	1030  36940000             ori $20, $20, 0
1096	1034  029DA021             addu $20, $20, $29 ;calculate next memory address
1097	                          
1098	1038  3C01FFFF             lui $1, 65535
1099	103C  3421FFFF             ori $1, $1, 65535
1100	1040  3C1F0000             lui $31, 0
1101	1044  37FF0000             ori $31, $31, 0
1102	1048  00000000             sll $0, $0, 0
1103	104C  0021F824             and $31, $1, $1
1104	1050  03E11024             and $2, $31, $1
1105	1054  AE820078             sw $2, 120($20)
1106	                          
1107	1058  3C01FFFF             lui $1, 65535
1108	105C  3421FFFF             ori $1, $1, 65535
1109	1060  3C1E0000             lui $30, 0
1110	1064  37DE0000             ori $30, $30, 0
1111	1068  00000000             sll $0, $0, 0
1112	106C  0021F824             and $31, $1, $1
1113	1070  03C11024             and $2, $30, $1
1114	1074  AE82007C             sw $2, 124($20)
1115	                          
1116	1078  3C01FFFF             lui $1, 65535
1117	107C  3421FFFF             ori $1, $1, 65535
1118	1080  3C1D0000             lui $29, 0
1119	1084  37BD0000             ori $29, $29, 0
1120	1088  00000000             sll $0, $0, 0
1121	108C  0021F824             and $31, $1, $1
1122	1090  03A11024             and $2, $29, $1
1123	1094  AE820080             sw $2, 128($20)
1124	                          
1125	1098  3C01FFFF             lui $1, 65535
1126	109C  3421FFFF             ori $1, $1, 65535
1127	10A0  3C1B0000             lui $27, 0
1128	10A4  377B0000             ori $27, $27, 0
1129	10A8  00000000             sll $0, $0, 0
1130	10AC  0021F824             and $31, $1, $1
1131	10B0  03611024             and $2, $27, $1
1132	10B4  AE820084             sw $2, 132($20)
1133	                          
1134	10B8  3C01FFFF             lui $1, 65535
1135	10BC  3421FFFF             ori $1, $1, 65535
1136	10C0  3C170000             lui $23, 0
1137	10C4  36F70000             ori $23, $23, 0
1138	10C8  00000000             sll $0, $0, 0
1139	10CC  0021F824             and $31, $1, $1
1140	10D0  02E11024             and $2, $23, $1
1141	10D4  AE820088             sw $2, 136($20)
1142	                          
1143	10D8  3C01FFFF             lui $1, 65535
1144	10DC  3421FFFF             ori $1, $1, 65535
1145	10E0  3C0F0000             lui $15, 0
1146	10E4  35EF0000             ori $15, $15, 0
1147	10E8  00000000             sll $0, $0, 0
1148	10EC  0021F824             and $31, $1, $1
1149	10F0  01E11024             and $2, $15, $1
1150	10F4  AE82008C             sw $2, 140($20)
1151	                          
1152	10F8  3C01FFFF             lui $1, 65535
1153	10FC  3421FFFF             ori $1, $1, 65535
1154	1100  3C1E0000             lui $30, 0
1155	1104  37DE0000             ori $30, $30, 0
1156	1108  00000000             sll $0, $0, 0
1157	110C  0021F024             and $30, $1, $1
1158	1110  03E11024             and $2, $31, $1
1159	1114  AE820090             sw $2, 144($20)
1160	                          
1161	1118  3C01FFFF             lui $1, 65535
1162	111C  3421FFFF             ori $1, $1, 65535
1163	1120  3C1D0000             lui $29, 0
1164	1124  37BD0000             ori $29, $29, 0
1165	1128  00000000             sll $0, $0, 0
1166	112C  0021E824             and $29, $1, $1
1167	1130  03E11024             and $2, $31, $1
1168	1134  AE820094             sw $2, 148($20)
1169	                          
1170	1138  3C01FFFF             lui $1, 65535
1171	113C  3421FFFF             ori $1, $1, 65535
1172	1140  3C1B0000             lui $27, 0
1173	1144  377B0000             ori $27, $27, 0
1174	1148  00000000             sll $0, $0, 0
1175	114C  0021D824             and $27, $1, $1
1176	1150  03E11024             and $2, $31, $1
1177	1154  AE820098             sw $2, 152($20)
1178	                          
1179	1158  3C01FFFF             lui $1, 65535
1180	115C  3421FFFF             ori $1, $1, 65535
1181	1160  3C170000             lui $23, 0
1182	1164  36F70000             ori $23, $23, 0
1183	1168  00000000             sll $0, $0, 0
1184	116C  0021B824             and $23, $1, $1
1185	1170  03E11024             and $2, $31, $1
1186	1174  AE82009C             sw $2, 156($20)
1187	                          
1188	1178  3C01FFFF             lui $1, 65535
1189	117C  3421FFFF             ori $1, $1, 65535
1190	1180  3C0F0000             lui $15, 0
1191	1184  35EF0000             ori $15, $15, 0
1192	1188  00000000             sll $0, $0, 0
1193	118C  00217824             and $15, $1, $1
1194	1190  03E11024             and $2, $31, $1
1195	1194  AE8200A0             sw $2, 160($20)
1196	                          
1197	1198  3C01FFFF             lui $1, 65535
1198	119C  3421FFFF             ori $1, $1, 65535
1199	11A0  3C1F0000             lui $31, 0
1200	11A4  37FF0000             ori $31, $31, 0
1201	11A8  00000000             sll $0, $0, 0
1202	11AC  0021F824             and $31, $1, $1
1203	11B0  003F1024             and $2, $1, $31
1204	11B4  AE8200A4             sw $2, 164($20)
1205	                          
1206	11B8  3C01FFFF             lui $1, 65535
1207	11BC  3421FFFF             ori $1, $1, 65535
1208	11C0  3C1E0000             lui $30, 0
1209	11C4  37DE0000             ori $30, $30, 0
1210	11C8  00000000             sll $0, $0, 0
1211	11CC  0021F824             and $31, $1, $1
1212	11D0  003E1024             and $2, $1, $30
1213	11D4  AE8200A8             sw $2, 168($20)
1214	                          
1215	11D8  3C01FFFF             lui $1, 65535
1216	11DC  3421FFFF             ori $1, $1, 65535
1217	11E0  3C1D0000             lui $29, 0
1218	11E4  37BD0000             ori $29, $29, 0
1219	11E8  00000000             sll $0, $0, 0
1220	11EC  0021F824             and $31, $1, $1
1221	11F0  003D1024             and $2, $1, $29
1222	11F4  AE8200AC             sw $2, 172($20)
1223	                          
1224	11F8  3C01FFFF             lui $1, 65535
1225	11FC  3421FFFF             ori $1, $1, 65535
1226	1200  3C1B0000             lui $27, 0
1227	1204  377B0000             ori $27, $27, 0
1228	1208  00000000             sll $0, $0, 0
1229	120C  0021F824             and $31, $1, $1
1230	1210  003B1024             and $2, $1, $27
1231	1214  AE8200B0             sw $2, 176($20)
1232	                          
1233	1218  3C01FFFF             lui $1, 65535
1234	121C  3421FFFF             ori $1, $1, 65535
1235	1220  3C170000             lui $23, 0
1236	1224  36F70000             ori $23, $23, 0
1237	1228  00000000             sll $0, $0, 0
1238	122C  0021F824             and $31, $1, $1
1239	1230  00371024             and $2, $1, $23
1240	1234  AE8200B4             sw $2, 180($20)
1241	                          
1242	1238  3C01FFFF             lui $1, 65535
1243	123C  3421FFFF             ori $1, $1, 65535
1244	1240  3C0F0000             lui $15, 0
1245	1244  35EF0000             ori $15, $15, 0
1246	1248  00000000             sll $0, $0, 0
1247	124C  0021F824             and $31, $1, $1
1248	1250  002F1024             and $2, $1, $15
1249	1254  AE8200B8             sw $2, 184($20)
1250	                          
1251	1258  3C01FFFF             lui $1, 65535
1252	125C  3421FFFF             ori $1, $1, 65535
1253	1260  3C1E0000             lui $30, 0
1254	1264  37DE0000             ori $30, $30, 0
1255	1268  00000000             sll $0, $0, 0
1256	126C  0021F024             and $30, $1, $1
1257	1270  003F1024             and $2, $1, $31
1258	1274  AE8200BC             sw $2, 188($20)
1259	                          
1260	1278  3C01FFFF             lui $1, 65535
1261	127C  3421FFFF             ori $1, $1, 65535
1262	1280  3C1D0000             lui $29, 0
1263	1284  37BD0000             ori $29, $29, 0
1264	1288  00000000             sll $0, $0, 0
1265	128C  0021E824             and $29, $1, $1
1266	1290  003F1024             and $2, $1, $31
1267	1294  AE8200C0             sw $2, 192($20)
1268	                          
1269	1298  3C01FFFF             lui $1, 65535
1270	129C  3421FFFF             ori $1, $1, 65535
1271	12A0  3C1B0000             lui $27, 0
1272	12A4  377B0000             ori $27, $27, 0
1273	12A8  00000000             sll $0, $0, 0
1274	12AC  0021D824             and $27, $1, $1
1275	12B0  003F1024             and $2, $1, $31
1276	12B4  AE8200C4             sw $2, 196($20)
1277	                          
1278	12B8  3C01FFFF             lui $1, 65535
1279	12BC  3421FFFF             ori $1, $1, 65535
1280	12C0  3C170000             lui $23, 0
1281	12C4  36F70000             ori $23, $23, 0
1282	12C8  00000000             sll $0, $0, 0
1283	12CC  0021B824             and $23, $1, $1
1284	12D0  003F1024             and $2, $1, $31
1285	12D4  AE8200C8             sw $2, 200($20)
1286	                          
1287	12D8  3C01FFFF             lui $1, 65535
1288	12DC  3421FFFF             ori $1, $1, 65535
1289	12E0  3C0F0000             lui $15, 0
1290	12E4  35EF0000             ori $15, $15, 0
1291	12E8  00000000             sll $0, $0, 0
1292	12EC  00217824             and $15, $1, $1
1293	12F0  003F1024             and $2, $1, $31
1294	12F4  AE8200CC             sw $2, 204($20)
1295	                          
1296	                          ;.............comparator load_alu.............;
1297	12F8  3C000000             lui $0, 0
1298	12FC  34000000             ori $0, $0, 0
1299	1300  3C01FFFF             lui $1, 65535
1300	1304  3421FFFF             ori $1, $1, 65535
1301	1308  00000000             sll $0, $0, 0
1302	130C  8E8000CC             lw $0, 204($20)
1303	1310  00000000             sll $0, $0, 0
1304	1314  00011024             and $2, $0, $1
1305	1318  AE8200D0             sw $2, 208($20)
1306	                          
1307	131C  3C1E0000             lui $30, 0
1308	1320  37DE0000             ori $30, $30, 0
1309	1324  3C01FFFF             lui $1, 65535
1310	1328  3421FFFF             ori $1, $1, 65535
1311	132C  00000000             sll $0, $0, 0
1312	1330  8E9E00CC             lw $30, 204($20)
1313	1334  00000000             sll $0, $0, 0
1314	1338  03C11024             and $2, $30, $1
1315	133C  AE8200D4             sw $2, 212($20)
1316	                          
1317	1340  3C000000             lui $0, 0
1318	1344  34000000             ori $0, $0, 0
1319	1348  3C01FFFF             lui $1, 65535
1320	134C  3421FFFF             ori $1, $1, 65535
1321	1350  00000000             sll $0, $0, 0
1322	1354  8E8000CC             lw $0, 204($20)
1323	1358  00000000             sll $0, $0, 0
1324	135C  00201024             and $2, $1, $0
1325	1360  AE8200D8             sw $2, 216($20)
1326	                          
1327	1364  3C1E0000             lui $30, 0
1328	1368  37DE0000             ori $30, $30, 0
1329	136C  3C01FFFF             lui $1, 65535
1330	1370  3421FFFF             ori $1, $1, 65535
1331	1374  00000000             sll $0, $0, 0
1332	1378  8E9E00CC             lw $30, 204($20)
1333	137C  00000000             sll $0, $0, 0
1334	1380  003E1024             and $2, $1, $30
1335	1384  AE8200DC             sw $2, 220($20)
1336	                          
1337	1388  3C01FFFF             lui $1, 65535
1338	138C  3421FFFF             ori $1, $1, 65535
1339	1390  3C1F0000             lui $31, 0
1340	1394  37FF0000             ori $31, $31, 0
1341	1398  00000000             sll $0, $0, 0
1342	139C  8E9F00CC             lw $31, 204($20)
1343	13A0  00000000             sll $0, $0, 0
1344	13A4  03E11024             and $2, $31, $1
1345	13A8  AE8200E0             sw $2, 224($20)
1346	                          
1347	13AC  3C01FFFF             lui $1, 65535
1348	13B0  3421FFFF             ori $1, $1, 65535
1349	13B4  3C1E0000             lui $30, 0
1350	13B8  37DE0000             ori $30, $30, 0
1351	13BC  00000000             sll $0, $0, 0
1352	13C0  8E9F00CC             lw $31, 204($20)
1353	13C4  00000000             sll $0, $0, 0
1354	13C8  03C11024             and $2, $30, $1
1355	13CC  AE8200E4             sw $2, 228($20)
1356	                          
1357	13D0  3C01FFFF             lui $1, 65535
1358	13D4  3421FFFF             ori $1, $1, 65535
1359	13D8  3C1D0000             lui $29, 0
1360	13DC  37BD0000             ori $29, $29, 0
1361	13E0  00000000             sll $0, $0, 0
1362	13E4  8E9F00CC             lw $31, 204($20)
1363	13E8  00000000             sll $0, $0, 0
1364	13EC  03A11024             and $2, $29, $1
1365	13F0  AE8200E8             sw $2, 232($20)
1366	                          
1367	13F4  3C01FFFF             lui $1, 65535
1368	13F8  3421FFFF             ori $1, $1, 65535
1369	13FC  3C1B0000             lui $27, 0
1370	1400  377B0000             ori $27, $27, 0
1371	1404  00000000             sll $0, $0, 0
1372	1408  8E9F00CC             lw $31, 204($20)
1373	140C  00000000             sll $0, $0, 0
1374	1410  03611024             and $2, $27, $1
1375	1414  AE8200EC             sw $2, 236($20)
1376	                          
1377	1418  3C01FFFF             lui $1, 65535
1378	141C  3421FFFF             ori $1, $1, 65535
1379	1420  3C170000             lui $23, 0
1380	1424  36F70000             ori $23, $23, 0
1381	1428  00000000             sll $0, $0, 0
1382	142C  8E9F00CC             lw $31, 204($20)
1383	1430  00000000             sll $0, $0, 0
1384	1434  02E11024             and $2, $23, $1
1385	1438  AE8200F0             sw $2, 240($20)
1386	                          
1387	143C  3C01FFFF             lui $1, 65535
1388	1440  3421FFFF             ori $1, $1, 65535
1389	1444  3C0F0000             lui $15, 0
1390	1448  35EF0000             ori $15, $15, 0
1391	144C  00000000             sll $0, $0, 0
1392	1450  8E9F00CC             lw $31, 204($20)
1393	1454  00000000             sll $0, $0, 0
1394	1458  01E11024             and $2, $15, $1
1395	145C  AE8200F4             sw $2, 244($20)
1396	                          
1397	1460  3C01FFFF             lui $1, 65535
1398	1464  3421FFFF             ori $1, $1, 65535
1399	1468  3C1E0000             lui $30, 0
1400	146C  37DE0000             ori $30, $30, 0
1401	1470  00000000             sll $0, $0, 0
1402	1474  8E9E00CC             lw $30, 204($20)
1403	1478  00000000             sll $0, $0, 0
1404	147C  03E11024             and $2, $31, $1
1405	1480  AE8200F8             sw $2, 248($20)
1406	                          
1407	1484  3C01FFFF             lui $1, 65535
1408	1488  3421FFFF             ori $1, $1, 65535
1409	148C  3C1D0000             lui $29, 0
1410	1490  37BD0000             ori $29, $29, 0
1411	1494  00000000             sll $0, $0, 0
1412	1498  8E9D00CC             lw $29, 204($20)
1413	149C  00000000             sll $0, $0, 0
1414	14A0  03E11024             and $2, $31, $1
1415	14A4  AE8200FC             sw $2, 252($20)
1416	                          
1417	14A8  3C01FFFF             lui $1, 65535
1418	14AC  3421FFFF             ori $1, $1, 65535
1419	14B0  3C1B0000             lui $27, 0
1420	14B4  377B0000             ori $27, $27, 0
1421	14B8  00000000             sll $0, $0, 0
1422	14BC  8E9B00CC             lw $27, 204($20)
1423	14C0  00000000             sll $0, $0, 0
1424	14C4  03E11024             and $2, $31, $1
1425	14C8  AE820100             sw $2, 256($20)
1426	                          
1427	14CC  3C01FFFF             lui $1, 65535
1428	14D0  3421FFFF             ori $1, $1, 65535
1429	14D4  3C170000             lui $23, 0
1430	14D8  36F70000             ori $23, $23, 0
1431	14DC  00000000             sll $0, $0, 0
1432	14E0  8E9700CC             lw $23, 204($20)
1433	14E4  00000000             sll $0, $0, 0
1434	14E8  03E11024             and $2, $31, $1
1435	14EC  AE820104             sw $2, 260($20)
1436	                          
1437	14F0  3C01FFFF             lui $1, 65535
1438	14F4  3421FFFF             ori $1, $1, 65535
1439	14F8  3C0F0000             lui $15, 0
1440	14FC  35EF0000             ori $15, $15, 0
1441	1500  00000000             sll $0, $0, 0
1442	1504  8E8F00CC             lw $15, 204($20)
1443	1508  00000000             sll $0, $0, 0
1444	150C  03E11024             and $2, $31, $1
1445	1510  AE820108             sw $2, 264($20)
1446	                          
1447	1514  3C01FFFF             lui $1, 65535
1448	1518  3421FFFF             ori $1, $1, 65535
1449	151C  3C1F0000             lui $31, 0
1450	1520  37FF0000             ori $31, $31, 0
1451	1524  00000000             sll $0, $0, 0
1452	1528  8E9F00CC             lw $31, 204($20)
1453	152C  00000000             sll $0, $0, 0
1454	1530  003F1024             and $2, $1, $31
1455	1534  AE82010C             sw $2, 268($20)
1456	                          
1457	1538  3C01FFFF             lui $1, 65535
1458	153C  3421FFFF             ori $1, $1, 65535
1459	1540  3C1E0000             lui $30, 0
1460	1544  37DE0000             ori $30, $30, 0
1461	1548  00000000             sll $0, $0, 0
1462	154C  8E9F00CC             lw $31, 204($20)
1463	1550  00000000             sll $0, $0, 0
1464	1554  003E1024             and $2, $1, $30
1465	1558  AE820110             sw $2, 272($20)
1466	                          
1467	155C  3C01FFFF             lui $1, 65535
1468	1560  3421FFFF             ori $1, $1, 65535
1469	1564  3C1D0000             lui $29, 0
1470	1568  37BD0000             ori $29, $29, 0
1471	156C  00000000             sll $0, $0, 0
1472	1570  8E9F00CC             lw $31, 204($20)
1473	1574  00000000             sll $0, $0, 0
1474	1578  003D1024             and $2, $1, $29
1475	157C  AE820114             sw $2, 276($20)
1476	                          
1477	1580  3C01FFFF             lui $1, 65535
1478	1584  3421FFFF             ori $1, $1, 65535
1479	1588  3C1B0000             lui $27, 0
1480	158C  377B0000             ori $27, $27, 0
1481	1590  00000000             sll $0, $0, 0
1482	1594  8E9F00CC             lw $31, 204($20)
1483	1598  00000000             sll $0, $0, 0
1484	159C  003B1024             and $2, $1, $27
1485	15A0  AE820118             sw $2, 280($20)
1486	                          
1487	15A4  3C01FFFF             lui $1, 65535
1488	15A8  3421FFFF             ori $1, $1, 65535
1489	15AC  3C170000             lui $23, 0
1490	15B0  36F70000             ori $23, $23, 0
1491	15B4  00000000             sll $0, $0, 0
1492	15B8  8E9F00CC             lw $31, 204($20)
1493	15BC  00000000             sll $0, $0, 0
1494	15C0  00371024             and $2, $1, $23
1495	15C4  AE82011C             sw $2, 284($20)
1496	                          
1497	15C8  3C01FFFF             lui $1, 65535
1498	15CC  3421FFFF             ori $1, $1, 65535
1499	15D0  3C0F0000             lui $15, 0
1500	15D4  35EF0000             ori $15, $15, 0
1501	15D8  00000000             sll $0, $0, 0
1502	15DC  8E9F00CC             lw $31, 204($20)
1503	15E0  00000000             sll $0, $0, 0
1504	15E4  002F1024             and $2, $1, $15
1505	15E8  AE820120             sw $2, 288($20)
1506	                          
1507	15EC  3C01FFFF             lui $1, 65535
1508	15F0  3421FFFF             ori $1, $1, 65535
1509	15F4  3C1E0000             lui $30, 0
1510	15F8  37DE0000             ori $30, $30, 0
1511	15FC  00000000             sll $0, $0, 0
1512	1600  8E9E00CC             lw $30, 204($20)
1513	1604  00000000             sll $0, $0, 0
1514	1608  003F1024             and $2, $1, $31
1515	160C  AE820124             sw $2, 292($20)
1516	                          
1517	1610  3C01FFFF             lui $1, 65535
1518	1614  3421FFFF             ori $1, $1, 65535
1519	1618  3C1D0000             lui $29, 0
1520	161C  37BD0000             ori $29, $29, 0
1521	1620  00000000             sll $0, $0, 0
1522	1624  8E9D00CC             lw $29, 204($20)
1523	1628  00000000             sll $0, $0, 0
1524	162C  003F1024             and $2, $1, $31
1525	1630  AE820128             sw $2, 296($20)
1526	                          
1527	1634  3C01FFFF             lui $1, 65535
1528	1638  3421FFFF             ori $1, $1, 65535
1529	163C  3C1B0000             lui $27, 0
1530	1640  377B0000             ori $27, $27, 0
1531	1644  00000000             sll $0, $0, 0
1532	1648  8E9B00CC             lw $27, 204($20)
1533	164C  00000000             sll $0, $0, 0
1534	1650  003F1024             and $2, $1, $31
1535	1654  AE82012C             sw $2, 300($20)
1536	                          
1537	1658  3C01FFFF             lui $1, 65535
1538	165C  3421FFFF             ori $1, $1, 65535
1539	1660  3C170000             lui $23, 0
1540	1664  36F70000             ori $23, $23, 0
1541	1668  00000000             sll $0, $0, 0
1542	166C  8E9700CC             lw $23, 204($20)
1543	1670  00000000             sll $0, $0, 0
1544	1674  003F1024             and $2, $1, $31
1545	1678  AE820130             sw $2, 304($20)
1546	                          
1547	167C  3C01FFFF             lui $1, 65535
1548	1680  3421FFFF             ori $1, $1, 65535
1549	1684  3C0F0000             lui $15, 0
1550	1688  35EF0000             ori $15, $15, 0
1551	168C  00000000             sll $0, $0, 0
1552	1690  8E8F00CC             lw $15, 204($20)
1553	1694  00000000             sll $0, $0, 0
1554	1698  003F1024             and $2, $1, $31
1555	169C  AE820134             sw $2, 308($20)
1556	                          
1557	                          ;.............comparator hazard.............;
1558	16A0  3C01FFFF             lui $1, 65535
1559	16A4  3421FFFF             ori $1, $1, 65535
1560	16A8  3C1E0000             lui $30, 0
1561	16AC  37DE0000             ori $30, $30, 0
1562	16B0  00000000             sll $0, $0, 0
1563	16B4  8E9F00CC             lw $31, 204($20)
1564	16B8  03C11024             and $2, $30, $1
1565	16BC  AE820138             sw $2, 312($20)
1566	                          
1567	16C0  3C01FFFF             lui $1, 65535
1568	16C4  3421FFFF             ori $1, $1, 65535
1569	16C8  3C1D0000             lui $29, 0
1570	16CC  37BD0000             ori $29, $29, 0
1571	16D0  00000000             sll $0, $0, 0
1572	16D4  8E9F00CC             lw $31, 204($20)
1573	16D8  03A11024             and $2, $29, $1
1574	16DC  AE82013C             sw $2, 316($20)
1575	                          
1576	16E0  3C01FFFF             lui $1, 65535
1577	16E4  3421FFFF             ori $1, $1, 65535
1578	16E8  3C1B0000             lui $27, 0
1579	16EC  377B0000             ori $27, $27, 0
1580	16F0  00000000             sll $0, $0, 0
1581	16F4  8E9F00CC             lw $31, 204($20)
1582	16F8  03611024             and $2, $27, $1
1583	16FC  AE820140             sw $2, 320($20)
1584	                          
1585	1700  3C01FFFF             lui $1, 65535
1586	1704  3421FFFF             ori $1, $1, 65535
1587	1708  3C170000             lui $23, 0
1588	170C  36F70000             ori $23, $23, 0
1589	1710  00000000             sll $0, $0, 0
1590	1714  8E9F00CC             lw $31, 204($20)
1591	1718  02E11024             and $2, $23, $1
1592	171C  AE820144             sw $2, 324($20)
1593	                          
1594	1720  3C01FFFF             lui $1, 65535
1595	1724  3421FFFF             ori $1, $1, 65535
1596	1728  3C0F0000             lui $15, 0
1597	172C  35EF0000             ori $15, $15, 0
1598	1730  00000000             sll $0, $0, 0
1599	1734  8E9F00CC             lw $31, 204($20)
1600	1738  01E11024             and $2, $15, $1
1601	173C  AE820148             sw $2, 328($20)
1602	                          
1603	1740  3C01FFFF             lui $1, 65535
1604	1744  3421FFFF             ori $1, $1, 65535
1605	1748  3C1E0000             lui $30, 0
1606	174C  37DE0000             ori $30, $30, 0
1607	1750  00000000             sll $0, $0, 0
1608	1754  8E9E00CC             lw $30, 204($20)
1609	1758  03E11024             and $2, $31, $1
1610	175C  AE82014C             sw $2, 332($20)
1611	                          
1612	1760  3C01FFFF             lui $1, 65535
1613	1764  3421FFFF             ori $1, $1, 65535
1614	1768  3C1D0000             lui $29, 0
1615	176C  37BD0000             ori $29, $29, 0
1616	1770  00000000             sll $0, $0, 0
1617	1774  8E9D00CC             lw $29, 204($20)
1618	1778  03E11024             and $2, $31, $1
1619	177C  AE820150             sw $2, 336($20)
1620	                          
1621	1780  3C01FFFF             lui $1, 65535
1622	1784  3421FFFF             ori $1, $1, 65535
1623	1788  3C1B0000             lui $27, 0
1624	178C  377B0000             ori $27, $27, 0
1625	1790  00000000             sll $0, $0, 0
1626	1794  8E9B00CC             lw $27, 204($20)
1627	1798  03E11024             and $2, $31, $1
1628	179C  AE820154             sw $2, 340($20)
1629	                          
1630	17A0  3C01FFFF             lui $1, 65535
1631	17A4  3421FFFF             ori $1, $1, 65535
1632	17A8  3C170000             lui $23, 0
1633	17AC  36F70000             ori $23, $23, 0
1634	17B0  00000000             sll $0, $0, 0
1635	17B4  8E9700CC             lw $23, 204($20)
1636	17B8  03E11024             and $2, $31, $1
1637	17BC  AE820158             sw $2, 344($20)
1638	                          
1639	17C0  3C01FFFF             lui $1, 65535
1640	17C4  3421FFFF             ori $1, $1, 65535
1641	17C8  3C0F0000             lui $15, 0
1642	17CC  35EF0000             ori $15, $15, 0
1643	17D0  00000000             sll $0, $0, 0
1644	17D4  8E8F00CC             lw $15, 204($20)
1645	17D8  03E11024             and $2, $31, $1
1646	17DC  AE82015C             sw $2, 348($20)
1647	                          
1648	                          ;........co-co_processor registers........;
1649	17E0  3C1D0001            lui $29, 1
1650	17E4  37BD157C            ori $29, $29, 5500
1651	                          
1652	17E8  0C001D89            jal reset_offsets
1653	17EC  0C001D9F            jal init_cp
1654	                          cop0_register:
1655	17F0  3C01FFFF             lui $1, 65535
1656	17F4  3421FFFF             ori $1, $1, 65535
1657	17F8  40814000             mtc0 $1, $8
1658	17FC  40816000             mtc0 $1, $12
1659	1800  40816800             mtc0 $1, $13
1660	1804  40817000             mtc0 $1, $14
1661	1808  40817800             mtc0 $1, $15
1662	180C  40081000             mfc0 $2, $8
1663	1810  00000000             sll $0, $0, 0
1664	1814  AFA20000             sw $2, 0($29)
1665	1818  40804000             mtc0 $0, $8
1666	181C  400C1000             mfc0 $2, $12
1667	1820  00000000             sll $0, $0, 0
1668	1824  AFA20004             sw $2, 4($29)
1669	1828  40806000             mtc0 $0, $12
1670	182C  400D1800             mfc0 $3, $13
1671	1830  00000000             sll $0, $0, 0
1672	1834  AFA30008             sw $3, 8($29)
1673	1838  40806800             mtc0 $0, $13
1674	183C  400E2000             mfc0 $4, $14
1675	1840  00000000             sll $0, $0, 0
1676	1844  AFA4000C             sw $4, 12($29)
1677	1848  40807000             mtc0 $0, $14
1678	184C  400F2800             mfc0 $5, $15
1679	1850  00000000             sll $0, $0, 0
1680	1854  AFA50010             sw $5, 16($29)
1681	1858  40807800             mtc0 $0, $15
1682	185C  40083000             mfc0 $6, $8
1683	1860  00000000             sll $0, $0, 0
1684	1864  AFA60014             sw $6, 20($29)
1685	1868  40814000             mtc0 $1, $8
1686	186C  40083800             mfc0 $7, $8
1687	1870  00000000             sll $0, $0, 0
1688	1874  AFA70018             sw $7, 24($29)
1689	1878  400C3000             mfc0 $6, $12
1690	187C  00000000             sll $0, $0, 0
1691	1880  AFA6001C             sw $6, 28($29)
1692	1884  40816000             mtc0 $1, $12
1693	1888  400C3800             mfc0 $7, $12
1694	188C  00000000             sll $0, $0, 0
1695	1890  AFA70020             sw $7, 32($29)
1696	1894  400D4000             mfc0 $8, $13
1697	1898  00000000             sll $0, $0, 0
1698	189C  AFA80024             sw $8, 36($29)
1699	18A0  40816800             mtc0 $1, $13
1700	18A4  400D4800             mfc0 $9, $13
1701	18A8  00000000             sll $0, $0, 0
1702	18AC  AFA90028             sw $9, 40($29)
1703	18B0  400E5000             mfc0 $10, $14
1704	18B4  00000000             sll $0, $0, 0
1705	18B8  AFAA002C             sw $10, 44($29)
1706	18BC  40817000             mtc0 $1, $14
1707	18C0  400E5800             mfc0 $11, $14
1708	18C4  00000000             sll $0, $0, 0
1709	18C8  AFAB0030             sw $11, 48($29)
1710	18CC  400F8000             mfc0 $16, $15
1711	18D0  00000000             sll $0, $0, 0
1712	18D4  AFB00034             sw $16, 52($29)
1713	18D8  40817800             mtc0 $1, $15
1714	18DC  400F8800             mfc0 $17, $15
1715	18E0  00000000             sll $0, $0, 0
1716	18E4  AFB10038             sw $17, 56($29)
1717	                          
1718	                          ;........coprocessor mirror........;
1719	18E8  3C01FFFF             lui $1, 65535
1720	18EC  3421FFFF             ori $1, $1, 65535
1721	18F0  40804000             mtc0 $0, $8
1722	18F4  40806000             mtc0 $0, $12
1723	18F8  40806800             mtc0 $0, $13
1724	18FC  40807000             mtc0 $0, $14
1725	1900  40807800             mtc0 $0, $15
1726	1904  40081000             mfc0 $2, $8
1727	1908  00000000             sll $0, $0, 0
1728	190C  AFA2003C             sw $2, 60($29)
1729	1910  40814000             mtc0 $1, $8
1730	1914  400C1000             mfc0 $2, $12
1731	1918  00000000             sll $0, $0, 0
1732	191C  AFA20040             sw $2, 64($29)
1733	1920  40816000             mtc0 $1, $12
1734	1924  400D1800             mfc0 $3, $13
1735	1928  00000000             sll $0, $0, 0
1736	192C  AFA30044             sw $3, 68($29)
1737	1930  40816800             mtc0 $1, $13
1738	1934  400E2000             mfc0 $4, $14
1739	1938  00000000             sll $0, $0, 0
1740	193C  AFA40048             sw $4, 72($29)
1741	1940  40817000             mtc0 $1, $14
1742	1944  400F2800             mfc0 $5, $15
1743	1948  00000000             sll $0, $0, 0
1744	194C  AFA5004C             sw $5, 76($29)
1745	1950  40817800             mtc0 $1, $15
1746	1954  40083000             mfc0 $6, $8
1747	1958  00000000             sll $0, $0, 0
1748	195C  AFA60050             sw $6, 80($29)
1749	1960  40804000             mtc0 $0, $8
1750	1964  40083800             mfc0 $7, $8
1751	1968  00000000             sll $0, $0, 0
1752	196C  AFA70054             sw $7, 84($29)
1753	1970  400C3000             mfc0 $6, $12
1754	1974  00000000             sll $0, $0, 0
1755	1978  AFA60058             sw $6, 88($29)
1756	197C  40806000             mtc0 $0, $12
1757	1980  400C3800             mfc0 $7, $12
1758	1984  00000000             sll $0, $0, 0
1759	1988  AFA7005C             sw $7, 92($29)
1760	198C  400D4000             mfc0 $8, $13
1761	1990  00000000             sll $0, $0, 0
1762	1994  AFA80060             sw $8, 96($29)
1763	1998  40806800             mtc0 $0, $13
1764	199C  400D4800             mfc0 $9, $13
1765	19A0  00000000             sll $0, $0, 0
1766	19A4  AFA90064             sw $9, 100($29)
1767	19A8  400E5000             mfc0 $10, $14
1768	19AC  00000000             sll $0, $0, 0
1769	19B0  AFAA0068             sw $10, 104($29)
1770	19B4  40807000             mtc0 $0, $14
1771	19B8  400E5800             mfc0 $11, $14
1772	19BC  00000000             sll $0, $0, 0
1773	19C0  AFAB006C             sw $11, 108($29)
1774	19C4  400F8000             mfc0 $16, $15
1775	19C8  AFB00070             sw $16, 112($29)
1776	19CC  40807800             mtc0 $0, $15
1777	19D0  400F8800             mfc0 $17, $15
1778	19D4  AFB10074             sw $17, 116($29)
1779	                          
1780	                          ;........other test........;
1781	                          ;........reset $26 back for branch loops........;
1782	19D8  3C1A0000            lui $26, 0
1783	19DC  375A00C2            ori $26, $26, 194
1784	                          ;........reset $28 back for other test loops........;
1785	19E0  3C1C0000            lui $28, 0
1786	19E4  379C0080            ori $28, $28, 128
1787	                          ;........set memory location for signature........;
1788	19E8  3C1D0001            lui $29, 1
1789	19EC  37BD1770            ori $29, $29, 6000
1790	                          
1791	19F0  0C001D89            jal reset_offsets
1792	19F4  0C002466            jal init_patterns
1793	19F8  0C0025EA            jal init_branch
1794	                          
1795	19FC  0C001D89            jal reset_offsets
1796	1A00  0C001D9F            jal init_cp
1797	                          operation_add_sub:
1798	1A04  0C001D86             jal load_patterns
1799	1A08  01F09020             add $18, $15, $16
1800	1A0C  01F09022             sub $18, $15, $16
1801	1A10  01F09822             sub $19, $15, $16
1802	1A14  01F09820             add $19, $15, $16
1803	1A18  0C001D9C             jal store
1804	1A1C  0C001D91             jal increment_offset
1805	1A20  177CFFF9             bne $27, $28, operation_add_sub
1806	                          
1807	1A24  0C001D89            jal reset_offsets
1808	1A28  0C001D9F            jal init_cp
1809	                          operation_add_addu:
1810	1A2C  0C001D86             jal load_patterns
1811	1A30  01F09020             add $18, $15, $16
1812	1A34  01F09021             addu $18, $15, $16
1813	1A38  01F09821             addu $19, $15, $16
1814	1A3C  01F09820             add $19, $15, $16
1815	1A40  0C001D9C             jal store
1816	1A44  0C001D91             jal increment_offset
1817	1A48  177CFFF9             bne $27, $28, operation_add_addu
1818	                          
1819	1A4C  0C001D89            jal reset_offsets
1820	1A50  0C001D9F            jal init_cp
1821	                          operation_addu_add:
1822	1A54  0C001D86             jal load_patterns
1823	1A58  01F09021             addu $18, $15, $16
1824	1A5C  01F09020             add $18, $15, $16
1825	1A60  01F09820             add $19, $15, $16
1826	1A64  01F09821             addu $19, $15, $16
1827	1A68  0C001D9C             jal store
1828	1A6C  0C001D91             jal increment_offset
1829	1A70  177CFFF9             bne $27, $28, operation_addu_add
1830	                          
1831	1A74  0C001D89            jal reset_offsets
1832	1A78  0C001D9F            jal init_cp
1833	                          operation_addu_sub:
1834	1A7C  0C001D86             jal load_patterns
1835	1A80  01F09021             addu $18, $15, $16
1836	1A84  01F09022             sub $18, $15, $16
1837	1A88  01F09822             sub $19, $15, $16
1838	1A8C  01F09821             addu $19, $15, $16
1839	1A90  0C001D9C             jal store
1840	1A94  0C001D91             jal increment_offset
1841	1A98  177CFFF9             bne $27, $28, operation_addu_sub
1842	                          
1843	1A9C  0C001D89            jal reset_offsets
1844	1AA0  0C001D9F            jal init_cp
1845	                          operation_sub_addu:
1846	1AA4  0C001D86             jal load_patterns
1847	1AA8  01F09022             sub $18, $15, $16
1848	1AAC  01F09021             addu $18, $15, $16
1849	1AB0  01F09821             addu $19, $15, $16
1850	1AB4  01F09822             sub $19, $15, $16
1851	1AB8  0C001D9C             jal store
1852	1ABC  0C001D91             jal increment_offset
1853	1AC0  177CFFF9             bne $27, $28, operation_sub_addu
1854	                          
1855	1AC4  0C001D89            jal reset_offsets
1856	1AC8  0C001D9F            jal init_cp
1857	                          operation_sub_subu:
1858	1ACC  0C001D86             jal load_patterns
1859	1AD0  01F09022             sub $18, $15, $16
1860	1AD4  01F09023             subu $18, $15, $16
1861	1AD8  01F09823             subu $19, $15, $16
1862	1ADC  01F09822             sub $19, $15, $16
1863	1AE0  0C001D9C             jal store
1864	1AE4  0C001D91             jal increment_offset
1865	1AE8  177CFFF9             bne $27, $28, operation_sub_subu
1866	                          
1867	1AEC  0C001D89            jal reset_offsets
1868	1AF0  0C001D9F            jal init_cp
1869	                          operation_subu_sub:
1870	1AF4  0C001D86             jal load_patterns
1871	1AF8  01F09023             subu $18, $15, $16
1872	1AFC  01F09022             sub $18, $15, $16
1873	1B00  01F09822             sub $19, $15, $16
1874	1B04  01F09823             subu $19, $15, $16
1875	1B08  0C001D9C             jal store
1876	1B0C  0C001D91             jal increment_offset
1877	1B10  177CFFF9             bne $27, $28, operation_subu_sub
1878	                          
1879	1B14  0C001D89            jal reset_offsets
1880	1B18  0C001D9F            jal init_cp
1881	                          operation_subu_and:
1882	1B1C  0C001D86             jal load_patterns
1883	1B20  01F09023             subu $18, $15, $16
1884	1B24  01F09024             and $18, $15, $16
1885	1B28  01F09824             and $19, $15, $16
1886	1B2C  01F09823             subu $19, $15, $16
1887	1B30  0C001D9C             jal store
1888	1B34  0C001D91             jal increment_offset
1889	1B38  177CFFF9             bne $27, $28, operation_subu_and
1890	                          
1891	1B3C  0C001D89            jal reset_offsets
1892	1B40  0C001D9F            jal init_cp
1893	                          operation_and_subu:
1894	1B44  0C001D86             jal load_patterns
1895	1B48  01F09024             and $18, $15, $16
1896	1B4C  01F09023             subu $18, $15, $16
1897	1B50  01F09823             subu $19, $15, $16
1898	1B54  01F09824             and $19, $15, $16
1899	1B58  0C001D9C             jal store
1900	1B5C  0C001D91             jal increment_offset
1901	1B60  177CFFF9             bne $27, $28, operation_and_subu
1902	                          
1903	1B64  0C001D89            jal reset_offsets
1904	1B68  0C001D9F            jal init_cp
1905	                          operation_and_or:
1906	1B6C  0C001D86             jal load_patterns
1907	1B70  01F09024             and $18, $15, $16
1908	1B74  01F09025             or $18, $15, $16
1909	1B78  01F09825             or $19, $15, $16
1910	1B7C  01F09824             and $19, $15, $16
1911	1B80  0C001D9C             jal store
1912	1B84  0C001D91             jal increment_offset
1913	1B88  177CFFF9             bne $27, $28, operation_and_or
1914	                          
1915	1B8C  0C001D89            jal reset_offsets
1916	1B90  0C001D9F            jal init_cp
1917	                          operation_or_and:
1918	1B94  0C001D86             jal load_patterns
1919	1B98  01F09025             or $18, $15, $16
1920	1B9C  01F09024             and $18, $15, $16
1921	1BA0  01F09824             and $19, $15, $16
1922	1BA4  01F09825             or $19, $15, $16
1923	1BA8  0C001D9C             jal store
1924	1BAC  0C001D91             jal increment_offset
1925	1BB0  177CFFF9             bne $27, $28, operation_or_and
1926	                          
1927	1BB4  0C001D89            jal reset_offsets
1928	1BB8  0C001D9F            jal init_cp
1929	                          operation_or_xor:
1930	1BBC  0C001D86             jal load_patterns
1931	1BC0  01F09025             or $18, $15, $16
1932	1BC4  01F09026             xor $18, $15, $16
1933	1BC8  01F09826             xor $19, $15, $16
1934	1BCC  01F09825             or $19, $15, $16
1935	1BD0  0C001D9C             jal store
1936	1BD4  0C001D91             jal increment_offset
1937	1BD8  177CFFF9             bne $27, $28, operation_or_xor
1938	                          
1939	1BDC  0C001D89            jal reset_offsets
1940	1BE0  0C001D9F            jal init_cp
1941	                          operation_xor_or:
1942	1BE4  0C001D86             jal load_patterns
1943	1BE8  01F09026             xor $18, $15, $16
1944	1BEC  01F09025             or $18, $15, $16
1945	1BF0  01F09825             or $19, $15, $16
1946	1BF4  01F09826             xor $19, $15, $16
1947	1BF8  0C001D9C             jal store
1948	1BFC  0C001D91             jal increment_offset
1949	1C00  177CFFF9             bne $27, $28, operation_xor_or
1950	                          
1951	1C04  0C001D89            jal reset_offsets
1952	1C08  0C001D9F            jal init_cp
1953	                          operation_xor_nor:
1954	1C0C  0C001D86             jal load_patterns
1955	1C10  01F09026             xor $18, $15, $16
1956	1C14  01F09027             nor $18, $15, $16
1957	1C18  01F09827             nor $19, $15, $16
1958	1C1C  01F09826             xor $19, $15, $16
1959	1C20  0C001D9C             jal store
1960	1C24  0C001D91             jal increment_offset
1961	1C28  177CFFF9             bne $27, $28, operation_xor_nor
1962	                          
1963	1C2C  0C001D89            jal reset_offsets
1964	1C30  0C001D9F            jal init_cp
1965	                          operation_nor_xor:
1966	1C34  0C001D86             jal load_patterns
1967	1C38  01F09027             nor $18, $15, $16
1968	1C3C  01F09026             xor $18, $15, $16
1969	1C40  01F09826             xor $19, $15, $16
1970	1C44  01F09827             nor $19, $15, $16
1971	1C48  0C001D9C             jal store
1972	1C4C  0C001D91             jal increment_offset
1973	1C50  177CFFF9             bne $27, $28, operation_nor_xor
1974	                          
1975	1C54  0C001D89            jal reset_offsets
1976	1C58  0C001D9F            jal init_cp
1977	                          operation_nor_or:
1978	1C5C  0C001D86             jal load_patterns
1979	1C60  01F09027             nor $18, $15, $16
1980	1C64  01F09025             or $18, $15, $16
1981	1C68  01F09825             or $19, $15, $16
1982	1C6C  01F09827             nor $19, $15, $16
1983	1C70  0C001D9C             jal store
1984	1C74  0C001D91             jal increment_offset
1985	1C78  177CFFF9             bne $27, $28, operation_nor_or
1986	                          
1987	1C7C  0C001D89            jal reset_offsets
1988	1C80  0C001D9F            jal init_cp
1989	                          operation_slt_sltu:
1990	1C84  0C001D86             jal load_patterns
1991	1C88  01F0902A             slt $18, $15, $16
1992	1C8C  01F0902B             sltu $18, $15, $16
1993	1C90  01F0982B             sltu $19, $15, $16
1994	1C94  01F0982A             slt $19, $15, $16
1995	1C98  0C001D9C             jal store
1996	1C9C  0C001D91             jal increment_offset
1997	1CA0  177CFFF9             bne $27, $28, operation_slt_sltu
1998	                          
1999	1CA4  0C001D89            jal reset_offsets
2000	1CA8  0C001D9F            jal init_cp
2001	                          operation_sltu_slt:
2002	1CAC  0C001D86             jal load_patterns
2003	1CB0  01F0902B             sltu $18, $15, $16
2004	1CB4  01F0902A             slt $18, $15, $16
2005	1CB8  01F0982A             slt $19, $15, $16
2006	1CBC  01F0982B             sltu $19, $15, $16
2007	1CC0  0C001D9C             jal store
2008	1CC4  0C001D91             jal increment_offset
2009	1CC8  177CFFF9             bne $27, $28, operation_sltu_slt
2010	                          
2011	1CCC  0C001D89            jal reset_offsets
2012	1CD0  0C001D9F            jal init_cp
2013	                          operation_sll_sra:
2014	1CD4  0C001D86             jal load_patterns
2015	1CD8  000F9140             sll $18 ,$15, 5
2016	1CDC  000F9143             sra $18 ,$15, 5
2017	1CE0  000F9943             sra $19, $15, 5
2018	1CE4  000F9940             sll $19 ,$15, 5
2019	1CE8  AFB20000             sw $18, 0($29)
2020	1CEC  AFB30004             sw $19, 4($29)
2021	1CF0  0C001D91             jal increment_offset
2022	1CF4  177CFFF8             bne $27, $28, operation_sll_sra
2023	                          
2024	1CF8  0C001D89            jal reset_offsets
2025	1CFC  0C001D9F            jal init_cp
2026	                          operation_sll_srl:
2027	1D00  0C001D86             jal load_patterns
2028	1D04  000F9140             sll $18 ,$15, 5
2029	1D08  000F9142             srl $18 ,$15, 5
2030	1D0C  000F9942             srl $19, $15, 5
2031	1D10  000F9940             sll $19 ,$15, 5
2032	1D14  AFB20000             sw $18, 0($29)
2033	1D18  AFB30004             sw $19, 4($29)
2034	1D1C  0C001D91             jal increment_offset
2035	1D20  177CFFF8             bne $27, $28, operation_sll_srl
2036	                          
2037	1D24  0C001D89            jal reset_offsets
2038	1D28  0C001D9F            jal init_cp
2039	                          operation_srl_sllv:
2040	1D2C  0C001D86             jal load_patterns
2041	1D30  000F9142             srl $18 ,$15, 5
2042	1D34  020F9004             sllv $18, $15, $16
2043	1D38  020F9804             sllv $19, $15, $16
2044	1D3C  000F9942             srl $19 ,$15, 5
2045	1D40  AFB20000             sw $18, 0($29)
2046	1D44  AFB30004             sw $19, 4($29)
2047	1D48  0C001D91             jal increment_offset
2048	1D4C  177CFFF8             bne $27, $28, operation_srl_sllv
2049	                          
2050	1D50  0C001D89            jal reset_offsets
2051	1D54  0C001D9F            jal init_cp
2052	                          operation_srl_sra:
2053	1D58  0C001D86             jal load_patterns
2054	1D5C  000F9142             srl $18 ,$15, 5
2055	1D60  000F9143             sra $18 ,$15, 5
2056	1D64  000F9943             sra $19, $15, 5
2057	1D68  000F9942             srl $19 ,$15, 5
2058	1D6C  AFB20000             sw $18, 0($29)
2059	1D70  AFB30004             sw $19, 4($29)
2060	1D74  0C001D91             jal increment_offset
2061	1D78  177CFFF8             bne $27, $28, operation_srl_sra
2062	                          
2063	1D7C  0C001D89            jal reset_offsets
2064	1D80  0C001D9F            jal init_cp
2065	                          operation_sra_srl:
2066	1D84  0C001D86             jal load_patterns
2067	1D88  000F9143             sra $18 ,$15, 5
2068	1D8C  000F9142             srl $18 ,$15, 5
2069	1D90  000F9942             srl $19, $15, 5
2070	1D94  000F9943             sra $19 ,$15, 5
2071	1D98  AFB20000             sw $18, 0($29)
2072	1D9C  AFB30004             sw $19, 4($29)
2073	1DA0  0C001D91             jal increment_offset
2074	1DA4  177CFFF8             bne $27, $28, operation_sra_srl
2075	                          
2076	1DA8  0C001D89            jal reset_offsets
2077	1DAC  0C001D9F            jal init_cp
2078	                          operation_sra_sllv:
2079	1DB0  0C001D86             jal load_patterns
2080	1DB4  000F9143             sra $18 ,$15, 5
2081	1DB8  020F9004             sllv $18, $15, $16
2082	1DBC  020F9804             sllv $19, $15, $16
2083	1DC0  000F9943             sra $19 ,$15, 5
2084	1DC4  AFB20000             sw $18, 0($29)
2085	1DC8  AFB30004             sw $19, 4($29)
2086	1DCC  0C001D91             jal increment_offset
2087	1DD0  177CFFF8             bne $27, $28, operation_sra_sllv
2088	                          
2089	1DD4  0C001D89            jal reset_offsets
2090	1DD8  0C001D9F            jal init_cp
2091	                          operation_sllv_sra:
2092	1DDC  0C001D86             jal load_patterns
2093	1DE0  020F9004             sllv $18, $15, $16
2094	1DE4  000F9143             sra $18 ,$15, 5
2095	1DE8  000F9943             sra $19, $15, 5
2096	1DEC  020F9804             sllv $19, $15, $16
2097	1DF0  0C001D9C             jal store
2098	1DF4  0C001D91             jal increment_offset
2099	1DF8  177CFFF9             bne $27, $28, operation_sllv_sra
2100	                          
2101	1DFC  0C001D89            jal reset_offsets
2102	1E00  0C001D9F            jal init_cp
2103	                          operation_sllv_srl:
2104	1E04  0C001D86             jal load_patterns
2105	1E08  020F9004             sllv $18, $15, $16
2106	1E0C  000F9142             srl $18 ,$15, 5
2107	1E10  000F9942             srl $19, $15, 5
2108	1E14  020F9804             sllv $19, $15, $16
2109	1E18  0C001D9C             jal store
2110	1E1C  0C001D91             jal increment_offset
2111	1E20  177CFFF9             bne $27, $28, operation_sllv_srl
2112	                          
2113	1E24  0C001D89            jal reset_offsets
2114	1E28  0C001D9F            jal init_cp
2115	                          operation_srlv_srav:
2116	1E2C  0C001D86             jal load_patterns
2117	1E30  020F9006             srlv $18, $15, $16
2118	1E34  020F9007             srav $18, $15, $16
2119	1E38  020F9807             srav $19, $15, $16
2120	1E3C  020F9806             srlv $19, $15, $16
2121	1E40  0C001D9C             jal store
2122	1E44  0C001D91             jal increment_offset
2123	1E48  177CFFF9             bne $27, $28, operation_srlv_srav
2124	                          
2125	1E4C  0C001D89            jal reset_offsets
2126	1E50  0C001D9F            jal init_cp
2127	                          operation_srav_srlv:
2128	1E54  0C001D86             jal load_patterns
2129	1E58  020F9007             srav $18, $15, $16
2130	1E5C  020F9006             srlv $18, $15, $16
2131	1E60  020F9806             srlv $19, $15, $16
2132	1E64  020F9807             srav $19, $15, $16
2133	1E68  0C001D9C             jal store
2134	1E6C  0C001D91             jal increment_offset
2135	1E70  177CFFF9             bne $27, $28, operation_srav_srlv
2136	                          
2137	1E74  0C001D89            jal reset_offsets
2138	1E78  0C001D8E            jal reset_hi_lo
2139	                          operation_mfhi_mflo:
2140	1E7C  0C001D86             jal load_patterns
2141	1E80  01E00013             mtlo $15
2142	1E84  01E00011             mthi $15
2143	1E88  00009010             mfhi $18
2144	1E8C  00009012             mflo $18
2145	1E90  00009812             mflo $19
2146	1E94  00009810             mfhi $19
2147	1E98  0C001D9C             jal store
2148	1E9C  0C001D91             jal increment_offset
2149	1EA0  177CFFF7             bne $27, $28, operation_mfhi_mflo
2150	                          
2151	1EA4  0C001D89            jal reset_offsets
2152	1EA8  0C001D8E            jal reset_hi_lo
2153	                          operation_mfhi_mthi:
2154	1EAC  0C001D86             jal load_patterns
2155	1EB0  01E00013             mtlo $15
2156	1EB4  01E00011             mthi $15
2157	1EB8  00009010             mfhi $18
2158	1EBC  02400011             mthi $18
2159	1EC0  02600011             mthi $19
2160	1EC4  00009810             mfhi $19
2161	1EC8  0C001D9C             jal store
2162	1ECC  0C001D91             jal increment_offset
2163	1ED0  177CFFF7             bne $27, $28, operation_mfhi_mthi
2164	                          
2165	1ED4  0C001D89            jal reset_offsets
2166	1ED8  0C001D9F            jal init_cp
2167	                          operation_mthi_mfhi:
2168	1EDC  0C001D86             jal load_patterns
2169	1EE0  01E00011             mthi $15
2170	1EE4  00007810             mfhi $15
2171	1EE8  00008010             mfhi $16
2172	1EEC  02000011             mthi $16
2173	1EF0  00009010             mfhi $18
2174	1EF4  00009812             mflo $19
2175	1EF8  0C001D9C             jal store
2176	1EFC  0C001D91             jal increment_offset
2177	1F00  177CFFF7             bne $27, $28, operation_mthi_mfhi
2178	                          
2179	1F04  0C001D89            jal reset_offsets
2180	1F08  0C001D9F            jal init_cp
2181	                          operation_mthi_mflo:
2182	1F0C  0C001D86             jal load_patterns
2183	1F10  01E00011             mthi $15
2184	1F14  00007812             mflo $15
2185	1F18  00008012             mflo $16
2186	1F1C  02000011             mthi $16
2187	1F20  00009010             mfhi $18
2188	1F24  00009812             mflo $19
2189	1F28  0C001D9C             jal store
2190	1F2C  0C001D91             jal increment_offset
2191	1F30  177CFFF7             bne $27, $28, operation_mthi_mflo
2192	                          
2193	1F34  0C001D89            jal reset_offsets
2194	1F38  0C001D8E            jal reset_hi_lo
2195	                          operation_mflo_mthi:
2196	1F3C  0C001D86             jal load_patterns
2197	1F40  01E00013             mtlo $15
2198	1F44  01E00011             mthi $15
2199	1F48  00009012             mflo $18
2200	1F4C  02400011             mthi $18
2201	1F50  02600011             mthi $19
2202	1F54  00009812             mflo $19
2203	1F58  0C001D9C             jal store
2204	1F5C  0C001D91             jal increment_offset
2205	1F60  177CFFF7             bne $27, $28, operation_mflo_mthi
2206	                          
2207	1F64  0C001D89            jal reset_offsets
2208	1F68  0C001D8E            jal reset_hi_lo
2209	                          operation_mflo_mtlo:
2210	1F6C  0C001D86             jal load_patterns
2211	1F70  01E00013             mtlo $15
2212	1F74  01E00011             mthi $15
2213	1F78  00009012             mflo $18
2214	1F7C  02400013             mtlo $18
2215	1F80  02600013             mtlo $19
2216	1F84  00009812             mflo $19
2217	1F88  0C001D9C             jal store
2218	1F8C  0C001D91             jal increment_offset
2219	1F90  177CFFF7             bne $27, $28, operation_mflo_mtlo
2220	                          
2221	1F94  0C001D89            jal reset_offsets
2222	1F98  0C001D9F            jal init_cp
2223	                          operation_mtlo_mflo:
2224	1F9C  0C001D86             jal load_patterns
2225	1FA0  01E00013             mtlo $15
2226	1FA4  00007812             mflo $15
2227	1FA8  00008012             mflo $16
2228	1FAC  02000013             mtlo $16
2229	1FB0  00009010             mfhi $18
2230	1FB4  00009812             mflo $19
2231	1FB8  0C001D9C             jal store
2232	1FBC  0C001D91             jal increment_offset
2233	1FC0  177CFFF7             bne $27, $28, operation_mtlo_mflo
2234	                          
2235	1FC4  0C001D89            jal reset_offsets
2236	1FC8  0C001D9F            jal init_cp
2237	                          operation_mtlo_mthi:
2238	1FCC  0C001D86             jal load_patterns
2239	1FD0  01E00013             mtlo $15
2240	1FD4  01E00011             mthi $15
2241	1FD8  02000011             mthi $16
2242	1FDC  02000013             mtlo $16
2243	1FE0  00009010             mfhi $18
2244	1FE4  00009812             mflo $19
2245	1FE8  0C001D9C             jal store
2246	1FEC  0C001D91             jal increment_offset
2247	1FF0  177CFFF7             bne $27, $28, operation_mtlo_mthi
2248	                          
2249	1FF4  0C001D89            jal reset_offsets
2250	1FF8  0C001D9F            jal init_cp
2251	                          operation_mult_multu:
2252	1FFC  0C001D86             jal load_patterns
2253	2000  01F00018             mult $15, $16
2254	2004  01F00019             multu $15, $16
2255	2008  01F00019             multu $15, $16
2256	200C  01F00018             mult $15, $16
2257	2010  00009010             mfhi $18
2258	2014  00009812             mflo $19
2259	2018  0C001D9C             jal store
2260	201C  0C001D91             jal increment_offset
2261	2020  177CFFF7             bne $27, $28, operation_mult_multu
2262	                          
2263	2024  0C001D89            jal reset_offsets
2264	2028  0C001D9F            jal init_cp
2265	                          operation_multu_mult:
2266	202C  0C001D86             jal load_patterns
2267	2030  01F00019             multu $15, $16
2268	2034  01F00018             mult $15, $16
2269	2038  01F00018             mult $15, $16
2270	203C  01F00019             multu $15, $16
2271	2040  00009010             mfhi $18
2272	2044  00009812             mflo $19
2273	2048  0C001D9C             jal store
2274	204C  0C001D91             jal increment_offset
2275	2050  177CFFF7             bne $27, $28, operation_multu_mult
2276	                          
2277	2054  0C001D89            jal reset_offsets
2278	2058  0C001D9F            jal init_cp
2279	                          operation_addi_ori:
2280	205C  0C001D86             jal load_patterns
2281	2060  21F2C9F5             addi $18, $15, 51701
2282	2064  35F2C9F5             ori $18, $15, 51701
2283	2068  35F3C9F5             ori $19, $15, 51701
2284	206C  21F3C9F5             addi $19, $15, 51701
2285	2070  0C001D9C             jal store
2286	2074  0C001D91             jal increment_offset
2287	2078  0C001D86             jal load_patterns
2288	207C  21F23471             addi $18, $15, 13425
2289	2080  35F23471             ori $18, $15, 13425
2290	2084  35F33471             ori $19, $15, 13425
2291	2088  21F33471             addi $19, $15, 13425
2292	208C  0C001D9C             jal store
2293	2090  0C001D91             jal increment_offset
2294	2094  0C001D86             jal load_patterns
2295	2098  21F210BD             addi $18, $15, 4285
2296	209C  35F210BD             ori $18, $15, 4285
2297	20A0  35F310BD             ori $19, $15, 4285
2298	20A4  21F310BD             addi $19, $15, 4285
2299	20A8  0C001D9C             jal store
2300	20AC  0C001D91             jal increment_offset
2301	20B0  0C001D86             jal load_patterns
2302	20B4  21F2B496             addi $18, $15, 46230
2303	20B8  35F2B496             ori $18, $15, 46230
2304	20BC  35F3B496             ori $19, $15, 46230
2305	20C0  21F3B496             addi $19, $15, 46230
2306	20C4  0C001D9C             jal store
2307	20C8  0C001D91             jal increment_offset
2308	20CC  0C001D86             jal load_patterns
2309	20D0  21F25773             addi $18, $15, 22387
2310	20D4  35F25773             ori $18, $15, 22387
2311	20D8  35F35773             ori $19, $15, 22387
2312	20DC  21F35773             addi $19, $15, 22387
2313	20E0  0C001D9C             jal store
2314	20E4  0C001D91             jal increment_offset
2315	20E8  0C001D86             jal load_patterns
2316	20EC  21F2496F             addi $18, $15, 18799
2317	20F0  35F2496F             ori $18, $15, 18799
2318	20F4  35F3496F             ori $19, $15, 18799
2319	20F8  21F3496F             addi $19, $15, 18799
2320	20FC  0C001D9C             jal store
2321	2100  0C001D91             jal increment_offset
2322	2104  0C001D86             jal load_patterns
2323	2108  21F2C2E1             addi $18, $15, 49889
2324	210C  35F2C2E1             ori $18, $15, 49889
2325	2110  35F3C2E1             ori $19, $15, 49889
2326	2114  21F3C2E1             addi $19, $15, 49889
2327	2118  0C001D9C             jal store
2328	211C  0C001D91             jal increment_offset
2329	2120  0C001D86             jal load_patterns
2330	2124  21F28CB7             addi $18, $15, 36023
2331	2128  35F28CB7             ori $18, $15, 36023
2332	212C  35F38CB7             ori $19, $15, 36023
2333	2130  21F38CB7             addi $19, $15, 36023
2334	2134  0C001D9C             jal store
2335	2138  0C001D91             jal increment_offset
2336	213C  0C001D86             jal load_patterns
2337	2140  21F2356A             addi $18, $15, 13674
2338	2144  35F2356A             ori $18, $15, 13674
2339	2148  35F3356A             ori $19, $15, 13674
2340	214C  21F3356A             addi $19, $15, 13674
2341	2150  0C001D9C             jal store
2342	2154  0C001D91             jal increment_offset
2343	2158  0C001D86             jal load_patterns
2344	215C  21F2EEC1             addi $18, $15, 61121
2345	2160  35F2EEC1             ori $18, $15, 61121
2346	2164  35F3EEC1             ori $19, $15, 61121
2347	2168  21F3EEC1             addi $19, $15, 61121
2348	216C  0C001D9C             jal store
2349	2170  0C001D91             jal increment_offset
2350	2174  0C001D86             jal load_patterns
2351	2178  21F224B1             addi $18, $15, 9393
2352	217C  35F224B1             ori $18, $15, 9393
2353	2180  35F324B1             ori $19, $15, 9393
2354	2184  21F324B1             addi $19, $15, 9393
2355	2188  0C001D9C             jal store
2356	218C  0C001D91             jal increment_offset
2357	2190  0C001D86             jal load_patterns
2358	2194  21F22838             addi $18, $15, 10296
2359	2198  35F22838             ori $18, $15, 10296
2360	219C  35F32838             ori $19, $15, 10296
2361	21A0  21F32838             addi $19, $15, 10296
2362	21A4  0C001D9C             jal store
2363	21A8  0C001D91             jal increment_offset
2364	21AC  0C001D86             jal load_patterns
2365	21B0  21F25531             addi $18, $15, 21809
2366	21B4  35F25531             ori $18, $15, 21809
2367	21B8  35F35531             ori $19, $15, 21809
2368	21BC  21F35531             addi $19, $15, 21809
2369	21C0  0C001D9C             jal store
2370	21C4  0C001D91             jal increment_offset
2371	21C8  0C001D86             jal load_patterns
2372	21CC  21F220C3             addi $18, $15, 8387
2373	21D0  35F220C3             ori $18, $15, 8387
2374	21D4  35F320C3             ori $19, $15, 8387
2375	21D8  21F320C3             addi $19, $15, 8387
2376	21DC  0C001D9C             jal store
2377	21E0  0C001D91             jal increment_offset
2378	21E4  0C001D86             jal load_patterns
2379	21E8  21F27CDD             addi $18, $15, 31965
2380	21EC  35F27CDD             ori $18, $15, 31965
2381	21F0  35F37CDD             ori $19, $15, 31965
2382	21F4  21F37CDD             addi $19, $15, 31965
2383	21F8  0C001D9C             jal store
2384	21FC  0C001D91             jal increment_offset
2385	2200  0C001D86             jal load_patterns
2386	2204  21F2766A             addi $18, $15, 30314
2387	2208  35F2766A             ori $18, $15, 30314
2388	220C  35F3766A             ori $19, $15, 30314
2389	2210  21F3766A             addi $19, $15, 30314
2390	2214  0C001D9C             jal store
2391	2218  0C001D91             jal increment_offset
2392	221C  0C001D86             jal load_patterns
2393	2220  21F2E5EC             addi $18, $15, 58860
2394	2224  35F2E5EC             ori $18, $15, 58860
2395	2228  35F3E5EC             ori $19, $15, 58860
2396	222C  21F3E5EC             addi $19, $15, 58860
2397	2230  0C001D9C             jal store
2398	2234  0C001D91             jal increment_offset
2399	2238  0C001D86             jal load_patterns
2400	223C  21F2FD41             addi $18, $15, 64833
2401	2240  35F2FD41             ori $18, $15, 64833
2402	2244  35F3FD41             ori $19, $15, 64833
2403	2248  21F3FD41             addi $19, $15, 64833
2404	224C  0C001D9C             jal store
2405	2250  0C001D91             jal increment_offset
2406	2254  0C001D86             jal load_patterns
2407	2258  21F20238             addi $18, $15, 568
2408	225C  35F20238             ori $18, $15, 568
2409	2260  35F30238             ori $19, $15, 568
2410	2264  21F30238             addi $19, $15, 568
2411	2268  0C001D9C             jal store
2412	226C  0C001D91             jal increment_offset
2413	2270  0C001D86             jal load_patterns
2414	2274  21F2C8FE             addi $18, $15, 51454
2415	2278  35F2C8FE             ori $18, $15, 51454
2416	227C  35F3C8FE             ori $19, $15, 51454
2417	2280  21F3C8FE             addi $19, $15, 51454
2418	2284  0C001D9C             jal store
2419	2288  0C001D91             jal increment_offset
2420	228C  0C001D86             jal load_patterns
2421	2290  21F27FCF             addi $18, $15, 32719
2422	2294  35F27FCF             ori $18, $15, 32719
2423	2298  35F37FCF             ori $19, $15, 32719
2424	229C  21F37FCF             addi $19, $15, 32719
2425	22A0  0C001D9C             jal store
2426	22A4  0C001D91             jal increment_offset
2427	22A8  0C001D86             jal load_patterns
2428	22AC  21F24CC2             addi $18, $15, 19650
2429	22B0  35F24CC2             ori $18, $15, 19650
2430	22B4  35F34CC2             ori $19, $15, 19650
2431	22B8  21F34CC2             addi $19, $15, 19650
2432	22BC  0C001D9C             jal store
2433	22C0  0C001D91             jal increment_offset
2434	22C4  0C001D86             jal load_patterns
2435	22C8  21F2A8D0             addi $18, $15, 43216
2436	22CC  35F2A8D0             ori $18, $15, 43216
2437	22D0  35F3A8D0             ori $19, $15, 43216
2438	22D4  21F3A8D0             addi $19, $15, 43216
2439	22D8  0C001D9C             jal store
2440	22DC  0C001D91             jal increment_offset
2441	22E0  0C001D86             jal load_patterns
2442	22E4  21F28748             addi $18, $15, 34632
2443	22E8  35F28748             ori $18, $15, 34632
2444	22EC  35F38748             ori $19, $15, 34632
2445	22F0  21F38748             addi $19, $15, 34632
2446	22F4  0C001D9C             jal store
2447	22F8  0C001D91             jal increment_offset
2448	22FC  0C001D86             jal load_patterns
2449	2300  21F2999C             addi $18, $15, 39324
2450	2304  35F2999C             ori $18, $15, 39324
2451	2308  35F3999C             ori $19, $15, 39324
2452	230C  21F3999C             addi $19, $15, 39324
2453	2310  0C001D9C             jal store
2454	2314  0C001D91             jal increment_offset
2455	2318  0C001D86             jal load_patterns
2456	231C  21F2D796             addi $18, $15, 55190
2457	2320  35F2D796             ori $18, $15, 55190
2458	2324  35F3D796             ori $19, $15, 55190
2459	2328  21F3D796             addi $19, $15, 55190
2460	232C  0C001D9C             jal store
2461	2330  0C001D91             jal increment_offset
2462	2334  0C001D86             jal load_patterns
2463	2338  21F2CC26             addi $18, $15, 52262
2464	233C  35F2CC26             ori $18, $15, 52262
2465	2340  35F3CC26             ori $19, $15, 52262
2466	2344  21F3CC26             addi $19, $15, 52262
2467	2348  0C001D9C             jal store
2468	234C  0C001D91             jal increment_offset
2469	2350  0C001D86             jal load_patterns
2470	2354  21F24B2C             addi $18, $15, 19244
2471	2358  35F24B2C             ori $18, $15, 19244
2472	235C  35F34B2C             ori $19, $15, 19244
2473	2360  21F34B2C             addi $19, $15, 19244
2474	2364  0C001D9C             jal store
2475	2368  0C001D91             jal increment_offset
2476	236C  0C001D86             jal load_patterns
2477	2370  21F2B336             addi $18, $15, 45878
2478	2374  35F2B336             ori $18, $15, 45878
2479	2378  35F3B336             ori $19, $15, 45878
2480	237C  21F3B336             addi $19, $15, 45878
2481	2380  0C001D9C             jal store
2482	2384  0C001D91             jal increment_offset
2483	2388  0C001D86             jal load_patterns
2484	238C  21F22A22             addi $18, $15, 10786
2485	2390  35F22A22             ori $18, $15, 10786
2486	2394  35F32A22             ori $19, $15, 10786
2487	2398  21F32A22             addi $19, $15, 10786
2488	239C  0C001D9C             jal store
2489	23A0  0C001D91             jal increment_offset
2490	23A4  0C001D86             jal load_patterns
2491	23A8  21F257D7             addi $18, $15, 22487
2492	23AC  35F257D7             ori $18, $15, 22487
2493	23B0  35F357D7             ori $19, $15, 22487
2494	23B4  21F357D7             addi $19, $15, 22487
2495	23B8  0C001D9C             jal store
2496	23BC  0C001D91             jal increment_offset
2497	23C0  0C001D86             jal load_patterns
2498	23C4  21F29FFE             addi $18, $15, 40958
2499	23C8  35F29FFE             ori $18, $15, 40958
2500	23CC  35F39FFE             ori $19, $15, 40958
2501	23D0  21F39FFE             addi $19, $15, 40958
2502	23D4  0C001D9C             jal store
2503	23D8  0C001D91             jal increment_offset
2504	23DC  0C001D86             jal load_patterns
2505	23E0  21F238A4             addi $18, $15, 14500
2506	23E4  35F238A4             ori $18, $15, 14500
2507	23E8  35F338A4             ori $19, $15, 14500
2508	23EC  21F338A4             addi $19, $15, 14500
2509	23F0  0C001D9C             jal store
2510	23F4  0C001D91             jal increment_offset
2511	23F8  0C001D86             jal load_patterns
2512	23FC  21F269E2             addi $18, $15, 27106
2513	2400  35F269E2             ori $18, $15, 27106
2514	2404  35F369E2             ori $19, $15, 27106
2515	2408  21F369E2             addi $19, $15, 27106
2516	240C  0C001D9C             jal store
2517	2410  0C001D91             jal increment_offset
2518	2414  0C001D86             jal load_patterns
2519	2418  21F2481D             addi $18, $15, 18461
2520	241C  35F2481D             ori $18, $15, 18461
2521	2420  35F3481D             ori $19, $15, 18461
2522	2424  21F3481D             addi $19, $15, 18461
2523	2428  0C001D9C             jal store
2524	242C  0C001D91             jal increment_offset
2525	2430  0C001D86             jal load_patterns
2526	2434  21F24987             addi $18, $15, 18823
2527	2438  35F24987             ori $18, $15, 18823
2528	243C  35F34987             ori $19, $15, 18823
2529	2440  21F34987             addi $19, $15, 18823
2530	2444  0C001D9C             jal store
2531	2448  0C001D91             jal increment_offset
2532	244C  0C001D86             jal load_patterns
2533	2450  21F27A49             addi $18, $15, 31305
2534	2454  35F27A49             ori $18, $15, 31305
2535	2458  35F37A49             ori $19, $15, 31305
2536	245C  21F37A49             addi $19, $15, 31305
2537	2460  0C001D9C             jal store
2538	2464  0C001D91             jal increment_offset
2539	2468  0C001D86             jal load_patterns
2540	246C  21F2AF83             addi $18, $15, 44931
2541	2470  35F2AF83             ori $18, $15, 44931
2542	2474  35F3AF83             ori $19, $15, 44931
2543	2478  21F3AF83             addi $19, $15, 44931
2544	247C  0C001D9C             jal store
2545	2480  0C001D91             jal increment_offset
2546	2484  0C001D86             jal load_patterns
2547	2488  21F2A2DF             addi $18, $15, 41695
2548	248C  35F2A2DF             ori $18, $15, 41695
2549	2490  35F3A2DF             ori $19, $15, 41695
2550	2494  21F3A2DF             addi $19, $15, 41695
2551	2498  0C001D9C             jal store
2552	249C  0C001D91             jal increment_offset
2553	24A0  0C001D86             jal load_patterns
2554	24A4  21F202AD             addi $18, $15, 685
2555	24A8  35F202AD             ori $18, $15, 685
2556	24AC  35F302AD             ori $19, $15, 685
2557	24B0  21F302AD             addi $19, $15, 685
2558	24B4  0C001D9C             jal store
2559	24B8  0C001D91             jal increment_offset
2560	24BC  0C001D86             jal load_patterns
2561	24C0  21F25D70             addi $18, $15, 23920
2562	24C4  35F25D70             ori $18, $15, 23920
2563	24C8  35F35D70             ori $19, $15, 23920
2564	24CC  21F35D70             addi $19, $15, 23920
2565	24D0  0C001D9C             jal store
2566	24D4  0C001D91             jal increment_offset
2567	24D8  0C001D86             jal load_patterns
2568	24DC  21F27410             addi $18, $15, 29712
2569	24E0  35F27410             ori $18, $15, 29712
2570	24E4  35F37410             ori $19, $15, 29712
2571	24E8  21F37410             addi $19, $15, 29712
2572	24EC  0C001D9C             jal store
2573	24F0  0C001D91             jal increment_offset
2574	24F4  0C001D86             jal load_patterns
2575	24F8  21F2D17E             addi $18, $15, 53630
2576	24FC  35F2D17E             ori $18, $15, 53630
2577	2500  35F3D17E             ori $19, $15, 53630
2578	2504  21F3D17E             addi $19, $15, 53630
2579	2508  0C001D9C             jal store
2580	250C  0C001D91             jal increment_offset
2581	2510  0C001D86             jal load_patterns
2582	2514  21F2AB28             addi $18, $15, 43816
2583	2518  35F2AB28             ori $18, $15, 43816
2584	251C  35F3AB28             ori $19, $15, 43816
2585	2520  21F3AB28             addi $19, $15, 43816
2586	2524  0C001D9C             jal store
2587	2528  0C001D91             jal increment_offset
2588	252C  0C001D86             jal load_patterns
2589	2530  21F2A1AF             addi $18, $15, 41391
2590	2534  35F2A1AF             ori $18, $15, 41391
2591	2538  35F3A1AF             ori $19, $15, 41391
2592	253C  21F3A1AF             addi $19, $15, 41391
2593	2540  0C001D9C             jal store
2594	2544  0C001D91             jal increment_offset
2595	2548  0C001D86             jal load_patterns
2596	254C  21F21A1F             addi $18, $15, 6687
2597	2550  35F21A1F             ori $18, $15, 6687
2598	2554  35F31A1F             ori $19, $15, 6687
2599	2558  21F31A1F             addi $19, $15, 6687
2600	255C  0C001D9C             jal store
2601	2560  0C001D91             jal increment_offset
2602	2564  0C001D86             jal load_patterns
2603	2568  21F22369             addi $18, $15, 9065
2604	256C  35F22369             ori $18, $15, 9065
2605	2570  35F32369             ori $19, $15, 9065
2606	2574  21F32369             addi $19, $15, 9065
2607	2578  0C001D9C             jal store
2608	257C  0C001D91             jal increment_offset
2609	2580  0C001D86             jal load_patterns
2610	2584  21F2AFBE             addi $18, $15, 44990
2611	2588  35F2AFBE             ori $18, $15, 44990
2612	258C  35F3AFBE             ori $19, $15, 44990
2613	2590  21F3AFBE             addi $19, $15, 44990
2614	2594  0C001D9C             jal store
2615	2598  0C001D91             jal increment_offset
2616	259C  0C001D86             jal load_patterns
2617	25A0  21F26877             addi $18, $15, 26743
2618	25A4  35F26877             ori $18, $15, 26743
2619	25A8  35F36877             ori $19, $15, 26743
2620	25AC  21F36877             addi $19, $15, 26743
2621	25B0  0C001D9C             jal store
2622	25B4  0C001D91             jal increment_offset
2623	25B8  0C001D86             jal load_patterns
2624	25BC  21F2FBA0             addi $18, $15, 64416
2625	25C0  35F2FBA0             ori $18, $15, 64416
2626	25C4  35F3FBA0             ori $19, $15, 64416
2627	25C8  21F3FBA0             addi $19, $15, 64416
2628	25CC  0C001D9C             jal store
2629	25D0  0C001D91             jal increment_offset
2630	25D4  0C001D86             jal load_patterns
2631	25D8  21F2CFF9             addi $18, $15, 53241
2632	25DC  35F2CFF9             ori $18, $15, 53241
2633	25E0  35F3CFF9             ori $19, $15, 53241
2634	25E4  21F3CFF9             addi $19, $15, 53241
2635	25E8  0C001D9C             jal store
2636	25EC  0C001D91             jal increment_offset
2637	25F0  0C001D86             jal load_patterns
2638	25F4  21F2B14E             addi $18, $15, 45390
2639	25F8  35F2B14E             ori $18, $15, 45390
2640	25FC  35F3B14E             ori $19, $15, 45390
2641	2600  21F3B14E             addi $19, $15, 45390
2642	2604  0C001D9C             jal store
2643	2608  0C001D91             jal increment_offset
2644	260C  0C001D86             jal load_patterns
2645	2610  21F28ACC             addi $18, $15, 35532
2646	2614  35F28ACC             ori $18, $15, 35532
2647	2618  35F38ACC             ori $19, $15, 35532
2648	261C  21F38ACC             addi $19, $15, 35532
2649	2620  0C001D9C             jal store
2650	2624  0C001D91             jal increment_offset
2651	2628  0C001D86             jal load_patterns
2652	262C  21F20159             addi $18, $15, 345
2653	2630  35F20159             ori $18, $15, 345
2654	2634  35F30159             ori $19, $15, 345
2655	2638  21F30159             addi $19, $15, 345
2656	263C  0C001D9C             jal store
2657	2640  0C001D91             jal increment_offset
2658	2644  0C001D86             jal load_patterns
2659	2648  21F25882             addi $18, $15, 22658
2660	264C  35F25882             ori $18, $15, 22658
2661	2650  35F35882             ori $19, $15, 22658
2662	2654  21F35882             addi $19, $15, 22658
2663	2658  0C001D9C             jal store
2664	265C  0C001D91             jal increment_offset
2665	2660  0C001D86             jal load_patterns
2666	2664  21F21EC8             addi $18, $15, 7880
2667	2668  35F21EC8             ori $18, $15, 7880
2668	266C  35F31EC8             ori $19, $15, 7880
2669	2670  21F31EC8             addi $19, $15, 7880
2670	2674  0C001D9C             jal store
2671	2678  0C001D91             jal increment_offset
2672	267C  0C001D86             jal load_patterns
2673	2680  21F2D51C             addi $18, $15, 54556
2674	2684  35F2D51C             ori $18, $15, 54556
2675	2688  35F3D51C             ori $19, $15, 54556
2676	268C  21F3D51C             addi $19, $15, 54556
2677	2690  0C001D9C             jal store
2678	2694  0C001D91             jal increment_offset
2679	2698  0C001D86             jal load_patterns
2680	269C  21F2C4E8             addi $18, $15, 50408
2681	26A0  35F2C4E8             ori $18, $15, 50408
2682	26A4  35F3C4E8             ori $19, $15, 50408
2683	26A8  21F3C4E8             addi $19, $15, 50408
2684	26AC  0C001D9C             jal store
2685	26B0  0C001D91             jal increment_offset
2686	26B4  0C001D86             jal load_patterns
2687	26B8  21F25CB0             addi $18, $15, 23728
2688	26BC  35F25CB0             ori $18, $15, 23728
2689	26C0  35F35CB0             ori $19, $15, 23728
2690	26C4  21F35CB0             addi $19, $15, 23728
2691	26C8  0C001D9C             jal store
2692	26CC  0C001D91             jal increment_offset
2693	26D0  0C001D86             jal load_patterns
2694	26D4  21F206C5             addi $18, $15, 1733
2695	26D8  35F206C5             ori $18, $15, 1733
2696	26DC  35F306C5             ori $19, $15, 1733
2697	26E0  21F306C5             addi $19, $15, 1733
2698	26E4  0C001D9C             jal store
2699	26E8  0C001D91             jal increment_offset
2700	26EC  0C001D86             jal load_patterns
2701	26F0  21F287AA             addi $18, $15, 34730
2702	26F4  35F287AA             ori $18, $15, 34730
2703	26F8  35F387AA             ori $19, $15, 34730
2704	26FC  21F387AA             addi $19, $15, 34730
2705	2700  0C001D9C             jal store
2706	2704  0C001D91             jal increment_offset
2707	2708  0C001D86             jal load_patterns
2708	270C  21F2FAC3             addi $18, $15, 64195
2709	2710  35F2FAC3             ori $18, $15, 64195
2710	2714  35F3FAC3             ori $19, $15, 64195
2711	2718  21F3FAC3             addi $19, $15, 64195
2712	271C  0C001D9C             jal store
2713	2720  0C001D91             jal increment_offset
2714	2724  0C001D86             jal load_patterns
2715	2728  21F2DB2C             addi $18, $15, 56108
2716	272C  35F2DB2C             ori $18, $15, 56108
2717	2730  35F3DB2C             ori $19, $15, 56108
2718	2734  21F3DB2C             addi $19, $15, 56108
2719	2738  0C001D9C             jal store
2720	273C  0C001D91             jal increment_offset
2721	2740  0C001D86             jal load_patterns
2722	2744  21F2FC93             addi $18, $15, 64659
2723	2748  35F2FC93             ori $18, $15, 64659
2724	274C  35F3FC93             ori $19, $15, 64659
2725	2750  21F3FC93             addi $19, $15, 64659
2726	2754  0C001D9C             jal store
2727	2758  0C001D91             jal increment_offset
2728	                          
2729	275C  0C001D89            jal reset_offsets
2730	2760  0C001D9F            jal init_cp
2731	                          operation_addi_andi:
2732	2764  0C001D86             jal load_patterns
2733	2768  21F2C9F5             addi $18, $15, 51701
2734	276C  31F2C9F5             andi $18, $15, 51701
2735	2770  31F3C9F5             andi $19, $15, 51701
2736	2774  21F3C9F5             addi $19, $15, 51701
2737	2778  0C001D9C             jal store
2738	277C  0C001D91             jal increment_offset
2739	2780  0C001D86             jal load_patterns
2740	2784  21F23471             addi $18, $15, 13425
2741	2788  31F23471             andi $18, $15, 13425
2742	278C  31F33471             andi $19, $15, 13425
2743	2790  21F33471             addi $19, $15, 13425
2744	2794  0C001D9C             jal store
2745	2798  0C001D91             jal increment_offset
2746	279C  0C001D86             jal load_patterns
2747	27A0  21F210BD             addi $18, $15, 4285
2748	27A4  31F210BD             andi $18, $15, 4285
2749	27A8  31F310BD             andi $19, $15, 4285
2750	27AC  21F310BD             addi $19, $15, 4285
2751	27B0  0C001D9C             jal store
2752	27B4  0C001D91             jal increment_offset
2753	27B8  0C001D86             jal load_patterns
2754	27BC  21F2B496             addi $18, $15, 46230
2755	27C0  31F2B496             andi $18, $15, 46230
2756	27C4  31F3B496             andi $19, $15, 46230
2757	27C8  21F3B496             addi $19, $15, 46230
2758	27CC  0C001D9C             jal store
2759	27D0  0C001D91             jal increment_offset
2760	27D4  0C001D86             jal load_patterns
2761	27D8  21F25773             addi $18, $15, 22387
2762	27DC  31F25773             andi $18, $15, 22387
2763	27E0  31F35773             andi $19, $15, 22387
2764	27E4  21F35773             addi $19, $15, 22387
2765	27E8  0C001D9C             jal store
2766	27EC  0C001D91             jal increment_offset
2767	27F0  0C001D86             jal load_patterns
2768	27F4  21F2496F             addi $18, $15, 18799
2769	27F8  31F2496F             andi $18, $15, 18799
2770	27FC  31F3496F             andi $19, $15, 18799
2771	2800  21F3496F             addi $19, $15, 18799
2772	2804  0C001D9C             jal store
2773	2808  0C001D91             jal increment_offset
2774	280C  0C001D86             jal load_patterns
2775	2810  21F2C2E1             addi $18, $15, 49889
2776	2814  31F2C2E1             andi $18, $15, 49889
2777	2818  31F3C2E1             andi $19, $15, 49889
2778	281C  21F3C2E1             addi $19, $15, 49889
2779	2820  0C001D9C             jal store
2780	2824  0C001D91             jal increment_offset
2781	2828  0C001D86             jal load_patterns
2782	282C  21F28CB7             addi $18, $15, 36023
2783	2830  31F28CB7             andi $18, $15, 36023
2784	2834  31F38CB7             andi $19, $15, 36023
2785	2838  21F38CB7             addi $19, $15, 36023
2786	283C  0C001D9C             jal store
2787	2840  0C001D91             jal increment_offset
2788	2844  0C001D86             jal load_patterns
2789	2848  21F2356A             addi $18, $15, 13674
2790	284C  31F2356A             andi $18, $15, 13674
2791	2850  31F3356A             andi $19, $15, 13674
2792	2854  21F3356A             addi $19, $15, 13674
2793	2858  0C001D9C             jal store
2794	285C  0C001D91             jal increment_offset
2795	2860  0C001D86             jal load_patterns
2796	2864  21F2EEC1             addi $18, $15, 61121
2797	2868  31F2EEC1             andi $18, $15, 61121
2798	286C  31F3EEC1             andi $19, $15, 61121
2799	2870  21F3EEC1             addi $19, $15, 61121
2800	2874  0C001D9C             jal store
2801	2878  0C001D91             jal increment_offset
2802	287C  0C001D86             jal load_patterns
2803	2880  21F224B1             addi $18, $15, 9393
2804	2884  31F224B1             andi $18, $15, 9393
2805	2888  31F324B1             andi $19, $15, 9393
2806	288C  21F324B1             addi $19, $15, 9393
2807	2890  0C001D9C             jal store
2808	2894  0C001D91             jal increment_offset
2809	2898  0C001D86             jal load_patterns
2810	289C  21F22838             addi $18, $15, 10296
2811	28A0  31F22838             andi $18, $15, 10296
2812	28A4  31F32838             andi $19, $15, 10296
2813	28A8  21F32838             addi $19, $15, 10296
2814	28AC  0C001D9C             jal store
2815	28B0  0C001D91             jal increment_offset
2816	28B4  0C001D86             jal load_patterns
2817	28B8  21F25531             addi $18, $15, 21809
2818	28BC  31F25531             andi $18, $15, 21809
2819	28C0  31F35531             andi $19, $15, 21809
2820	28C4  21F35531             addi $19, $15, 21809
2821	28C8  0C001D9C             jal store
2822	28CC  0C001D91             jal increment_offset
2823	28D0  0C001D86             jal load_patterns
2824	28D4  21F220C3             addi $18, $15, 8387
2825	28D8  31F220C3             andi $18, $15, 8387
2826	28DC  31F320C3             andi $19, $15, 8387
2827	28E0  21F320C3             addi $19, $15, 8387
2828	28E4  0C001D9C             jal store
2829	28E8  0C001D91             jal increment_offset
2830	28EC  0C001D86             jal load_patterns
2831	28F0  21F27CDD             addi $18, $15, 31965
2832	28F4  31F27CDD             andi $18, $15, 31965
2833	28F8  31F37CDD             andi $19, $15, 31965
2834	28FC  21F37CDD             addi $19, $15, 31965
2835	2900  0C001D9C             jal store
2836	2904  0C001D91             jal increment_offset
2837	2908  0C001D86             jal load_patterns
2838	290C  21F2766A             addi $18, $15, 30314
2839	2910  31F2766A             andi $18, $15, 30314
2840	2914  31F3766A             andi $19, $15, 30314
2841	2918  21F3766A             addi $19, $15, 30314
2842	291C  0C001D9C             jal store
2843	2920  0C001D91             jal increment_offset
2844	2924  0C001D86             jal load_patterns
2845	2928  21F2E5EC             addi $18, $15, 58860
2846	292C  31F2E5EC             andi $18, $15, 58860
2847	2930  31F3E5EC             andi $19, $15, 58860
2848	2934  21F3E5EC             addi $19, $15, 58860
2849	2938  0C001D9C             jal store
2850	293C  0C001D91             jal increment_offset
2851	2940  0C001D86             jal load_patterns
2852	2944  21F2FD41             addi $18, $15, 64833
2853	2948  31F2FD41             andi $18, $15, 64833
2854	294C  31F3FD41             andi $19, $15, 64833
2855	2950  21F3FD41             addi $19, $15, 64833
2856	2954  0C001D9C             jal store
2857	2958  0C001D91             jal increment_offset
2858	295C  0C001D86             jal load_patterns
2859	2960  21F20238             addi $18, $15, 568
2860	2964  31F20238             andi $18, $15, 568
2861	2968  31F30238             andi $19, $15, 568
2862	296C  21F30238             addi $19, $15, 568
2863	2970  0C001D9C             jal store
2864	2974  0C001D91             jal increment_offset
2865	2978  0C001D86             jal load_patterns
2866	297C  21F2C8FE             addi $18, $15, 51454
2867	2980  31F2C8FE             andi $18, $15, 51454
2868	2984  31F3C8FE             andi $19, $15, 51454
2869	2988  21F3C8FE             addi $19, $15, 51454
2870	298C  0C001D9C             jal store
2871	2990  0C001D91             jal increment_offset
2872	2994  0C001D86             jal load_patterns
2873	2998  21F27FCF             addi $18, $15, 32719
2874	299C  31F27FCF             andi $18, $15, 32719
2875	29A0  31F37FCF             andi $19, $15, 32719
2876	29A4  21F37FCF             addi $19, $15, 32719
2877	29A8  0C001D9C             jal store
2878	29AC  0C001D91             jal increment_offset
2879	29B0  0C001D86             jal load_patterns
2880	29B4  21F24CC2             addi $18, $15, 19650
2881	29B8  31F24CC2             andi $18, $15, 19650
2882	29BC  31F34CC2             andi $19, $15, 19650
2883	29C0  21F34CC2             addi $19, $15, 19650
2884	29C4  0C001D9C             jal store
2885	29C8  0C001D91             jal increment_offset
2886	29CC  0C001D86             jal load_patterns
2887	29D0  21F2A8D0             addi $18, $15, 43216
2888	29D4  31F2A8D0             andi $18, $15, 43216
2889	29D8  31F3A8D0             andi $19, $15, 43216
2890	29DC  21F3A8D0             addi $19, $15, 43216
2891	29E0  0C001D9C             jal store
2892	29E4  0C001D91             jal increment_offset
2893	29E8  0C001D86             jal load_patterns
2894	29EC  21F28748             addi $18, $15, 34632
2895	29F0  31F28748             andi $18, $15, 34632
2896	29F4  31F38748             andi $19, $15, 34632
2897	29F8  21F38748             addi $19, $15, 34632
2898	29FC  0C001D9C             jal store
2899	2A00  0C001D91             jal increment_offset
2900	2A04  0C001D86             jal load_patterns
2901	2A08  21F2999C             addi $18, $15, 39324
2902	2A0C  31F2999C             andi $18, $15, 39324
2903	2A10  31F3999C             andi $19, $15, 39324
2904	2A14  21F3999C             addi $19, $15, 39324
2905	2A18  0C001D9C             jal store
2906	2A1C  0C001D91             jal increment_offset
2907	2A20  0C001D86             jal load_patterns
2908	2A24  21F2D796             addi $18, $15, 55190
2909	2A28  31F2D796             andi $18, $15, 55190
2910	2A2C  31F3D796             andi $19, $15, 55190
2911	2A30  21F3D796             addi $19, $15, 55190
2912	2A34  0C001D9C             jal store
2913	2A38  0C001D91             jal increment_offset
2914	2A3C  0C001D86             jal load_patterns
2915	2A40  21F2CC26             addi $18, $15, 52262
2916	2A44  31F2CC26             andi $18, $15, 52262
2917	2A48  31F3CC26             andi $19, $15, 52262
2918	2A4C  21F3CC26             addi $19, $15, 52262
2919	2A50  0C001D9C             jal store
2920	2A54  0C001D91             jal increment_offset
2921	2A58  0C001D86             jal load_patterns
2922	2A5C  21F24B2C             addi $18, $15, 19244
2923	2A60  31F24B2C             andi $18, $15, 19244
2924	2A64  31F34B2C             andi $19, $15, 19244
2925	2A68  21F34B2C             addi $19, $15, 19244
2926	2A6C  0C001D9C             jal store
2927	2A70  0C001D91             jal increment_offset
2928	2A74  0C001D86             jal load_patterns
2929	2A78  21F2B336             addi $18, $15, 45878
2930	2A7C  31F2B336             andi $18, $15, 45878
2931	2A80  31F3B336             andi $19, $15, 45878
2932	2A84  21F3B336             addi $19, $15, 45878
2933	2A88  0C001D9C             jal store
2934	2A8C  0C001D91             jal increment_offset
2935	2A90  0C001D86             jal load_patterns
2936	2A94  21F22A22             addi $18, $15, 10786
2937	2A98  31F22A22             andi $18, $15, 10786
2938	2A9C  31F32A22             andi $19, $15, 10786
2939	2AA0  21F32A22             addi $19, $15, 10786
2940	2AA4  0C001D9C             jal store
2941	2AA8  0C001D91             jal increment_offset
2942	2AAC  0C001D86             jal load_patterns
2943	2AB0  21F257D7             addi $18, $15, 22487
2944	2AB4  31F257D7             andi $18, $15, 22487
2945	2AB8  31F357D7             andi $19, $15, 22487
2946	2ABC  21F357D7             addi $19, $15, 22487
2947	2AC0  0C001D9C             jal store
2948	2AC4  0C001D91             jal increment_offset
2949	2AC8  0C001D86             jal load_patterns
2950	2ACC  21F29FFE             addi $18, $15, 40958
2951	2AD0  31F29FFE             andi $18, $15, 40958
2952	2AD4  31F39FFE             andi $19, $15, 40958
2953	2AD8  21F39FFE             addi $19, $15, 40958
2954	2ADC  0C001D9C             jal store
2955	2AE0  0C001D91             jal increment_offset
2956	2AE4  0C001D86             jal load_patterns
2957	2AE8  21F238A4             addi $18, $15, 14500
2958	2AEC  31F238A4             andi $18, $15, 14500
2959	2AF0  31F338A4             andi $19, $15, 14500
2960	2AF4  21F338A4             addi $19, $15, 14500
2961	2AF8  0C001D9C             jal store
2962	2AFC  0C001D91             jal increment_offset
2963	2B00  0C001D86             jal load_patterns
2964	2B04  21F269E2             addi $18, $15, 27106
2965	2B08  31F269E2             andi $18, $15, 27106
2966	2B0C  31F369E2             andi $19, $15, 27106
2967	2B10  21F369E2             addi $19, $15, 27106
2968	2B14  0C001D9C             jal store
2969	2B18  0C001D91             jal increment_offset
2970	2B1C  0C001D86             jal load_patterns
2971	2B20  21F2481D             addi $18, $15, 18461
2972	2B24  31F2481D             andi $18, $15, 18461
2973	2B28  31F3481D             andi $19, $15, 18461
2974	2B2C  21F3481D             addi $19, $15, 18461
2975	2B30  0C001D9C             jal store
2976	2B34  0C001D91             jal increment_offset
2977	2B38  0C001D86             jal load_patterns
2978	2B3C  21F24987             addi $18, $15, 18823
2979	2B40  31F24987             andi $18, $15, 18823
2980	2B44  31F34987             andi $19, $15, 18823
2981	2B48  21F34987             addi $19, $15, 18823
2982	2B4C  0C001D9C             jal store
2983	2B50  0C001D91             jal increment_offset
2984	2B54  0C001D86             jal load_patterns
2985	2B58  21F27A49             addi $18, $15, 31305
2986	2B5C  31F27A49             andi $18, $15, 31305
2987	2B60  31F37A49             andi $19, $15, 31305
2988	2B64  21F37A49             addi $19, $15, 31305
2989	2B68  0C001D9C             jal store
2990	2B6C  0C001D91             jal increment_offset
2991	2B70  0C001D86             jal load_patterns
2992	2B74  21F2AF83             addi $18, $15, 44931
2993	2B78  31F2AF83             andi $18, $15, 44931
2994	2B7C  31F3AF83             andi $19, $15, 44931
2995	2B80  21F3AF83             addi $19, $15, 44931
2996	2B84  0C001D9C             jal store
2997	2B88  0C001D91             jal increment_offset
2998	2B8C  0C001D86             jal load_patterns
2999	2B90  21F2A2DF             addi $18, $15, 41695
3000	2B94  31F2A2DF             andi $18, $15, 41695
3001	2B98  31F3A2DF             andi $19, $15, 41695
3002	2B9C  21F3A2DF             addi $19, $15, 41695
3003	2BA0  0C001D9C             jal store
3004	2BA4  0C001D91             jal increment_offset
3005	2BA8  0C001D86             jal load_patterns
3006	2BAC  21F202AD             addi $18, $15, 685
3007	2BB0  31F202AD             andi $18, $15, 685
3008	2BB4  31F302AD             andi $19, $15, 685
3009	2BB8  21F302AD             addi $19, $15, 685
3010	2BBC  0C001D9C             jal store
3011	2BC0  0C001D91             jal increment_offset
3012	2BC4  0C001D86             jal load_patterns
3013	2BC8  21F25D70             addi $18, $15, 23920
3014	2BCC  31F25D70             andi $18, $15, 23920
3015	2BD0  31F35D70             andi $19, $15, 23920
3016	2BD4  21F35D70             addi $19, $15, 23920
3017	2BD8  0C001D9C             jal store
3018	2BDC  0C001D91             jal increment_offset
3019	2BE0  0C001D86             jal load_patterns
3020	2BE4  21F27410             addi $18, $15, 29712
3021	2BE8  31F27410             andi $18, $15, 29712
3022	2BEC  31F37410             andi $19, $15, 29712
3023	2BF0  21F37410             addi $19, $15, 29712
3024	2BF4  0C001D9C             jal store
3025	2BF8  0C001D91             jal increment_offset
3026	2BFC  0C001D86             jal load_patterns
3027	2C00  21F2D17E             addi $18, $15, 53630
3028	2C04  31F2D17E             andi $18, $15, 53630
3029	2C08  31F3D17E             andi $19, $15, 53630
3030	2C0C  21F3D17E             addi $19, $15, 53630
3031	2C10  0C001D9C             jal store
3032	2C14  0C001D91             jal increment_offset
3033	2C18  0C001D86             jal load_patterns
3034	2C1C  21F2AB28             addi $18, $15, 43816
3035	2C20  31F2AB28             andi $18, $15, 43816
3036	2C24  31F3AB28             andi $19, $15, 43816
3037	2C28  21F3AB28             addi $19, $15, 43816
3038	2C2C  0C001D9C             jal store
3039	2C30  0C001D91             jal increment_offset
3040	2C34  0C001D86             jal load_patterns
3041	2C38  21F2A1AF             addi $18, $15, 41391
3042	2C3C  31F2A1AF             andi $18, $15, 41391
3043	2C40  31F3A1AF             andi $19, $15, 41391
3044	2C44  21F3A1AF             addi $19, $15, 41391
3045	2C48  0C001D9C             jal store
3046	2C4C  0C001D91             jal increment_offset
3047	2C50  0C001D86             jal load_patterns
3048	2C54  21F21A1F             addi $18, $15, 6687
3049	2C58  31F21A1F             andi $18, $15, 6687
3050	2C5C  31F31A1F             andi $19, $15, 6687
3051	2C60  21F31A1F             addi $19, $15, 6687
3052	2C64  0C001D9C             jal store
3053	2C68  0C001D91             jal increment_offset
3054	2C6C  0C001D86             jal load_patterns
3055	2C70  21F22369             addi $18, $15, 9065
3056	2C74  31F22369             andi $18, $15, 9065
3057	2C78  31F32369             andi $19, $15, 9065
3058	2C7C  21F32369             addi $19, $15, 9065
3059	2C80  0C001D9C             jal store
3060	2C84  0C001D91             jal increment_offset
3061	2C88  0C001D86             jal load_patterns
3062	2C8C  21F2AFBE             addi $18, $15, 44990
3063	2C90  31F2AFBE             andi $18, $15, 44990
3064	2C94  31F3AFBE             andi $19, $15, 44990
3065	2C98  21F3AFBE             addi $19, $15, 44990
3066	2C9C  0C001D9C             jal store
3067	2CA0  0C001D91             jal increment_offset
3068	2CA4  0C001D86             jal load_patterns
3069	2CA8  21F26877             addi $18, $15, 26743
3070	2CAC  31F26877             andi $18, $15, 26743
3071	2CB0  31F36877             andi $19, $15, 26743
3072	2CB4  21F36877             addi $19, $15, 26743
3073	2CB8  0C001D9C             jal store
3074	2CBC  0C001D91             jal increment_offset
3075	2CC0  0C001D86             jal load_patterns
3076	2CC4  21F2FBA0             addi $18, $15, 64416
3077	2CC8  31F2FBA0             andi $18, $15, 64416
3078	2CCC  31F3FBA0             andi $19, $15, 64416
3079	2CD0  21F3FBA0             addi $19, $15, 64416
3080	2CD4  0C001D9C             jal store
3081	2CD8  0C001D91             jal increment_offset
3082	2CDC  0C001D86             jal load_patterns
3083	2CE0  21F2CFF9             addi $18, $15, 53241
3084	2CE4  31F2CFF9             andi $18, $15, 53241
3085	2CE8  31F3CFF9             andi $19, $15, 53241
3086	2CEC  21F3CFF9             addi $19, $15, 53241
3087	2CF0  0C001D9C             jal store
3088	2CF4  0C001D91             jal increment_offset
3089	2CF8  0C001D86             jal load_patterns
3090	2CFC  21F2B14E             addi $18, $15, 45390
3091	2D00  31F2B14E             andi $18, $15, 45390
3092	2D04  31F3B14E             andi $19, $15, 45390
3093	2D08  21F3B14E             addi $19, $15, 45390
3094	2D0C  0C001D9C             jal store
3095	2D10  0C001D91             jal increment_offset
3096	2D14  0C001D86             jal load_patterns
3097	2D18  21F28ACC             addi $18, $15, 35532
3098	2D1C  31F28ACC             andi $18, $15, 35532
3099	2D20  31F38ACC             andi $19, $15, 35532
3100	2D24  21F38ACC             addi $19, $15, 35532
3101	2D28  0C001D9C             jal store
3102	2D2C  0C001D91             jal increment_offset
3103	2D30  0C001D86             jal load_patterns
3104	2D34  21F20159             addi $18, $15, 345
3105	2D38  31F20159             andi $18, $15, 345
3106	2D3C  31F30159             andi $19, $15, 345
3107	2D40  21F30159             addi $19, $15, 345
3108	2D44  0C001D9C             jal store
3109	2D48  0C001D91             jal increment_offset
3110	2D4C  0C001D86             jal load_patterns
3111	2D50  21F25882             addi $18, $15, 22658
3112	2D54  31F25882             andi $18, $15, 22658
3113	2D58  31F35882             andi $19, $15, 22658
3114	2D5C  21F35882             addi $19, $15, 22658
3115	2D60  0C001D9C             jal store
3116	2D64  0C001D91             jal increment_offset
3117	2D68  0C001D86             jal load_patterns
3118	2D6C  21F21EC8             addi $18, $15, 7880
3119	2D70  31F21EC8             andi $18, $15, 7880
3120	2D74  31F31EC8             andi $19, $15, 7880
3121	2D78  21F31EC8             addi $19, $15, 7880
3122	2D7C  0C001D9C             jal store
3123	2D80  0C001D91             jal increment_offset
3124	2D84  0C001D86             jal load_patterns
3125	2D88  21F2D51C             addi $18, $15, 54556
3126	2D8C  31F2D51C             andi $18, $15, 54556
3127	2D90  31F3D51C             andi $19, $15, 54556
3128	2D94  21F3D51C             addi $19, $15, 54556
3129	2D98  0C001D9C             jal store
3130	2D9C  0C001D91             jal increment_offset
3131	2DA0  0C001D86             jal load_patterns
3132	2DA4  21F2C4E8             addi $18, $15, 50408
3133	2DA8  31F2C4E8             andi $18, $15, 50408
3134	2DAC  31F3C4E8             andi $19, $15, 50408
3135	2DB0  21F3C4E8             addi $19, $15, 50408
3136	2DB4  0C001D9C             jal store
3137	2DB8  0C001D91             jal increment_offset
3138	2DBC  0C001D86             jal load_patterns
3139	2DC0  21F25CB0             addi $18, $15, 23728
3140	2DC4  31F25CB0             andi $18, $15, 23728
3141	2DC8  31F35CB0             andi $19, $15, 23728
3142	2DCC  21F35CB0             addi $19, $15, 23728
3143	2DD0  0C001D9C             jal store
3144	2DD4  0C001D91             jal increment_offset
3145	2DD8  0C001D86             jal load_patterns
3146	2DDC  21F206C5             addi $18, $15, 1733
3147	2DE0  31F206C5             andi $18, $15, 1733
3148	2DE4  31F306C5             andi $19, $15, 1733
3149	2DE8  21F306C5             addi $19, $15, 1733
3150	2DEC  0C001D9C             jal store
3151	2DF0  0C001D91             jal increment_offset
3152	2DF4  0C001D86             jal load_patterns
3153	2DF8  21F287AA             addi $18, $15, 34730
3154	2DFC  31F287AA             andi $18, $15, 34730
3155	2E00  31F387AA             andi $19, $15, 34730
3156	2E04  21F387AA             addi $19, $15, 34730
3157	2E08  0C001D9C             jal store
3158	2E0C  0C001D91             jal increment_offset
3159	2E10  0C001D86             jal load_patterns
3160	2E14  21F2FAC3             addi $18, $15, 64195
3161	2E18  31F2FAC3             andi $18, $15, 64195
3162	2E1C  31F3FAC3             andi $19, $15, 64195
3163	2E20  21F3FAC3             addi $19, $15, 64195
3164	2E24  0C001D9C             jal store
3165	2E28  0C001D91             jal increment_offset
3166	2E2C  0C001D86             jal load_patterns
3167	2E30  21F2DB2C             addi $18, $15, 56108
3168	2E34  31F2DB2C             andi $18, $15, 56108
3169	2E38  31F3DB2C             andi $19, $15, 56108
3170	2E3C  21F3DB2C             addi $19, $15, 56108
3171	2E40  0C001D9C             jal store
3172	2E44  0C001D91             jal increment_offset
3173	2E48  0C001D86             jal load_patterns
3174	2E4C  21F2FC93             addi $18, $15, 64659
3175	2E50  31F2FC93             andi $18, $15, 64659
3176	2E54  31F3FC93             andi $19, $15, 64659
3177	2E58  21F3FC93             addi $19, $15, 64659
3178	2E5C  0C001D9C             jal store
3179	2E60  0C001D91             jal increment_offset
3180	                          
3181	2E64  0C001D89            jal reset_offsets
3182	2E68  0C001D9F            jal init_cp
3183	                          operation_addiu_ori:
3184	2E6C  0C001D86             jal load_patterns
3185	2E70  25F2C9F5             addiu $18, $15, 51701
3186	2E74  35F2C9F5             ori $18, $15, 51701
3187	2E78  35F3C9F5             ori $19, $15, 51701
3188	2E7C  25F3C9F5             addiu $19, $15, 51701
3189	2E80  0C001D9C             jal store
3190	2E84  0C001D91             jal increment_offset
3191	2E88  0C001D86             jal load_patterns
3192	2E8C  25F23471             addiu $18, $15, 13425
3193	2E90  35F23471             ori $18, $15, 13425
3194	2E94  35F33471             ori $19, $15, 13425
3195	2E98  25F33471             addiu $19, $15, 13425
3196	2E9C  0C001D9C             jal store
3197	2EA0  0C001D91             jal increment_offset
3198	2EA4  0C001D86             jal load_patterns
3199	2EA8  25F210BD             addiu $18, $15, 4285
3200	2EAC  35F210BD             ori $18, $15, 4285
3201	2EB0  35F310BD             ori $19, $15, 4285
3202	2EB4  25F310BD             addiu $19, $15, 4285
3203	2EB8  0C001D9C             jal store
3204	2EBC  0C001D91             jal increment_offset
3205	2EC0  0C001D86             jal load_patterns
3206	2EC4  25F2B496             addiu $18, $15, 46230
3207	2EC8  35F2B496             ori $18, $15, 46230
3208	2ECC  35F3B496             ori $19, $15, 46230
3209	2ED0  25F3B496             addiu $19, $15, 46230
3210	2ED4  0C001D9C             jal store
3211	2ED8  0C001D91             jal increment_offset
3212	2EDC  0C001D86             jal load_patterns
3213	2EE0  25F25773             addiu $18, $15, 22387
3214	2EE4  35F25773             ori $18, $15, 22387
3215	2EE8  35F35773             ori $19, $15, 22387
3216	2EEC  25F35773             addiu $19, $15, 22387
3217	2EF0  0C001D9C             jal store
3218	2EF4  0C001D91             jal increment_offset
3219	2EF8  0C001D86             jal load_patterns
3220	2EFC  25F2496F             addiu $18, $15, 18799
3221	2F00  35F2496F             ori $18, $15, 18799
3222	2F04  35F3496F             ori $19, $15, 18799
3223	2F08  25F3496F             addiu $19, $15, 18799
3224	2F0C  0C001D9C             jal store
3225	2F10  0C001D91             jal increment_offset
3226	2F14  0C001D86             jal load_patterns
3227	2F18  25F2C2E1             addiu $18, $15, 49889
3228	2F1C  35F2C2E1             ori $18, $15, 49889
3229	2F20  35F3C2E1             ori $19, $15, 49889
3230	2F24  25F3C2E1             addiu $19, $15, 49889
3231	2F28  0C001D9C             jal store
3232	2F2C  0C001D91             jal increment_offset
3233	2F30  0C001D86             jal load_patterns
3234	2F34  25F28CB7             addiu $18, $15, 36023
3235	2F38  35F28CB7             ori $18, $15, 36023
3236	2F3C  35F38CB7             ori $19, $15, 36023
3237	2F40  25F38CB7             addiu $19, $15, 36023
3238	2F44  0C001D9C             jal store
3239	2F48  0C001D91             jal increment_offset
3240	2F4C  0C001D86             jal load_patterns
3241	2F50  25F2356A             addiu $18, $15, 13674
3242	2F54  35F2356A             ori $18, $15, 13674
3243	2F58  35F3356A             ori $19, $15, 13674
3244	2F5C  25F3356A             addiu $19, $15, 13674
3245	2F60  0C001D9C             jal store
3246	2F64  0C001D91             jal increment_offset
3247	2F68  0C001D86             jal load_patterns
3248	2F6C  25F2EEC1             addiu $18, $15, 61121
3249	2F70  35F2EEC1             ori $18, $15, 61121
3250	2F74  35F3EEC1             ori $19, $15, 61121
3251	2F78  25F3EEC1             addiu $19, $15, 61121
3252	2F7C  0C001D9C             jal store
3253	2F80  0C001D91             jal increment_offset
3254	2F84  0C001D86             jal load_patterns
3255	2F88  25F224B1             addiu $18, $15, 9393
3256	2F8C  35F224B1             ori $18, $15, 9393
3257	2F90  35F324B1             ori $19, $15, 9393
3258	2F94  25F324B1             addiu $19, $15, 9393
3259	2F98  0C001D9C             jal store
3260	2F9C  0C001D91             jal increment_offset
3261	2FA0  0C001D86             jal load_patterns
3262	2FA4  25F22838             addiu $18, $15, 10296
3263	2FA8  35F22838             ori $18, $15, 10296
3264	2FAC  35F32838             ori $19, $15, 10296
3265	2FB0  25F32838             addiu $19, $15, 10296
3266	2FB4  0C001D9C             jal store
3267	2FB8  0C001D91             jal increment_offset
3268	2FBC  0C001D86             jal load_patterns
3269	2FC0  25F25531             addiu $18, $15, 21809
3270	2FC4  35F25531             ori $18, $15, 21809
3271	2FC8  35F35531             ori $19, $15, 21809
3272	2FCC  25F35531             addiu $19, $15, 21809
3273	2FD0  0C001D9C             jal store
3274	2FD4  0C001D91             jal increment_offset
3275	2FD8  0C001D86             jal load_patterns
3276	2FDC  25F220C3             addiu $18, $15, 8387
3277	2FE0  35F220C3             ori $18, $15, 8387
3278	2FE4  35F320C3             ori $19, $15, 8387
3279	2FE8  25F320C3             addiu $19, $15, 8387
3280	2FEC  0C001D9C             jal store
3281	2FF0  0C001D91             jal increment_offset
3282	2FF4  0C001D86             jal load_patterns
3283	2FF8  25F27CDD             addiu $18, $15, 31965
3284	2FFC  35F27CDD             ori $18, $15, 31965
3285	3000  35F37CDD             ori $19, $15, 31965
3286	3004  25F37CDD             addiu $19, $15, 31965
3287	3008  0C001D9C             jal store
3288	300C  0C001D91             jal increment_offset
3289	3010  0C001D86             jal load_patterns
3290	3014  25F2766A             addiu $18, $15, 30314
3291	3018  35F2766A             ori $18, $15, 30314
3292	301C  35F3766A             ori $19, $15, 30314
3293	3020  25F3766A             addiu $19, $15, 30314
3294	3024  0C001D9C             jal store
3295	3028  0C001D91             jal increment_offset
3296	302C  0C001D86             jal load_patterns
3297	3030  25F2E5EC             addiu $18, $15, 58860
3298	3034  35F2E5EC             ori $18, $15, 58860
3299	3038  35F3E5EC             ori $19, $15, 58860
3300	303C  25F3E5EC             addiu $19, $15, 58860
3301	3040  0C001D9C             jal store
3302	3044  0C001D91             jal increment_offset
3303	3048  0C001D86             jal load_patterns
3304	304C  25F2FD41             addiu $18, $15, 64833
3305	3050  35F2FD41             ori $18, $15, 64833
3306	3054  35F3FD41             ori $19, $15, 64833
3307	3058  25F3FD41             addiu $19, $15, 64833
3308	305C  0C001D9C             jal store
3309	3060  0C001D91             jal increment_offset
3310	3064  0C001D86             jal load_patterns
3311	3068  25F20238             addiu $18, $15, 568
3312	306C  35F20238             ori $18, $15, 568
3313	3070  35F30238             ori $19, $15, 568
3314	3074  25F30238             addiu $19, $15, 568
3315	3078  0C001D9C             jal store
3316	307C  0C001D91             jal increment_offset
3317	3080  0C001D86             jal load_patterns
3318	3084  25F2C8FE             addiu $18, $15, 51454
3319	3088  35F2C8FE             ori $18, $15, 51454
3320	308C  35F3C8FE             ori $19, $15, 51454
3321	3090  25F3C8FE             addiu $19, $15, 51454
3322	3094  0C001D9C             jal store
3323	3098  0C001D91             jal increment_offset
3324	309C  0C001D86             jal load_patterns
3325	30A0  25F27FCF             addiu $18, $15, 32719
3326	30A4  35F27FCF             ori $18, $15, 32719
3327	30A8  35F37FCF             ori $19, $15, 32719
3328	30AC  25F37FCF             addiu $19, $15, 32719
3329	30B0  0C001D9C             jal store
3330	30B4  0C001D91             jal increment_offset
3331	30B8  0C001D86             jal load_patterns
3332	30BC  25F24CC2             addiu $18, $15, 19650
3333	30C0  35F24CC2             ori $18, $15, 19650
3334	30C4  35F34CC2             ori $19, $15, 19650
3335	30C8  25F34CC2             addiu $19, $15, 19650
3336	30CC  0C001D9C             jal store
3337	30D0  0C001D91             jal increment_offset
3338	30D4  0C001D86             jal load_patterns
3339	30D8  25F2A8D0             addiu $18, $15, 43216
3340	30DC  35F2A8D0             ori $18, $15, 43216
3341	30E0  35F3A8D0             ori $19, $15, 43216
3342	30E4  25F3A8D0             addiu $19, $15, 43216
3343	30E8  0C001D9C             jal store
3344	30EC  0C001D91             jal increment_offset
3345	30F0  0C001D86             jal load_patterns
3346	30F4  25F28748             addiu $18, $15, 34632
3347	30F8  35F28748             ori $18, $15, 34632
3348	30FC  35F38748             ori $19, $15, 34632
3349	3100  25F38748             addiu $19, $15, 34632
3350	3104  0C001D9C             jal store
3351	3108  0C001D91             jal increment_offset
3352	310C  0C001D86             jal load_patterns
3353	3110  25F2999C             addiu $18, $15, 39324
3354	3114  35F2999C             ori $18, $15, 39324
3355	3118  35F3999C             ori $19, $15, 39324
3356	311C  25F3999C             addiu $19, $15, 39324
3357	3120  0C001D9C             jal store
3358	3124  0C001D91             jal increment_offset
3359	3128  0C001D86             jal load_patterns
3360	312C  25F2D796             addiu $18, $15, 55190
3361	3130  35F2D796             ori $18, $15, 55190
3362	3134  35F3D796             ori $19, $15, 55190
3363	3138  25F3D796             addiu $19, $15, 55190
3364	313C  0C001D9C             jal store
3365	3140  0C001D91             jal increment_offset
3366	3144  0C001D86             jal load_patterns
3367	3148  25F2CC26             addiu $18, $15, 52262
3368	314C  35F2CC26             ori $18, $15, 52262
3369	3150  35F3CC26             ori $19, $15, 52262
3370	3154  25F3CC26             addiu $19, $15, 52262
3371	3158  0C001D9C             jal store
3372	315C  0C001D91             jal increment_offset
3373	3160  0C001D86             jal load_patterns
3374	3164  25F24B2C             addiu $18, $15, 19244
3375	3168  35F24B2C             ori $18, $15, 19244
3376	316C  35F34B2C             ori $19, $15, 19244
3377	3170  25F34B2C             addiu $19, $15, 19244
3378	3174  0C001D9C             jal store
3379	3178  0C001D91             jal increment_offset
3380	317C  0C001D86             jal load_patterns
3381	3180  25F2B336             addiu $18, $15, 45878
3382	3184  35F2B336             ori $18, $15, 45878
3383	3188  35F3B336             ori $19, $15, 45878
3384	318C  25F3B336             addiu $19, $15, 45878
3385	3190  0C001D9C             jal store
3386	3194  0C001D91             jal increment_offset
3387	3198  0C001D86             jal load_patterns
3388	319C  25F22A22             addiu $18, $15, 10786
3389	31A0  35F22A22             ori $18, $15, 10786
3390	31A4  35F32A22             ori $19, $15, 10786
3391	31A8  25F32A22             addiu $19, $15, 10786
3392	31AC  0C001D9C             jal store
3393	31B0  0C001D91             jal increment_offset
3394	31B4  0C001D86             jal load_patterns
3395	31B8  25F257D7             addiu $18, $15, 22487
3396	31BC  35F257D7             ori $18, $15, 22487
3397	31C0  35F357D7             ori $19, $15, 22487
3398	31C4  25F357D7             addiu $19, $15, 22487
3399	31C8  0C001D9C             jal store
3400	31CC  0C001D91             jal increment_offset
3401	31D0  0C001D86             jal load_patterns
3402	31D4  25F29FFE             addiu $18, $15, 40958
3403	31D8  35F29FFE             ori $18, $15, 40958
3404	31DC  35F39FFE             ori $19, $15, 40958
3405	31E0  25F39FFE             addiu $19, $15, 40958
3406	31E4  0C001D9C             jal store
3407	31E8  0C001D91             jal increment_offset
3408	31EC  0C001D86             jal load_patterns
3409	31F0  25F238A4             addiu $18, $15, 14500
3410	31F4  35F238A4             ori $18, $15, 14500
3411	31F8  35F338A4             ori $19, $15, 14500
3412	31FC  25F338A4             addiu $19, $15, 14500
3413	3200  0C001D9C             jal store
3414	3204  0C001D91             jal increment_offset
3415	3208  0C001D86             jal load_patterns
3416	320C  25F269E2             addiu $18, $15, 27106
3417	3210  35F269E2             ori $18, $15, 27106
3418	3214  35F369E2             ori $19, $15, 27106
3419	3218  25F369E2             addiu $19, $15, 27106
3420	321C  0C001D9C             jal store
3421	3220  0C001D91             jal increment_offset
3422	3224  0C001D86             jal load_patterns
3423	3228  25F2481D             addiu $18, $15, 18461
3424	322C  35F2481D             ori $18, $15, 18461
3425	3230  35F3481D             ori $19, $15, 18461
3426	3234  25F3481D             addiu $19, $15, 18461
3427	3238  0C001D9C             jal store
3428	323C  0C001D91             jal increment_offset
3429	3240  0C001D86             jal load_patterns
3430	3244  25F24987             addiu $18, $15, 18823
3431	3248  35F24987             ori $18, $15, 18823
3432	324C  35F34987             ori $19, $15, 18823
3433	3250  25F34987             addiu $19, $15, 18823
3434	3254  0C001D9C             jal store
3435	3258  0C001D91             jal increment_offset
3436	325C  0C001D86             jal load_patterns
3437	3260  25F27A49             addiu $18, $15, 31305
3438	3264  35F27A49             ori $18, $15, 31305
3439	3268  35F37A49             ori $19, $15, 31305
3440	326C  25F37A49             addiu $19, $15, 31305
3441	3270  0C001D9C             jal store
3442	3274  0C001D91             jal increment_offset
3443	3278  0C001D86             jal load_patterns
3444	327C  25F2AF83             addiu $18, $15, 44931
3445	3280  35F2AF83             ori $18, $15, 44931
3446	3284  35F3AF83             ori $19, $15, 44931
3447	3288  25F3AF83             addiu $19, $15, 44931
3448	328C  0C001D9C             jal store
3449	3290  0C001D91             jal increment_offset
3450	3294  0C001D86             jal load_patterns
3451	3298  25F2A2DF             addiu $18, $15, 41695
3452	329C  35F2A2DF             ori $18, $15, 41695
3453	32A0  35F3A2DF             ori $19, $15, 41695
3454	32A4  25F3A2DF             addiu $19, $15, 41695
3455	32A8  0C001D9C             jal store
3456	32AC  0C001D91             jal increment_offset
3457	32B0  0C001D86             jal load_patterns
3458	32B4  25F202AD             addiu $18, $15, 685
3459	32B8  35F202AD             ori $18, $15, 685
3460	32BC  35F302AD             ori $19, $15, 685
3461	32C0  25F302AD             addiu $19, $15, 685
3462	32C4  0C001D9C             jal store
3463	32C8  0C001D91             jal increment_offset
3464	32CC  0C001D86             jal load_patterns
3465	32D0  25F25D70             addiu $18, $15, 23920
3466	32D4  35F25D70             ori $18, $15, 23920
3467	32D8  35F35D70             ori $19, $15, 23920
3468	32DC  25F35D70             addiu $19, $15, 23920
3469	32E0  0C001D9C             jal store
3470	32E4  0C001D91             jal increment_offset
3471	32E8  0C001D86             jal load_patterns
3472	32EC  25F27410             addiu $18, $15, 29712
3473	32F0  35F27410             ori $18, $15, 29712
3474	32F4  35F37410             ori $19, $15, 29712
3475	32F8  25F37410             addiu $19, $15, 29712
3476	32FC  0C001D9C             jal store
3477	3300  0C001D91             jal increment_offset
3478	3304  0C001D86             jal load_patterns
3479	3308  25F2D17E             addiu $18, $15, 53630
3480	330C  35F2D17E             ori $18, $15, 53630
3481	3310  35F3D17E             ori $19, $15, 53630
3482	3314  25F3D17E             addiu $19, $15, 53630
3483	3318  0C001D9C             jal store
3484	331C  0C001D91             jal increment_offset
3485	3320  0C001D86             jal load_patterns
3486	3324  25F2AB28             addiu $18, $15, 43816
3487	3328  35F2AB28             ori $18, $15, 43816
3488	332C  35F3AB28             ori $19, $15, 43816
3489	3330  25F3AB28             addiu $19, $15, 43816
3490	3334  0C001D9C             jal store
3491	3338  0C001D91             jal increment_offset
3492	333C  0C001D86             jal load_patterns
3493	3340  25F2A1AF             addiu $18, $15, 41391
3494	3344  35F2A1AF             ori $18, $15, 41391
3495	3348  35F3A1AF             ori $19, $15, 41391
3496	334C  25F3A1AF             addiu $19, $15, 41391
3497	3350  0C001D9C             jal store
3498	3354  0C001D91             jal increment_offset
3499	3358  0C001D86             jal load_patterns
3500	335C  25F21A1F             addiu $18, $15, 6687
3501	3360  35F21A1F             ori $18, $15, 6687
3502	3364  35F31A1F             ori $19, $15, 6687
3503	3368  25F31A1F             addiu $19, $15, 6687
3504	336C  0C001D9C             jal store
3505	3370  0C001D91             jal increment_offset
3506	3374  0C001D86             jal load_patterns
3507	3378  25F22369             addiu $18, $15, 9065
3508	337C  35F22369             ori $18, $15, 9065
3509	3380  35F32369             ori $19, $15, 9065
3510	3384  25F32369             addiu $19, $15, 9065
3511	3388  0C001D9C             jal store
3512	338C  0C001D91             jal increment_offset
3513	3390  0C001D86             jal load_patterns
3514	3394  25F2AFBE             addiu $18, $15, 44990
3515	3398  35F2AFBE             ori $18, $15, 44990
3516	339C  35F3AFBE             ori $19, $15, 44990
3517	33A0  25F3AFBE             addiu $19, $15, 44990
3518	33A4  0C001D9C             jal store
3519	33A8  0C001D91             jal increment_offset
3520	33AC  0C001D86             jal load_patterns
3521	33B0  25F26877             addiu $18, $15, 26743
3522	33B4  35F26877             ori $18, $15, 26743
3523	33B8  35F36877             ori $19, $15, 26743
3524	33BC  25F36877             addiu $19, $15, 26743
3525	33C0  0C001D9C             jal store
3526	33C4  0C001D91             jal increment_offset
3527	33C8  0C001D86             jal load_patterns
3528	33CC  25F2FBA0             addiu $18, $15, 64416
3529	33D0  35F2FBA0             ori $18, $15, 64416
3530	33D4  35F3FBA0             ori $19, $15, 64416
3531	33D8  25F3FBA0             addiu $19, $15, 64416
3532	33DC  0C001D9C             jal store
3533	33E0  0C001D91             jal increment_offset
3534	33E4  0C001D86             jal load_patterns
3535	33E8  25F2CFF9             addiu $18, $15, 53241
3536	33EC  35F2CFF9             ori $18, $15, 53241
3537	33F0  35F3CFF9             ori $19, $15, 53241
3538	33F4  25F3CFF9             addiu $19, $15, 53241
3539	33F8  0C001D9C             jal store
3540	33FC  0C001D91             jal increment_offset
3541	3400  0C001D86             jal load_patterns
3542	3404  25F2B14E             addiu $18, $15, 45390
3543	3408  35F2B14E             ori $18, $15, 45390
3544	340C  35F3B14E             ori $19, $15, 45390
3545	3410  25F3B14E             addiu $19, $15, 45390
3546	3414  0C001D9C             jal store
3547	3418  0C001D91             jal increment_offset
3548	341C  0C001D86             jal load_patterns
3549	3420  25F28ACC             addiu $18, $15, 35532
3550	3424  35F28ACC             ori $18, $15, 35532
3551	3428  35F38ACC             ori $19, $15, 35532
3552	342C  25F38ACC             addiu $19, $15, 35532
3553	3430  0C001D9C             jal store
3554	3434  0C001D91             jal increment_offset
3555	3438  0C001D86             jal load_patterns
3556	343C  25F20159             addiu $18, $15, 345
3557	3440  35F20159             ori $18, $15, 345
3558	3444  35F30159             ori $19, $15, 345
3559	3448  25F30159             addiu $19, $15, 345
3560	344C  0C001D9C             jal store
3561	3450  0C001D91             jal increment_offset
3562	3454  0C001D86             jal load_patterns
3563	3458  25F25882             addiu $18, $15, 22658
3564	345C  35F25882             ori $18, $15, 22658
3565	3460  35F35882             ori $19, $15, 22658
3566	3464  25F35882             addiu $19, $15, 22658
3567	3468  0C001D9C             jal store
3568	346C  0C001D91             jal increment_offset
3569	3470  0C001D86             jal load_patterns
3570	3474  25F21EC8             addiu $18, $15, 7880
3571	3478  35F21EC8             ori $18, $15, 7880
3572	347C  35F31EC8             ori $19, $15, 7880
3573	3480  25F31EC8             addiu $19, $15, 7880
3574	3484  0C001D9C             jal store
3575	3488  0C001D91             jal increment_offset
3576	348C  0C001D86             jal load_patterns
3577	3490  25F2D51C             addiu $18, $15, 54556
3578	3494  35F2D51C             ori $18, $15, 54556
3579	3498  35F3D51C             ori $19, $15, 54556
3580	349C  25F3D51C             addiu $19, $15, 54556
3581	34A0  0C001D9C             jal store
3582	34A4  0C001D91             jal increment_offset
3583	34A8  0C001D86             jal load_patterns
3584	34AC  25F2C4E8             addiu $18, $15, 50408
3585	34B0  35F2C4E8             ori $18, $15, 50408
3586	34B4  35F3C4E8             ori $19, $15, 50408
3587	34B8  25F3C4E8             addiu $19, $15, 50408
3588	34BC  0C001D9C             jal store
3589	34C0  0C001D91             jal increment_offset
3590	34C4  0C001D86             jal load_patterns
3591	34C8  25F25CB0             addiu $18, $15, 23728
3592	34CC  35F25CB0             ori $18, $15, 23728
3593	34D0  35F35CB0             ori $19, $15, 23728
3594	34D4  25F35CB0             addiu $19, $15, 23728
3595	34D8  0C001D9C             jal store
3596	34DC  0C001D91             jal increment_offset
3597	34E0  0C001D86             jal load_patterns
3598	34E4  25F206C5             addiu $18, $15, 1733
3599	34E8  35F206C5             ori $18, $15, 1733
3600	34EC  35F306C5             ori $19, $15, 1733
3601	34F0  25F306C5             addiu $19, $15, 1733
3602	34F4  0C001D9C             jal store
3603	34F8  0C001D91             jal increment_offset
3604	34FC  0C001D86             jal load_patterns
3605	3500  25F287AA             addiu $18, $15, 34730
3606	3504  35F287AA             ori $18, $15, 34730
3607	3508  35F387AA             ori $19, $15, 34730
3608	350C  25F387AA             addiu $19, $15, 34730
3609	3510  0C001D9C             jal store
3610	3514  0C001D91             jal increment_offset
3611	3518  0C001D86             jal load_patterns
3612	351C  25F2FAC3             addiu $18, $15, 64195
3613	3520  35F2FAC3             ori $18, $15, 64195
3614	3524  35F3FAC3             ori $19, $15, 64195
3615	3528  25F3FAC3             addiu $19, $15, 64195
3616	352C  0C001D9C             jal store
3617	3530  0C001D91             jal increment_offset
3618	3534  0C001D86             jal load_patterns
3619	3538  25F2DB2C             addiu $18, $15, 56108
3620	353C  35F2DB2C             ori $18, $15, 56108
3621	3540  35F3DB2C             ori $19, $15, 56108
3622	3544  25F3DB2C             addiu $19, $15, 56108
3623	3548  0C001D9C             jal store
3624	354C  0C001D91             jal increment_offset
3625	3550  0C001D86             jal load_patterns
3626	3554  25F2FC93             addiu $18, $15, 64659
3627	3558  35F2FC93             ori $18, $15, 64659
3628	355C  35F3FC93             ori $19, $15, 64659
3629	3560  25F3FC93             addiu $19, $15, 64659
3630	3564  0C001D9C             jal store
3631	3568  0C001D91             jal increment_offset
3632	                          
3633	356C  0C001D89            jal reset_offsets
3634	3570  0C001D9F            jal init_cp
3635	                          operation_addiu_andi:
3636	3574  0C001D86             jal load_patterns
3637	3578  25F2C9F5             addiu $18, $15, 51701
3638	357C  31F2C9F5             andi $18, $15, 51701
3639	3580  31F3C9F5             andi $19, $15, 51701
3640	3584  25F3C9F5             addiu $19, $15, 51701
3641	3588  0C001D9C             jal store
3642	358C  0C001D91             jal increment_offset
3643	3590  0C001D86             jal load_patterns
3644	3594  25F23471             addiu $18, $15, 13425
3645	3598  31F23471             andi $18, $15, 13425
3646	359C  31F33471             andi $19, $15, 13425
3647	35A0  25F33471             addiu $19, $15, 13425
3648	35A4  0C001D9C             jal store
3649	35A8  0C001D91             jal increment_offset
3650	35AC  0C001D86             jal load_patterns
3651	35B0  25F210BD             addiu $18, $15, 4285
3652	35B4  31F210BD             andi $18, $15, 4285
3653	35B8  31F310BD             andi $19, $15, 4285
3654	35BC  25F310BD             addiu $19, $15, 4285
3655	35C0  0C001D9C             jal store
3656	35C4  0C001D91             jal increment_offset
3657	35C8  0C001D86             jal load_patterns
3658	35CC  25F2B496             addiu $18, $15, 46230
3659	35D0  31F2B496             andi $18, $15, 46230
3660	35D4  31F3B496             andi $19, $15, 46230
3661	35D8  25F3B496             addiu $19, $15, 46230
3662	35DC  0C001D9C             jal store
3663	35E0  0C001D91             jal increment_offset
3664	35E4  0C001D86             jal load_patterns
3665	35E8  25F25773             addiu $18, $15, 22387
3666	35EC  31F25773             andi $18, $15, 22387
3667	35F0  31F35773             andi $19, $15, 22387
3668	35F4  25F35773             addiu $19, $15, 22387
3669	35F8  0C001D9C             jal store
3670	35FC  0C001D91             jal increment_offset
3671	3600  0C001D86             jal load_patterns
3672	3604  25F2496F             addiu $18, $15, 18799
3673	3608  31F2496F             andi $18, $15, 18799
3674	360C  31F3496F             andi $19, $15, 18799
3675	3610  25F3496F             addiu $19, $15, 18799
3676	3614  0C001D9C             jal store
3677	3618  0C001D91             jal increment_offset
3678	361C  0C001D86             jal load_patterns
3679	3620  25F2C2E1             addiu $18, $15, 49889
3680	3624  31F2C2E1             andi $18, $15, 49889
3681	3628  31F3C2E1             andi $19, $15, 49889
3682	362C  25F3C2E1             addiu $19, $15, 49889
3683	3630  0C001D9C             jal store
3684	3634  0C001D91             jal increment_offset
3685	3638  0C001D86             jal load_patterns
3686	363C  25F28CB7             addiu $18, $15, 36023
3687	3640  31F28CB7             andi $18, $15, 36023
3688	3644  31F38CB7             andi $19, $15, 36023
3689	3648  25F38CB7             addiu $19, $15, 36023
3690	364C  0C001D9C             jal store
3691	3650  0C001D91             jal increment_offset
3692	3654  0C001D86             jal load_patterns
3693	3658  25F2356A             addiu $18, $15, 13674
3694	365C  31F2356A             andi $18, $15, 13674
3695	3660  31F3356A             andi $19, $15, 13674
3696	3664  25F3356A             addiu $19, $15, 13674
3697	3668  0C001D9C             jal store
3698	366C  0C001D91             jal increment_offset
3699	3670  0C001D86             jal load_patterns
3700	3674  25F2EEC1             addiu $18, $15, 61121
3701	3678  31F2EEC1             andi $18, $15, 61121
3702	367C  31F3EEC1             andi $19, $15, 61121
3703	3680  25F3EEC1             addiu $19, $15, 61121
3704	3684  0C001D9C             jal store
3705	3688  0C001D91             jal increment_offset
3706	368C  0C001D86             jal load_patterns
3707	3690  25F224B1             addiu $18, $15, 9393
3708	3694  31F224B1             andi $18, $15, 9393
3709	3698  31F324B1             andi $19, $15, 9393
3710	369C  25F324B1             addiu $19, $15, 9393
3711	36A0  0C001D9C             jal store
3712	36A4  0C001D91             jal increment_offset
3713	36A8  0C001D86             jal load_patterns
3714	36AC  25F22838             addiu $18, $15, 10296
3715	36B0  31F22838             andi $18, $15, 10296
3716	36B4  31F32838             andi $19, $15, 10296
3717	36B8  25F32838             addiu $19, $15, 10296
3718	36BC  0C001D9C             jal store
3719	36C0  0C001D91             jal increment_offset
3720	36C4  0C001D86             jal load_patterns
3721	36C8  25F25531             addiu $18, $15, 21809
3722	36CC  31F25531             andi $18, $15, 21809
3723	36D0  31F35531             andi $19, $15, 21809
3724	36D4  25F35531             addiu $19, $15, 21809
3725	36D8  0C001D9C             jal store
3726	36DC  0C001D91             jal increment_offset
3727	36E0  0C001D86             jal load_patterns
3728	36E4  25F220C3             addiu $18, $15, 8387
3729	36E8  31F220C3             andi $18, $15, 8387
3730	36EC  31F320C3             andi $19, $15, 8387
3731	36F0  25F320C3             addiu $19, $15, 8387
3732	36F4  0C001D9C             jal store
3733	36F8  0C001D91             jal increment_offset
3734	36FC  0C001D86             jal load_patterns
3735	3700  25F27CDD             addiu $18, $15, 31965
3736	3704  31F27CDD             andi $18, $15, 31965
3737	3708  31F37CDD             andi $19, $15, 31965
3738	370C  25F37CDD             addiu $19, $15, 31965
3739	3710  0C001D9C             jal store
3740	3714  0C001D91             jal increment_offset
3741	3718  0C001D86             jal load_patterns
3742	371C  25F2766A             addiu $18, $15, 30314
3743	3720  31F2766A             andi $18, $15, 30314
3744	3724  31F3766A             andi $19, $15, 30314
3745	3728  25F3766A             addiu $19, $15, 30314
3746	372C  0C001D9C             jal store
3747	3730  0C001D91             jal increment_offset
3748	3734  0C001D86             jal load_patterns
3749	3738  25F2E5EC             addiu $18, $15, 58860
3750	373C  31F2E5EC             andi $18, $15, 58860
3751	3740  31F3E5EC             andi $19, $15, 58860
3752	3744  25F3E5EC             addiu $19, $15, 58860
3753	3748  0C001D9C             jal store
3754	374C  0C001D91             jal increment_offset
3755	3750  0C001D86             jal load_patterns
3756	3754  25F2FD41             addiu $18, $15, 64833
3757	3758  31F2FD41             andi $18, $15, 64833
3758	375C  31F3FD41             andi $19, $15, 64833
3759	3760  25F3FD41             addiu $19, $15, 64833
3760	3764  0C001D9C             jal store
3761	3768  0C001D91             jal increment_offset
3762	376C  0C001D86             jal load_patterns
3763	3770  25F20238             addiu $18, $15, 568
3764	3774  31F20238             andi $18, $15, 568
3765	3778  31F30238             andi $19, $15, 568
3766	377C  25F30238             addiu $19, $15, 568
3767	3780  0C001D9C             jal store
3768	3784  0C001D91             jal increment_offset
3769	3788  0C001D86             jal load_patterns
3770	378C  25F2C8FE             addiu $18, $15, 51454
3771	3790  31F2C8FE             andi $18, $15, 51454
3772	3794  31F3C8FE             andi $19, $15, 51454
3773	3798  25F3C8FE             addiu $19, $15, 51454
3774	379C  0C001D9C             jal store
3775	37A0  0C001D91             jal increment_offset
3776	37A4  0C001D86             jal load_patterns
3777	37A8  25F27FCF             addiu $18, $15, 32719
3778	37AC  31F27FCF             andi $18, $15, 32719
3779	37B0  31F37FCF             andi $19, $15, 32719
3780	37B4  25F37FCF             addiu $19, $15, 32719
3781	37B8  0C001D9C             jal store
3782	37BC  0C001D91             jal increment_offset
3783	37C0  0C001D86             jal load_patterns
3784	37C4  25F24CC2             addiu $18, $15, 19650
3785	37C8  31F24CC2             andi $18, $15, 19650
3786	37CC  31F34CC2             andi $19, $15, 19650
3787	37D0  25F34CC2             addiu $19, $15, 19650
3788	37D4  0C001D9C             jal store
3789	37D8  0C001D91             jal increment_offset
3790	37DC  0C001D86             jal load_patterns
3791	37E0  25F2A8D0             addiu $18, $15, 43216
3792	37E4  31F2A8D0             andi $18, $15, 43216
3793	37E8  31F3A8D0             andi $19, $15, 43216
3794	37EC  25F3A8D0             addiu $19, $15, 43216
3795	37F0  0C001D9C             jal store
3796	37F4  0C001D91             jal increment_offset
3797	37F8  0C001D86             jal load_patterns
3798	37FC  25F28748             addiu $18, $15, 34632
3799	3800  31F28748             andi $18, $15, 34632
3800	3804  31F38748             andi $19, $15, 34632
3801	3808  25F38748             addiu $19, $15, 34632
3802	380C  0C001D9C             jal store
3803	3810  0C001D91             jal increment_offset
3804	3814  0C001D86             jal load_patterns
3805	3818  25F2999C             addiu $18, $15, 39324
3806	381C  31F2999C             andi $18, $15, 39324
3807	3820  31F3999C             andi $19, $15, 39324
3808	3824  25F3999C             addiu $19, $15, 39324
3809	3828  0C001D9C             jal store
3810	382C  0C001D91             jal increment_offset
3811	3830  0C001D86             jal load_patterns
3812	3834  25F2D796             addiu $18, $15, 55190
3813	3838  31F2D796             andi $18, $15, 55190
3814	383C  31F3D796             andi $19, $15, 55190
3815	3840  25F3D796             addiu $19, $15, 55190
3816	3844  0C001D9C             jal store
3817	3848  0C001D91             jal increment_offset
3818	384C  0C001D86             jal load_patterns
3819	3850  25F2CC26             addiu $18, $15, 52262
3820	3854  31F2CC26             andi $18, $15, 52262
3821	3858  31F3CC26             andi $19, $15, 52262
3822	385C  25F3CC26             addiu $19, $15, 52262
3823	3860  0C001D9C             jal store
3824	3864  0C001D91             jal increment_offset
3825	3868  0C001D86             jal load_patterns
3826	386C  25F24B2C             addiu $18, $15, 19244
3827	3870  31F24B2C             andi $18, $15, 19244
3828	3874  31F34B2C             andi $19, $15, 19244
3829	3878  25F34B2C             addiu $19, $15, 19244
3830	387C  0C001D9C             jal store
3831	3880  0C001D91             jal increment_offset
3832	3884  0C001D86             jal load_patterns
3833	3888  25F2B336             addiu $18, $15, 45878
3834	388C  31F2B336             andi $18, $15, 45878
3835	3890  31F3B336             andi $19, $15, 45878
3836	3894  25F3B336             addiu $19, $15, 45878
3837	3898  0C001D9C             jal store
3838	389C  0C001D91             jal increment_offset
3839	38A0  0C001D86             jal load_patterns
3840	38A4  25F22A22             addiu $18, $15, 10786
3841	38A8  31F22A22             andi $18, $15, 10786
3842	38AC  31F32A22             andi $19, $15, 10786
3843	38B0  25F32A22             addiu $19, $15, 10786
3844	38B4  0C001D9C             jal store
3845	38B8  0C001D91             jal increment_offset
3846	38BC  0C001D86             jal load_patterns
3847	38C0  25F257D7             addiu $18, $15, 22487
3848	38C4  31F257D7             andi $18, $15, 22487
3849	38C8  31F357D7             andi $19, $15, 22487
3850	38CC  25F357D7             addiu $19, $15, 22487
3851	38D0  0C001D9C             jal store
3852	38D4  0C001D91             jal increment_offset
3853	38D8  0C001D86             jal load_patterns
3854	38DC  25F29FFE             addiu $18, $15, 40958
3855	38E0  31F29FFE             andi $18, $15, 40958
3856	38E4  31F39FFE             andi $19, $15, 40958
3857	38E8  25F39FFE             addiu $19, $15, 40958
3858	38EC  0C001D9C             jal store
3859	38F0  0C001D91             jal increment_offset
3860	38F4  0C001D86             jal load_patterns
3861	38F8  25F238A4             addiu $18, $15, 14500
3862	38FC  31F238A4             andi $18, $15, 14500
3863	3900  31F338A4             andi $19, $15, 14500
3864	3904  25F338A4             addiu $19, $15, 14500
3865	3908  0C001D9C             jal store
3866	390C  0C001D91             jal increment_offset
3867	3910  0C001D86             jal load_patterns
3868	3914  25F269E2             addiu $18, $15, 27106
3869	3918  31F269E2             andi $18, $15, 27106
3870	391C  31F369E2             andi $19, $15, 27106
3871	3920  25F369E2             addiu $19, $15, 27106
3872	3924  0C001D9C             jal store
3873	3928  0C001D91             jal increment_offset
3874	392C  0C001D86             jal load_patterns
3875	3930  25F2481D             addiu $18, $15, 18461
3876	3934  31F2481D             andi $18, $15, 18461
3877	3938  31F3481D             andi $19, $15, 18461
3878	393C  25F3481D             addiu $19, $15, 18461
3879	3940  0C001D9C             jal store
3880	3944  0C001D91             jal increment_offset
3881	3948  0C001D86             jal load_patterns
3882	394C  25F24987             addiu $18, $15, 18823
3883	3950  31F24987             andi $18, $15, 18823
3884	3954  31F34987             andi $19, $15, 18823
3885	3958  25F34987             addiu $19, $15, 18823
3886	395C  0C001D9C             jal store
3887	3960  0C001D91             jal increment_offset
3888	3964  0C001D86             jal load_patterns
3889	3968  25F27A49             addiu $18, $15, 31305
3890	396C  31F27A49             andi $18, $15, 31305
3891	3970  31F37A49             andi $19, $15, 31305
3892	3974  25F37A49             addiu $19, $15, 31305
3893	3978  0C001D9C             jal store
3894	397C  0C001D91             jal increment_offset
3895	3980  0C001D86             jal load_patterns
3896	3984  25F2AF83             addiu $18, $15, 44931
3897	3988  31F2AF83             andi $18, $15, 44931
3898	398C  31F3AF83             andi $19, $15, 44931
3899	3990  25F3AF83             addiu $19, $15, 44931
3900	3994  0C001D9C             jal store
3901	3998  0C001D91             jal increment_offset
3902	399C  0C001D86             jal load_patterns
3903	39A0  25F2A2DF             addiu $18, $15, 41695
3904	39A4  31F2A2DF             andi $18, $15, 41695
3905	39A8  31F3A2DF             andi $19, $15, 41695
3906	39AC  25F3A2DF             addiu $19, $15, 41695
3907	39B0  0C001D9C             jal store
3908	39B4  0C001D91             jal increment_offset
3909	39B8  0C001D86             jal load_patterns
3910	39BC  25F202AD             addiu $18, $15, 685
3911	39C0  31F202AD             andi $18, $15, 685
3912	39C4  31F302AD             andi $19, $15, 685
3913	39C8  25F302AD             addiu $19, $15, 685
3914	39CC  0C001D9C             jal store
3915	39D0  0C001D91             jal increment_offset
3916	39D4  0C001D86             jal load_patterns
3917	39D8  25F25D70             addiu $18, $15, 23920
3918	39DC  31F25D70             andi $18, $15, 23920
3919	39E0  31F35D70             andi $19, $15, 23920
3920	39E4  25F35D70             addiu $19, $15, 23920
3921	39E8  0C001D9C             jal store
3922	39EC  0C001D91             jal increment_offset
3923	39F0  0C001D86             jal load_patterns
3924	39F4  25F27410             addiu $18, $15, 29712
3925	39F8  31F27410             andi $18, $15, 29712
3926	39FC  31F37410             andi $19, $15, 29712
3927	3A00  25F37410             addiu $19, $15, 29712
3928	3A04  0C001D9C             jal store
3929	3A08  0C001D91             jal increment_offset
3930	3A0C  0C001D86             jal load_patterns
3931	3A10  25F2D17E             addiu $18, $15, 53630
3932	3A14  31F2D17E             andi $18, $15, 53630
3933	3A18  31F3D17E             andi $19, $15, 53630
3934	3A1C  25F3D17E             addiu $19, $15, 53630
3935	3A20  0C001D9C             jal store
3936	3A24  0C001D91             jal increment_offset
3937	3A28  0C001D86             jal load_patterns
3938	3A2C  25F2AB28             addiu $18, $15, 43816
3939	3A30  31F2AB28             andi $18, $15, 43816
3940	3A34  31F3AB28             andi $19, $15, 43816
3941	3A38  25F3AB28             addiu $19, $15, 43816
3942	3A3C  0C001D9C             jal store
3943	3A40  0C001D91             jal increment_offset
3944	3A44  0C001D86             jal load_patterns
3945	3A48  25F2A1AF             addiu $18, $15, 41391
3946	3A4C  31F2A1AF             andi $18, $15, 41391
3947	3A50  31F3A1AF             andi $19, $15, 41391
3948	3A54  25F3A1AF             addiu $19, $15, 41391
3949	3A58  0C001D9C             jal store
3950	3A5C  0C001D91             jal increment_offset
3951	3A60  0C001D86             jal load_patterns
3952	3A64  25F21A1F             addiu $18, $15, 6687
3953	3A68  31F21A1F             andi $18, $15, 6687
3954	3A6C  31F31A1F             andi $19, $15, 6687
3955	3A70  25F31A1F             addiu $19, $15, 6687
3956	3A74  0C001D9C             jal store
3957	3A78  0C001D91             jal increment_offset
3958	3A7C  0C001D86             jal load_patterns
3959	3A80  25F22369             addiu $18, $15, 9065
3960	3A84  31F22369             andi $18, $15, 9065
3961	3A88  31F32369             andi $19, $15, 9065
3962	3A8C  25F32369             addiu $19, $15, 9065
3963	3A90  0C001D9C             jal store
3964	3A94  0C001D91             jal increment_offset
3965	3A98  0C001D86             jal load_patterns
3966	3A9C  25F2AFBE             addiu $18, $15, 44990
3967	3AA0  31F2AFBE             andi $18, $15, 44990
3968	3AA4  31F3AFBE             andi $19, $15, 44990
3969	3AA8  25F3AFBE             addiu $19, $15, 44990
3970	3AAC  0C001D9C             jal store
3971	3AB0  0C001D91             jal increment_offset
3972	3AB4  0C001D86             jal load_patterns
3973	3AB8  25F26877             addiu $18, $15, 26743
3974	3ABC  31F26877             andi $18, $15, 26743
3975	3AC0  31F36877             andi $19, $15, 26743
3976	3AC4  25F36877             addiu $19, $15, 26743
3977	3AC8  0C001D9C             jal store
3978	3ACC  0C001D91             jal increment_offset
3979	3AD0  0C001D86             jal load_patterns
3980	3AD4  25F2FBA0             addiu $18, $15, 64416
3981	3AD8  31F2FBA0             andi $18, $15, 64416
3982	3ADC  31F3FBA0             andi $19, $15, 64416
3983	3AE0  25F3FBA0             addiu $19, $15, 64416
3984	3AE4  0C001D9C             jal store
3985	3AE8  0C001D91             jal increment_offset
3986	3AEC  0C001D86             jal load_patterns
3987	3AF0  25F2CFF9             addiu $18, $15, 53241
3988	3AF4  31F2CFF9             andi $18, $15, 53241
3989	3AF8  31F3CFF9             andi $19, $15, 53241
3990	3AFC  25F3CFF9             addiu $19, $15, 53241
3991	3B00  0C001D9C             jal store
3992	3B04  0C001D91             jal increment_offset
3993	3B08  0C001D86             jal load_patterns
3994	3B0C  25F2B14E             addiu $18, $15, 45390
3995	3B10  31F2B14E             andi $18, $15, 45390
3996	3B14  31F3B14E             andi $19, $15, 45390
3997	3B18  25F3B14E             addiu $19, $15, 45390
3998	3B1C  0C001D9C             jal store
3999	3B20  0C001D91             jal increment_offset
4000	3B24  0C001D86             jal load_patterns
4001	3B28  25F28ACC             addiu $18, $15, 35532
4002	3B2C  31F28ACC             andi $18, $15, 35532
4003	3B30  31F38ACC             andi $19, $15, 35532
4004	3B34  25F38ACC             addiu $19, $15, 35532
4005	3B38  0C001D9C             jal store
4006	3B3C  0C001D91             jal increment_offset
4007	3B40  0C001D86             jal load_patterns
4008	3B44  25F20159             addiu $18, $15, 345
4009	3B48  31F20159             andi $18, $15, 345
4010	3B4C  31F30159             andi $19, $15, 345
4011	3B50  25F30159             addiu $19, $15, 345
4012	3B54  0C001D9C             jal store
4013	3B58  0C001D91             jal increment_offset
4014	3B5C  0C001D86             jal load_patterns
4015	3B60  25F25882             addiu $18, $15, 22658
4016	3B64  31F25882             andi $18, $15, 22658
4017	3B68  31F35882             andi $19, $15, 22658
4018	3B6C  25F35882             addiu $19, $15, 22658
4019	3B70  0C001D9C             jal store
4020	3B74  0C001D91             jal increment_offset
4021	3B78  0C001D86             jal load_patterns
4022	3B7C  25F21EC8             addiu $18, $15, 7880
4023	3B80  31F21EC8             andi $18, $15, 7880
4024	3B84  31F31EC8             andi $19, $15, 7880
4025	3B88  25F31EC8             addiu $19, $15, 7880
4026	3B8C  0C001D9C             jal store
4027	3B90  0C001D91             jal increment_offset
4028	3B94  0C001D86             jal load_patterns
4029	3B98  25F2D51C             addiu $18, $15, 54556
4030	3B9C  31F2D51C             andi $18, $15, 54556
4031	3BA0  31F3D51C             andi $19, $15, 54556
4032	3BA4  25F3D51C             addiu $19, $15, 54556
4033	3BA8  0C001D9C             jal store
4034	3BAC  0C001D91             jal increment_offset
4035	3BB0  0C001D86             jal load_patterns
4036	3BB4  25F2C4E8             addiu $18, $15, 50408
4037	3BB8  31F2C4E8             andi $18, $15, 50408
4038	3BBC  31F3C4E8             andi $19, $15, 50408
4039	3BC0  25F3C4E8             addiu $19, $15, 50408
4040	3BC4  0C001D9C             jal store
4041	3BC8  0C001D91             jal increment_offset
4042	3BCC  0C001D86             jal load_patterns
4043	3BD0  25F25CB0             addiu $18, $15, 23728
4044	3BD4  31F25CB0             andi $18, $15, 23728
4045	3BD8  31F35CB0             andi $19, $15, 23728
4046	3BDC  25F35CB0             addiu $19, $15, 23728
4047	3BE0  0C001D9C             jal store
4048	3BE4  0C001D91             jal increment_offset
4049	3BE8  0C001D86             jal load_patterns
4050	3BEC  25F206C5             addiu $18, $15, 1733
4051	3BF0  31F206C5             andi $18, $15, 1733
4052	3BF4  31F306C5             andi $19, $15, 1733
4053	3BF8  25F306C5             addiu $19, $15, 1733
4054	3BFC  0C001D9C             jal store
4055	3C00  0C001D91             jal increment_offset
4056	3C04  0C001D86             jal load_patterns
4057	3C08  25F287AA             addiu $18, $15, 34730
4058	3C0C  31F287AA             andi $18, $15, 34730
4059	3C10  31F387AA             andi $19, $15, 34730
4060	3C14  25F387AA             addiu $19, $15, 34730
4061	3C18  0C001D9C             jal store
4062	3C1C  0C001D91             jal increment_offset
4063	3C20  0C001D86             jal load_patterns
4064	3C24  25F2FAC3             addiu $18, $15, 64195
4065	3C28  31F2FAC3             andi $18, $15, 64195
4066	3C2C  31F3FAC3             andi $19, $15, 64195
4067	3C30  25F3FAC3             addiu $19, $15, 64195
4068	3C34  0C001D9C             jal store
4069	3C38  0C001D91             jal increment_offset
4070	3C3C  0C001D86             jal load_patterns
4071	3C40  25F2DB2C             addiu $18, $15, 56108
4072	3C44  31F2DB2C             andi $18, $15, 56108
4073	3C48  31F3DB2C             andi $19, $15, 56108
4074	3C4C  25F3DB2C             addiu $19, $15, 56108
4075	3C50  0C001D9C             jal store
4076	3C54  0C001D91             jal increment_offset
4077	3C58  0C001D86             jal load_patterns
4078	3C5C  25F2FC93             addiu $18, $15, 64659
4079	3C60  31F2FC93             andi $18, $15, 64659
4080	3C64  31F3FC93             andi $19, $15, 64659
4081	3C68  25F3FC93             addiu $19, $15, 64659
4082	3C6C  0C001D9C             jal store
4083	3C70  0C001D91             jal increment_offset
4084	                          
4085	3C74  0C001D89            jal reset_offsets
4086	3C78  0C001D9F            jal init_cp
4087	                          operation_andi_ori:
4088	3C7C  0C001D86             jal load_patterns
4089	3C80  31F2C9F5             andi $18, $15, 51701
4090	3C84  35F2C9F5             ori $18, $15, 51701
4091	3C88  35F3C9F5             ori $19, $15, 51701
4092	3C8C  31F3C9F5             andi $19, $15, 51701
4093	3C90  0C001D9C             jal store
4094	3C94  0C001D91             jal increment_offset
4095	3C98  0C001D86             jal load_patterns
4096	3C9C  31F23471             andi $18, $15, 13425
4097	3CA0  35F23471             ori $18, $15, 13425
4098	3CA4  35F33471             ori $19, $15, 13425
4099	3CA8  31F33471             andi $19, $15, 13425
4100	3CAC  0C001D9C             jal store
4101	3CB0  0C001D91             jal increment_offset
4102	3CB4  0C001D86             jal load_patterns
4103	3CB8  31F210BD             andi $18, $15, 4285
4104	3CBC  35F210BD             ori $18, $15, 4285
4105	3CC0  35F310BD             ori $19, $15, 4285
4106	3CC4  31F310BD             andi $19, $15, 4285
4107	3CC8  0C001D9C             jal store
4108	3CCC  0C001D91             jal increment_offset
4109	3CD0  0C001D86             jal load_patterns
4110	3CD4  31F2B496             andi $18, $15, 46230
4111	3CD8  35F2B496             ori $18, $15, 46230
4112	3CDC  35F3B496             ori $19, $15, 46230
4113	3CE0  31F3B496             andi $19, $15, 46230
4114	3CE4  0C001D9C             jal store
4115	3CE8  0C001D91             jal increment_offset
4116	3CEC  0C001D86             jal load_patterns
4117	3CF0  31F25773             andi $18, $15, 22387
4118	3CF4  35F25773             ori $18, $15, 22387
4119	3CF8  35F35773             ori $19, $15, 22387
4120	3CFC  31F35773             andi $19, $15, 22387
4121	3D00  0C001D9C             jal store
4122	3D04  0C001D91             jal increment_offset
4123	3D08  0C001D86             jal load_patterns
4124	3D0C  31F2496F             andi $18, $15, 18799
4125	3D10  35F2496F             ori $18, $15, 18799
4126	3D14  35F3496F             ori $19, $15, 18799
4127	3D18  31F3496F             andi $19, $15, 18799
4128	3D1C  0C001D9C             jal store
4129	3D20  0C001D91             jal increment_offset
4130	3D24  0C001D86             jal load_patterns
4131	3D28  31F2C2E1             andi $18, $15, 49889
4132	3D2C  35F2C2E1             ori $18, $15, 49889
4133	3D30  35F3C2E1             ori $19, $15, 49889
4134	3D34  31F3C2E1             andi $19, $15, 49889
4135	3D38  0C001D9C             jal store
4136	3D3C  0C001D91             jal increment_offset
4137	3D40  0C001D86             jal load_patterns
4138	3D44  31F28CB7             andi $18, $15, 36023
4139	3D48  35F28CB7             ori $18, $15, 36023
4140	3D4C  35F38CB7             ori $19, $15, 36023
4141	3D50  31F38CB7             andi $19, $15, 36023
4142	3D54  0C001D9C             jal store
4143	3D58  0C001D91             jal increment_offset
4144	3D5C  0C001D86             jal load_patterns
4145	3D60  31F2356A             andi $18, $15, 13674
4146	3D64  35F2356A             ori $18, $15, 13674
4147	3D68  35F3356A             ori $19, $15, 13674
4148	3D6C  31F3356A             andi $19, $15, 13674
4149	3D70  0C001D9C             jal store
4150	3D74  0C001D91             jal increment_offset
4151	3D78  0C001D86             jal load_patterns
4152	3D7C  31F2EEC1             andi $18, $15, 61121
4153	3D80  35F2EEC1             ori $18, $15, 61121
4154	3D84  35F3EEC1             ori $19, $15, 61121
4155	3D88  31F3EEC1             andi $19, $15, 61121
4156	3D8C  0C001D9C             jal store
4157	3D90  0C001D91             jal increment_offset
4158	3D94  0C001D86             jal load_patterns
4159	3D98  31F224B1             andi $18, $15, 9393
4160	3D9C  35F224B1             ori $18, $15, 9393
4161	3DA0  35F324B1             ori $19, $15, 9393
4162	3DA4  31F324B1             andi $19, $15, 9393
4163	3DA8  0C001D9C             jal store
4164	3DAC  0C001D91             jal increment_offset
4165	3DB0  0C001D86             jal load_patterns
4166	3DB4  31F22838             andi $18, $15, 10296
4167	3DB8  35F22838             ori $18, $15, 10296
4168	3DBC  35F32838             ori $19, $15, 10296
4169	3DC0  31F32838             andi $19, $15, 10296
4170	3DC4  0C001D9C             jal store
4171	3DC8  0C001D91             jal increment_offset
4172	3DCC  0C001D86             jal load_patterns
4173	3DD0  31F25531             andi $18, $15, 21809
4174	3DD4  35F25531             ori $18, $15, 21809
4175	3DD8  35F35531             ori $19, $15, 21809
4176	3DDC  31F35531             andi $19, $15, 21809
4177	3DE0  0C001D9C             jal store
4178	3DE4  0C001D91             jal increment_offset
4179	3DE8  0C001D86             jal load_patterns
4180	3DEC  31F220C3             andi $18, $15, 8387
4181	3DF0  35F220C3             ori $18, $15, 8387
4182	3DF4  35F320C3             ori $19, $15, 8387
4183	3DF8  31F320C3             andi $19, $15, 8387
4184	3DFC  0C001D9C             jal store
4185	3E00  0C001D91             jal increment_offset
4186	3E04  0C001D86             jal load_patterns
4187	3E08  31F27CDD             andi $18, $15, 31965
4188	3E0C  35F27CDD             ori $18, $15, 31965
4189	3E10  35F37CDD             ori $19, $15, 31965
4190	3E14  31F37CDD             andi $19, $15, 31965
4191	3E18  0C001D9C             jal store
4192	3E1C  0C001D91             jal increment_offset
4193	3E20  0C001D86             jal load_patterns
4194	3E24  31F2766A             andi $18, $15, 30314
4195	3E28  35F2766A             ori $18, $15, 30314
4196	3E2C  35F3766A             ori $19, $15, 30314
4197	3E30  31F3766A             andi $19, $15, 30314
4198	3E34  0C001D9C             jal store
4199	3E38  0C001D91             jal increment_offset
4200	3E3C  0C001D86             jal load_patterns
4201	3E40  31F2E5EC             andi $18, $15, 58860
4202	3E44  35F2E5EC             ori $18, $15, 58860
4203	3E48  35F3E5EC             ori $19, $15, 58860
4204	3E4C  31F3E5EC             andi $19, $15, 58860
4205	3E50  0C001D9C             jal store
4206	3E54  0C001D91             jal increment_offset
4207	3E58  0C001D86             jal load_patterns
4208	3E5C  31F2FD41             andi $18, $15, 64833
4209	3E60  35F2FD41             ori $18, $15, 64833
4210	3E64  35F3FD41             ori $19, $15, 64833
4211	3E68  31F3FD41             andi $19, $15, 64833
4212	3E6C  0C001D9C             jal store
4213	3E70  0C001D91             jal increment_offset
4214	3E74  0C001D86             jal load_patterns
4215	3E78  31F20238             andi $18, $15, 568
4216	3E7C  35F20238             ori $18, $15, 568
4217	3E80  35F30238             ori $19, $15, 568
4218	3E84  31F30238             andi $19, $15, 568
4219	3E88  0C001D9C             jal store
4220	3E8C  0C001D91             jal increment_offset
4221	3E90  0C001D86             jal load_patterns
4222	3E94  31F2C8FE             andi $18, $15, 51454
4223	3E98  35F2C8FE             ori $18, $15, 51454
4224	3E9C  35F3C8FE             ori $19, $15, 51454
4225	3EA0  31F3C8FE             andi $19, $15, 51454
4226	3EA4  0C001D9C             jal store
4227	3EA8  0C001D91             jal increment_offset
4228	3EAC  0C001D86             jal load_patterns
4229	3EB0  31F27FCF             andi $18, $15, 32719
4230	3EB4  35F27FCF             ori $18, $15, 32719
4231	3EB8  35F37FCF             ori $19, $15, 32719
4232	3EBC  31F37FCF             andi $19, $15, 32719
4233	3EC0  0C001D9C             jal store
4234	3EC4  0C001D91             jal increment_offset
4235	3EC8  0C001D86             jal load_patterns
4236	3ECC  31F24CC2             andi $18, $15, 19650
4237	3ED0  35F24CC2             ori $18, $15, 19650
4238	3ED4  35F34CC2             ori $19, $15, 19650
4239	3ED8  31F34CC2             andi $19, $15, 19650
4240	3EDC  0C001D9C             jal store
4241	3EE0  0C001D91             jal increment_offset
4242	3EE4  0C001D86             jal load_patterns
4243	3EE8  31F2A8D0             andi $18, $15, 43216
4244	3EEC  35F2A8D0             ori $18, $15, 43216
4245	3EF0  35F3A8D0             ori $19, $15, 43216
4246	3EF4  31F3A8D0             andi $19, $15, 43216
4247	3EF8  0C001D9C             jal store
4248	3EFC  0C001D91             jal increment_offset
4249	3F00  0C001D86             jal load_patterns
4250	3F04  31F28748             andi $18, $15, 34632
4251	3F08  35F28748             ori $18, $15, 34632
4252	3F0C  35F38748             ori $19, $15, 34632
4253	3F10  31F38748             andi $19, $15, 34632
4254	3F14  0C001D9C             jal store
4255	3F18  0C001D91             jal increment_offset
4256	3F1C  0C001D86             jal load_patterns
4257	3F20  31F2999C             andi $18, $15, 39324
4258	3F24  35F2999C             ori $18, $15, 39324
4259	3F28  35F3999C             ori $19, $15, 39324
4260	3F2C  31F3999C             andi $19, $15, 39324
4261	3F30  0C001D9C             jal store
4262	3F34  0C001D91             jal increment_offset
4263	3F38  0C001D86             jal load_patterns
4264	3F3C  31F2D796             andi $18, $15, 55190
4265	3F40  35F2D796             ori $18, $15, 55190
4266	3F44  35F3D796             ori $19, $15, 55190
4267	3F48  31F3D796             andi $19, $15, 55190
4268	3F4C  0C001D9C             jal store
4269	3F50  0C001D91             jal increment_offset
4270	3F54  0C001D86             jal load_patterns
4271	3F58  31F2CC26             andi $18, $15, 52262
4272	3F5C  35F2CC26             ori $18, $15, 52262
4273	3F60  35F3CC26             ori $19, $15, 52262
4274	3F64  31F3CC26             andi $19, $15, 52262
4275	3F68  0C001D9C             jal store
4276	3F6C  0C001D91             jal increment_offset
4277	3F70  0C001D86             jal load_patterns
4278	3F74  31F24B2C             andi $18, $15, 19244
4279	3F78  35F24B2C             ori $18, $15, 19244
4280	3F7C  35F34B2C             ori $19, $15, 19244
4281	3F80  31F34B2C             andi $19, $15, 19244
4282	3F84  0C001D9C             jal store
4283	3F88  0C001D91             jal increment_offset
4284	3F8C  0C001D86             jal load_patterns
4285	3F90  31F2B336             andi $18, $15, 45878
4286	3F94  35F2B336             ori $18, $15, 45878
4287	3F98  35F3B336             ori $19, $15, 45878
4288	3F9C  31F3B336             andi $19, $15, 45878
4289	3FA0  0C001D9C             jal store
4290	3FA4  0C001D91             jal increment_offset
4291	3FA8  0C001D86             jal load_patterns
4292	3FAC  31F22A22             andi $18, $15, 10786
4293	3FB0  35F22A22             ori $18, $15, 10786
4294	3FB4  35F32A22             ori $19, $15, 10786
4295	3FB8  31F32A22             andi $19, $15, 10786
4296	3FBC  0C001D9C             jal store
4297	3FC0  0C001D91             jal increment_offset
4298	3FC4  0C001D86             jal load_patterns
4299	3FC8  31F257D7             andi $18, $15, 22487
4300	3FCC  35F257D7             ori $18, $15, 22487
4301	3FD0  35F357D7             ori $19, $15, 22487
4302	3FD4  31F357D7             andi $19, $15, 22487
4303	3FD8  0C001D9C             jal store
4304	3FDC  0C001D91             jal increment_offset
4305	3FE0  0C001D86             jal load_patterns
4306	3FE4  31F29FFE             andi $18, $15, 40958
4307	3FE8  35F29FFE             ori $18, $15, 40958
4308	3FEC  35F39FFE             ori $19, $15, 40958
4309	3FF0  31F39FFE             andi $19, $15, 40958
4310	3FF4  0C001D9C             jal store
4311	3FF8  0C001D91             jal increment_offset
4312	3FFC  0C001D86             jal load_patterns
4313	4000  31F238A4             andi $18, $15, 14500
4314	4004  35F238A4             ori $18, $15, 14500
4315	4008  35F338A4             ori $19, $15, 14500
4316	400C  31F338A4             andi $19, $15, 14500
4317	4010  0C001D9C             jal store
4318	4014  0C001D91             jal increment_offset
4319	4018  0C001D86             jal load_patterns
4320	401C  31F269E2             andi $18, $15, 27106
4321	4020  35F269E2             ori $18, $15, 27106
4322	4024  35F369E2             ori $19, $15, 27106
4323	4028  31F369E2             andi $19, $15, 27106
4324	402C  0C001D9C             jal store
4325	4030  0C001D91             jal increment_offset
4326	4034  0C001D86             jal load_patterns
4327	4038  31F2481D             andi $18, $15, 18461
4328	403C  35F2481D             ori $18, $15, 18461
4329	4040  35F3481D             ori $19, $15, 18461
4330	4044  31F3481D             andi $19, $15, 18461
4331	4048  0C001D9C             jal store
4332	404C  0C001D91             jal increment_offset
4333	4050  0C001D86             jal load_patterns
4334	4054  31F24987             andi $18, $15, 18823
4335	4058  35F24987             ori $18, $15, 18823
4336	405C  35F34987             ori $19, $15, 18823
4337	4060  31F34987             andi $19, $15, 18823
4338	4064  0C001D9C             jal store
4339	4068  0C001D91             jal increment_offset
4340	406C  0C001D86             jal load_patterns
4341	4070  31F27A49             andi $18, $15, 31305
4342	4074  35F27A49             ori $18, $15, 31305
4343	4078  35F37A49             ori $19, $15, 31305
4344	407C  31F37A49             andi $19, $15, 31305
4345	4080  0C001D9C             jal store
4346	4084  0C001D91             jal increment_offset
4347	4088  0C001D86             jal load_patterns
4348	408C  31F2AF83             andi $18, $15, 44931
4349	4090  35F2AF83             ori $18, $15, 44931
4350	4094  35F3AF83             ori $19, $15, 44931
4351	4098  31F3AF83             andi $19, $15, 44931
4352	409C  0C001D9C             jal store
4353	40A0  0C001D91             jal increment_offset
4354	40A4  0C001D86             jal load_patterns
4355	40A8  31F2A2DF             andi $18, $15, 41695
4356	40AC  35F2A2DF             ori $18, $15, 41695
4357	40B0  35F3A2DF             ori $19, $15, 41695
4358	40B4  31F3A2DF             andi $19, $15, 41695
4359	40B8  0C001D9C             jal store
4360	40BC  0C001D91             jal increment_offset
4361	40C0  0C001D86             jal load_patterns
4362	40C4  31F202AD             andi $18, $15, 685
4363	40C8  35F202AD             ori $18, $15, 685
4364	40CC  35F302AD             ori $19, $15, 685
4365	40D0  31F302AD             andi $19, $15, 685
4366	40D4  0C001D9C             jal store
4367	40D8  0C001D91             jal increment_offset
4368	40DC  0C001D86             jal load_patterns
4369	40E0  31F25D70             andi $18, $15, 23920
4370	40E4  35F25D70             ori $18, $15, 23920
4371	40E8  35F35D70             ori $19, $15, 23920
4372	40EC  31F35D70             andi $19, $15, 23920
4373	40F0  0C001D9C             jal store
4374	40F4  0C001D91             jal increment_offset
4375	40F8  0C001D86             jal load_patterns
4376	40FC  31F27410             andi $18, $15, 29712
4377	4100  35F27410             ori $18, $15, 29712
4378	4104  35F37410             ori $19, $15, 29712
4379	4108  31F37410             andi $19, $15, 29712
4380	410C  0C001D9C             jal store
4381	4110  0C001D91             jal increment_offset
4382	4114  0C001D86             jal load_patterns
4383	4118  31F2D17E             andi $18, $15, 53630
4384	411C  35F2D17E             ori $18, $15, 53630
4385	4120  35F3D17E             ori $19, $15, 53630
4386	4124  31F3D17E             andi $19, $15, 53630
4387	4128  0C001D9C             jal store
4388	412C  0C001D91             jal increment_offset
4389	4130  0C001D86             jal load_patterns
4390	4134  31F2AB28             andi $18, $15, 43816
4391	4138  35F2AB28             ori $18, $15, 43816
4392	413C  35F3AB28             ori $19, $15, 43816
4393	4140  31F3AB28             andi $19, $15, 43816
4394	4144  0C001D9C             jal store
4395	4148  0C001D91             jal increment_offset
4396	414C  0C001D86             jal load_patterns
4397	4150  31F2A1AF             andi $18, $15, 41391
4398	4154  35F2A1AF             ori $18, $15, 41391
4399	4158  35F3A1AF             ori $19, $15, 41391
4400	415C  31F3A1AF             andi $19, $15, 41391
4401	4160  0C001D9C             jal store
4402	4164  0C001D91             jal increment_offset
4403	4168  0C001D86             jal load_patterns
4404	416C  31F21A1F             andi $18, $15, 6687
4405	4170  35F21A1F             ori $18, $15, 6687
4406	4174  35F31A1F             ori $19, $15, 6687
4407	4178  31F31A1F             andi $19, $15, 6687
4408	417C  0C001D9C             jal store
4409	4180  0C001D91             jal increment_offset
4410	4184  0C001D86             jal load_patterns
4411	4188  31F22369             andi $18, $15, 9065
4412	418C  35F22369             ori $18, $15, 9065
4413	4190  35F32369             ori $19, $15, 9065
4414	4194  31F32369             andi $19, $15, 9065
4415	4198  0C001D9C             jal store
4416	419C  0C001D91             jal increment_offset
4417	41A0  0C001D86             jal load_patterns
4418	41A4  31F2AFBE             andi $18, $15, 44990
4419	41A8  35F2AFBE             ori $18, $15, 44990
4420	41AC  35F3AFBE             ori $19, $15, 44990
4421	41B0  31F3AFBE             andi $19, $15, 44990
4422	41B4  0C001D9C             jal store
4423	41B8  0C001D91             jal increment_offset
4424	41BC  0C001D86             jal load_patterns
4425	41C0  31F26877             andi $18, $15, 26743
4426	41C4  35F26877             ori $18, $15, 26743
4427	41C8  35F36877             ori $19, $15, 26743
4428	41CC  31F36877             andi $19, $15, 26743
4429	41D0  0C001D9C             jal store
4430	41D4  0C001D91             jal increment_offset
4431	41D8  0C001D86             jal load_patterns
4432	41DC  31F2FBA0             andi $18, $15, 64416
4433	41E0  35F2FBA0             ori $18, $15, 64416
4434	41E4  35F3FBA0             ori $19, $15, 64416
4435	41E8  31F3FBA0             andi $19, $15, 64416
4436	41EC  0C001D9C             jal store
4437	41F0  0C001D91             jal increment_offset
4438	41F4  0C001D86             jal load_patterns
4439	41F8  31F2CFF9             andi $18, $15, 53241
4440	41FC  35F2CFF9             ori $18, $15, 53241
4441	4200  35F3CFF9             ori $19, $15, 53241
4442	4204  31F3CFF9             andi $19, $15, 53241
4443	4208  0C001D9C             jal store
4444	420C  0C001D91             jal increment_offset
4445	4210  0C001D86             jal load_patterns
4446	4214  31F2B14E             andi $18, $15, 45390
4447	4218  35F2B14E             ori $18, $15, 45390
4448	421C  35F3B14E             ori $19, $15, 45390
4449	4220  31F3B14E             andi $19, $15, 45390
4450	4224  0C001D9C             jal store
4451	4228  0C001D91             jal increment_offset
4452	422C  0C001D86             jal load_patterns
4453	4230  31F28ACC             andi $18, $15, 35532
4454	4234  35F28ACC             ori $18, $15, 35532
4455	4238  35F38ACC             ori $19, $15, 35532
4456	423C  31F38ACC             andi $19, $15, 35532
4457	4240  0C001D9C             jal store
4458	4244  0C001D91             jal increment_offset
4459	4248  0C001D86             jal load_patterns
4460	424C  31F20159             andi $18, $15, 345
4461	4250  35F20159             ori $18, $15, 345
4462	4254  35F30159             ori $19, $15, 345
4463	4258  31F30159             andi $19, $15, 345
4464	425C  0C001D9C             jal store
4465	4260  0C001D91             jal increment_offset
4466	4264  0C001D86             jal load_patterns
4467	4268  31F25882             andi $18, $15, 22658
4468	426C  35F25882             ori $18, $15, 22658
4469	4270  35F35882             ori $19, $15, 22658
4470	4274  31F35882             andi $19, $15, 22658
4471	4278  0C001D9C             jal store
4472	427C  0C001D91             jal increment_offset
4473	4280  0C001D86             jal load_patterns
4474	4284  31F21EC8             andi $18, $15, 7880
4475	4288  35F21EC8             ori $18, $15, 7880
4476	428C  35F31EC8             ori $19, $15, 7880
4477	4290  31F31EC8             andi $19, $15, 7880
4478	4294  0C001D9C             jal store
4479	4298  0C001D91             jal increment_offset
4480	429C  0C001D86             jal load_patterns
4481	42A0  31F2D51C             andi $18, $15, 54556
4482	42A4  35F2D51C             ori $18, $15, 54556
4483	42A8  35F3D51C             ori $19, $15, 54556
4484	42AC  31F3D51C             andi $19, $15, 54556
4485	42B0  0C001D9C             jal store
4486	42B4  0C001D91             jal increment_offset
4487	42B8  0C001D86             jal load_patterns
4488	42BC  31F2C4E8             andi $18, $15, 50408
4489	42C0  35F2C4E8             ori $18, $15, 50408
4490	42C4  35F3C4E8             ori $19, $15, 50408
4491	42C8  31F3C4E8             andi $19, $15, 50408
4492	42CC  0C001D9C             jal store
4493	42D0  0C001D91             jal increment_offset
4494	42D4  0C001D86             jal load_patterns
4495	42D8  31F25CB0             andi $18, $15, 23728
4496	42DC  35F25CB0             ori $18, $15, 23728
4497	42E0  35F35CB0             ori $19, $15, 23728
4498	42E4  31F35CB0             andi $19, $15, 23728
4499	42E8  0C001D9C             jal store
4500	42EC  0C001D91             jal increment_offset
4501	42F0  0C001D86             jal load_patterns
4502	42F4  31F206C5             andi $18, $15, 1733
4503	42F8  35F206C5             ori $18, $15, 1733
4504	42FC  35F306C5             ori $19, $15, 1733
4505	4300  31F306C5             andi $19, $15, 1733
4506	4304  0C001D9C             jal store
4507	4308  0C001D91             jal increment_offset
4508	430C  0C001D86             jal load_patterns
4509	4310  31F287AA             andi $18, $15, 34730
4510	4314  35F287AA             ori $18, $15, 34730
4511	4318  35F387AA             ori $19, $15, 34730
4512	431C  31F387AA             andi $19, $15, 34730
4513	4320  0C001D9C             jal store
4514	4324  0C001D91             jal increment_offset
4515	4328  0C001D86             jal load_patterns
4516	432C  31F2FAC3             andi $18, $15, 64195
4517	4330  35F2FAC3             ori $18, $15, 64195
4518	4334  35F3FAC3             ori $19, $15, 64195
4519	4338  31F3FAC3             andi $19, $15, 64195
4520	433C  0C001D9C             jal store
4521	4340  0C001D91             jal increment_offset
4522	4344  0C001D86             jal load_patterns
4523	4348  31F2DB2C             andi $18, $15, 56108
4524	434C  35F2DB2C             ori $18, $15, 56108
4525	4350  35F3DB2C             ori $19, $15, 56108
4526	4354  31F3DB2C             andi $19, $15, 56108
4527	4358  0C001D9C             jal store
4528	435C  0C001D91             jal increment_offset
4529	4360  0C001D86             jal load_patterns
4530	4364  31F2FC93             andi $18, $15, 64659
4531	4368  35F2FC93             ori $18, $15, 64659
4532	436C  35F3FC93             ori $19, $15, 64659
4533	4370  31F3FC93             andi $19, $15, 64659
4534	4374  0C001D9C             jal store
4535	4378  0C001D91             jal increment_offset
4536	                          
4537	437C  0C001D89            jal reset_offsets
4538	4380  0C001D9F            jal init_cp
4539	                          operation_ori_andi:
4540	4384  0C001D86             jal load_patterns
4541	4388  35F2C9F5             ori $18, $15, 51701
4542	438C  31F2C9F5             andi $18, $15, 51701
4543	4390  31F3C9F5             andi $19, $15, 51701
4544	4394  35F3C9F5             ori $19, $15, 51701
4545	4398  0C001D9C             jal store
4546	439C  0C001D91             jal increment_offset
4547	43A0  0C001D86             jal load_patterns
4548	43A4  35F23471             ori $18, $15, 13425
4549	43A8  31F23471             andi $18, $15, 13425
4550	43AC  31F33471             andi $19, $15, 13425
4551	43B0  35F33471             ori $19, $15, 13425
4552	43B4  0C001D9C             jal store
4553	43B8  0C001D91             jal increment_offset
4554	43BC  0C001D86             jal load_patterns
4555	43C0  35F210BD             ori $18, $15, 4285
4556	43C4  31F210BD             andi $18, $15, 4285
4557	43C8  31F310BD             andi $19, $15, 4285
4558	43CC  35F310BD             ori $19, $15, 4285
4559	43D0  0C001D9C             jal store
4560	43D4  0C001D91             jal increment_offset
4561	43D8  0C001D86             jal load_patterns
4562	43DC  35F2B496             ori $18, $15, 46230
4563	43E0  31F2B496             andi $18, $15, 46230
4564	43E4  31F3B496             andi $19, $15, 46230
4565	43E8  35F3B496             ori $19, $15, 46230
4566	43EC  0C001D9C             jal store
4567	43F0  0C001D91             jal increment_offset
4568	43F4  0C001D86             jal load_patterns
4569	43F8  35F25773             ori $18, $15, 22387
4570	43FC  31F25773             andi $18, $15, 22387
4571	4400  31F35773             andi $19, $15, 22387
4572	4404  35F35773             ori $19, $15, 22387
4573	4408  0C001D9C             jal store
4574	440C  0C001D91             jal increment_offset
4575	4410  0C001D86             jal load_patterns
4576	4414  35F2496F             ori $18, $15, 18799
4577	4418  31F2496F             andi $18, $15, 18799
4578	441C  31F3496F             andi $19, $15, 18799
4579	4420  35F3496F             ori $19, $15, 18799
4580	4424  0C001D9C             jal store
4581	4428  0C001D91             jal increment_offset
4582	442C  0C001D86             jal load_patterns
4583	4430  35F2C2E1             ori $18, $15, 49889
4584	4434  31F2C2E1             andi $18, $15, 49889
4585	4438  31F3C2E1             andi $19, $15, 49889
4586	443C  35F3C2E1             ori $19, $15, 49889
4587	4440  0C001D9C             jal store
4588	4444  0C001D91             jal increment_offset
4589	4448  0C001D86             jal load_patterns
4590	444C  35F28CB7             ori $18, $15, 36023
4591	4450  31F28CB7             andi $18, $15, 36023
4592	4454  31F38CB7             andi $19, $15, 36023
4593	4458  35F38CB7             ori $19, $15, 36023
4594	445C  0C001D9C             jal store
4595	4460  0C001D91             jal increment_offset
4596	4464  0C001D86             jal load_patterns
4597	4468  35F2356A             ori $18, $15, 13674
4598	446C  31F2356A             andi $18, $15, 13674
4599	4470  31F3356A             andi $19, $15, 13674
4600	4474  35F3356A             ori $19, $15, 13674
4601	4478  0C001D9C             jal store
4602	447C  0C001D91             jal increment_offset
4603	4480  0C001D86             jal load_patterns
4604	4484  35F2EEC1             ori $18, $15, 61121
4605	4488  31F2EEC1             andi $18, $15, 61121
4606	448C  31F3EEC1             andi $19, $15, 61121
4607	4490  35F3EEC1             ori $19, $15, 61121
4608	4494  0C001D9C             jal store
4609	4498  0C001D91             jal increment_offset
4610	449C  0C001D86             jal load_patterns
4611	44A0  35F224B1             ori $18, $15, 9393
4612	44A4  31F224B1             andi $18, $15, 9393
4613	44A8  31F324B1             andi $19, $15, 9393
4614	44AC  35F324B1             ori $19, $15, 9393
4615	44B0  0C001D9C             jal store
4616	44B4  0C001D91             jal increment_offset
4617	44B8  0C001D86             jal load_patterns
4618	44BC  35F22838             ori $18, $15, 10296
4619	44C0  31F22838             andi $18, $15, 10296
4620	44C4  31F32838             andi $19, $15, 10296
4621	44C8  35F32838             ori $19, $15, 10296
4622	44CC  0C001D9C             jal store
4623	44D0  0C001D91             jal increment_offset
4624	44D4  0C001D86             jal load_patterns
4625	44D8  35F25531             ori $18, $15, 21809
4626	44DC  31F25531             andi $18, $15, 21809
4627	44E0  31F35531             andi $19, $15, 21809
4628	44E4  35F35531             ori $19, $15, 21809
4629	44E8  0C001D9C             jal store
4630	44EC  0C001D91             jal increment_offset
4631	44F0  0C001D86             jal load_patterns
4632	44F4  35F220C3             ori $18, $15, 8387
4633	44F8  31F220C3             andi $18, $15, 8387
4634	44FC  31F320C3             andi $19, $15, 8387
4635	4500  35F320C3             ori $19, $15, 8387
4636	4504  0C001D9C             jal store
4637	4508  0C001D91             jal increment_offset
4638	450C  0C001D86             jal load_patterns
4639	4510  35F27CDD             ori $18, $15, 31965
4640	4514  31F27CDD             andi $18, $15, 31965
4641	4518  31F37CDD             andi $19, $15, 31965
4642	451C  35F37CDD             ori $19, $15, 31965
4643	4520  0C001D9C             jal store
4644	4524  0C001D91             jal increment_offset
4645	4528  0C001D86             jal load_patterns
4646	452C  35F2766A             ori $18, $15, 30314
4647	4530  31F2766A             andi $18, $15, 30314
4648	4534  31F3766A             andi $19, $15, 30314
4649	4538  35F3766A             ori $19, $15, 30314
4650	453C  0C001D9C             jal store
4651	4540  0C001D91             jal increment_offset
4652	4544  0C001D86             jal load_patterns
4653	4548  35F2E5EC             ori $18, $15, 58860
4654	454C  31F2E5EC             andi $18, $15, 58860
4655	4550  31F3E5EC             andi $19, $15, 58860
4656	4554  35F3E5EC             ori $19, $15, 58860
4657	4558  0C001D9C             jal store
4658	455C  0C001D91             jal increment_offset
4659	4560  0C001D86             jal load_patterns
4660	4564  35F2FD41             ori $18, $15, 64833
4661	4568  31F2FD41             andi $18, $15, 64833
4662	456C  31F3FD41             andi $19, $15, 64833
4663	4570  35F3FD41             ori $19, $15, 64833
4664	4574  0C001D9C             jal store
4665	4578  0C001D91             jal increment_offset
4666	457C  0C001D86             jal load_patterns
4667	4580  35F20238             ori $18, $15, 568
4668	4584  31F20238             andi $18, $15, 568
4669	4588  31F30238             andi $19, $15, 568
4670	458C  35F30238             ori $19, $15, 568
4671	4590  0C001D9C             jal store
4672	4594  0C001D91             jal increment_offset
4673	4598  0C001D86             jal load_patterns
4674	459C  35F2C8FE             ori $18, $15, 51454
4675	45A0  31F2C8FE             andi $18, $15, 51454
4676	45A4  31F3C8FE             andi $19, $15, 51454
4677	45A8  35F3C8FE             ori $19, $15, 51454
4678	45AC  0C001D9C             jal store
4679	45B0  0C001D91             jal increment_offset
4680	45B4  0C001D86             jal load_patterns
4681	45B8  35F27FCF             ori $18, $15, 32719
4682	45BC  31F27FCF             andi $18, $15, 32719
4683	45C0  31F37FCF             andi $19, $15, 32719
4684	45C4  35F37FCF             ori $19, $15, 32719
4685	45C8  0C001D9C             jal store
4686	45CC  0C001D91             jal increment_offset
4687	45D0  0C001D86             jal load_patterns
4688	45D4  35F24CC2             ori $18, $15, 19650
4689	45D8  31F24CC2             andi $18, $15, 19650
4690	45DC  31F34CC2             andi $19, $15, 19650
4691	45E0  35F34CC2             ori $19, $15, 19650
4692	45E4  0C001D9C             jal store
4693	45E8  0C001D91             jal increment_offset
4694	45EC  0C001D86             jal load_patterns
4695	45F0  35F2A8D0             ori $18, $15, 43216
4696	45F4  31F2A8D0             andi $18, $15, 43216
4697	45F8  31F3A8D0             andi $19, $15, 43216
4698	45FC  35F3A8D0             ori $19, $15, 43216
4699	4600  0C001D9C             jal store
4700	4604  0C001D91             jal increment_offset
4701	4608  0C001D86             jal load_patterns
4702	460C  35F28748             ori $18, $15, 34632
4703	4610  31F28748             andi $18, $15, 34632
4704	4614  31F38748             andi $19, $15, 34632
4705	4618  35F38748             ori $19, $15, 34632
4706	461C  0C001D9C             jal store
4707	4620  0C001D91             jal increment_offset
4708	4624  0C001D86             jal load_patterns
4709	4628  35F2999C             ori $18, $15, 39324
4710	462C  31F2999C             andi $18, $15, 39324
4711	4630  31F3999C             andi $19, $15, 39324
4712	4634  35F3999C             ori $19, $15, 39324
4713	4638  0C001D9C             jal store
4714	463C  0C001D91             jal increment_offset
4715	4640  0C001D86             jal load_patterns
4716	4644  35F2D796             ori $18, $15, 55190
4717	4648  31F2D796             andi $18, $15, 55190
4718	464C  31F3D796             andi $19, $15, 55190
4719	4650  35F3D796             ori $19, $15, 55190
4720	4654  0C001D9C             jal store
4721	4658  0C001D91             jal increment_offset
4722	465C  0C001D86             jal load_patterns
4723	4660  35F2CC26             ori $18, $15, 52262
4724	4664  31F2CC26             andi $18, $15, 52262
4725	4668  31F3CC26             andi $19, $15, 52262
4726	466C  35F3CC26             ori $19, $15, 52262
4727	4670  0C001D9C             jal store
4728	4674  0C001D91             jal increment_offset
4729	4678  0C001D86             jal load_patterns
4730	467C  35F24B2C             ori $18, $15, 19244
4731	4680  31F24B2C             andi $18, $15, 19244
4732	4684  31F34B2C             andi $19, $15, 19244
4733	4688  35F34B2C             ori $19, $15, 19244
4734	468C  0C001D9C             jal store
4735	4690  0C001D91             jal increment_offset
4736	4694  0C001D86             jal load_patterns
4737	4698  35F2B336             ori $18, $15, 45878
4738	469C  31F2B336             andi $18, $15, 45878
4739	46A0  31F3B336             andi $19, $15, 45878
4740	46A4  35F3B336             ori $19, $15, 45878
4741	46A8  0C001D9C             jal store
4742	46AC  0C001D91             jal increment_offset
4743	46B0  0C001D86             jal load_patterns
4744	46B4  35F22A22             ori $18, $15, 10786
4745	46B8  31F22A22             andi $18, $15, 10786
4746	46BC  31F32A22             andi $19, $15, 10786
4747	46C0  35F32A22             ori $19, $15, 10786
4748	46C4  0C001D9C             jal store
4749	46C8  0C001D91             jal increment_offset
4750	46CC  0C001D86             jal load_patterns
4751	46D0  35F257D7             ori $18, $15, 22487
4752	46D4  31F257D7             andi $18, $15, 22487
4753	46D8  31F357D7             andi $19, $15, 22487
4754	46DC  35F357D7             ori $19, $15, 22487
4755	46E0  0C001D9C             jal store
4756	46E4  0C001D91             jal increment_offset
4757	46E8  0C001D86             jal load_patterns
4758	46EC  35F29FFE             ori $18, $15, 40958
4759	46F0  31F29FFE             andi $18, $15, 40958
4760	46F4  31F39FFE             andi $19, $15, 40958
4761	46F8  35F39FFE             ori $19, $15, 40958
4762	46FC  0C001D9C             jal store
4763	4700  0C001D91             jal increment_offset
4764	4704  0C001D86             jal load_patterns
4765	4708  35F238A4             ori $18, $15, 14500
4766	470C  31F238A4             andi $18, $15, 14500
4767	4710  31F338A4             andi $19, $15, 14500
4768	4714  35F338A4             ori $19, $15, 14500
4769	4718  0C001D9C             jal store
4770	471C  0C001D91             jal increment_offset
4771	4720  0C001D86             jal load_patterns
4772	4724  35F269E2             ori $18, $15, 27106
4773	4728  31F269E2             andi $18, $15, 27106
4774	472C  31F369E2             andi $19, $15, 27106
4775	4730  35F369E2             ori $19, $15, 27106
4776	4734  0C001D9C             jal store
4777	4738  0C001D91             jal increment_offset
4778	473C  0C001D86             jal load_patterns
4779	4740  35F2481D             ori $18, $15, 18461
4780	4744  31F2481D             andi $18, $15, 18461
4781	4748  31F3481D             andi $19, $15, 18461
4782	474C  35F3481D             ori $19, $15, 18461
4783	4750  0C001D9C             jal store
4784	4754  0C001D91             jal increment_offset
4785	4758  0C001D86             jal load_patterns
4786	475C  35F24987             ori $18, $15, 18823
4787	4760  31F24987             andi $18, $15, 18823
4788	4764  31F34987             andi $19, $15, 18823
4789	4768  35F34987             ori $19, $15, 18823
4790	476C  0C001D9C             jal store
4791	4770  0C001D91             jal increment_offset
4792	4774  0C001D86             jal load_patterns
4793	4778  35F27A49             ori $18, $15, 31305
4794	477C  31F27A49             andi $18, $15, 31305
4795	4780  31F37A49             andi $19, $15, 31305
4796	4784  35F37A49             ori $19, $15, 31305
4797	4788  0C001D9C             jal store
4798	478C  0C001D91             jal increment_offset
4799	4790  0C001D86             jal load_patterns
4800	4794  35F2AF83             ori $18, $15, 44931
4801	4798  31F2AF83             andi $18, $15, 44931
4802	479C  31F3AF83             andi $19, $15, 44931
4803	47A0  35F3AF83             ori $19, $15, 44931
4804	47A4  0C001D9C             jal store
4805	47A8  0C001D91             jal increment_offset
4806	47AC  0C001D86             jal load_patterns
4807	47B0  35F2A2DF             ori $18, $15, 41695
4808	47B4  31F2A2DF             andi $18, $15, 41695
4809	47B8  31F3A2DF             andi $19, $15, 41695
4810	47BC  35F3A2DF             ori $19, $15, 41695
4811	47C0  0C001D9C             jal store
4812	47C4  0C001D91             jal increment_offset
4813	47C8  0C001D86             jal load_patterns
4814	47CC  35F202AD             ori $18, $15, 685
4815	47D0  31F202AD             andi $18, $15, 685
4816	47D4  31F302AD             andi $19, $15, 685
4817	47D8  35F302AD             ori $19, $15, 685
4818	47DC  0C001D9C             jal store
4819	47E0  0C001D91             jal increment_offset
4820	47E4  0C001D86             jal load_patterns
4821	47E8  35F25D70             ori $18, $15, 23920
4822	47EC  31F25D70             andi $18, $15, 23920
4823	47F0  31F35D70             andi $19, $15, 23920
4824	47F4  35F35D70             ori $19, $15, 23920
4825	47F8  0C001D9C             jal store
4826	47FC  0C001D91             jal increment_offset
4827	4800  0C001D86             jal load_patterns
4828	4804  35F27410             ori $18, $15, 29712
4829	4808  31F27410             andi $18, $15, 29712
4830	480C  31F37410             andi $19, $15, 29712
4831	4810  35F37410             ori $19, $15, 29712
4832	4814  0C001D9C             jal store
4833	4818  0C001D91             jal increment_offset
4834	481C  0C001D86             jal load_patterns
4835	4820  35F2D17E             ori $18, $15, 53630
4836	4824  31F2D17E             andi $18, $15, 53630
4837	4828  31F3D17E             andi $19, $15, 53630
4838	482C  35F3D17E             ori $19, $15, 53630
4839	4830  0C001D9C             jal store
4840	4834  0C001D91             jal increment_offset
4841	4838  0C001D86             jal load_patterns
4842	483C  35F2AB28             ori $18, $15, 43816
4843	4840  31F2AB28             andi $18, $15, 43816
4844	4844  31F3AB28             andi $19, $15, 43816
4845	4848  35F3AB28             ori $19, $15, 43816
4846	484C  0C001D9C             jal store
4847	4850  0C001D91             jal increment_offset
4848	4854  0C001D86             jal load_patterns
4849	4858  35F2A1AF             ori $18, $15, 41391
4850	485C  31F2A1AF             andi $18, $15, 41391
4851	4860  31F3A1AF             andi $19, $15, 41391
4852	4864  35F3A1AF             ori $19, $15, 41391
4853	4868  0C001D9C             jal store
4854	486C  0C001D91             jal increment_offset
4855	4870  0C001D86             jal load_patterns
4856	4874  35F21A1F             ori $18, $15, 6687
4857	4878  31F21A1F             andi $18, $15, 6687
4858	487C  31F31A1F             andi $19, $15, 6687
4859	4880  35F31A1F             ori $19, $15, 6687
4860	4884  0C001D9C             jal store
4861	4888  0C001D91             jal increment_offset
4862	488C  0C001D86             jal load_patterns
4863	4890  35F22369             ori $18, $15, 9065
4864	4894  31F22369             andi $18, $15, 9065
4865	4898  31F32369             andi $19, $15, 9065
4866	489C  35F32369             ori $19, $15, 9065
4867	48A0  0C001D9C             jal store
4868	48A4  0C001D91             jal increment_offset
4869	48A8  0C001D86             jal load_patterns
4870	48AC  35F2AFBE             ori $18, $15, 44990
4871	48B0  31F2AFBE             andi $18, $15, 44990
4872	48B4  31F3AFBE             andi $19, $15, 44990
4873	48B8  35F3AFBE             ori $19, $15, 44990
4874	48BC  0C001D9C             jal store
4875	48C0  0C001D91             jal increment_offset
4876	48C4  0C001D86             jal load_patterns
4877	48C8  35F26877             ori $18, $15, 26743
4878	48CC  31F26877             andi $18, $15, 26743
4879	48D0  31F36877             andi $19, $15, 26743
4880	48D4  35F36877             ori $19, $15, 26743
4881	48D8  0C001D9C             jal store
4882	48DC  0C001D91             jal increment_offset
4883	48E0  0C001D86             jal load_patterns
4884	48E4  35F2FBA0             ori $18, $15, 64416
4885	48E8  31F2FBA0             andi $18, $15, 64416
4886	48EC  31F3FBA0             andi $19, $15, 64416
4887	48F0  35F3FBA0             ori $19, $15, 64416
4888	48F4  0C001D9C             jal store
4889	48F8  0C001D91             jal increment_offset
4890	48FC  0C001D86             jal load_patterns
4891	4900  35F2CFF9             ori $18, $15, 53241
4892	4904  31F2CFF9             andi $18, $15, 53241
4893	4908  31F3CFF9             andi $19, $15, 53241
4894	490C  35F3CFF9             ori $19, $15, 53241
4895	4910  0C001D9C             jal store
4896	4914  0C001D91             jal increment_offset
4897	4918  0C001D86             jal load_patterns
4898	491C  35F2B14E             ori $18, $15, 45390
4899	4920  31F2B14E             andi $18, $15, 45390
4900	4924  31F3B14E             andi $19, $15, 45390
4901	4928  35F3B14E             ori $19, $15, 45390
4902	492C  0C001D9C             jal store
4903	4930  0C001D91             jal increment_offset
4904	4934  0C001D86             jal load_patterns
4905	4938  35F28ACC             ori $18, $15, 35532
4906	493C  31F28ACC             andi $18, $15, 35532
4907	4940  31F38ACC             andi $19, $15, 35532
4908	4944  35F38ACC             ori $19, $15, 35532
4909	4948  0C001D9C             jal store
4910	494C  0C001D91             jal increment_offset
4911	4950  0C001D86             jal load_patterns
4912	4954  35F20159             ori $18, $15, 345
4913	4958  31F20159             andi $18, $15, 345
4914	495C  31F30159             andi $19, $15, 345
4915	4960  35F30159             ori $19, $15, 345
4916	4964  0C001D9C             jal store
4917	4968  0C001D91             jal increment_offset
4918	496C  0C001D86             jal load_patterns
4919	4970  35F25882             ori $18, $15, 22658
4920	4974  31F25882             andi $18, $15, 22658
4921	4978  31F35882             andi $19, $15, 22658
4922	497C  35F35882             ori $19, $15, 22658
4923	4980  0C001D9C             jal store
4924	4984  0C001D91             jal increment_offset
4925	4988  0C001D86             jal load_patterns
4926	498C  35F21EC8             ori $18, $15, 7880
4927	4990  31F21EC8             andi $18, $15, 7880
4928	4994  31F31EC8             andi $19, $15, 7880
4929	4998  35F31EC8             ori $19, $15, 7880
4930	499C  0C001D9C             jal store
4931	49A0  0C001D91             jal increment_offset
4932	49A4  0C001D86             jal load_patterns
4933	49A8  35F2D51C             ori $18, $15, 54556
4934	49AC  31F2D51C             andi $18, $15, 54556
4935	49B0  31F3D51C             andi $19, $15, 54556
4936	49B4  35F3D51C             ori $19, $15, 54556
4937	49B8  0C001D9C             jal store
4938	49BC  0C001D91             jal increment_offset
4939	49C0  0C001D86             jal load_patterns
4940	49C4  35F2C4E8             ori $18, $15, 50408
4941	49C8  31F2C4E8             andi $18, $15, 50408
4942	49CC  31F3C4E8             andi $19, $15, 50408
4943	49D0  35F3C4E8             ori $19, $15, 50408
4944	49D4  0C001D9C             jal store
4945	49D8  0C001D91             jal increment_offset
4946	49DC  0C001D86             jal load_patterns
4947	49E0  35F25CB0             ori $18, $15, 23728
4948	49E4  31F25CB0             andi $18, $15, 23728
4949	49E8  31F35CB0             andi $19, $15, 23728
4950	49EC  35F35CB0             ori $19, $15, 23728
4951	49F0  0C001D9C             jal store
4952	49F4  0C001D91             jal increment_offset
4953	49F8  0C001D86             jal load_patterns
4954	49FC  35F206C5             ori $18, $15, 1733
4955	4A00  31F206C5             andi $18, $15, 1733
4956	4A04  31F306C5             andi $19, $15, 1733
4957	4A08  35F306C5             ori $19, $15, 1733
4958	4A0C  0C001D9C             jal store
4959	4A10  0C001D91             jal increment_offset
4960	4A14  0C001D86             jal load_patterns
4961	4A18  35F287AA             ori $18, $15, 34730
4962	4A1C  31F287AA             andi $18, $15, 34730
4963	4A20  31F387AA             andi $19, $15, 34730
4964	4A24  35F387AA             ori $19, $15, 34730
4965	4A28  0C001D9C             jal store
4966	4A2C  0C001D91             jal increment_offset
4967	4A30  0C001D86             jal load_patterns
4968	4A34  35F2FAC3             ori $18, $15, 64195
4969	4A38  31F2FAC3             andi $18, $15, 64195
4970	4A3C  31F3FAC3             andi $19, $15, 64195
4971	4A40  35F3FAC3             ori $19, $15, 64195
4972	4A44  0C001D9C             jal store
4973	4A48  0C001D91             jal increment_offset
4974	4A4C  0C001D86             jal load_patterns
4975	4A50  35F2DB2C             ori $18, $15, 56108
4976	4A54  31F2DB2C             andi $18, $15, 56108
4977	4A58  31F3DB2C             andi $19, $15, 56108
4978	4A5C  35F3DB2C             ori $19, $15, 56108
4979	4A60  0C001D9C             jal store
4980	4A64  0C001D91             jal increment_offset
4981	4A68  0C001D86             jal load_patterns
4982	4A6C  35F2FC93             ori $18, $15, 64659
4983	4A70  31F2FC93             andi $18, $15, 64659
4984	4A74  31F3FC93             andi $19, $15, 64659
4985	4A78  35F3FC93             ori $19, $15, 64659
4986	4A7C  0C001D9C             jal store
4987	4A80  0C001D91             jal increment_offset
4988	                          
4989	4A84  0C001D89            jal reset_offsets
4990	4A88  0C001D9F            jal init_cp
4991	                          operation_slti_ori:
4992	4A8C  0C001D86             jal load_patterns
4993	4A90  29F2C9F5             slti $18, $15, 51701
4994	4A94  35F2C9F5             ori $18, $15, 51701
4995	4A98  35F3C9F5             ori $19, $15, 51701
4996	4A9C  29F3C9F5             slti $19, $15, 51701
4997	4AA0  0C001D9C             jal store
4998	4AA4  0C001D91             jal increment_offset
4999	4AA8  0C001D86             jal load_patterns
5000	4AAC  29F23471             slti $18, $15, 13425
5001	4AB0  35F23471             ori $18, $15, 13425
5002	4AB4  35F33471             ori $19, $15, 13425
5003	4AB8  29F33471             slti $19, $15, 13425
5004	4ABC  0C001D9C             jal store
5005	4AC0  0C001D91             jal increment_offset
5006	4AC4  0C001D86             jal load_patterns
5007	4AC8  29F210BD             slti $18, $15, 4285
5008	4ACC  35F210BD             ori $18, $15, 4285
5009	4AD0  35F310BD             ori $19, $15, 4285
5010	4AD4  29F310BD             slti $19, $15, 4285
5011	4AD8  0C001D9C             jal store
5012	4ADC  0C001D91             jal increment_offset
5013	4AE0  0C001D86             jal load_patterns
5014	4AE4  29F2B496             slti $18, $15, 46230
5015	4AE8  35F2B496             ori $18, $15, 46230
5016	4AEC  35F3B496             ori $19, $15, 46230
5017	4AF0  29F3B496             slti $19, $15, 46230
5018	4AF4  0C001D9C             jal store
5019	4AF8  0C001D91             jal increment_offset
5020	4AFC  0C001D86             jal load_patterns
5021	4B00  29F25773             slti $18, $15, 22387
5022	4B04  35F25773             ori $18, $15, 22387
5023	4B08  35F35773             ori $19, $15, 22387
5024	4B0C  29F35773             slti $19, $15, 22387
5025	4B10  0C001D9C             jal store
5026	4B14  0C001D91             jal increment_offset
5027	4B18  0C001D86             jal load_patterns
5028	4B1C  29F2496F             slti $18, $15, 18799
5029	4B20  35F2496F             ori $18, $15, 18799
5030	4B24  35F3496F             ori $19, $15, 18799
5031	4B28  29F3496F             slti $19, $15, 18799
5032	4B2C  0C001D9C             jal store
5033	4B30  0C001D91             jal increment_offset
5034	4B34  0C001D86             jal load_patterns
5035	4B38  29F2C2E1             slti $18, $15, 49889
5036	4B3C  35F2C2E1             ori $18, $15, 49889
5037	4B40  35F3C2E1             ori $19, $15, 49889
5038	4B44  29F3C2E1             slti $19, $15, 49889
5039	4B48  0C001D9C             jal store
5040	4B4C  0C001D91             jal increment_offset
5041	4B50  0C001D86             jal load_patterns
5042	4B54  29F28CB7             slti $18, $15, 36023
5043	4B58  35F28CB7             ori $18, $15, 36023
5044	4B5C  35F38CB7             ori $19, $15, 36023
5045	4B60  29F38CB7             slti $19, $15, 36023
5046	4B64  0C001D9C             jal store
5047	4B68  0C001D91             jal increment_offset
5048	4B6C  0C001D86             jal load_patterns
5049	4B70  29F2356A             slti $18, $15, 13674
5050	4B74  35F2356A             ori $18, $15, 13674
5051	4B78  35F3356A             ori $19, $15, 13674
5052	4B7C  29F3356A             slti $19, $15, 13674
5053	4B80  0C001D9C             jal store
5054	4B84  0C001D91             jal increment_offset
5055	4B88  0C001D86             jal load_patterns
5056	4B8C  29F2EEC1             slti $18, $15, 61121
5057	4B90  35F2EEC1             ori $18, $15, 61121
5058	4B94  35F3EEC1             ori $19, $15, 61121
5059	4B98  29F3EEC1             slti $19, $15, 61121
5060	4B9C  0C001D9C             jal store
5061	4BA0  0C001D91             jal increment_offset
5062	4BA4  0C001D86             jal load_patterns
5063	4BA8  29F224B1             slti $18, $15, 9393
5064	4BAC  35F224B1             ori $18, $15, 9393
5065	4BB0  35F324B1             ori $19, $15, 9393
5066	4BB4  29F324B1             slti $19, $15, 9393
5067	4BB8  0C001D9C             jal store
5068	4BBC  0C001D91             jal increment_offset
5069	4BC0  0C001D86             jal load_patterns
5070	4BC4  29F22838             slti $18, $15, 10296
5071	4BC8  35F22838             ori $18, $15, 10296
5072	4BCC  35F32838             ori $19, $15, 10296
5073	4BD0  29F32838             slti $19, $15, 10296
5074	4BD4  0C001D9C             jal store
5075	4BD8  0C001D91             jal increment_offset
5076	4BDC  0C001D86             jal load_patterns
5077	4BE0  29F25531             slti $18, $15, 21809
5078	4BE4  35F25531             ori $18, $15, 21809
5079	4BE8  35F35531             ori $19, $15, 21809
5080	4BEC  29F35531             slti $19, $15, 21809
5081	4BF0  0C001D9C             jal store
5082	4BF4  0C001D91             jal increment_offset
5083	4BF8  0C001D86             jal load_patterns
5084	4BFC  29F220C3             slti $18, $15, 8387
5085	4C00  35F220C3             ori $18, $15, 8387
5086	4C04  35F320C3             ori $19, $15, 8387
5087	4C08  29F320C3             slti $19, $15, 8387
5088	4C0C  0C001D9C             jal store
5089	4C10  0C001D91             jal increment_offset
5090	4C14  0C001D86             jal load_patterns
5091	4C18  29F27CDD             slti $18, $15, 31965
5092	4C1C  35F27CDD             ori $18, $15, 31965
5093	4C20  35F37CDD             ori $19, $15, 31965
5094	4C24  29F37CDD             slti $19, $15, 31965
5095	4C28  0C001D9C             jal store
5096	4C2C  0C001D91             jal increment_offset
5097	4C30  0C001D86             jal load_patterns
5098	4C34  29F2766A             slti $18, $15, 30314
5099	4C38  35F2766A             ori $18, $15, 30314
5100	4C3C  35F3766A             ori $19, $15, 30314
5101	4C40  29F3766A             slti $19, $15, 30314
5102	4C44  0C001D9C             jal store
5103	4C48  0C001D91             jal increment_offset
5104	4C4C  0C001D86             jal load_patterns
5105	4C50  29F2E5EC             slti $18, $15, 58860
5106	4C54  35F2E5EC             ori $18, $15, 58860
5107	4C58  35F3E5EC             ori $19, $15, 58860
5108	4C5C  29F3E5EC             slti $19, $15, 58860
5109	4C60  0C001D9C             jal store
5110	4C64  0C001D91             jal increment_offset
5111	4C68  0C001D86             jal load_patterns
5112	4C6C  29F2FD41             slti $18, $15, 64833
5113	4C70  35F2FD41             ori $18, $15, 64833
5114	4C74  35F3FD41             ori $19, $15, 64833
5115	4C78  29F3FD41             slti $19, $15, 64833
5116	4C7C  0C001D9C             jal store
5117	4C80  0C001D91             jal increment_offset
5118	4C84  0C001D86             jal load_patterns
5119	4C88  29F20238             slti $18, $15, 568
5120	4C8C  35F20238             ori $18, $15, 568
5121	4C90  35F30238             ori $19, $15, 568
5122	4C94  29F30238             slti $19, $15, 568
5123	4C98  0C001D9C             jal store
5124	4C9C  0C001D91             jal increment_offset
5125	4CA0  0C001D86             jal load_patterns
5126	4CA4  29F2C8FE             slti $18, $15, 51454
5127	4CA8  35F2C8FE             ori $18, $15, 51454
5128	4CAC  35F3C8FE             ori $19, $15, 51454
5129	4CB0  29F3C8FE             slti $19, $15, 51454
5130	4CB4  0C001D9C             jal store
5131	4CB8  0C001D91             jal increment_offset
5132	4CBC  0C001D86             jal load_patterns
5133	4CC0  29F27FCF             slti $18, $15, 32719
5134	4CC4  35F27FCF             ori $18, $15, 32719
5135	4CC8  35F37FCF             ori $19, $15, 32719
5136	4CCC  29F37FCF             slti $19, $15, 32719
5137	4CD0  0C001D9C             jal store
5138	4CD4  0C001D91             jal increment_offset
5139	4CD8  0C001D86             jal load_patterns
5140	4CDC  29F24CC2             slti $18, $15, 19650
5141	4CE0  35F24CC2             ori $18, $15, 19650
5142	4CE4  35F34CC2             ori $19, $15, 19650
5143	4CE8  29F34CC2             slti $19, $15, 19650
5144	4CEC  0C001D9C             jal store
5145	4CF0  0C001D91             jal increment_offset
5146	4CF4  0C001D86             jal load_patterns
5147	4CF8  29F2A8D0             slti $18, $15, 43216
5148	4CFC  35F2A8D0             ori $18, $15, 43216
5149	4D00  35F3A8D0             ori $19, $15, 43216
5150	4D04  29F3A8D0             slti $19, $15, 43216
5151	4D08  0C001D9C             jal store
5152	4D0C  0C001D91             jal increment_offset
5153	4D10  0C001D86             jal load_patterns
5154	4D14  29F28748             slti $18, $15, 34632
5155	4D18  35F28748             ori $18, $15, 34632
5156	4D1C  35F38748             ori $19, $15, 34632
5157	4D20  29F38748             slti $19, $15, 34632
5158	4D24  0C001D9C             jal store
5159	4D28  0C001D91             jal increment_offset
5160	4D2C  0C001D86             jal load_patterns
5161	4D30  29F2999C             slti $18, $15, 39324
5162	4D34  35F2999C             ori $18, $15, 39324
5163	4D38  35F3999C             ori $19, $15, 39324
5164	4D3C  29F3999C             slti $19, $15, 39324
5165	4D40  0C001D9C             jal store
5166	4D44  0C001D91             jal increment_offset
5167	4D48  0C001D86             jal load_patterns
5168	4D4C  29F2D796             slti $18, $15, 55190
5169	4D50  35F2D796             ori $18, $15, 55190
5170	4D54  35F3D796             ori $19, $15, 55190
5171	4D58  29F3D796             slti $19, $15, 55190
5172	4D5C  0C001D9C             jal store
5173	4D60  0C001D91             jal increment_offset
5174	4D64  0C001D86             jal load_patterns
5175	4D68  29F2CC26             slti $18, $15, 52262
5176	4D6C  35F2CC26             ori $18, $15, 52262
5177	4D70  35F3CC26             ori $19, $15, 52262
5178	4D74  29F3CC26             slti $19, $15, 52262
5179	4D78  0C001D9C             jal store
5180	4D7C  0C001D91             jal increment_offset
5181	4D80  0C001D86             jal load_patterns
5182	4D84  29F24B2C             slti $18, $15, 19244
5183	4D88  35F24B2C             ori $18, $15, 19244
5184	4D8C  35F34B2C             ori $19, $15, 19244
5185	4D90  29F34B2C             slti $19, $15, 19244
5186	4D94  0C001D9C             jal store
5187	4D98  0C001D91             jal increment_offset
5188	4D9C  0C001D86             jal load_patterns
5189	4DA0  29F2B336             slti $18, $15, 45878
5190	4DA4  35F2B336             ori $18, $15, 45878
5191	4DA8  35F3B336             ori $19, $15, 45878
5192	4DAC  29F3B336             slti $19, $15, 45878
5193	4DB0  0C001D9C             jal store
5194	4DB4  0C001D91             jal increment_offset
5195	4DB8  0C001D86             jal load_patterns
5196	4DBC  29F22A22             slti $18, $15, 10786
5197	4DC0  35F22A22             ori $18, $15, 10786
5198	4DC4  35F32A22             ori $19, $15, 10786
5199	4DC8  29F32A22             slti $19, $15, 10786
5200	4DCC  0C001D9C             jal store
5201	4DD0  0C001D91             jal increment_offset
5202	4DD4  0C001D86             jal load_patterns
5203	4DD8  29F257D7             slti $18, $15, 22487
5204	4DDC  35F257D7             ori $18, $15, 22487
5205	4DE0  35F357D7             ori $19, $15, 22487
5206	4DE4  29F357D7             slti $19, $15, 22487
5207	4DE8  0C001D9C             jal store
5208	4DEC  0C001D91             jal increment_offset
5209	4DF0  0C001D86             jal load_patterns
5210	4DF4  29F29FFE             slti $18, $15, 40958
5211	4DF8  35F29FFE             ori $18, $15, 40958
5212	4DFC  35F39FFE             ori $19, $15, 40958
5213	4E00  29F39FFE             slti $19, $15, 40958
5214	4E04  0C001D9C             jal store
5215	4E08  0C001D91             jal increment_offset
5216	4E0C  0C001D86             jal load_patterns
5217	4E10  29F238A4             slti $18, $15, 14500
5218	4E14  35F238A4             ori $18, $15, 14500
5219	4E18  35F338A4             ori $19, $15, 14500
5220	4E1C  29F338A4             slti $19, $15, 14500
5221	4E20  0C001D9C             jal store
5222	4E24  0C001D91             jal increment_offset
5223	4E28  0C001D86             jal load_patterns
5224	4E2C  29F269E2             slti $18, $15, 27106
5225	4E30  35F269E2             ori $18, $15, 27106
5226	4E34  35F369E2             ori $19, $15, 27106
5227	4E38  29F369E2             slti $19, $15, 27106
5228	4E3C  0C001D9C             jal store
5229	4E40  0C001D91             jal increment_offset
5230	4E44  0C001D86             jal load_patterns
5231	4E48  29F2481D             slti $18, $15, 18461
5232	4E4C  35F2481D             ori $18, $15, 18461
5233	4E50  35F3481D             ori $19, $15, 18461
5234	4E54  29F3481D             slti $19, $15, 18461
5235	4E58  0C001D9C             jal store
5236	4E5C  0C001D91             jal increment_offset
5237	4E60  0C001D86             jal load_patterns
5238	4E64  29F24987             slti $18, $15, 18823
5239	4E68  35F24987             ori $18, $15, 18823
5240	4E6C  35F34987             ori $19, $15, 18823
5241	4E70  29F34987             slti $19, $15, 18823
5242	4E74  0C001D9C             jal store
5243	4E78  0C001D91             jal increment_offset
5244	4E7C  0C001D86             jal load_patterns
5245	4E80  29F27A49             slti $18, $15, 31305
5246	4E84  35F27A49             ori $18, $15, 31305
5247	4E88  35F37A49             ori $19, $15, 31305
5248	4E8C  29F37A49             slti $19, $15, 31305
5249	4E90  0C001D9C             jal store
5250	4E94  0C001D91             jal increment_offset
5251	4E98  0C001D86             jal load_patterns
5252	4E9C  29F2AF83             slti $18, $15, 44931
5253	4EA0  35F2AF83             ori $18, $15, 44931
5254	4EA4  35F3AF83             ori $19, $15, 44931
5255	4EA8  29F3AF83             slti $19, $15, 44931
5256	4EAC  0C001D9C             jal store
5257	4EB0  0C001D91             jal increment_offset
5258	4EB4  0C001D86             jal load_patterns
5259	4EB8  29F2A2DF             slti $18, $15, 41695
5260	4EBC  35F2A2DF             ori $18, $15, 41695
5261	4EC0  35F3A2DF             ori $19, $15, 41695
5262	4EC4  29F3A2DF             slti $19, $15, 41695
5263	4EC8  0C001D9C             jal store
5264	4ECC  0C001D91             jal increment_offset
5265	4ED0  0C001D86             jal load_patterns
5266	4ED4  29F202AD             slti $18, $15, 685
5267	4ED8  35F202AD             ori $18, $15, 685
5268	4EDC  35F302AD             ori $19, $15, 685
5269	4EE0  29F302AD             slti $19, $15, 685
5270	4EE4  0C001D9C             jal store
5271	4EE8  0C001D91             jal increment_offset
5272	4EEC  0C001D86             jal load_patterns
5273	4EF0  29F25D70             slti $18, $15, 23920
5274	4EF4  35F25D70             ori $18, $15, 23920
5275	4EF8  35F35D70             ori $19, $15, 23920
5276	4EFC  29F35D70             slti $19, $15, 23920
5277	4F00  0C001D9C             jal store
5278	4F04  0C001D91             jal increment_offset
5279	4F08  0C001D86             jal load_patterns
5280	4F0C  29F27410             slti $18, $15, 29712
5281	4F10  35F27410             ori $18, $15, 29712
5282	4F14  35F37410             ori $19, $15, 29712
5283	4F18  29F37410             slti $19, $15, 29712
5284	4F1C  0C001D9C             jal store
5285	4F20  0C001D91             jal increment_offset
5286	4F24  0C001D86             jal load_patterns
5287	4F28  29F2D17E             slti $18, $15, 53630
5288	4F2C  35F2D17E             ori $18, $15, 53630
5289	4F30  35F3D17E             ori $19, $15, 53630
5290	4F34  29F3D17E             slti $19, $15, 53630
5291	4F38  0C001D9C             jal store
5292	4F3C  0C001D91             jal increment_offset
5293	4F40  0C001D86             jal load_patterns
5294	4F44  29F2AB28             slti $18, $15, 43816
5295	4F48  35F2AB28             ori $18, $15, 43816
5296	4F4C  35F3AB28             ori $19, $15, 43816
5297	4F50  29F3AB28             slti $19, $15, 43816
5298	4F54  0C001D9C             jal store
5299	4F58  0C001D91             jal increment_offset
5300	4F5C  0C001D86             jal load_patterns
5301	4F60  29F2A1AF             slti $18, $15, 41391
5302	4F64  35F2A1AF             ori $18, $15, 41391
5303	4F68  35F3A1AF             ori $19, $15, 41391
5304	4F6C  29F3A1AF             slti $19, $15, 41391
5305	4F70  0C001D9C             jal store
5306	4F74  0C001D91             jal increment_offset
5307	4F78  0C001D86             jal load_patterns
5308	4F7C  29F21A1F             slti $18, $15, 6687
5309	4F80  35F21A1F             ori $18, $15, 6687
5310	4F84  35F31A1F             ori $19, $15, 6687
5311	4F88  29F31A1F             slti $19, $15, 6687
5312	4F8C  0C001D9C             jal store
5313	4F90  0C001D91             jal increment_offset
5314	4F94  0C001D86             jal load_patterns
5315	4F98  29F22369             slti $18, $15, 9065
5316	4F9C  35F22369             ori $18, $15, 9065
5317	4FA0  35F32369             ori $19, $15, 9065
5318	4FA4  29F32369             slti $19, $15, 9065
5319	4FA8  0C001D9C             jal store
5320	4FAC  0C001D91             jal increment_offset
5321	4FB0  0C001D86             jal load_patterns
5322	4FB4  29F2AFBE             slti $18, $15, 44990
5323	4FB8  35F2AFBE             ori $18, $15, 44990
5324	4FBC  35F3AFBE             ori $19, $15, 44990
5325	4FC0  29F3AFBE             slti $19, $15, 44990
5326	4FC4  0C001D9C             jal store
5327	4FC8  0C001D91             jal increment_offset
5328	4FCC  0C001D86             jal load_patterns
5329	4FD0  29F26877             slti $18, $15, 26743
5330	4FD4  35F26877             ori $18, $15, 26743
5331	4FD8  35F36877             ori $19, $15, 26743
5332	4FDC  29F36877             slti $19, $15, 26743
5333	4FE0  0C001D9C             jal store
5334	4FE4  0C001D91             jal increment_offset
5335	4FE8  0C001D86             jal load_patterns
5336	4FEC  29F2FBA0             slti $18, $15, 64416
5337	4FF0  35F2FBA0             ori $18, $15, 64416
5338	4FF4  35F3FBA0             ori $19, $15, 64416
5339	4FF8  29F3FBA0             slti $19, $15, 64416
5340	4FFC  0C001D9C             jal store
5341	5000  0C001D91             jal increment_offset
5342	5004  0C001D86             jal load_patterns
5343	5008  29F2CFF9             slti $18, $15, 53241
5344	500C  35F2CFF9             ori $18, $15, 53241
5345	5010  35F3CFF9             ori $19, $15, 53241
5346	5014  29F3CFF9             slti $19, $15, 53241
5347	5018  0C001D9C             jal store
5348	501C  0C001D91             jal increment_offset
5349	5020  0C001D86             jal load_patterns
5350	5024  29F2B14E             slti $18, $15, 45390
5351	5028  35F2B14E             ori $18, $15, 45390
5352	502C  35F3B14E             ori $19, $15, 45390
5353	5030  29F3B14E             slti $19, $15, 45390
5354	5034  0C001D9C             jal store
5355	5038  0C001D91             jal increment_offset
5356	503C  0C001D86             jal load_patterns
5357	5040  29F28ACC             slti $18, $15, 35532
5358	5044  35F28ACC             ori $18, $15, 35532
5359	5048  35F38ACC             ori $19, $15, 35532
5360	504C  29F38ACC             slti $19, $15, 35532
5361	5050  0C001D9C             jal store
5362	5054  0C001D91             jal increment_offset
5363	5058  0C001D86             jal load_patterns
5364	505C  29F20159             slti $18, $15, 345
5365	5060  35F20159             ori $18, $15, 345
5366	5064  35F30159             ori $19, $15, 345
5367	5068  29F30159             slti $19, $15, 345
5368	506C  0C001D9C             jal store
5369	5070  0C001D91             jal increment_offset
5370	5074  0C001D86             jal load_patterns
5371	5078  29F25882             slti $18, $15, 22658
5372	507C  35F25882             ori $18, $15, 22658
5373	5080  35F35882             ori $19, $15, 22658
5374	5084  29F35882             slti $19, $15, 22658
5375	5088  0C001D9C             jal store
5376	508C  0C001D91             jal increment_offset
5377	5090  0C001D86             jal load_patterns
5378	5094  29F21EC8             slti $18, $15, 7880
5379	5098  35F21EC8             ori $18, $15, 7880
5380	509C  35F31EC8             ori $19, $15, 7880
5381	50A0  29F31EC8             slti $19, $15, 7880
5382	50A4  0C001D9C             jal store
5383	50A8  0C001D91             jal increment_offset
5384	50AC  0C001D86             jal load_patterns
5385	50B0  29F2D51C             slti $18, $15, 54556
5386	50B4  35F2D51C             ori $18, $15, 54556
5387	50B8  35F3D51C             ori $19, $15, 54556
5388	50BC  29F3D51C             slti $19, $15, 54556
5389	50C0  0C001D9C             jal store
5390	50C4  0C001D91             jal increment_offset
5391	50C8  0C001D86             jal load_patterns
5392	50CC  29F2C4E8             slti $18, $15, 50408
5393	50D0  35F2C4E8             ori $18, $15, 50408
5394	50D4  35F3C4E8             ori $19, $15, 50408
5395	50D8  29F3C4E8             slti $19, $15, 50408
5396	50DC  0C001D9C             jal store
5397	50E0  0C001D91             jal increment_offset
5398	50E4  0C001D86             jal load_patterns
5399	50E8  29F25CB0             slti $18, $15, 23728
5400	50EC  35F25CB0             ori $18, $15, 23728
5401	50F0  35F35CB0             ori $19, $15, 23728
5402	50F4  29F35CB0             slti $19, $15, 23728
5403	50F8  0C001D9C             jal store
5404	50FC  0C001D91             jal increment_offset
5405	5100  0C001D86             jal load_patterns
5406	5104  29F206C5             slti $18, $15, 1733
5407	5108  35F206C5             ori $18, $15, 1733
5408	510C  35F306C5             ori $19, $15, 1733
5409	5110  29F306C5             slti $19, $15, 1733
5410	5114  0C001D9C             jal store
5411	5118  0C001D91             jal increment_offset
5412	511C  0C001D86             jal load_patterns
5413	5120  29F287AA             slti $18, $15, 34730
5414	5124  35F287AA             ori $18, $15, 34730
5415	5128  35F387AA             ori $19, $15, 34730
5416	512C  29F387AA             slti $19, $15, 34730
5417	5130  0C001D9C             jal store
5418	5134  0C001D91             jal increment_offset
5419	5138  0C001D86             jal load_patterns
5420	513C  29F2FAC3             slti $18, $15, 64195
5421	5140  35F2FAC3             ori $18, $15, 64195
5422	5144  35F3FAC3             ori $19, $15, 64195
5423	5148  29F3FAC3             slti $19, $15, 64195
5424	514C  0C001D9C             jal store
5425	5150  0C001D91             jal increment_offset
5426	5154  0C001D86             jal load_patterns
5427	5158  29F2DB2C             slti $18, $15, 56108
5428	515C  35F2DB2C             ori $18, $15, 56108
5429	5160  35F3DB2C             ori $19, $15, 56108
5430	5164  29F3DB2C             slti $19, $15, 56108
5431	5168  0C001D9C             jal store
5432	516C  0C001D91             jal increment_offset
5433	5170  0C001D86             jal load_patterns
5434	5174  29F2FC93             slti $18, $15, 64659
5435	5178  35F2FC93             ori $18, $15, 64659
5436	517C  35F3FC93             ori $19, $15, 64659
5437	5180  29F3FC93             slti $19, $15, 64659
5438	5184  0C001D9C             jal store
5439	5188  0C001D91             jal increment_offset
5440	                          
5441	518C  0C001D89            jal reset_offsets
5442	5190  0C001D9F            jal init_cp
5443	                          operation_slti_andi:
5444	5194  0C001D86             jal load_patterns
5445	5198  29F2C9F5             slti $18, $15, 51701
5446	519C  31F2C9F5             andi $18, $15, 51701
5447	51A0  31F3C9F5             andi $19, $15, 51701
5448	51A4  29F3C9F5             slti $19, $15, 51701
5449	51A8  0C001D9C             jal store
5450	51AC  0C001D91             jal increment_offset
5451	51B0  0C001D86             jal load_patterns
5452	51B4  29F23471             slti $18, $15, 13425
5453	51B8  31F23471             andi $18, $15, 13425
5454	51BC  31F33471             andi $19, $15, 13425
5455	51C0  29F33471             slti $19, $15, 13425
5456	51C4  0C001D9C             jal store
5457	51C8  0C001D91             jal increment_offset
5458	51CC  0C001D86             jal load_patterns
5459	51D0  29F210BD             slti $18, $15, 4285
5460	51D4  31F210BD             andi $18, $15, 4285
5461	51D8  31F310BD             andi $19, $15, 4285
5462	51DC  29F310BD             slti $19, $15, 4285
5463	51E0  0C001D9C             jal store
5464	51E4  0C001D91             jal increment_offset
5465	51E8  0C001D86             jal load_patterns
5466	51EC  29F2B496             slti $18, $15, 46230
5467	51F0  31F2B496             andi $18, $15, 46230
5468	51F4  31F3B496             andi $19, $15, 46230
5469	51F8  29F3B496             slti $19, $15, 46230
5470	51FC  0C001D9C             jal store
5471	5200  0C001D91             jal increment_offset
5472	5204  0C001D86             jal load_patterns
5473	5208  29F25773             slti $18, $15, 22387
5474	520C  31F25773             andi $18, $15, 22387
5475	5210  31F35773             andi $19, $15, 22387
5476	5214  29F35773             slti $19, $15, 22387
5477	5218  0C001D9C             jal store
5478	521C  0C001D91             jal increment_offset
5479	5220  0C001D86             jal load_patterns
5480	5224  29F2496F             slti $18, $15, 18799
5481	5228  31F2496F             andi $18, $15, 18799
5482	522C  31F3496F             andi $19, $15, 18799
5483	5230  29F3496F             slti $19, $15, 18799
5484	5234  0C001D9C             jal store
5485	5238  0C001D91             jal increment_offset
5486	523C  0C001D86             jal load_patterns
5487	5240  29F2C2E1             slti $18, $15, 49889
5488	5244  31F2C2E1             andi $18, $15, 49889
5489	5248  31F3C2E1             andi $19, $15, 49889
5490	524C  29F3C2E1             slti $19, $15, 49889
5491	5250  0C001D9C             jal store
5492	5254  0C001D91             jal increment_offset
5493	5258  0C001D86             jal load_patterns
5494	525C  29F28CB7             slti $18, $15, 36023
5495	5260  31F28CB7             andi $18, $15, 36023
5496	5264  31F38CB7             andi $19, $15, 36023
5497	5268  29F38CB7             slti $19, $15, 36023
5498	526C  0C001D9C             jal store
5499	5270  0C001D91             jal increment_offset
5500	5274  0C001D86             jal load_patterns
5501	5278  29F2356A             slti $18, $15, 13674
5502	527C  31F2356A             andi $18, $15, 13674
5503	5280  31F3356A             andi $19, $15, 13674
5504	5284  29F3356A             slti $19, $15, 13674
5505	5288  0C001D9C             jal store
5506	528C  0C001D91             jal increment_offset
5507	5290  0C001D86             jal load_patterns
5508	5294  29F2EEC1             slti $18, $15, 61121
5509	5298  31F2EEC1             andi $18, $15, 61121
5510	529C  31F3EEC1             andi $19, $15, 61121
5511	52A0  29F3EEC1             slti $19, $15, 61121
5512	52A4  0C001D9C             jal store
5513	52A8  0C001D91             jal increment_offset
5514	52AC  0C001D86             jal load_patterns
5515	52B0  29F224B1             slti $18, $15, 9393
5516	52B4  31F224B1             andi $18, $15, 9393
5517	52B8  31F324B1             andi $19, $15, 9393
5518	52BC  29F324B1             slti $19, $15, 9393
5519	52C0  0C001D9C             jal store
5520	52C4  0C001D91             jal increment_offset
5521	52C8  0C001D86             jal load_patterns
5522	52CC  29F22838             slti $18, $15, 10296
5523	52D0  31F22838             andi $18, $15, 10296
5524	52D4  31F32838             andi $19, $15, 10296
5525	52D8  29F32838             slti $19, $15, 10296
5526	52DC  0C001D9C             jal store
5527	52E0  0C001D91             jal increment_offset
5528	52E4  0C001D86             jal load_patterns
5529	52E8  29F25531             slti $18, $15, 21809
5530	52EC  31F25531             andi $18, $15, 21809
5531	52F0  31F35531             andi $19, $15, 21809
5532	52F4  29F35531             slti $19, $15, 21809
5533	52F8  0C001D9C             jal store
5534	52FC  0C001D91             jal increment_offset
5535	5300  0C001D86             jal load_patterns
5536	5304  29F220C3             slti $18, $15, 8387
5537	5308  31F220C3             andi $18, $15, 8387
5538	530C  31F320C3             andi $19, $15, 8387
5539	5310  29F320C3             slti $19, $15, 8387
5540	5314  0C001D9C             jal store
5541	5318  0C001D91             jal increment_offset
5542	531C  0C001D86             jal load_patterns
5543	5320  29F27CDD             slti $18, $15, 31965
5544	5324  31F27CDD             andi $18, $15, 31965
5545	5328  31F37CDD             andi $19, $15, 31965
5546	532C  29F37CDD             slti $19, $15, 31965
5547	5330  0C001D9C             jal store
5548	5334  0C001D91             jal increment_offset
5549	5338  0C001D86             jal load_patterns
5550	533C  29F2766A             slti $18, $15, 30314
5551	5340  31F2766A             andi $18, $15, 30314
5552	5344  31F3766A             andi $19, $15, 30314
5553	5348  29F3766A             slti $19, $15, 30314
5554	534C  0C001D9C             jal store
5555	5350  0C001D91             jal increment_offset
5556	5354  0C001D86             jal load_patterns
5557	5358  29F2E5EC             slti $18, $15, 58860
5558	535C  31F2E5EC             andi $18, $15, 58860
5559	5360  31F3E5EC             andi $19, $15, 58860
5560	5364  29F3E5EC             slti $19, $15, 58860
5561	5368  0C001D9C             jal store
5562	536C  0C001D91             jal increment_offset
5563	5370  0C001D86             jal load_patterns
5564	5374  29F2FD41             slti $18, $15, 64833
5565	5378  31F2FD41             andi $18, $15, 64833
5566	537C  31F3FD41             andi $19, $15, 64833
5567	5380  29F3FD41             slti $19, $15, 64833
5568	5384  0C001D9C             jal store
5569	5388  0C001D91             jal increment_offset
5570	538C  0C001D86             jal load_patterns
5571	5390  29F20238             slti $18, $15, 568
5572	5394  31F20238             andi $18, $15, 568
5573	5398  31F30238             andi $19, $15, 568
5574	539C  29F30238             slti $19, $15, 568
5575	53A0  0C001D9C             jal store
5576	53A4  0C001D91             jal increment_offset
5577	53A8  0C001D86             jal load_patterns
5578	53AC  29F2C8FE             slti $18, $15, 51454
5579	53B0  31F2C8FE             andi $18, $15, 51454
5580	53B4  31F3C8FE             andi $19, $15, 51454
5581	53B8  29F3C8FE             slti $19, $15, 51454
5582	53BC  0C001D9C             jal store
5583	53C0  0C001D91             jal increment_offset
5584	53C4  0C001D86             jal load_patterns
5585	53C8  29F27FCF             slti $18, $15, 32719
5586	53CC  31F27FCF             andi $18, $15, 32719
5587	53D0  31F37FCF             andi $19, $15, 32719
5588	53D4  29F37FCF             slti $19, $15, 32719
5589	53D8  0C001D9C             jal store
5590	53DC  0C001D91             jal increment_offset
5591	53E0  0C001D86             jal load_patterns
5592	53E4  29F24CC2             slti $18, $15, 19650
5593	53E8  31F24CC2             andi $18, $15, 19650
5594	53EC  31F34CC2             andi $19, $15, 19650
5595	53F0  29F34CC2             slti $19, $15, 19650
5596	53F4  0C001D9C             jal store
5597	53F8  0C001D91             jal increment_offset
5598	53FC  0C001D86             jal load_patterns
5599	5400  29F2A8D0             slti $18, $15, 43216
5600	5404  31F2A8D0             andi $18, $15, 43216
5601	5408  31F3A8D0             andi $19, $15, 43216
5602	540C  29F3A8D0             slti $19, $15, 43216
5603	5410  0C001D9C             jal store
5604	5414  0C001D91             jal increment_offset
5605	5418  0C001D86             jal load_patterns
5606	541C  29F28748             slti $18, $15, 34632
5607	5420  31F28748             andi $18, $15, 34632
5608	5424  31F38748             andi $19, $15, 34632
5609	5428  29F38748             slti $19, $15, 34632
5610	542C  0C001D9C             jal store
5611	5430  0C001D91             jal increment_offset
5612	5434  0C001D86             jal load_patterns
5613	5438  29F2999C             slti $18, $15, 39324
5614	543C  31F2999C             andi $18, $15, 39324
5615	5440  31F3999C             andi $19, $15, 39324
5616	5444  29F3999C             slti $19, $15, 39324
5617	5448  0C001D9C             jal store
5618	544C  0C001D91             jal increment_offset
5619	5450  0C001D86             jal load_patterns
5620	5454  29F2D796             slti $18, $15, 55190
5621	5458  31F2D796             andi $18, $15, 55190
5622	545C  31F3D796             andi $19, $15, 55190
5623	5460  29F3D796             slti $19, $15, 55190
5624	5464  0C001D9C             jal store
5625	5468  0C001D91             jal increment_offset
5626	546C  0C001D86             jal load_patterns
5627	5470  29F2CC26             slti $18, $15, 52262
5628	5474  31F2CC26             andi $18, $15, 52262
5629	5478  31F3CC26             andi $19, $15, 52262
5630	547C  29F3CC26             slti $19, $15, 52262
5631	5480  0C001D9C             jal store
5632	5484  0C001D91             jal increment_offset
5633	5488  0C001D86             jal load_patterns
5634	548C  29F24B2C             slti $18, $15, 19244
5635	5490  31F24B2C             andi $18, $15, 19244
5636	5494  31F34B2C             andi $19, $15, 19244
5637	5498  29F34B2C             slti $19, $15, 19244
5638	549C  0C001D9C             jal store
5639	54A0  0C001D91             jal increment_offset
5640	54A4  0C001D86             jal load_patterns
5641	54A8  29F2B336             slti $18, $15, 45878
5642	54AC  31F2B336             andi $18, $15, 45878
5643	54B0  31F3B336             andi $19, $15, 45878
5644	54B4  29F3B336             slti $19, $15, 45878
5645	54B8  0C001D9C             jal store
5646	54BC  0C001D91             jal increment_offset
5647	54C0  0C001D86             jal load_patterns
5648	54C4  29F22A22             slti $18, $15, 10786
5649	54C8  31F22A22             andi $18, $15, 10786
5650	54CC  31F32A22             andi $19, $15, 10786
5651	54D0  29F32A22             slti $19, $15, 10786
5652	54D4  0C001D9C             jal store
5653	54D8  0C001D91             jal increment_offset
5654	54DC  0C001D86             jal load_patterns
5655	54E0  29F257D7             slti $18, $15, 22487
5656	54E4  31F257D7             andi $18, $15, 22487
5657	54E8  31F357D7             andi $19, $15, 22487
5658	54EC  29F357D7             slti $19, $15, 22487
5659	54F0  0C001D9C             jal store
5660	54F4  0C001D91             jal increment_offset
5661	54F8  0C001D86             jal load_patterns
5662	54FC  29F29FFE             slti $18, $15, 40958
5663	5500  31F29FFE             andi $18, $15, 40958
5664	5504  31F39FFE             andi $19, $15, 40958
5665	5508  29F39FFE             slti $19, $15, 40958
5666	550C  0C001D9C             jal store
5667	5510  0C001D91             jal increment_offset
5668	5514  0C001D86             jal load_patterns
5669	5518  29F238A4             slti $18, $15, 14500
5670	551C  31F238A4             andi $18, $15, 14500
5671	5520  31F338A4             andi $19, $15, 14500
5672	5524  29F338A4             slti $19, $15, 14500
5673	5528  0C001D9C             jal store
5674	552C  0C001D91             jal increment_offset
5675	5530  0C001D86             jal load_patterns
5676	5534  29F269E2             slti $18, $15, 27106
5677	5538  31F269E2             andi $18, $15, 27106
5678	553C  31F369E2             andi $19, $15, 27106
5679	5540  29F369E2             slti $19, $15, 27106
5680	5544  0C001D9C             jal store
5681	5548  0C001D91             jal increment_offset
5682	554C  0C001D86             jal load_patterns
5683	5550  29F2481D             slti $18, $15, 18461
5684	5554  31F2481D             andi $18, $15, 18461
5685	5558  31F3481D             andi $19, $15, 18461
5686	555C  29F3481D             slti $19, $15, 18461
5687	5560  0C001D9C             jal store
5688	5564  0C001D91             jal increment_offset
5689	5568  0C001D86             jal load_patterns
5690	556C  29F24987             slti $18, $15, 18823
5691	5570  31F24987             andi $18, $15, 18823
5692	5574  31F34987             andi $19, $15, 18823
5693	5578  29F34987             slti $19, $15, 18823
5694	557C  0C001D9C             jal store
5695	5580  0C001D91             jal increment_offset
5696	5584  0C001D86             jal load_patterns
5697	5588  29F27A49             slti $18, $15, 31305
5698	558C  31F27A49             andi $18, $15, 31305
5699	5590  31F37A49             andi $19, $15, 31305
5700	5594  29F37A49             slti $19, $15, 31305
5701	5598  0C001D9C             jal store
5702	559C  0C001D91             jal increment_offset
5703	55A0  0C001D86             jal load_patterns
5704	55A4  29F2AF83             slti $18, $15, 44931
5705	55A8  31F2AF83             andi $18, $15, 44931
5706	55AC  31F3AF83             andi $19, $15, 44931
5707	55B0  29F3AF83             slti $19, $15, 44931
5708	55B4  0C001D9C             jal store
5709	55B8  0C001D91             jal increment_offset
5710	55BC  0C001D86             jal load_patterns
5711	55C0  29F2A2DF             slti $18, $15, 41695
5712	55C4  31F2A2DF             andi $18, $15, 41695
5713	55C8  31F3A2DF             andi $19, $15, 41695
5714	55CC  29F3A2DF             slti $19, $15, 41695
5715	55D0  0C001D9C             jal store
5716	55D4  0C001D91             jal increment_offset
5717	55D8  0C001D86             jal load_patterns
5718	55DC  29F202AD             slti $18, $15, 685
5719	55E0  31F202AD             andi $18, $15, 685
5720	55E4  31F302AD             andi $19, $15, 685
5721	55E8  29F302AD             slti $19, $15, 685
5722	55EC  0C001D9C             jal store
5723	55F0  0C001D91             jal increment_offset
5724	55F4  0C001D86             jal load_patterns
5725	55F8  29F25D70             slti $18, $15, 23920
5726	55FC  31F25D70             andi $18, $15, 23920
5727	5600  31F35D70             andi $19, $15, 23920
5728	5604  29F35D70             slti $19, $15, 23920
5729	5608  0C001D9C             jal store
5730	560C  0C001D91             jal increment_offset
5731	5610  0C001D86             jal load_patterns
5732	5614  29F27410             slti $18, $15, 29712
5733	5618  31F27410             andi $18, $15, 29712
5734	561C  31F37410             andi $19, $15, 29712
5735	5620  29F37410             slti $19, $15, 29712
5736	5624  0C001D9C             jal store
5737	5628  0C001D91             jal increment_offset
5738	562C  0C001D86             jal load_patterns
5739	5630  29F2D17E             slti $18, $15, 53630
5740	5634  31F2D17E             andi $18, $15, 53630
5741	5638  31F3D17E             andi $19, $15, 53630
5742	563C  29F3D17E             slti $19, $15, 53630
5743	5640  0C001D9C             jal store
5744	5644  0C001D91             jal increment_offset
5745	5648  0C001D86             jal load_patterns
5746	564C  29F2AB28             slti $18, $15, 43816
5747	5650  31F2AB28             andi $18, $15, 43816
5748	5654  31F3AB28             andi $19, $15, 43816
5749	5658  29F3AB28             slti $19, $15, 43816
5750	565C  0C001D9C             jal store
5751	5660  0C001D91             jal increment_offset
5752	5664  0C001D86             jal load_patterns
5753	5668  29F2A1AF             slti $18, $15, 41391
5754	566C  31F2A1AF             andi $18, $15, 41391
5755	5670  31F3A1AF             andi $19, $15, 41391
5756	5674  29F3A1AF             slti $19, $15, 41391
5757	5678  0C001D9C             jal store
5758	567C  0C001D91             jal increment_offset
5759	5680  0C001D86             jal load_patterns
5760	5684  29F21A1F             slti $18, $15, 6687
5761	5688  31F21A1F             andi $18, $15, 6687
5762	568C  31F31A1F             andi $19, $15, 6687
5763	5690  29F31A1F             slti $19, $15, 6687
5764	5694  0C001D9C             jal store
5765	5698  0C001D91             jal increment_offset
5766	569C  0C001D86             jal load_patterns
5767	56A0  29F22369             slti $18, $15, 9065
5768	56A4  31F22369             andi $18, $15, 9065
5769	56A8  31F32369             andi $19, $15, 9065
5770	56AC  29F32369             slti $19, $15, 9065
5771	56B0  0C001D9C             jal store
5772	56B4  0C001D91             jal increment_offset
5773	56B8  0C001D86             jal load_patterns
5774	56BC  29F2AFBE             slti $18, $15, 44990
5775	56C0  31F2AFBE             andi $18, $15, 44990
5776	56C4  31F3AFBE             andi $19, $15, 44990
5777	56C8  29F3AFBE             slti $19, $15, 44990
5778	56CC  0C001D9C             jal store
5779	56D0  0C001D91             jal increment_offset
5780	56D4  0C001D86             jal load_patterns
5781	56D8  29F26877             slti $18, $15, 26743
5782	56DC  31F26877             andi $18, $15, 26743
5783	56E0  31F36877             andi $19, $15, 26743
5784	56E4  29F36877             slti $19, $15, 26743
5785	56E8  0C001D9C             jal store
5786	56EC  0C001D91             jal increment_offset
5787	56F0  0C001D86             jal load_patterns
5788	56F4  29F2FBA0             slti $18, $15, 64416
5789	56F8  31F2FBA0             andi $18, $15, 64416
5790	56FC  31F3FBA0             andi $19, $15, 64416
5791	5700  29F3FBA0             slti $19, $15, 64416
5792	5704  0C001D9C             jal store
5793	5708  0C001D91             jal increment_offset
5794	570C  0C001D86             jal load_patterns
5795	5710  29F2CFF9             slti $18, $15, 53241
5796	5714  31F2CFF9             andi $18, $15, 53241
5797	5718  31F3CFF9             andi $19, $15, 53241
5798	571C  29F3CFF9             slti $19, $15, 53241
5799	5720  0C001D9C             jal store
5800	5724  0C001D91             jal increment_offset
5801	5728  0C001D86             jal load_patterns
5802	572C  29F2B14E             slti $18, $15, 45390
5803	5730  31F2B14E             andi $18, $15, 45390
5804	5734  31F3B14E             andi $19, $15, 45390
5805	5738  29F3B14E             slti $19, $15, 45390
5806	573C  0C001D9C             jal store
5807	5740  0C001D91             jal increment_offset
5808	5744  0C001D86             jal load_patterns
5809	5748  29F28ACC             slti $18, $15, 35532
5810	574C  31F28ACC             andi $18, $15, 35532
5811	5750  31F38ACC             andi $19, $15, 35532
5812	5754  29F38ACC             slti $19, $15, 35532
5813	5758  0C001D9C             jal store
5814	575C  0C001D91             jal increment_offset
5815	5760  0C001D86             jal load_patterns
5816	5764  29F20159             slti $18, $15, 345
5817	5768  31F20159             andi $18, $15, 345
5818	576C  31F30159             andi $19, $15, 345
5819	5770  29F30159             slti $19, $15, 345
5820	5774  0C001D9C             jal store
5821	5778  0C001D91             jal increment_offset
5822	577C  0C001D86             jal load_patterns
5823	5780  29F25882             slti $18, $15, 22658
5824	5784  31F25882             andi $18, $15, 22658
5825	5788  31F35882             andi $19, $15, 22658
5826	578C  29F35882             slti $19, $15, 22658
5827	5790  0C001D9C             jal store
5828	5794  0C001D91             jal increment_offset
5829	5798  0C001D86             jal load_patterns
5830	579C  29F21EC8             slti $18, $15, 7880
5831	57A0  31F21EC8             andi $18, $15, 7880
5832	57A4  31F31EC8             andi $19, $15, 7880
5833	57A8  29F31EC8             slti $19, $15, 7880
5834	57AC  0C001D9C             jal store
5835	57B0  0C001D91             jal increment_offset
5836	57B4  0C001D86             jal load_patterns
5837	57B8  29F2D51C             slti $18, $15, 54556
5838	57BC  31F2D51C             andi $18, $15, 54556
5839	57C0  31F3D51C             andi $19, $15, 54556
5840	57C4  29F3D51C             slti $19, $15, 54556
5841	57C8  0C001D9C             jal store
5842	57CC  0C001D91             jal increment_offset
5843	57D0  0C001D86             jal load_patterns
5844	57D4  29F2C4E8             slti $18, $15, 50408
5845	57D8  31F2C4E8             andi $18, $15, 50408
5846	57DC  31F3C4E8             andi $19, $15, 50408
5847	57E0  29F3C4E8             slti $19, $15, 50408
5848	57E4  0C001D9C             jal store
5849	57E8  0C001D91             jal increment_offset
5850	57EC  0C001D86             jal load_patterns
5851	57F0  29F25CB0             slti $18, $15, 23728
5852	57F4  31F25CB0             andi $18, $15, 23728
5853	57F8  31F35CB0             andi $19, $15, 23728
5854	57FC  29F35CB0             slti $19, $15, 23728
5855	5800  0C001D9C             jal store
5856	5804  0C001D91             jal increment_offset
5857	5808  0C001D86             jal load_patterns
5858	580C  29F206C5             slti $18, $15, 1733
5859	5810  31F206C5             andi $18, $15, 1733
5860	5814  31F306C5             andi $19, $15, 1733
5861	5818  29F306C5             slti $19, $15, 1733
5862	581C  0C001D9C             jal store
5863	5820  0C001D91             jal increment_offset
5864	5824  0C001D86             jal load_patterns
5865	5828  29F287AA             slti $18, $15, 34730
5866	582C  31F287AA             andi $18, $15, 34730
5867	5830  31F387AA             andi $19, $15, 34730
5868	5834  29F387AA             slti $19, $15, 34730
5869	5838  0C001D9C             jal store
5870	583C  0C001D91             jal increment_offset
5871	5840  0C001D86             jal load_patterns
5872	5844  29F2FAC3             slti $18, $15, 64195
5873	5848  31F2FAC3             andi $18, $15, 64195
5874	584C  31F3FAC3             andi $19, $15, 64195
5875	5850  29F3FAC3             slti $19, $15, 64195
5876	5854  0C001D9C             jal store
5877	5858  0C001D91             jal increment_offset
5878	585C  0C001D86             jal load_patterns
5879	5860  29F2DB2C             slti $18, $15, 56108
5880	5864  31F2DB2C             andi $18, $15, 56108
5881	5868  31F3DB2C             andi $19, $15, 56108
5882	586C  29F3DB2C             slti $19, $15, 56108
5883	5870  0C001D9C             jal store
5884	5874  0C001D91             jal increment_offset
5885	5878  0C001D86             jal load_patterns
5886	587C  29F2FC93             slti $18, $15, 64659
5887	5880  31F2FC93             andi $18, $15, 64659
5888	5884  31F3FC93             andi $19, $15, 64659
5889	5888  29F3FC93             slti $19, $15, 64659
5890	588C  0C001D9C             jal store
5891	5890  0C001D91             jal increment_offset
5892	                          
5893	5894  0C001D89            jal reset_offsets
5894	5898  0C001D9F            jal init_cp
5895	                          operation_sltiu_ori:
5896	589C  0C001D86             jal load_patterns
5897	58A0  29F2C9F5             sltiu $18, $15, 51701
5898	58A4  35F2C9F5             ori $18, $15, 51701
5899	58A8  35F3C9F5             ori $19, $15, 51701
5900	58AC  29F3C9F5             sltiu $19, $15, 51701
5901	58B0  0C001D9C             jal store
5902	58B4  0C001D91             jal increment_offset
5903	58B8  0C001D86             jal load_patterns
5904	58BC  29F23471             sltiu $18, $15, 13425
5905	58C0  35F23471             ori $18, $15, 13425
5906	58C4  35F33471             ori $19, $15, 13425
5907	58C8  29F33471             sltiu $19, $15, 13425
5908	58CC  0C001D9C             jal store
5909	58D0  0C001D91             jal increment_offset
5910	58D4  0C001D86             jal load_patterns
5911	58D8  29F210BD             sltiu $18, $15, 4285
5912	58DC  35F210BD             ori $18, $15, 4285
5913	58E0  35F310BD             ori $19, $15, 4285
5914	58E4  29F310BD             sltiu $19, $15, 4285
5915	58E8  0C001D9C             jal store
5916	58EC  0C001D91             jal increment_offset
5917	58F0  0C001D86             jal load_patterns
5918	58F4  29F2B496             sltiu $18, $15, 46230
5919	58F8  35F2B496             ori $18, $15, 46230
5920	58FC  35F3B496             ori $19, $15, 46230
5921	5900  29F3B496             sltiu $19, $15, 46230
5922	5904  0C001D9C             jal store
5923	5908  0C001D91             jal increment_offset
5924	590C  0C001D86             jal load_patterns
5925	5910  29F25773             sltiu $18, $15, 22387
5926	5914  35F25773             ori $18, $15, 22387
5927	5918  35F35773             ori $19, $15, 22387
5928	591C  29F35773             sltiu $19, $15, 22387
5929	5920  0C001D9C             jal store
5930	5924  0C001D91             jal increment_offset
5931	5928  0C001D86             jal load_patterns
5932	592C  29F2496F             sltiu $18, $15, 18799
5933	5930  35F2496F             ori $18, $15, 18799
5934	5934  35F3496F             ori $19, $15, 18799
5935	5938  29F3496F             sltiu $19, $15, 18799
5936	593C  0C001D9C             jal store
5937	5940  0C001D91             jal increment_offset
5938	5944  0C001D86             jal load_patterns
5939	5948  29F2C2E1             sltiu $18, $15, 49889
5940	594C  35F2C2E1             ori $18, $15, 49889
5941	5950  35F3C2E1             ori $19, $15, 49889
5942	5954  29F3C2E1             sltiu $19, $15, 49889
5943	5958  0C001D9C             jal store
5944	595C  0C001D91             jal increment_offset
5945	5960  0C001D86             jal load_patterns
5946	5964  29F28CB7             sltiu $18, $15, 36023
5947	5968  35F28CB7             ori $18, $15, 36023
5948	596C  35F38CB7             ori $19, $15, 36023
5949	5970  29F38CB7             sltiu $19, $15, 36023
5950	5974  0C001D9C             jal store
5951	5978  0C001D91             jal increment_offset
5952	597C  0C001D86             jal load_patterns
5953	5980  29F2356A             sltiu $18, $15, 13674
5954	5984  35F2356A             ori $18, $15, 13674
5955	5988  35F3356A             ori $19, $15, 13674
5956	598C  29F3356A             sltiu $19, $15, 13674
5957	5990  0C001D9C             jal store
5958	5994  0C001D91             jal increment_offset
5959	5998  0C001D86             jal load_patterns
5960	599C  29F2EEC1             sltiu $18, $15, 61121
5961	59A0  35F2EEC1             ori $18, $15, 61121
5962	59A4  35F3EEC1             ori $19, $15, 61121
5963	59A8  29F3EEC1             sltiu $19, $15, 61121
5964	59AC  0C001D9C             jal store
5965	59B0  0C001D91             jal increment_offset
5966	59B4  0C001D86             jal load_patterns
5967	59B8  29F224B1             sltiu $18, $15, 9393
5968	59BC  35F224B1             ori $18, $15, 9393
5969	59C0  35F324B1             ori $19, $15, 9393
5970	59C4  29F324B1             sltiu $19, $15, 9393
5971	59C8  0C001D9C             jal store
5972	59CC  0C001D91             jal increment_offset
5973	59D0  0C001D86             jal load_patterns
5974	59D4  29F22838             sltiu $18, $15, 10296
5975	59D8  35F22838             ori $18, $15, 10296
5976	59DC  35F32838             ori $19, $15, 10296
5977	59E0  29F32838             sltiu $19, $15, 10296
5978	59E4  0C001D9C             jal store
5979	59E8  0C001D91             jal increment_offset
5980	59EC  0C001D86             jal load_patterns
5981	59F0  29F25531             sltiu $18, $15, 21809
5982	59F4  35F25531             ori $18, $15, 21809
5983	59F8  35F35531             ori $19, $15, 21809
5984	59FC  29F35531             sltiu $19, $15, 21809
5985	5A00  0C001D9C             jal store
5986	5A04  0C001D91             jal increment_offset
5987	5A08  0C001D86             jal load_patterns
5988	5A0C  29F220C3             sltiu $18, $15, 8387
5989	5A10  35F220C3             ori $18, $15, 8387
5990	5A14  35F320C3             ori $19, $15, 8387
5991	5A18  29F320C3             sltiu $19, $15, 8387
5992	5A1C  0C001D9C             jal store
5993	5A20  0C001D91             jal increment_offset
5994	5A24  0C001D86             jal load_patterns
5995	5A28  29F27CDD             sltiu $18, $15, 31965
5996	5A2C  35F27CDD             ori $18, $15, 31965
5997	5A30  35F37CDD             ori $19, $15, 31965
5998	5A34  29F37CDD             sltiu $19, $15, 31965
5999	5A38  0C001D9C             jal store
6000	5A3C  0C001D91             jal increment_offset
6001	5A40  0C001D86             jal load_patterns
6002	5A44  29F2766A             sltiu $18, $15, 30314
6003	5A48  35F2766A             ori $18, $15, 30314
6004	5A4C  35F3766A             ori $19, $15, 30314
6005	5A50  29F3766A             sltiu $19, $15, 30314
6006	5A54  0C001D9C             jal store
6007	5A58  0C001D91             jal increment_offset
6008	5A5C  0C001D86             jal load_patterns
6009	5A60  29F2E5EC             sltiu $18, $15, 58860
6010	5A64  35F2E5EC             ori $18, $15, 58860
6011	5A68  35F3E5EC             ori $19, $15, 58860
6012	5A6C  29F3E5EC             sltiu $19, $15, 58860
6013	5A70  0C001D9C             jal store
6014	5A74  0C001D91             jal increment_offset
6015	5A78  0C001D86             jal load_patterns
6016	5A7C  29F2FD41             sltiu $18, $15, 64833
6017	5A80  35F2FD41             ori $18, $15, 64833
6018	5A84  35F3FD41             ori $19, $15, 64833
6019	5A88  29F3FD41             sltiu $19, $15, 64833
6020	5A8C  0C001D9C             jal store
6021	5A90  0C001D91             jal increment_offset
6022	5A94  0C001D86             jal load_patterns
6023	5A98  29F20238             sltiu $18, $15, 568
6024	5A9C  35F20238             ori $18, $15, 568
6025	5AA0  35F30238             ori $19, $15, 568
6026	5AA4  29F30238             sltiu $19, $15, 568
6027	5AA8  0C001D9C             jal store
6028	5AAC  0C001D91             jal increment_offset
6029	5AB0  0C001D86             jal load_patterns
6030	5AB4  29F2C8FE             sltiu $18, $15, 51454
6031	5AB8  35F2C8FE             ori $18, $15, 51454
6032	5ABC  35F3C8FE             ori $19, $15, 51454
6033	5AC0  29F3C8FE             sltiu $19, $15, 51454
6034	5AC4  0C001D9C             jal store
6035	5AC8  0C001D91             jal increment_offset
6036	5ACC  0C001D86             jal load_patterns
6037	5AD0  29F27FCF             sltiu $18, $15, 32719
6038	5AD4  35F27FCF             ori $18, $15, 32719
6039	5AD8  35F37FCF             ori $19, $15, 32719
6040	5ADC  29F37FCF             sltiu $19, $15, 32719
6041	5AE0  0C001D9C             jal store
6042	5AE4  0C001D91             jal increment_offset
6043	5AE8  0C001D86             jal load_patterns
6044	5AEC  29F24CC2             sltiu $18, $15, 19650
6045	5AF0  35F24CC2             ori $18, $15, 19650
6046	5AF4  35F34CC2             ori $19, $15, 19650
6047	5AF8  29F34CC2             sltiu $19, $15, 19650
6048	5AFC  0C001D9C             jal store
6049	5B00  0C001D91             jal increment_offset
6050	5B04  0C001D86             jal load_patterns
6051	5B08  29F2A8D0             sltiu $18, $15, 43216
6052	5B0C  35F2A8D0             ori $18, $15, 43216
6053	5B10  35F3A8D0             ori $19, $15, 43216
6054	5B14  29F3A8D0             sltiu $19, $15, 43216
6055	5B18  0C001D9C             jal store
6056	5B1C  0C001D91             jal increment_offset
6057	5B20  0C001D86             jal load_patterns
6058	5B24  29F28748             sltiu $18, $15, 34632
6059	5B28  35F28748             ori $18, $15, 34632
6060	5B2C  35F38748             ori $19, $15, 34632
6061	5B30  29F38748             sltiu $19, $15, 34632
6062	5B34  0C001D9C             jal store
6063	5B38  0C001D91             jal increment_offset
6064	5B3C  0C001D86             jal load_patterns
6065	5B40  29F2999C             sltiu $18, $15, 39324
6066	5B44  35F2999C             ori $18, $15, 39324
6067	5B48  35F3999C             ori $19, $15, 39324
6068	5B4C  29F3999C             sltiu $19, $15, 39324
6069	5B50  0C001D9C             jal store
6070	5B54  0C001D91             jal increment_offset
6071	5B58  0C001D86             jal load_patterns
6072	5B5C  29F2D796             sltiu $18, $15, 55190
6073	5B60  35F2D796             ori $18, $15, 55190
6074	5B64  35F3D796             ori $19, $15, 55190
6075	5B68  29F3D796             sltiu $19, $15, 55190
6076	5B6C  0C001D9C             jal store
6077	5B70  0C001D91             jal increment_offset
6078	5B74  0C001D86             jal load_patterns
6079	5B78  29F2CC26             sltiu $18, $15, 52262
6080	5B7C  35F2CC26             ori $18, $15, 52262
6081	5B80  35F3CC26             ori $19, $15, 52262
6082	5B84  29F3CC26             sltiu $19, $15, 52262
6083	5B88  0C001D9C             jal store
6084	5B8C  0C001D91             jal increment_offset
6085	5B90  0C001D86             jal load_patterns
6086	5B94  29F24B2C             sltiu $18, $15, 19244
6087	5B98  35F24B2C             ori $18, $15, 19244
6088	5B9C  35F34B2C             ori $19, $15, 19244
6089	5BA0  29F34B2C             sltiu $19, $15, 19244
6090	5BA4  0C001D9C             jal store
6091	5BA8  0C001D91             jal increment_offset
6092	5BAC  0C001D86             jal load_patterns
6093	5BB0  29F2B336             sltiu $18, $15, 45878
6094	5BB4  35F2B336             ori $18, $15, 45878
6095	5BB8  35F3B336             ori $19, $15, 45878
6096	5BBC  29F3B336             sltiu $19, $15, 45878
6097	5BC0  0C001D9C             jal store
6098	5BC4  0C001D91             jal increment_offset
6099	5BC8  0C001D86             jal load_patterns
6100	5BCC  29F22A22             sltiu $18, $15, 10786
6101	5BD0  35F22A22             ori $18, $15, 10786
6102	5BD4  35F32A22             ori $19, $15, 10786
6103	5BD8  29F32A22             sltiu $19, $15, 10786
6104	5BDC  0C001D9C             jal store
6105	5BE0  0C001D91             jal increment_offset
6106	5BE4  0C001D86             jal load_patterns
6107	5BE8  29F257D7             sltiu $18, $15, 22487
6108	5BEC  35F257D7             ori $18, $15, 22487
6109	5BF0  35F357D7             ori $19, $15, 22487
6110	5BF4  29F357D7             sltiu $19, $15, 22487
6111	5BF8  0C001D9C             jal store
6112	5BFC  0C001D91             jal increment_offset
6113	5C00  0C001D86             jal load_patterns
6114	5C04  29F29FFE             sltiu $18, $15, 40958
6115	5C08  35F29FFE             ori $18, $15, 40958
6116	5C0C  35F39FFE             ori $19, $15, 40958
6117	5C10  29F39FFE             sltiu $19, $15, 40958
6118	5C14  0C001D9C             jal store
6119	5C18  0C001D91             jal increment_offset
6120	5C1C  0C001D86             jal load_patterns
6121	5C20  29F238A4             sltiu $18, $15, 14500
6122	5C24  35F238A4             ori $18, $15, 14500
6123	5C28  35F338A4             ori $19, $15, 14500
6124	5C2C  29F338A4             sltiu $19, $15, 14500
6125	5C30  0C001D9C             jal store
6126	5C34  0C001D91             jal increment_offset
6127	5C38  0C001D86             jal load_patterns
6128	5C3C  29F269E2             sltiu $18, $15, 27106
6129	5C40  35F269E2             ori $18, $15, 27106
6130	5C44  35F369E2             ori $19, $15, 27106
6131	5C48  29F369E2             sltiu $19, $15, 27106
6132	5C4C  0C001D9C             jal store
6133	5C50  0C001D91             jal increment_offset
6134	5C54  0C001D86             jal load_patterns
6135	5C58  29F2481D             sltiu $18, $15, 18461
6136	5C5C  35F2481D             ori $18, $15, 18461
6137	5C60  35F3481D             ori $19, $15, 18461
6138	5C64  29F3481D             sltiu $19, $15, 18461
6139	5C68  0C001D9C             jal store
6140	5C6C  0C001D91             jal increment_offset
6141	5C70  0C001D86             jal load_patterns
6142	5C74  29F24987             sltiu $18, $15, 18823
6143	5C78  35F24987             ori $18, $15, 18823
6144	5C7C  35F34987             ori $19, $15, 18823
6145	5C80  29F34987             sltiu $19, $15, 18823
6146	5C84  0C001D9C             jal store
6147	5C88  0C001D91             jal increment_offset
6148	5C8C  0C001D86             jal load_patterns
6149	5C90  29F27A49             sltiu $18, $15, 31305
6150	5C94  35F27A49             ori $18, $15, 31305
6151	5C98  35F37A49             ori $19, $15, 31305
6152	5C9C  29F37A49             sltiu $19, $15, 31305
6153	5CA0  0C001D9C             jal store
6154	5CA4  0C001D91             jal increment_offset
6155	5CA8  0C001D86             jal load_patterns
6156	5CAC  29F2AF83             sltiu $18, $15, 44931
6157	5CB0  35F2AF83             ori $18, $15, 44931
6158	5CB4  35F3AF83             ori $19, $15, 44931
6159	5CB8  29F3AF83             sltiu $19, $15, 44931
6160	5CBC  0C001D9C             jal store
6161	5CC0  0C001D91             jal increment_offset
6162	5CC4  0C001D86             jal load_patterns
6163	5CC8  29F2A2DF             sltiu $18, $15, 41695
6164	5CCC  35F2A2DF             ori $18, $15, 41695
6165	5CD0  35F3A2DF             ori $19, $15, 41695
6166	5CD4  29F3A2DF             sltiu $19, $15, 41695
6167	5CD8  0C001D9C             jal store
6168	5CDC  0C001D91             jal increment_offset
6169	5CE0  0C001D86             jal load_patterns
6170	5CE4  29F202AD             sltiu $18, $15, 685
6171	5CE8  35F202AD             ori $18, $15, 685
6172	5CEC  35F302AD             ori $19, $15, 685
6173	5CF0  29F302AD             sltiu $19, $15, 685
6174	5CF4  0C001D9C             jal store
6175	5CF8  0C001D91             jal increment_offset
6176	5CFC  0C001D86             jal load_patterns
6177	5D00  29F25D70             sltiu $18, $15, 23920
6178	5D04  35F25D70             ori $18, $15, 23920
6179	5D08  35F35D70             ori $19, $15, 23920
6180	5D0C  29F35D70             sltiu $19, $15, 23920
6181	5D10  0C001D9C             jal store
6182	5D14  0C001D91             jal increment_offset
6183	5D18  0C001D86             jal load_patterns
6184	5D1C  29F27410             sltiu $18, $15, 29712
6185	5D20  35F27410             ori $18, $15, 29712
6186	5D24  35F37410             ori $19, $15, 29712
6187	5D28  29F37410             sltiu $19, $15, 29712
6188	5D2C  0C001D9C             jal store
6189	5D30  0C001D91             jal increment_offset
6190	5D34  0C001D86             jal load_patterns
6191	5D38  29F2D17E             sltiu $18, $15, 53630
6192	5D3C  35F2D17E             ori $18, $15, 53630
6193	5D40  35F3D17E             ori $19, $15, 53630
6194	5D44  29F3D17E             sltiu $19, $15, 53630
6195	5D48  0C001D9C             jal store
6196	5D4C  0C001D91             jal increment_offset
6197	5D50  0C001D86             jal load_patterns
6198	5D54  29F2AB28             sltiu $18, $15, 43816
6199	5D58  35F2AB28             ori $18, $15, 43816
6200	5D5C  35F3AB28             ori $19, $15, 43816
6201	5D60  29F3AB28             sltiu $19, $15, 43816
6202	5D64  0C001D9C             jal store
6203	5D68  0C001D91             jal increment_offset
6204	5D6C  0C001D86             jal load_patterns
6205	5D70  29F2A1AF             sltiu $18, $15, 41391
6206	5D74  35F2A1AF             ori $18, $15, 41391
6207	5D78  35F3A1AF             ori $19, $15, 41391
6208	5D7C  29F3A1AF             sltiu $19, $15, 41391
6209	5D80  0C001D9C             jal store
6210	5D84  0C001D91             jal increment_offset
6211	5D88  0C001D86             jal load_patterns
6212	5D8C  29F21A1F             sltiu $18, $15, 6687
6213	5D90  35F21A1F             ori $18, $15, 6687
6214	5D94  35F31A1F             ori $19, $15, 6687
6215	5D98  29F31A1F             sltiu $19, $15, 6687
6216	5D9C  0C001D9C             jal store
6217	5DA0  0C001D91             jal increment_offset
6218	5DA4  0C001D86             jal load_patterns
6219	5DA8  29F22369             sltiu $18, $15, 9065
6220	5DAC  35F22369             ori $18, $15, 9065
6221	5DB0  35F32369             ori $19, $15, 9065
6222	5DB4  29F32369             sltiu $19, $15, 9065
6223	5DB8  0C001D9C             jal store
6224	5DBC  0C001D91             jal increment_offset
6225	5DC0  0C001D86             jal load_patterns
6226	5DC4  29F2AFBE             sltiu $18, $15, 44990
6227	5DC8  35F2AFBE             ori $18, $15, 44990
6228	5DCC  35F3AFBE             ori $19, $15, 44990
6229	5DD0  29F3AFBE             sltiu $19, $15, 44990
6230	5DD4  0C001D9C             jal store
6231	5DD8  0C001D91             jal increment_offset
6232	5DDC  0C001D86             jal load_patterns
6233	5DE0  29F26877             sltiu $18, $15, 26743
6234	5DE4  35F26877             ori $18, $15, 26743
6235	5DE8  35F36877             ori $19, $15, 26743
6236	5DEC  29F36877             sltiu $19, $15, 26743
6237	5DF0  0C001D9C             jal store
6238	5DF4  0C001D91             jal increment_offset
6239	5DF8  0C001D86             jal load_patterns
6240	5DFC  29F2FBA0             sltiu $18, $15, 64416
6241	5E00  35F2FBA0             ori $18, $15, 64416
6242	5E04  35F3FBA0             ori $19, $15, 64416
6243	5E08  29F3FBA0             sltiu $19, $15, 64416
6244	5E0C  0C001D9C             jal store
6245	5E10  0C001D91             jal increment_offset
6246	5E14  0C001D86             jal load_patterns
6247	5E18  29F2CFF9             sltiu $18, $15, 53241
6248	5E1C  35F2CFF9             ori $18, $15, 53241
6249	5E20  35F3CFF9             ori $19, $15, 53241
6250	5E24  29F3CFF9             sltiu $19, $15, 53241
6251	5E28  0C001D9C             jal store
6252	5E2C  0C001D91             jal increment_offset
6253	5E30  0C001D86             jal load_patterns
6254	5E34  29F2B14E             sltiu $18, $15, 45390
6255	5E38  35F2B14E             ori $18, $15, 45390
6256	5E3C  35F3B14E             ori $19, $15, 45390
6257	5E40  29F3B14E             sltiu $19, $15, 45390
6258	5E44  0C001D9C             jal store
6259	5E48  0C001D91             jal increment_offset
6260	5E4C  0C001D86             jal load_patterns
6261	5E50  29F28ACC             sltiu $18, $15, 35532
6262	5E54  35F28ACC             ori $18, $15, 35532
6263	5E58  35F38ACC             ori $19, $15, 35532
6264	5E5C  29F38ACC             sltiu $19, $15, 35532
6265	5E60  0C001D9C             jal store
6266	5E64  0C001D91             jal increment_offset
6267	5E68  0C001D86             jal load_patterns
6268	5E6C  29F20159             sltiu $18, $15, 345
6269	5E70  35F20159             ori $18, $15, 345
6270	5E74  35F30159             ori $19, $15, 345
6271	5E78  29F30159             sltiu $19, $15, 345
6272	5E7C  0C001D9C             jal store
6273	5E80  0C001D91             jal increment_offset
6274	5E84  0C001D86             jal load_patterns
6275	5E88  29F25882             sltiu $18, $15, 22658
6276	5E8C  35F25882             ori $18, $15, 22658
6277	5E90  35F35882             ori $19, $15, 22658
6278	5E94  29F35882             sltiu $19, $15, 22658
6279	5E98  0C001D9C             jal store
6280	5E9C  0C001D91             jal increment_offset
6281	5EA0  0C001D86             jal load_patterns
6282	5EA4  29F21EC8             sltiu $18, $15, 7880
6283	5EA8  35F21EC8             ori $18, $15, 7880
6284	5EAC  35F31EC8             ori $19, $15, 7880
6285	5EB0  29F31EC8             sltiu $19, $15, 7880
6286	5EB4  0C001D9C             jal store
6287	5EB8  0C001D91             jal increment_offset
6288	5EBC  0C001D86             jal load_patterns
6289	5EC0  29F2D51C             sltiu $18, $15, 54556
6290	5EC4  35F2D51C             ori $18, $15, 54556
6291	5EC8  35F3D51C             ori $19, $15, 54556
6292	5ECC  29F3D51C             sltiu $19, $15, 54556
6293	5ED0  0C001D9C             jal store
6294	5ED4  0C001D91             jal increment_offset
6295	5ED8  0C001D86             jal load_patterns
6296	5EDC  29F2C4E8             sltiu $18, $15, 50408
6297	5EE0  35F2C4E8             ori $18, $15, 50408
6298	5EE4  35F3C4E8             ori $19, $15, 50408
6299	5EE8  29F3C4E8             sltiu $19, $15, 50408
6300	5EEC  0C001D9C             jal store
6301	5EF0  0C001D91             jal increment_offset
6302	5EF4  0C001D86             jal load_patterns
6303	5EF8  29F25CB0             sltiu $18, $15, 23728
6304	5EFC  35F25CB0             ori $18, $15, 23728
6305	5F00  35F35CB0             ori $19, $15, 23728
6306	5F04  29F35CB0             sltiu $19, $15, 23728
6307	5F08  0C001D9C             jal store
6308	5F0C  0C001D91             jal increment_offset
6309	5F10  0C001D86             jal load_patterns
6310	5F14  29F206C5             sltiu $18, $15, 1733
6311	5F18  35F206C5             ori $18, $15, 1733
6312	5F1C  35F306C5             ori $19, $15, 1733
6313	5F20  29F306C5             sltiu $19, $15, 1733
6314	5F24  0C001D9C             jal store
6315	5F28  0C001D91             jal increment_offset
6316	5F2C  0C001D86             jal load_patterns
6317	5F30  29F287AA             sltiu $18, $15, 34730
6318	5F34  35F287AA             ori $18, $15, 34730
6319	5F38  35F387AA             ori $19, $15, 34730
6320	5F3C  29F387AA             sltiu $19, $15, 34730
6321	5F40  0C001D9C             jal store
6322	5F44  0C001D91             jal increment_offset
6323	5F48  0C001D86             jal load_patterns
6324	5F4C  29F2FAC3             sltiu $18, $15, 64195
6325	5F50  35F2FAC3             ori $18, $15, 64195
6326	5F54  35F3FAC3             ori $19, $15, 64195
6327	5F58  29F3FAC3             sltiu $19, $15, 64195
6328	5F5C  0C001D9C             jal store
6329	5F60  0C001D91             jal increment_offset
6330	5F64  0C001D86             jal load_patterns
6331	5F68  29F2DB2C             sltiu $18, $15, 56108
6332	5F6C  35F2DB2C             ori $18, $15, 56108
6333	5F70  35F3DB2C             ori $19, $15, 56108
6334	5F74  29F3DB2C             sltiu $19, $15, 56108
6335	5F78  0C001D9C             jal store
6336	5F7C  0C001D91             jal increment_offset
6337	5F80  0C001D86             jal load_patterns
6338	5F84  29F2FC93             sltiu $18, $15, 64659
6339	5F88  35F2FC93             ori $18, $15, 64659
6340	5F8C  35F3FC93             ori $19, $15, 64659
6341	5F90  29F3FC93             sltiu $19, $15, 64659
6342	5F94  0C001D9C             jal store
6343	5F98  0C001D91             jal increment_offset
6344	                          
6345	5F9C  0C001D89            jal reset_offsets
6346	5FA0  0C001D9F            jal init_cp
6347	                          operation_sltiu_andi:
6348	5FA4  0C001D86             jal load_patterns
6349	5FA8  29F2C9F5             sltiu $18, $15, 51701
6350	5FAC  31F2C9F5             andi $18, $15, 51701
6351	5FB0  31F3C9F5             andi $19, $15, 51701
6352	5FB4  29F3C9F5             sltiu $19, $15, 51701
6353	5FB8  0C001D9C             jal store
6354	5FBC  0C001D91             jal increment_offset
6355	5FC0  0C001D86             jal load_patterns
6356	5FC4  29F23471             sltiu $18, $15, 13425
6357	5FC8  31F23471             andi $18, $15, 13425
6358	5FCC  31F33471             andi $19, $15, 13425
6359	5FD0  29F33471             sltiu $19, $15, 13425
6360	5FD4  0C001D9C             jal store
6361	5FD8  0C001D91             jal increment_offset
6362	5FDC  0C001D86             jal load_patterns
6363	5FE0  29F210BD             sltiu $18, $15, 4285
6364	5FE4  31F210BD             andi $18, $15, 4285
6365	5FE8  31F310BD             andi $19, $15, 4285
6366	5FEC  29F310BD             sltiu $19, $15, 4285
6367	5FF0  0C001D9C             jal store
6368	5FF4  0C001D91             jal increment_offset
6369	5FF8  0C001D86             jal load_patterns
6370	5FFC  29F2B496             sltiu $18, $15, 46230
6371	6000  31F2B496             andi $18, $15, 46230
6372	6004  31F3B496             andi $19, $15, 46230
6373	6008  29F3B496             sltiu $19, $15, 46230
6374	600C  0C001D9C             jal store
6375	6010  0C001D91             jal increment_offset
6376	6014  0C001D86             jal load_patterns
6377	6018  29F25773             sltiu $18, $15, 22387
6378	601C  31F25773             andi $18, $15, 22387
6379	6020  31F35773             andi $19, $15, 22387
6380	6024  29F35773             sltiu $19, $15, 22387
6381	6028  0C001D9C             jal store
6382	602C  0C001D91             jal increment_offset
6383	6030  0C001D86             jal load_patterns
6384	6034  29F2496F             sltiu $18, $15, 18799
6385	6038  31F2496F             andi $18, $15, 18799
6386	603C  31F3496F             andi $19, $15, 18799
6387	6040  29F3496F             sltiu $19, $15, 18799
6388	6044  0C001D9C             jal store
6389	6048  0C001D91             jal increment_offset
6390	604C  0C001D86             jal load_patterns
6391	6050  29F2C2E1             sltiu $18, $15, 49889
6392	6054  31F2C2E1             andi $18, $15, 49889
6393	6058  31F3C2E1             andi $19, $15, 49889
6394	605C  29F3C2E1             sltiu $19, $15, 49889
6395	6060  0C001D9C             jal store
6396	6064  0C001D91             jal increment_offset
6397	6068  0C001D86             jal load_patterns
6398	606C  29F28CB7             sltiu $18, $15, 36023
6399	6070  31F28CB7             andi $18, $15, 36023
6400	6074  31F38CB7             andi $19, $15, 36023
6401	6078  29F38CB7             sltiu $19, $15, 36023
6402	607C  0C001D9C             jal store
6403	6080  0C001D91             jal increment_offset
6404	6084  0C001D86             jal load_patterns
6405	6088  29F2356A             sltiu $18, $15, 13674
6406	608C  31F2356A             andi $18, $15, 13674
6407	6090  31F3356A             andi $19, $15, 13674
6408	6094  29F3356A             sltiu $19, $15, 13674
6409	6098  0C001D9C             jal store
6410	609C  0C001D91             jal increment_offset
6411	60A0  0C001D86             jal load_patterns
6412	60A4  29F2EEC1             sltiu $18, $15, 61121
6413	60A8  31F2EEC1             andi $18, $15, 61121
6414	60AC  31F3EEC1             andi $19, $15, 61121
6415	60B0  29F3EEC1             sltiu $19, $15, 61121
6416	60B4  0C001D9C             jal store
6417	60B8  0C001D91             jal increment_offset
6418	60BC  0C001D86             jal load_patterns
6419	60C0  29F224B1             sltiu $18, $15, 9393
6420	60C4  31F224B1             andi $18, $15, 9393
6421	60C8  31F324B1             andi $19, $15, 9393
6422	60CC  29F324B1             sltiu $19, $15, 9393
6423	60D0  0C001D9C             jal store
6424	60D4  0C001D91             jal increment_offset
6425	60D8  0C001D86             jal load_patterns
6426	60DC  29F22838             sltiu $18, $15, 10296
6427	60E0  31F22838             andi $18, $15, 10296
6428	60E4  31F32838             andi $19, $15, 10296
6429	60E8  29F32838             sltiu $19, $15, 10296
6430	60EC  0C001D9C             jal store
6431	60F0  0C001D91             jal increment_offset
6432	60F4  0C001D86             jal load_patterns
6433	60F8  29F25531             sltiu $18, $15, 21809
6434	60FC  31F25531             andi $18, $15, 21809
6435	6100  31F35531             andi $19, $15, 21809
6436	6104  29F35531             sltiu $19, $15, 21809
6437	6108  0C001D9C             jal store
6438	610C  0C001D91             jal increment_offset
6439	6110  0C001D86             jal load_patterns
6440	6114  29F220C3             sltiu $18, $15, 8387
6441	6118  31F220C3             andi $18, $15, 8387
6442	611C  31F320C3             andi $19, $15, 8387
6443	6120  29F320C3             sltiu $19, $15, 8387
6444	6124  0C001D9C             jal store
6445	6128  0C001D91             jal increment_offset
6446	612C  0C001D86             jal load_patterns
6447	6130  29F27CDD             sltiu $18, $15, 31965
6448	6134  31F27CDD             andi $18, $15, 31965
6449	6138  31F37CDD             andi $19, $15, 31965
6450	613C  29F37CDD             sltiu $19, $15, 31965
6451	6140  0C001D9C             jal store
6452	6144  0C001D91             jal increment_offset
6453	6148  0C001D86             jal load_patterns
6454	614C  29F2766A             sltiu $18, $15, 30314
6455	6150  31F2766A             andi $18, $15, 30314
6456	6154  31F3766A             andi $19, $15, 30314
6457	6158  29F3766A             sltiu $19, $15, 30314
6458	615C  0C001D9C             jal store
6459	6160  0C001D91             jal increment_offset
6460	6164  0C001D86             jal load_patterns
6461	6168  29F2E5EC             sltiu $18, $15, 58860
6462	616C  31F2E5EC             andi $18, $15, 58860
6463	6170  31F3E5EC             andi $19, $15, 58860
6464	6174  29F3E5EC             sltiu $19, $15, 58860
6465	6178  0C001D9C             jal store
6466	617C  0C001D91             jal increment_offset
6467	6180  0C001D86             jal load_patterns
6468	6184  29F2FD41             sltiu $18, $15, 64833
6469	6188  31F2FD41             andi $18, $15, 64833
6470	618C  31F3FD41             andi $19, $15, 64833
6471	6190  29F3FD41             sltiu $19, $15, 64833
6472	6194  0C001D9C             jal store
6473	6198  0C001D91             jal increment_offset
6474	619C  0C001D86             jal load_patterns
6475	61A0  29F20238             sltiu $18, $15, 568
6476	61A4  31F20238             andi $18, $15, 568
6477	61A8  31F30238             andi $19, $15, 568
6478	61AC  29F30238             sltiu $19, $15, 568
6479	61B0  0C001D9C             jal store
6480	61B4  0C001D91             jal increment_offset
6481	61B8  0C001D86             jal load_patterns
6482	61BC  29F2C8FE             sltiu $18, $15, 51454
6483	61C0  31F2C8FE             andi $18, $15, 51454
6484	61C4  31F3C8FE             andi $19, $15, 51454
6485	61C8  29F3C8FE             sltiu $19, $15, 51454
6486	61CC  0C001D9C             jal store
6487	61D0  0C001D91             jal increment_offset
6488	61D4  0C001D86             jal load_patterns
6489	61D8  29F27FCF             sltiu $18, $15, 32719
6490	61DC  31F27FCF             andi $18, $15, 32719
6491	61E0  31F37FCF             andi $19, $15, 32719
6492	61E4  29F37FCF             sltiu $19, $15, 32719
6493	61E8  0C001D9C             jal store
6494	61EC  0C001D91             jal increment_offset
6495	61F0  0C001D86             jal load_patterns
6496	61F4  29F24CC2             sltiu $18, $15, 19650
6497	61F8  31F24CC2             andi $18, $15, 19650
6498	61FC  31F34CC2             andi $19, $15, 19650
6499	6200  29F34CC2             sltiu $19, $15, 19650
6500	6204  0C001D9C             jal store
6501	6208  0C001D91             jal increment_offset
6502	620C  0C001D86             jal load_patterns
6503	6210  29F2A8D0             sltiu $18, $15, 43216
6504	6214  31F2A8D0             andi $18, $15, 43216
6505	6218  31F3A8D0             andi $19, $15, 43216
6506	621C  29F3A8D0             sltiu $19, $15, 43216
6507	6220  0C001D9C             jal store
6508	6224  0C001D91             jal increment_offset
6509	6228  0C001D86             jal load_patterns
6510	622C  29F28748             sltiu $18, $15, 34632
6511	6230  31F28748             andi $18, $15, 34632
6512	6234  31F38748             andi $19, $15, 34632
6513	6238  29F38748             sltiu $19, $15, 34632
6514	623C  0C001D9C             jal store
6515	6240  0C001D91             jal increment_offset
6516	6244  0C001D86             jal load_patterns
6517	6248  29F2999C             sltiu $18, $15, 39324
6518	624C  31F2999C             andi $18, $15, 39324
6519	6250  31F3999C             andi $19, $15, 39324
6520	6254  29F3999C             sltiu $19, $15, 39324
6521	6258  0C001D9C             jal store
6522	625C  0C001D91             jal increment_offset
6523	6260  0C001D86             jal load_patterns
6524	6264  29F2D796             sltiu $18, $15, 55190
6525	6268  31F2D796             andi $18, $15, 55190
6526	626C  31F3D796             andi $19, $15, 55190
6527	6270  29F3D796             sltiu $19, $15, 55190
6528	6274  0C001D9C             jal store
6529	6278  0C001D91             jal increment_offset
6530	627C  0C001D86             jal load_patterns
6531	6280  29F2CC26             sltiu $18, $15, 52262
6532	6284  31F2CC26             andi $18, $15, 52262
6533	6288  31F3CC26             andi $19, $15, 52262
6534	628C  29F3CC26             sltiu $19, $15, 52262
6535	6290  0C001D9C             jal store
6536	6294  0C001D91             jal increment_offset
6537	6298  0C001D86             jal load_patterns
6538	629C  29F24B2C             sltiu $18, $15, 19244
6539	62A0  31F24B2C             andi $18, $15, 19244
6540	62A4  31F34B2C             andi $19, $15, 19244
6541	62A8  29F34B2C             sltiu $19, $15, 19244
6542	62AC  0C001D9C             jal store
6543	62B0  0C001D91             jal increment_offset
6544	62B4  0C001D86             jal load_patterns
6545	62B8  29F2B336             sltiu $18, $15, 45878
6546	62BC  31F2B336             andi $18, $15, 45878
6547	62C0  31F3B336             andi $19, $15, 45878
6548	62C4  29F3B336             sltiu $19, $15, 45878
6549	62C8  0C001D9C             jal store
6550	62CC  0C001D91             jal increment_offset
6551	62D0  0C001D86             jal load_patterns
6552	62D4  29F22A22             sltiu $18, $15, 10786
6553	62D8  31F22A22             andi $18, $15, 10786
6554	62DC  31F32A22             andi $19, $15, 10786
6555	62E0  29F32A22             sltiu $19, $15, 10786
6556	62E4  0C001D9C             jal store
6557	62E8  0C001D91             jal increment_offset
6558	62EC  0C001D86             jal load_patterns
6559	62F0  29F257D7             sltiu $18, $15, 22487
6560	62F4  31F257D7             andi $18, $15, 22487
6561	62F8  31F357D7             andi $19, $15, 22487
6562	62FC  29F357D7             sltiu $19, $15, 22487
6563	6300  0C001D9C             jal store
6564	6304  0C001D91             jal increment_offset
6565	6308  0C001D86             jal load_patterns
6566	630C  29F29FFE             sltiu $18, $15, 40958
6567	6310  31F29FFE             andi $18, $15, 40958
6568	6314  31F39FFE             andi $19, $15, 40958
6569	6318  29F39FFE             sltiu $19, $15, 40958
6570	631C  0C001D9C             jal store
6571	6320  0C001D91             jal increment_offset
6572	6324  0C001D86             jal load_patterns
6573	6328  29F238A4             sltiu $18, $15, 14500
6574	632C  31F238A4             andi $18, $15, 14500
6575	6330  31F338A4             andi $19, $15, 14500
6576	6334  29F338A4             sltiu $19, $15, 14500
6577	6338  0C001D9C             jal store
6578	633C  0C001D91             jal increment_offset
6579	6340  0C001D86             jal load_patterns
6580	6344  29F269E2             sltiu $18, $15, 27106
6581	6348  31F269E2             andi $18, $15, 27106
6582	634C  31F369E2             andi $19, $15, 27106
6583	6350  29F369E2             sltiu $19, $15, 27106
6584	6354  0C001D9C             jal store
6585	6358  0C001D91             jal increment_offset
6586	635C  0C001D86             jal load_patterns
6587	6360  29F2481D             sltiu $18, $15, 18461
6588	6364  31F2481D             andi $18, $15, 18461
6589	6368  31F3481D             andi $19, $15, 18461
6590	636C  29F3481D             sltiu $19, $15, 18461
6591	6370  0C001D9C             jal store
6592	6374  0C001D91             jal increment_offset
6593	6378  0C001D86             jal load_patterns
6594	637C  29F24987             sltiu $18, $15, 18823
6595	6380  31F24987             andi $18, $15, 18823
6596	6384  31F34987             andi $19, $15, 18823
6597	6388  29F34987             sltiu $19, $15, 18823
6598	638C  0C001D9C             jal store
6599	6390  0C001D91             jal increment_offset
6600	6394  0C001D86             jal load_patterns
6601	6398  29F27A49             sltiu $18, $15, 31305
6602	639C  31F27A49             andi $18, $15, 31305
6603	63A0  31F37A49             andi $19, $15, 31305
6604	63A4  29F37A49             sltiu $19, $15, 31305
6605	63A8  0C001D9C             jal store
6606	63AC  0C001D91             jal increment_offset
6607	63B0  0C001D86             jal load_patterns
6608	63B4  29F2AF83             sltiu $18, $15, 44931
6609	63B8  31F2AF83             andi $18, $15, 44931
6610	63BC  31F3AF83             andi $19, $15, 44931
6611	63C0  29F3AF83             sltiu $19, $15, 44931
6612	63C4  0C001D9C             jal store
6613	63C8  0C001D91             jal increment_offset
6614	63CC  0C001D86             jal load_patterns
6615	63D0  29F2A2DF             sltiu $18, $15, 41695
6616	63D4  31F2A2DF             andi $18, $15, 41695
6617	63D8  31F3A2DF             andi $19, $15, 41695
6618	63DC  29F3A2DF             sltiu $19, $15, 41695
6619	63E0  0C001D9C             jal store
6620	63E4  0C001D91             jal increment_offset
6621	63E8  0C001D86             jal load_patterns
6622	63EC  29F202AD             sltiu $18, $15, 685
6623	63F0  31F202AD             andi $18, $15, 685
6624	63F4  31F302AD             andi $19, $15, 685
6625	63F8  29F302AD             sltiu $19, $15, 685
6626	63FC  0C001D9C             jal store
6627	6400  0C001D91             jal increment_offset
6628	6404  0C001D86             jal load_patterns
6629	6408  29F25D70             sltiu $18, $15, 23920
6630	640C  31F25D70             andi $18, $15, 23920
6631	6410  31F35D70             andi $19, $15, 23920
6632	6414  29F35D70             sltiu $19, $15, 23920
6633	6418  0C001D9C             jal store
6634	641C  0C001D91             jal increment_offset
6635	6420  0C001D86             jal load_patterns
6636	6424  29F27410             sltiu $18, $15, 29712
6637	6428  31F27410             andi $18, $15, 29712
6638	642C  31F37410             andi $19, $15, 29712
6639	6430  29F37410             sltiu $19, $15, 29712
6640	6434  0C001D9C             jal store
6641	6438  0C001D91             jal increment_offset
6642	643C  0C001D86             jal load_patterns
6643	6440  29F2D17E             sltiu $18, $15, 53630
6644	6444  31F2D17E             andi $18, $15, 53630
6645	6448  31F3D17E             andi $19, $15, 53630
6646	644C  29F3D17E             sltiu $19, $15, 53630
6647	6450  0C001D9C             jal store
6648	6454  0C001D91             jal increment_offset
6649	6458  0C001D86             jal load_patterns
6650	645C  29F2AB28             sltiu $18, $15, 43816
6651	6460  31F2AB28             andi $18, $15, 43816
6652	6464  31F3AB28             andi $19, $15, 43816
6653	6468  29F3AB28             sltiu $19, $15, 43816
6654	646C  0C001D9C             jal store
6655	6470  0C001D91             jal increment_offset
6656	6474  0C001D86             jal load_patterns
6657	6478  29F2A1AF             sltiu $18, $15, 41391
6658	647C  31F2A1AF             andi $18, $15, 41391
6659	6480  31F3A1AF             andi $19, $15, 41391
6660	6484  29F3A1AF             sltiu $19, $15, 41391
6661	6488  0C001D9C             jal store
6662	648C  0C001D91             jal increment_offset
6663	6490  0C001D86             jal load_patterns
6664	6494  29F21A1F             sltiu $18, $15, 6687
6665	6498  31F21A1F             andi $18, $15, 6687
6666	649C  31F31A1F             andi $19, $15, 6687
6667	64A0  29F31A1F             sltiu $19, $15, 6687
6668	64A4  0C001D9C             jal store
6669	64A8  0C001D91             jal increment_offset
6670	64AC  0C001D86             jal load_patterns
6671	64B0  29F22369             sltiu $18, $15, 9065
6672	64B4  31F22369             andi $18, $15, 9065
6673	64B8  31F32369             andi $19, $15, 9065
6674	64BC  29F32369             sltiu $19, $15, 9065
6675	64C0  0C001D9C             jal store
6676	64C4  0C001D91             jal increment_offset
6677	64C8  0C001D86             jal load_patterns
6678	64CC  29F2AFBE             sltiu $18, $15, 44990
6679	64D0  31F2AFBE             andi $18, $15, 44990
6680	64D4  31F3AFBE             andi $19, $15, 44990
6681	64D8  29F3AFBE             sltiu $19, $15, 44990
6682	64DC  0C001D9C             jal store
6683	64E0  0C001D91             jal increment_offset
6684	64E4  0C001D86             jal load_patterns
6685	64E8  29F26877             sltiu $18, $15, 26743
6686	64EC  31F26877             andi $18, $15, 26743
6687	64F0  31F36877             andi $19, $15, 26743
6688	64F4  29F36877             sltiu $19, $15, 26743
6689	64F8  0C001D9C             jal store
6690	64FC  0C001D91             jal increment_offset
6691	6500  0C001D86             jal load_patterns
6692	6504  29F2FBA0             sltiu $18, $15, 64416
6693	6508  31F2FBA0             andi $18, $15, 64416
6694	650C  31F3FBA0             andi $19, $15, 64416
6695	6510  29F3FBA0             sltiu $19, $15, 64416
6696	6514  0C001D9C             jal store
6697	6518  0C001D91             jal increment_offset
6698	651C  0C001D86             jal load_patterns
6699	6520  29F2CFF9             sltiu $18, $15, 53241
6700	6524  31F2CFF9             andi $18, $15, 53241
6701	6528  31F3CFF9             andi $19, $15, 53241
6702	652C  29F3CFF9             sltiu $19, $15, 53241
6703	6530  0C001D9C             jal store
6704	6534  0C001D91             jal increment_offset
6705	6538  0C001D86             jal load_patterns
6706	653C  29F2B14E             sltiu $18, $15, 45390
6707	6540  31F2B14E             andi $18, $15, 45390
6708	6544  31F3B14E             andi $19, $15, 45390
6709	6548  29F3B14E             sltiu $19, $15, 45390
6710	654C  0C001D9C             jal store
6711	6550  0C001D91             jal increment_offset
6712	6554  0C001D86             jal load_patterns
6713	6558  29F28ACC             sltiu $18, $15, 35532
6714	655C  31F28ACC             andi $18, $15, 35532
6715	6560  31F38ACC             andi $19, $15, 35532
6716	6564  29F38ACC             sltiu $19, $15, 35532
6717	6568  0C001D9C             jal store
6718	656C  0C001D91             jal increment_offset
6719	6570  0C001D86             jal load_patterns
6720	6574  29F20159             sltiu $18, $15, 345
6721	6578  31F20159             andi $18, $15, 345
6722	657C  31F30159             andi $19, $15, 345
6723	6580  29F30159             sltiu $19, $15, 345
6724	6584  0C001D9C             jal store
6725	6588  0C001D91             jal increment_offset
6726	658C  0C001D86             jal load_patterns
6727	6590  29F25882             sltiu $18, $15, 22658
6728	6594  31F25882             andi $18, $15, 22658
6729	6598  31F35882             andi $19, $15, 22658
6730	659C  29F35882             sltiu $19, $15, 22658
6731	65A0  0C001D9C             jal store
6732	65A4  0C001D91             jal increment_offset
6733	65A8  0C001D86             jal load_patterns
6734	65AC  29F21EC8             sltiu $18, $15, 7880
6735	65B0  31F21EC8             andi $18, $15, 7880
6736	65B4  31F31EC8             andi $19, $15, 7880
6737	65B8  29F31EC8             sltiu $19, $15, 7880
6738	65BC  0C001D9C             jal store
6739	65C0  0C001D91             jal increment_offset
6740	65C4  0C001D86             jal load_patterns
6741	65C8  29F2D51C             sltiu $18, $15, 54556
6742	65CC  31F2D51C             andi $18, $15, 54556
6743	65D0  31F3D51C             andi $19, $15, 54556
6744	65D4  29F3D51C             sltiu $19, $15, 54556
6745	65D8  0C001D9C             jal store
6746	65DC  0C001D91             jal increment_offset
6747	65E0  0C001D86             jal load_patterns
6748	65E4  29F2C4E8             sltiu $18, $15, 50408
6749	65E8  31F2C4E8             andi $18, $15, 50408
6750	65EC  31F3C4E8             andi $19, $15, 50408
6751	65F0  29F3C4E8             sltiu $19, $15, 50408
6752	65F4  0C001D9C             jal store
6753	65F8  0C001D91             jal increment_offset
6754	65FC  0C001D86             jal load_patterns
6755	6600  29F25CB0             sltiu $18, $15, 23728
6756	6604  31F25CB0             andi $18, $15, 23728
6757	6608  31F35CB0             andi $19, $15, 23728
6758	660C  29F35CB0             sltiu $19, $15, 23728
6759	6610  0C001D9C             jal store
6760	6614  0C001D91             jal increment_offset
6761	6618  0C001D86             jal load_patterns
6762	661C  29F206C5             sltiu $18, $15, 1733
6763	6620  31F206C5             andi $18, $15, 1733
6764	6624  31F306C5             andi $19, $15, 1733
6765	6628  29F306C5             sltiu $19, $15, 1733
6766	662C  0C001D9C             jal store
6767	6630  0C001D91             jal increment_offset
6768	6634  0C001D86             jal load_patterns
6769	6638  29F287AA             sltiu $18, $15, 34730
6770	663C  31F287AA             andi $18, $15, 34730
6771	6640  31F387AA             andi $19, $15, 34730
6772	6644  29F387AA             sltiu $19, $15, 34730
6773	6648  0C001D9C             jal store
6774	664C  0C001D91             jal increment_offset
6775	6650  0C001D86             jal load_patterns
6776	6654  29F2FAC3             sltiu $18, $15, 64195
6777	6658  31F2FAC3             andi $18, $15, 64195
6778	665C  31F3FAC3             andi $19, $15, 64195
6779	6660  29F3FAC3             sltiu $19, $15, 64195
6780	6664  0C001D9C             jal store
6781	6668  0C001D91             jal increment_offset
6782	666C  0C001D86             jal load_patterns
6783	6670  29F2DB2C             sltiu $18, $15, 56108
6784	6674  31F2DB2C             andi $18, $15, 56108
6785	6678  31F3DB2C             andi $19, $15, 56108
6786	667C  29F3DB2C             sltiu $19, $15, 56108
6787	6680  0C001D9C             jal store
6788	6684  0C001D91             jal increment_offset
6789	6688  0C001D86             jal load_patterns
6790	668C  29F2FC93             sltiu $18, $15, 64659
6791	6690  31F2FC93             andi $18, $15, 64659
6792	6694  31F3FC93             andi $19, $15, 64659
6793	6698  29F3FC93             sltiu $19, $15, 64659
6794	669C  0C001D9C             jal store
6795	66A0  0C001D91             jal increment_offset
6796	                          
6797	66A4  0C001D89            jal reset_offsets
6798	66A8  0C001D9F            jal init_cp
6799	                          operation_xori_ori:
6800	66AC  0C001D86             jal load_patterns
6801	66B0  39F2C9F5             xori $18, $15, 51701
6802	66B4  35F2C9F5             ori $18, $15, 51701
6803	66B8  35F3C9F5             ori $19, $15, 51701
6804	66BC  39F3C9F5             xori $19, $15, 51701
6805	66C0  0C001D9C             jal store
6806	66C4  0C001D91             jal increment_offset
6807	66C8  0C001D86             jal load_patterns
6808	66CC  39F23471             xori $18, $15, 13425
6809	66D0  35F23471             ori $18, $15, 13425
6810	66D4  35F33471             ori $19, $15, 13425
6811	66D8  39F33471             xori $19, $15, 13425
6812	66DC  0C001D9C             jal store
6813	66E0  0C001D91             jal increment_offset
6814	66E4  0C001D86             jal load_patterns
6815	66E8  39F210BD             xori $18, $15, 4285
6816	66EC  35F210BD             ori $18, $15, 4285
6817	66F0  35F310BD             ori $19, $15, 4285
6818	66F4  39F310BD             xori $19, $15, 4285
6819	66F8  0C001D9C             jal store
6820	66FC  0C001D91             jal increment_offset
6821	6700  0C001D86             jal load_patterns
6822	6704  39F2B496             xori $18, $15, 46230
6823	6708  35F2B496             ori $18, $15, 46230
6824	670C  35F3B496             ori $19, $15, 46230
6825	6710  39F3B496             xori $19, $15, 46230
6826	6714  0C001D9C             jal store
6827	6718  0C001D91             jal increment_offset
6828	671C  0C001D86             jal load_patterns
6829	6720  39F25773             xori $18, $15, 22387
6830	6724  35F25773             ori $18, $15, 22387
6831	6728  35F35773             ori $19, $15, 22387
6832	672C  39F35773             xori $19, $15, 22387
6833	6730  0C001D9C             jal store
6834	6734  0C001D91             jal increment_offset
6835	6738  0C001D86             jal load_patterns
6836	673C  39F2496F             xori $18, $15, 18799
6837	6740  35F2496F             ori $18, $15, 18799
6838	6744  35F3496F             ori $19, $15, 18799
6839	6748  39F3496F             xori $19, $15, 18799
6840	674C  0C001D9C             jal store
6841	6750  0C001D91             jal increment_offset
6842	6754  0C001D86             jal load_patterns
6843	6758  39F2C2E1             xori $18, $15, 49889
6844	675C  35F2C2E1             ori $18, $15, 49889
6845	6760  35F3C2E1             ori $19, $15, 49889
6846	6764  39F3C2E1             xori $19, $15, 49889
6847	6768  0C001D9C             jal store
6848	676C  0C001D91             jal increment_offset
6849	6770  0C001D86             jal load_patterns
6850	6774  39F28CB7             xori $18, $15, 36023
6851	6778  35F28CB7             ori $18, $15, 36023
6852	677C  35F38CB7             ori $19, $15, 36023
6853	6780  39F38CB7             xori $19, $15, 36023
6854	6784  0C001D9C             jal store
6855	6788  0C001D91             jal increment_offset
6856	678C  0C001D86             jal load_patterns
6857	6790  39F2356A             xori $18, $15, 13674
6858	6794  35F2356A             ori $18, $15, 13674
6859	6798  35F3356A             ori $19, $15, 13674
6860	679C  39F3356A             xori $19, $15, 13674
6861	67A0  0C001D9C             jal store
6862	67A4  0C001D91             jal increment_offset
6863	67A8  0C001D86             jal load_patterns
6864	67AC  39F2EEC1             xori $18, $15, 61121
6865	67B0  35F2EEC1             ori $18, $15, 61121
6866	67B4  35F3EEC1             ori $19, $15, 61121
6867	67B8  39F3EEC1             xori $19, $15, 61121
6868	67BC  0C001D9C             jal store
6869	67C0  0C001D91             jal increment_offset
6870	67C4  0C001D86             jal load_patterns
6871	67C8  39F224B1             xori $18, $15, 9393
6872	67CC  35F224B1             ori $18, $15, 9393
6873	67D0  35F324B1             ori $19, $15, 9393
6874	67D4  39F324B1             xori $19, $15, 9393
6875	67D8  0C001D9C             jal store
6876	67DC  0C001D91             jal increment_offset
6877	67E0  0C001D86             jal load_patterns
6878	67E4  39F22838             xori $18, $15, 10296
6879	67E8  35F22838             ori $18, $15, 10296
6880	67EC  35F32838             ori $19, $15, 10296
6881	67F0  39F32838             xori $19, $15, 10296
6882	67F4  0C001D9C             jal store
6883	67F8  0C001D91             jal increment_offset
6884	67FC  0C001D86             jal load_patterns
6885	6800  39F25531             xori $18, $15, 21809
6886	6804  35F25531             ori $18, $15, 21809
6887	6808  35F35531             ori $19, $15, 21809
6888	680C  39F35531             xori $19, $15, 21809
6889	6810  0C001D9C             jal store
6890	6814  0C001D91             jal increment_offset
6891	6818  0C001D86             jal load_patterns
6892	681C  39F220C3             xori $18, $15, 8387
6893	6820  35F220C3             ori $18, $15, 8387
6894	6824  35F320C3             ori $19, $15, 8387
6895	6828  39F320C3             xori $19, $15, 8387
6896	682C  0C001D9C             jal store
6897	6830  0C001D91             jal increment_offset
6898	6834  0C001D86             jal load_patterns
6899	6838  39F27CDD             xori $18, $15, 31965
6900	683C  35F27CDD             ori $18, $15, 31965
6901	6840  35F37CDD             ori $19, $15, 31965
6902	6844  39F37CDD             xori $19, $15, 31965
6903	6848  0C001D9C             jal store
6904	684C  0C001D91             jal increment_offset
6905	6850  0C001D86             jal load_patterns
6906	6854  39F2766A             xori $18, $15, 30314
6907	6858  35F2766A             ori $18, $15, 30314
6908	685C  35F3766A             ori $19, $15, 30314
6909	6860  39F3766A             xori $19, $15, 30314
6910	6864  0C001D9C             jal store
6911	6868  0C001D91             jal increment_offset
6912	686C  0C001D86             jal load_patterns
6913	6870  39F2E5EC             xori $18, $15, 58860
6914	6874  35F2E5EC             ori $18, $15, 58860
6915	6878  35F3E5EC             ori $19, $15, 58860
6916	687C  39F3E5EC             xori $19, $15, 58860
6917	6880  0C001D9C             jal store
6918	6884  0C001D91             jal increment_offset
6919	6888  0C001D86             jal load_patterns
6920	688C  39F2FD41             xori $18, $15, 64833
6921	6890  35F2FD41             ori $18, $15, 64833
6922	6894  35F3FD41             ori $19, $15, 64833
6923	6898  39F3FD41             xori $19, $15, 64833
6924	689C  0C001D9C             jal store
6925	68A0  0C001D91             jal increment_offset
6926	68A4  0C001D86             jal load_patterns
6927	68A8  39F20238             xori $18, $15, 568
6928	68AC  35F20238             ori $18, $15, 568
6929	68B0  35F30238             ori $19, $15, 568
6930	68B4  39F30238             xori $19, $15, 568
6931	68B8  0C001D9C             jal store
6932	68BC  0C001D91             jal increment_offset
6933	68C0  0C001D86             jal load_patterns
6934	68C4  39F2C8FE             xori $18, $15, 51454
6935	68C8  35F2C8FE             ori $18, $15, 51454
6936	68CC  35F3C8FE             ori $19, $15, 51454
6937	68D0  39F3C8FE             xori $19, $15, 51454
6938	68D4  0C001D9C             jal store
6939	68D8  0C001D91             jal increment_offset
6940	68DC  0C001D86             jal load_patterns
6941	68E0  39F27FCF             xori $18, $15, 32719
6942	68E4  35F27FCF             ori $18, $15, 32719
6943	68E8  35F37FCF             ori $19, $15, 32719
6944	68EC  39F37FCF             xori $19, $15, 32719
6945	68F0  0C001D9C             jal store
6946	68F4  0C001D91             jal increment_offset
6947	68F8  0C001D86             jal load_patterns
6948	68FC  39F24CC2             xori $18, $15, 19650
6949	6900  35F24CC2             ori $18, $15, 19650
6950	6904  35F34CC2             ori $19, $15, 19650
6951	6908  39F34CC2             xori $19, $15, 19650
6952	690C  0C001D9C             jal store
6953	6910  0C001D91             jal increment_offset
6954	6914  0C001D86             jal load_patterns
6955	6918  39F2A8D0             xori $18, $15, 43216
6956	691C  35F2A8D0             ori $18, $15, 43216
6957	6920  35F3A8D0             ori $19, $15, 43216
6958	6924  39F3A8D0             xori $19, $15, 43216
6959	6928  0C001D9C             jal store
6960	692C  0C001D91             jal increment_offset
6961	6930  0C001D86             jal load_patterns
6962	6934  39F28748             xori $18, $15, 34632
6963	6938  35F28748             ori $18, $15, 34632
6964	693C  35F38748             ori $19, $15, 34632
6965	6940  39F38748             xori $19, $15, 34632
6966	6944  0C001D9C             jal store
6967	6948  0C001D91             jal increment_offset
6968	694C  0C001D86             jal load_patterns
6969	6950  39F2999C             xori $18, $15, 39324
6970	6954  35F2999C             ori $18, $15, 39324
6971	6958  35F3999C             ori $19, $15, 39324
6972	695C  39F3999C             xori $19, $15, 39324
6973	6960  0C001D9C             jal store
6974	6964  0C001D91             jal increment_offset
6975	6968  0C001D86             jal load_patterns
6976	696C  39F2D796             xori $18, $15, 55190
6977	6970  35F2D796             ori $18, $15, 55190
6978	6974  35F3D796             ori $19, $15, 55190
6979	6978  39F3D796             xori $19, $15, 55190
6980	697C  0C001D9C             jal store
6981	6980  0C001D91             jal increment_offset
6982	6984  0C001D86             jal load_patterns
6983	6988  39F2CC26             xori $18, $15, 52262
6984	698C  35F2CC26             ori $18, $15, 52262
6985	6990  35F3CC26             ori $19, $15, 52262
6986	6994  39F3CC26             xori $19, $15, 52262
6987	6998  0C001D9C             jal store
6988	699C  0C001D91             jal increment_offset
6989	69A0  0C001D86             jal load_patterns
6990	69A4  39F24B2C             xori $18, $15, 19244
6991	69A8  35F24B2C             ori $18, $15, 19244
6992	69AC  35F34B2C             ori $19, $15, 19244
6993	69B0  39F34B2C             xori $19, $15, 19244
6994	69B4  0C001D9C             jal store
6995	69B8  0C001D91             jal increment_offset
6996	69BC  0C001D86             jal load_patterns
6997	69C0  39F2B336             xori $18, $15, 45878
6998	69C4  35F2B336             ori $18, $15, 45878
6999	69C8  35F3B336             ori $19, $15, 45878
7000	69CC  39F3B336             xori $19, $15, 45878
7001	69D0  0C001D9C             jal store
7002	69D4  0C001D91             jal increment_offset
7003	69D8  0C001D86             jal load_patterns
7004	69DC  39F22A22             xori $18, $15, 10786
7005	69E0  35F22A22             ori $18, $15, 10786
7006	69E4  35F32A22             ori $19, $15, 10786
7007	69E8  39F32A22             xori $19, $15, 10786
7008	69EC  0C001D9C             jal store
7009	69F0  0C001D91             jal increment_offset
7010	69F4  0C001D86             jal load_patterns
7011	69F8  39F257D7             xori $18, $15, 22487
7012	69FC  35F257D7             ori $18, $15, 22487
7013	6A00  35F357D7             ori $19, $15, 22487
7014	6A04  39F357D7             xori $19, $15, 22487
7015	6A08  0C001D9C             jal store
7016	6A0C  0C001D91             jal increment_offset
7017	6A10  0C001D86             jal load_patterns
7018	6A14  39F29FFE             xori $18, $15, 40958
7019	6A18  35F29FFE             ori $18, $15, 40958
7020	6A1C  35F39FFE             ori $19, $15, 40958
7021	6A20  39F39FFE             xori $19, $15, 40958
7022	6A24  0C001D9C             jal store
7023	6A28  0C001D91             jal increment_offset
7024	6A2C  0C001D86             jal load_patterns
7025	6A30  39F238A4             xori $18, $15, 14500
7026	6A34  35F238A4             ori $18, $15, 14500
7027	6A38  35F338A4             ori $19, $15, 14500
7028	6A3C  39F338A4             xori $19, $15, 14500
7029	6A40  0C001D9C             jal store
7030	6A44  0C001D91             jal increment_offset
7031	6A48  0C001D86             jal load_patterns
7032	6A4C  39F269E2             xori $18, $15, 27106
7033	6A50  35F269E2             ori $18, $15, 27106
7034	6A54  35F369E2             ori $19, $15, 27106
7035	6A58  39F369E2             xori $19, $15, 27106
7036	6A5C  0C001D9C             jal store
7037	6A60  0C001D91             jal increment_offset
7038	6A64  0C001D86             jal load_patterns
7039	6A68  39F2481D             xori $18, $15, 18461
7040	6A6C  35F2481D             ori $18, $15, 18461
7041	6A70  35F3481D             ori $19, $15, 18461
7042	6A74  39F3481D             xori $19, $15, 18461
7043	6A78  0C001D9C             jal store
7044	6A7C  0C001D91             jal increment_offset
7045	6A80  0C001D86             jal load_patterns
7046	6A84  39F24987             xori $18, $15, 18823
7047	6A88  35F24987             ori $18, $15, 18823
7048	6A8C  35F34987             ori $19, $15, 18823
7049	6A90  39F34987             xori $19, $15, 18823
7050	6A94  0C001D9C             jal store
7051	6A98  0C001D91             jal increment_offset
7052	6A9C  0C001D86             jal load_patterns
7053	6AA0  39F27A49             xori $18, $15, 31305
7054	6AA4  35F27A49             ori $18, $15, 31305
7055	6AA8  35F37A49             ori $19, $15, 31305
7056	6AAC  39F37A49             xori $19, $15, 31305
7057	6AB0  0C001D9C             jal store
7058	6AB4  0C001D91             jal increment_offset
7059	6AB8  0C001D86             jal load_patterns
7060	6ABC  39F2AF83             xori $18, $15, 44931
7061	6AC0  35F2AF83             ori $18, $15, 44931
7062	6AC4  35F3AF83             ori $19, $15, 44931
7063	6AC8  39F3AF83             xori $19, $15, 44931
7064	6ACC  0C001D9C             jal store
7065	6AD0  0C001D91             jal increment_offset
7066	6AD4  0C001D86             jal load_patterns
7067	6AD8  39F2A2DF             xori $18, $15, 41695
7068	6ADC  35F2A2DF             ori $18, $15, 41695
7069	6AE0  35F3A2DF             ori $19, $15, 41695
7070	6AE4  39F3A2DF             xori $19, $15, 41695
7071	6AE8  0C001D9C             jal store
7072	6AEC  0C001D91             jal increment_offset
7073	6AF0  0C001D86             jal load_patterns
7074	6AF4  39F202AD             xori $18, $15, 685
7075	6AF8  35F202AD             ori $18, $15, 685
7076	6AFC  35F302AD             ori $19, $15, 685
7077	6B00  39F302AD             xori $19, $15, 685
7078	6B04  0C001D9C             jal store
7079	6B08  0C001D91             jal increment_offset
7080	6B0C  0C001D86             jal load_patterns
7081	6B10  39F25D70             xori $18, $15, 23920
7082	6B14  35F25D70             ori $18, $15, 23920
7083	6B18  35F35D70             ori $19, $15, 23920
7084	6B1C  39F35D70             xori $19, $15, 23920
7085	6B20  0C001D9C             jal store
7086	6B24  0C001D91             jal increment_offset
7087	6B28  0C001D86             jal load_patterns
7088	6B2C  39F27410             xori $18, $15, 29712
7089	6B30  35F27410             ori $18, $15, 29712
7090	6B34  35F37410             ori $19, $15, 29712
7091	6B38  39F37410             xori $19, $15, 29712
7092	6B3C  0C001D9C             jal store
7093	6B40  0C001D91             jal increment_offset
7094	6B44  0C001D86             jal load_patterns
7095	6B48  39F2D17E             xori $18, $15, 53630
7096	6B4C  35F2D17E             ori $18, $15, 53630
7097	6B50  35F3D17E             ori $19, $15, 53630
7098	6B54  39F3D17E             xori $19, $15, 53630
7099	6B58  0C001D9C             jal store
7100	6B5C  0C001D91             jal increment_offset
7101	6B60  0C001D86             jal load_patterns
7102	6B64  39F2AB28             xori $18, $15, 43816
7103	6B68  35F2AB28             ori $18, $15, 43816
7104	6B6C  35F3AB28             ori $19, $15, 43816
7105	6B70  39F3AB28             xori $19, $15, 43816
7106	6B74  0C001D9C             jal store
7107	6B78  0C001D91             jal increment_offset
7108	6B7C  0C001D86             jal load_patterns
7109	6B80  39F2A1AF             xori $18, $15, 41391
7110	6B84  35F2A1AF             ori $18, $15, 41391
7111	6B88  35F3A1AF             ori $19, $15, 41391
7112	6B8C  39F3A1AF             xori $19, $15, 41391
7113	6B90  0C001D9C             jal store
7114	6B94  0C001D91             jal increment_offset
7115	6B98  0C001D86             jal load_patterns
7116	6B9C  39F21A1F             xori $18, $15, 6687
7117	6BA0  35F21A1F             ori $18, $15, 6687
7118	6BA4  35F31A1F             ori $19, $15, 6687
7119	6BA8  39F31A1F             xori $19, $15, 6687
7120	6BAC  0C001D9C             jal store
7121	6BB0  0C001D91             jal increment_offset
7122	6BB4  0C001D86             jal load_patterns
7123	6BB8  39F22369             xori $18, $15, 9065
7124	6BBC  35F22369             ori $18, $15, 9065
7125	6BC0  35F32369             ori $19, $15, 9065
7126	6BC4  39F32369             xori $19, $15, 9065
7127	6BC8  0C001D9C             jal store
7128	6BCC  0C001D91             jal increment_offset
7129	6BD0  0C001D86             jal load_patterns
7130	6BD4  39F2AFBE             xori $18, $15, 44990
7131	6BD8  35F2AFBE             ori $18, $15, 44990
7132	6BDC  35F3AFBE             ori $19, $15, 44990
7133	6BE0  39F3AFBE             xori $19, $15, 44990
7134	6BE4  0C001D9C             jal store
7135	6BE8  0C001D91             jal increment_offset
7136	6BEC  0C001D86             jal load_patterns
7137	6BF0  39F26877             xori $18, $15, 26743
7138	6BF4  35F26877             ori $18, $15, 26743
7139	6BF8  35F36877             ori $19, $15, 26743
7140	6BFC  39F36877             xori $19, $15, 26743
7141	6C00  0C001D9C             jal store
7142	6C04  0C001D91             jal increment_offset
7143	6C08  0C001D86             jal load_patterns
7144	6C0C  39F2FBA0             xori $18, $15, 64416
7145	6C10  35F2FBA0             ori $18, $15, 64416
7146	6C14  35F3FBA0             ori $19, $15, 64416
7147	6C18  39F3FBA0             xori $19, $15, 64416
7148	6C1C  0C001D9C             jal store
7149	6C20  0C001D91             jal increment_offset
7150	6C24  0C001D86             jal load_patterns
7151	6C28  39F2CFF9             xori $18, $15, 53241
7152	6C2C  35F2CFF9             ori $18, $15, 53241
7153	6C30  35F3CFF9             ori $19, $15, 53241
7154	6C34  39F3CFF9             xori $19, $15, 53241
7155	6C38  0C001D9C             jal store
7156	6C3C  0C001D91             jal increment_offset
7157	6C40  0C001D86             jal load_patterns
7158	6C44  39F2B14E             xori $18, $15, 45390
7159	6C48  35F2B14E             ori $18, $15, 45390
7160	6C4C  35F3B14E             ori $19, $15, 45390
7161	6C50  39F3B14E             xori $19, $15, 45390
7162	6C54  0C001D9C             jal store
7163	6C58  0C001D91             jal increment_offset
7164	6C5C  0C001D86             jal load_patterns
7165	6C60  39F28ACC             xori $18, $15, 35532
7166	6C64  35F28ACC             ori $18, $15, 35532
7167	6C68  35F38ACC             ori $19, $15, 35532
7168	6C6C  39F38ACC             xori $19, $15, 35532
7169	6C70  0C001D9C             jal store
7170	6C74  0C001D91             jal increment_offset
7171	6C78  0C001D86             jal load_patterns
7172	6C7C  39F20159             xori $18, $15, 345
7173	6C80  35F20159             ori $18, $15, 345
7174	6C84  35F30159             ori $19, $15, 345
7175	6C88  39F30159             xori $19, $15, 345
7176	6C8C  0C001D9C             jal store
7177	6C90  0C001D91             jal increment_offset
7178	6C94  0C001D86             jal load_patterns
7179	6C98  39F25882             xori $18, $15, 22658
7180	6C9C  35F25882             ori $18, $15, 22658
7181	6CA0  35F35882             ori $19, $15, 22658
7182	6CA4  39F35882             xori $19, $15, 22658
7183	6CA8  0C001D9C             jal store
7184	6CAC  0C001D91             jal increment_offset
7185	6CB0  0C001D86             jal load_patterns
7186	6CB4  39F21EC8             xori $18, $15, 7880
7187	6CB8  35F21EC8             ori $18, $15, 7880
7188	6CBC  35F31EC8             ori $19, $15, 7880
7189	6CC0  39F31EC8             xori $19, $15, 7880
7190	6CC4  0C001D9C             jal store
7191	6CC8  0C001D91             jal increment_offset
7192	6CCC  0C001D86             jal load_patterns
7193	6CD0  39F2D51C             xori $18, $15, 54556
7194	6CD4  35F2D51C             ori $18, $15, 54556
7195	6CD8  35F3D51C             ori $19, $15, 54556
7196	6CDC  39F3D51C             xori $19, $15, 54556
7197	6CE0  0C001D9C             jal store
7198	6CE4  0C001D91             jal increment_offset
7199	6CE8  0C001D86             jal load_patterns
7200	6CEC  39F2C4E8             xori $18, $15, 50408
7201	6CF0  35F2C4E8             ori $18, $15, 50408
7202	6CF4  35F3C4E8             ori $19, $15, 50408
7203	6CF8  39F3C4E8             xori $19, $15, 50408
7204	6CFC  0C001D9C             jal store
7205	6D00  0C001D91             jal increment_offset
7206	6D04  0C001D86             jal load_patterns
7207	6D08  39F25CB0             xori $18, $15, 23728
7208	6D0C  35F25CB0             ori $18, $15, 23728
7209	6D10  35F35CB0             ori $19, $15, 23728
7210	6D14  39F35CB0             xori $19, $15, 23728
7211	6D18  0C001D9C             jal store
7212	6D1C  0C001D91             jal increment_offset
7213	6D20  0C001D86             jal load_patterns
7214	6D24  39F206C5             xori $18, $15, 1733
7215	6D28  35F206C5             ori $18, $15, 1733
7216	6D2C  35F306C5             ori $19, $15, 1733
7217	6D30  39F306C5             xori $19, $15, 1733
7218	6D34  0C001D9C             jal store
7219	6D38  0C001D91             jal increment_offset
7220	6D3C  0C001D86             jal load_patterns
7221	6D40  39F287AA             xori $18, $15, 34730
7222	6D44  35F287AA             ori $18, $15, 34730
7223	6D48  35F387AA             ori $19, $15, 34730
7224	6D4C  39F387AA             xori $19, $15, 34730
7225	6D50  0C001D9C             jal store
7226	6D54  0C001D91             jal increment_offset
7227	6D58  0C001D86             jal load_patterns
7228	6D5C  39F2FAC3             xori $18, $15, 64195
7229	6D60  35F2FAC3             ori $18, $15, 64195
7230	6D64  35F3FAC3             ori $19, $15, 64195
7231	6D68  39F3FAC3             xori $19, $15, 64195
7232	6D6C  0C001D9C             jal store
7233	6D70  0C001D91             jal increment_offset
7234	6D74  0C001D86             jal load_patterns
7235	6D78  39F2DB2C             xori $18, $15, 56108
7236	6D7C  35F2DB2C             ori $18, $15, 56108
7237	6D80  35F3DB2C             ori $19, $15, 56108
7238	6D84  39F3DB2C             xori $19, $15, 56108
7239	6D88  0C001D9C             jal store
7240	6D8C  0C001D91             jal increment_offset
7241	6D90  0C001D86             jal load_patterns
7242	6D94  39F2FC93             xori $18, $15, 64659
7243	6D98  35F2FC93             ori $18, $15, 64659
7244	6D9C  35F3FC93             ori $19, $15, 64659
7245	6DA0  39F3FC93             xori $19, $15, 64659
7246	6DA4  0C001D9C             jal store
7247	6DA8  0C001D91             jal increment_offset
7248	                          
7249	6DAC  0C001D89            jal reset_offsets
7250	6DB0  0C001D9F            jal init_cp
7251	                          operation_xori_andi:
7252	6DB4  0C001D86             jal load_patterns
7253	6DB8  39F2C9F5             xori $18, $15, 51701
7254	6DBC  31F2C9F5             andi $18, $15, 51701
7255	6DC0  31F3C9F5             andi $19, $15, 51701
7256	6DC4  39F3C9F5             xori $19, $15, 51701
7257	6DC8  0C001D9C             jal store
7258	6DCC  0C001D91             jal increment_offset
7259	6DD0  0C001D86             jal load_patterns
7260	6DD4  39F23471             xori $18, $15, 13425
7261	6DD8  31F23471             andi $18, $15, 13425
7262	6DDC  31F33471             andi $19, $15, 13425
7263	6DE0  39F33471             xori $19, $15, 13425
7264	6DE4  0C001D9C             jal store
7265	6DE8  0C001D91             jal increment_offset
7266	6DEC  0C001D86             jal load_patterns
7267	6DF0  39F210BD             xori $18, $15, 4285
7268	6DF4  31F210BD             andi $18, $15, 4285
7269	6DF8  31F310BD             andi $19, $15, 4285
7270	6DFC  39F310BD             xori $19, $15, 4285
7271	6E00  0C001D9C             jal store
7272	6E04  0C001D91             jal increment_offset
7273	6E08  0C001D86             jal load_patterns
7274	6E0C  39F2B496             xori $18, $15, 46230
7275	6E10  31F2B496             andi $18, $15, 46230
7276	6E14  31F3B496             andi $19, $15, 46230
7277	6E18  39F3B496             xori $19, $15, 46230
7278	6E1C  0C001D9C             jal store
7279	6E20  0C001D91             jal increment_offset
7280	6E24  0C001D86             jal load_patterns
7281	6E28  39F25773             xori $18, $15, 22387
7282	6E2C  31F25773             andi $18, $15, 22387
7283	6E30  31F35773             andi $19, $15, 22387
7284	6E34  39F35773             xori $19, $15, 22387
7285	6E38  0C001D9C             jal store
7286	6E3C  0C001D91             jal increment_offset
7287	6E40  0C001D86             jal load_patterns
7288	6E44  39F2496F             xori $18, $15, 18799
7289	6E48  31F2496F             andi $18, $15, 18799
7290	6E4C  31F3496F             andi $19, $15, 18799
7291	6E50  39F3496F             xori $19, $15, 18799
7292	6E54  0C001D9C             jal store
7293	6E58  0C001D91             jal increment_offset
7294	6E5C  0C001D86             jal load_patterns
7295	6E60  39F2C2E1             xori $18, $15, 49889
7296	6E64  31F2C2E1             andi $18, $15, 49889
7297	6E68  31F3C2E1             andi $19, $15, 49889
7298	6E6C  39F3C2E1             xori $19, $15, 49889
7299	6E70  0C001D9C             jal store
7300	6E74  0C001D91             jal increment_offset
7301	6E78  0C001D86             jal load_patterns
7302	6E7C  39F28CB7             xori $18, $15, 36023
7303	6E80  31F28CB7             andi $18, $15, 36023
7304	6E84  31F38CB7             andi $19, $15, 36023
7305	6E88  39F38CB7             xori $19, $15, 36023
7306	6E8C  0C001D9C             jal store
7307	6E90  0C001D91             jal increment_offset
7308	6E94  0C001D86             jal load_patterns
7309	6E98  39F2356A             xori $18, $15, 13674
7310	6E9C  31F2356A             andi $18, $15, 13674
7311	6EA0  31F3356A             andi $19, $15, 13674
7312	6EA4  39F3356A             xori $19, $15, 13674
7313	6EA8  0C001D9C             jal store
7314	6EAC  0C001D91             jal increment_offset
7315	6EB0  0C001D86             jal load_patterns
7316	6EB4  39F2EEC1             xori $18, $15, 61121
7317	6EB8  31F2EEC1             andi $18, $15, 61121
7318	6EBC  31F3EEC1             andi $19, $15, 61121
7319	6EC0  39F3EEC1             xori $19, $15, 61121
7320	6EC4  0C001D9C             jal store
7321	6EC8  0C001D91             jal increment_offset
7322	6ECC  0C001D86             jal load_patterns
7323	6ED0  39F224B1             xori $18, $15, 9393
7324	6ED4  31F224B1             andi $18, $15, 9393
7325	6ED8  31F324B1             andi $19, $15, 9393
7326	6EDC  39F324B1             xori $19, $15, 9393
7327	6EE0  0C001D9C             jal store
7328	6EE4  0C001D91             jal increment_offset
7329	6EE8  0C001D86             jal load_patterns
7330	6EEC  39F22838             xori $18, $15, 10296
7331	6EF0  31F22838             andi $18, $15, 10296
7332	6EF4  31F32838             andi $19, $15, 10296
7333	6EF8  39F32838             xori $19, $15, 10296
7334	6EFC  0C001D9C             jal store
7335	6F00  0C001D91             jal increment_offset
7336	6F04  0C001D86             jal load_patterns
7337	6F08  39F25531             xori $18, $15, 21809
7338	6F0C  31F25531             andi $18, $15, 21809
7339	6F10  31F35531             andi $19, $15, 21809
7340	6F14  39F35531             xori $19, $15, 21809
7341	6F18  0C001D9C             jal store
7342	6F1C  0C001D91             jal increment_offset
7343	6F20  0C001D86             jal load_patterns
7344	6F24  39F220C3             xori $18, $15, 8387
7345	6F28  31F220C3             andi $18, $15, 8387
7346	6F2C  31F320C3             andi $19, $15, 8387
7347	6F30  39F320C3             xori $19, $15, 8387
7348	6F34  0C001D9C             jal store
7349	6F38  0C001D91             jal increment_offset
7350	6F3C  0C001D86             jal load_patterns
7351	6F40  39F27CDD             xori $18, $15, 31965
7352	6F44  31F27CDD             andi $18, $15, 31965
7353	6F48  31F37CDD             andi $19, $15, 31965
7354	6F4C  39F37CDD             xori $19, $15, 31965
7355	6F50  0C001D9C             jal store
7356	6F54  0C001D91             jal increment_offset
7357	6F58  0C001D86             jal load_patterns
7358	6F5C  39F2766A             xori $18, $15, 30314
7359	6F60  31F2766A             andi $18, $15, 30314
7360	6F64  31F3766A             andi $19, $15, 30314
7361	6F68  39F3766A             xori $19, $15, 30314
7362	6F6C  0C001D9C             jal store
7363	6F70  0C001D91             jal increment_offset
7364	6F74  0C001D86             jal load_patterns
7365	6F78  39F2E5EC             xori $18, $15, 58860
7366	6F7C  31F2E5EC             andi $18, $15, 58860
7367	6F80  31F3E5EC             andi $19, $15, 58860
7368	6F84  39F3E5EC             xori $19, $15, 58860
7369	6F88  0C001D9C             jal store
7370	6F8C  0C001D91             jal increment_offset
7371	6F90  0C001D86             jal load_patterns
7372	6F94  39F2FD41             xori $18, $15, 64833
7373	6F98  31F2FD41             andi $18, $15, 64833
7374	6F9C  31F3FD41             andi $19, $15, 64833
7375	6FA0  39F3FD41             xori $19, $15, 64833
7376	6FA4  0C001D9C             jal store
7377	6FA8  0C001D91             jal increment_offset
7378	6FAC  0C001D86             jal load_patterns
7379	6FB0  39F20238             xori $18, $15, 568
7380	6FB4  31F20238             andi $18, $15, 568
7381	6FB8  31F30238             andi $19, $15, 568
7382	6FBC  39F30238             xori $19, $15, 568
7383	6FC0  0C001D9C             jal store
7384	6FC4  0C001D91             jal increment_offset
7385	6FC8  0C001D86             jal load_patterns
7386	6FCC  39F2C8FE             xori $18, $15, 51454
7387	6FD0  31F2C8FE             andi $18, $15, 51454
7388	6FD4  31F3C8FE             andi $19, $15, 51454
7389	6FD8  39F3C8FE             xori $19, $15, 51454
7390	6FDC  0C001D9C             jal store
7391	6FE0  0C001D91             jal increment_offset
7392	6FE4  0C001D86             jal load_patterns
7393	6FE8  39F27FCF             xori $18, $15, 32719
7394	6FEC  31F27FCF             andi $18, $15, 32719
7395	6FF0  31F37FCF             andi $19, $15, 32719
7396	6FF4  39F37FCF             xori $19, $15, 32719
7397	6FF8  0C001D9C             jal store
7398	6FFC  0C001D91             jal increment_offset
7399	7000  0C001D86             jal load_patterns
7400	7004  39F24CC2             xori $18, $15, 19650
7401	7008  31F24CC2             andi $18, $15, 19650
7402	700C  31F34CC2             andi $19, $15, 19650
7403	7010  39F34CC2             xori $19, $15, 19650
7404	7014  0C001D9C             jal store
7405	7018  0C001D91             jal increment_offset
7406	701C  0C001D86             jal load_patterns
7407	7020  39F2A8D0             xori $18, $15, 43216
7408	7024  31F2A8D0             andi $18, $15, 43216
7409	7028  31F3A8D0             andi $19, $15, 43216
7410	702C  39F3A8D0             xori $19, $15, 43216
7411	7030  0C001D9C             jal store
7412	7034  0C001D91             jal increment_offset
7413	7038  0C001D86             jal load_patterns
7414	703C  39F28748             xori $18, $15, 34632
7415	7040  31F28748             andi $18, $15, 34632
7416	7044  31F38748             andi $19, $15, 34632
7417	7048  39F38748             xori $19, $15, 34632
7418	704C  0C001D9C             jal store
7419	7050  0C001D91             jal increment_offset
7420	7054  0C001D86             jal load_patterns
7421	7058  39F2999C             xori $18, $15, 39324
7422	705C  31F2999C             andi $18, $15, 39324
7423	7060  31F3999C             andi $19, $15, 39324
7424	7064  39F3999C             xori $19, $15, 39324
7425	7068  0C001D9C             jal store
7426	706C  0C001D91             jal increment_offset
7427	7070  0C001D86             jal load_patterns
7428	7074  39F2D796             xori $18, $15, 55190
7429	7078  31F2D796             andi $18, $15, 55190
7430	707C  31F3D796             andi $19, $15, 55190
7431	7080  39F3D796             xori $19, $15, 55190
7432	7084  0C001D9C             jal store
7433	7088  0C001D91             jal increment_offset
7434	708C  0C001D86             jal load_patterns
7435	7090  39F2CC26             xori $18, $15, 52262
7436	7094  31F2CC26             andi $18, $15, 52262
7437	7098  31F3CC26             andi $19, $15, 52262
7438	709C  39F3CC26             xori $19, $15, 52262
7439	70A0  0C001D9C             jal store
7440	70A4  0C001D91             jal increment_offset
7441	70A8  0C001D86             jal load_patterns
7442	70AC  39F24B2C             xori $18, $15, 19244
7443	70B0  31F24B2C             andi $18, $15, 19244
7444	70B4  31F34B2C             andi $19, $15, 19244
7445	70B8  39F34B2C             xori $19, $15, 19244
7446	70BC  0C001D9C             jal store
7447	70C0  0C001D91             jal increment_offset
7448	70C4  0C001D86             jal load_patterns
7449	70C8  39F2B336             xori $18, $15, 45878
7450	70CC  31F2B336             andi $18, $15, 45878
7451	70D0  31F3B336             andi $19, $15, 45878
7452	70D4  39F3B336             xori $19, $15, 45878
7453	70D8  0C001D9C             jal store
7454	70DC  0C001D91             jal increment_offset
7455	70E0  0C001D86             jal load_patterns
7456	70E4  39F22A22             xori $18, $15, 10786
7457	70E8  31F22A22             andi $18, $15, 10786
7458	70EC  31F32A22             andi $19, $15, 10786
7459	70F0  39F32A22             xori $19, $15, 10786
7460	70F4  0C001D9C             jal store
7461	70F8  0C001D91             jal increment_offset
7462	70FC  0C001D86             jal load_patterns
7463	7100  39F257D7             xori $18, $15, 22487
7464	7104  31F257D7             andi $18, $15, 22487
7465	7108  31F357D7             andi $19, $15, 22487
7466	710C  39F357D7             xori $19, $15, 22487
7467	7110  0C001D9C             jal store
7468	7114  0C001D91             jal increment_offset
7469	7118  0C001D86             jal load_patterns
7470	711C  39F29FFE             xori $18, $15, 40958
7471	7120  31F29FFE             andi $18, $15, 40958
7472	7124  31F39FFE             andi $19, $15, 40958
7473	7128  39F39FFE             xori $19, $15, 40958
7474	712C  0C001D9C             jal store
7475	7130  0C001D91             jal increment_offset
7476	7134  0C001D86             jal load_patterns
7477	7138  39F238A4             xori $18, $15, 14500
7478	713C  31F238A4             andi $18, $15, 14500
7479	7140  31F338A4             andi $19, $15, 14500
7480	7144  39F338A4             xori $19, $15, 14500
7481	7148  0C001D9C             jal store
7482	714C  0C001D91             jal increment_offset
7483	7150  0C001D86             jal load_patterns
7484	7154  39F269E2             xori $18, $15, 27106
7485	7158  31F269E2             andi $18, $15, 27106
7486	715C  31F369E2             andi $19, $15, 27106
7487	7160  39F369E2             xori $19, $15, 27106
7488	7164  0C001D9C             jal store
7489	7168  0C001D91             jal increment_offset
7490	716C  0C001D86             jal load_patterns
7491	7170  39F2481D             xori $18, $15, 18461
7492	7174  31F2481D             andi $18, $15, 18461
7493	7178  31F3481D             andi $19, $15, 18461
7494	717C  39F3481D             xori $19, $15, 18461
7495	7180  0C001D9C             jal store
7496	7184  0C001D91             jal increment_offset
7497	7188  0C001D86             jal load_patterns
7498	718C  39F24987             xori $18, $15, 18823
7499	7190  31F24987             andi $18, $15, 18823
7500	7194  31F34987             andi $19, $15, 18823
7501	7198  39F34987             xori $19, $15, 18823
7502	719C  0C001D9C             jal store
7503	71A0  0C001D91             jal increment_offset
7504	71A4  0C001D86             jal load_patterns
7505	71A8  39F27A49             xori $18, $15, 31305
7506	71AC  31F27A49             andi $18, $15, 31305
7507	71B0  31F37A49             andi $19, $15, 31305
7508	71B4  39F37A49             xori $19, $15, 31305
7509	71B8  0C001D9C             jal store
7510	71BC  0C001D91             jal increment_offset
7511	71C0  0C001D86             jal load_patterns
7512	71C4  39F2AF83             xori $18, $15, 44931
7513	71C8  31F2AF83             andi $18, $15, 44931
7514	71CC  31F3AF83             andi $19, $15, 44931
7515	71D0  39F3AF83             xori $19, $15, 44931
7516	71D4  0C001D9C             jal store
7517	71D8  0C001D91             jal increment_offset
7518	71DC  0C001D86             jal load_patterns
7519	71E0  39F2A2DF             xori $18, $15, 41695
7520	71E4  31F2A2DF             andi $18, $15, 41695
7521	71E8  31F3A2DF             andi $19, $15, 41695
7522	71EC  39F3A2DF             xori $19, $15, 41695
7523	71F0  0C001D9C             jal store
7524	71F4  0C001D91             jal increment_offset
7525	71F8  0C001D86             jal load_patterns
7526	71FC  39F202AD             xori $18, $15, 685
7527	7200  31F202AD             andi $18, $15, 685
7528	7204  31F302AD             andi $19, $15, 685
7529	7208  39F302AD             xori $19, $15, 685
7530	720C  0C001D9C             jal store
7531	7210  0C001D91             jal increment_offset
7532	7214  0C001D86             jal load_patterns
7533	7218  39F25D70             xori $18, $15, 23920
7534	721C  31F25D70             andi $18, $15, 23920
7535	7220  31F35D70             andi $19, $15, 23920
7536	7224  39F35D70             xori $19, $15, 23920
7537	7228  0C001D9C             jal store
7538	722C  0C001D91             jal increment_offset
7539	7230  0C001D86             jal load_patterns
7540	7234  39F27410             xori $18, $15, 29712
7541	7238  31F27410             andi $18, $15, 29712
7542	723C  31F37410             andi $19, $15, 29712
7543	7240  39F37410             xori $19, $15, 29712
7544	7244  0C001D9C             jal store
7545	7248  0C001D91             jal increment_offset
7546	724C  0C001D86             jal load_patterns
7547	7250  39F2D17E             xori $18, $15, 53630
7548	7254  31F2D17E             andi $18, $15, 53630
7549	7258  31F3D17E             andi $19, $15, 53630
7550	725C  39F3D17E             xori $19, $15, 53630
7551	7260  0C001D9C             jal store
7552	7264  0C001D91             jal increment_offset
7553	7268  0C001D86             jal load_patterns
7554	726C  39F2AB28             xori $18, $15, 43816
7555	7270  31F2AB28             andi $18, $15, 43816
7556	7274  31F3AB28             andi $19, $15, 43816
7557	7278  39F3AB28             xori $19, $15, 43816
7558	727C  0C001D9C             jal store
7559	7280  0C001D91             jal increment_offset
7560	7284  0C001D86             jal load_patterns
7561	7288  39F2A1AF             xori $18, $15, 41391
7562	728C  31F2A1AF             andi $18, $15, 41391
7563	7290  31F3A1AF             andi $19, $15, 41391
7564	7294  39F3A1AF             xori $19, $15, 41391
7565	7298  0C001D9C             jal store
7566	729C  0C001D91             jal increment_offset
7567	72A0  0C001D86             jal load_patterns
7568	72A4  39F21A1F             xori $18, $15, 6687
7569	72A8  31F21A1F             andi $18, $15, 6687
7570	72AC  31F31A1F             andi $19, $15, 6687
7571	72B0  39F31A1F             xori $19, $15, 6687
7572	72B4  0C001D9C             jal store
7573	72B8  0C001D91             jal increment_offset
7574	72BC  0C001D86             jal load_patterns
7575	72C0  39F22369             xori $18, $15, 9065
7576	72C4  31F22369             andi $18, $15, 9065
7577	72C8  31F32369             andi $19, $15, 9065
7578	72CC  39F32369             xori $19, $15, 9065
7579	72D0  0C001D9C             jal store
7580	72D4  0C001D91             jal increment_offset
7581	72D8  0C001D86             jal load_patterns
7582	72DC  39F2AFBE             xori $18, $15, 44990
7583	72E0  31F2AFBE             andi $18, $15, 44990
7584	72E4  31F3AFBE             andi $19, $15, 44990
7585	72E8  39F3AFBE             xori $19, $15, 44990
7586	72EC  0C001D9C             jal store
7587	72F0  0C001D91             jal increment_offset
7588	72F4  0C001D86             jal load_patterns
7589	72F8  39F26877             xori $18, $15, 26743
7590	72FC  31F26877             andi $18, $15, 26743
7591	7300  31F36877             andi $19, $15, 26743
7592	7304  39F36877             xori $19, $15, 26743
7593	7308  0C001D9C             jal store
7594	730C  0C001D91             jal increment_offset
7595	7310  0C001D86             jal load_patterns
7596	7314  39F2FBA0             xori $18, $15, 64416
7597	7318  31F2FBA0             andi $18, $15, 64416
7598	731C  31F3FBA0             andi $19, $15, 64416
7599	7320  39F3FBA0             xori $19, $15, 64416
7600	7324  0C001D9C             jal store
7601	7328  0C001D91             jal increment_offset
7602	732C  0C001D86             jal load_patterns
7603	7330  39F2CFF9             xori $18, $15, 53241
7604	7334  31F2CFF9             andi $18, $15, 53241
7605	7338  31F3CFF9             andi $19, $15, 53241
7606	733C  39F3CFF9             xori $19, $15, 53241
7607	7340  0C001D9C             jal store
7608	7344  0C001D91             jal increment_offset
7609	7348  0C001D86             jal load_patterns
7610	734C  39F2B14E             xori $18, $15, 45390
7611	7350  31F2B14E             andi $18, $15, 45390
7612	7354  31F3B14E             andi $19, $15, 45390
7613	7358  39F3B14E             xori $19, $15, 45390
7614	735C  0C001D9C             jal store
7615	7360  0C001D91             jal increment_offset
7616	7364  0C001D86             jal load_patterns
7617	7368  39F28ACC             xori $18, $15, 35532
7618	736C  31F28ACC             andi $18, $15, 35532
7619	7370  31F38ACC             andi $19, $15, 35532
7620	7374  39F38ACC             xori $19, $15, 35532
7621	7378  0C001D9C             jal store
7622	737C  0C001D91             jal increment_offset
7623	7380  0C001D86             jal load_patterns
7624	7384  39F20159             xori $18, $15, 345
7625	7388  31F20159             andi $18, $15, 345
7626	738C  31F30159             andi $19, $15, 345
7627	7390  39F30159             xori $19, $15, 345
7628	7394  0C001D9C             jal store
7629	7398  0C001D91             jal increment_offset
7630	739C  0C001D86             jal load_patterns
7631	73A0  39F25882             xori $18, $15, 22658
7632	73A4  31F25882             andi $18, $15, 22658
7633	73A8  31F35882             andi $19, $15, 22658
7634	73AC  39F35882             xori $19, $15, 22658
7635	73B0  0C001D9C             jal store
7636	73B4  0C001D91             jal increment_offset
7637	73B8  0C001D86             jal load_patterns
7638	73BC  39F21EC8             xori $18, $15, 7880
7639	73C0  31F21EC8             andi $18, $15, 7880
7640	73C4  31F31EC8             andi $19, $15, 7880
7641	73C8  39F31EC8             xori $19, $15, 7880
7642	73CC  0C001D9C             jal store
7643	73D0  0C001D91             jal increment_offset
7644	73D4  0C001D86             jal load_patterns
7645	73D8  39F2D51C             xori $18, $15, 54556
7646	73DC  31F2D51C             andi $18, $15, 54556
7647	73E0  31F3D51C             andi $19, $15, 54556
7648	73E4  39F3D51C             xori $19, $15, 54556
7649	73E8  0C001D9C             jal store
7650	73EC  0C001D91             jal increment_offset
7651	73F0  0C001D86             jal load_patterns
7652	73F4  39F2C4E8             xori $18, $15, 50408
7653	73F8  31F2C4E8             andi $18, $15, 50408
7654	73FC  31F3C4E8             andi $19, $15, 50408
7655	7400  39F3C4E8             xori $19, $15, 50408
7656	7404  0C001D9C             jal store
7657	7408  0C001D91             jal increment_offset
7658	740C  0C001D86             jal load_patterns
7659	7410  39F25CB0             xori $18, $15, 23728
7660	7414  31F25CB0             andi $18, $15, 23728
7661	7418  31F35CB0             andi $19, $15, 23728
7662	741C  39F35CB0             xori $19, $15, 23728
7663	7420  0C001D9C             jal store
7664	7424  0C001D91             jal increment_offset
7665	7428  0C001D86             jal load_patterns
7666	742C  39F206C5             xori $18, $15, 1733
7667	7430  31F206C5             andi $18, $15, 1733
7668	7434  31F306C5             andi $19, $15, 1733
7669	7438  39F306C5             xori $19, $15, 1733
7670	743C  0C001D9C             jal store
7671	7440  0C001D91             jal increment_offset
7672	7444  0C001D86             jal load_patterns
7673	7448  39F287AA             xori $18, $15, 34730
7674	744C  31F287AA             andi $18, $15, 34730
7675	7450  31F387AA             andi $19, $15, 34730
7676	7454  39F387AA             xori $19, $15, 34730
7677	7458  0C001D9C             jal store
7678	745C  0C001D91             jal increment_offset
7679	7460  0C001D86             jal load_patterns
7680	7464  39F2FAC3             xori $18, $15, 64195
7681	7468  31F2FAC3             andi $18, $15, 64195
7682	746C  31F3FAC3             andi $19, $15, 64195
7683	7470  39F3FAC3             xori $19, $15, 64195
7684	7474  0C001D9C             jal store
7685	7478  0C001D91             jal increment_offset
7686	747C  0C001D86             jal load_patterns
7687	7480  39F2DB2C             xori $18, $15, 56108
7688	7484  31F2DB2C             andi $18, $15, 56108
7689	7488  31F3DB2C             andi $19, $15, 56108
7690	748C  39F3DB2C             xori $19, $15, 56108
7691	7490  0C001D9C             jal store
7692	7494  0C001D91             jal increment_offset
7693	7498  0C001D86             jal load_patterns
7694	749C  39F2FC93             xori $18, $15, 64659
7695	74A0  31F2FC93             andi $18, $15, 64659
7696	74A4  31F3FC93             andi $19, $15, 64659
7697	74A8  39F3FC93             xori $19, $15, 64659
7698	74AC  0C001D9C             jal store
7699	74B0  0C001D91             jal increment_offset
7700	                          
7701	74B4  0C001D89            jal reset_offsets
7702	                          operation_mtc0:
7703	74B8  0C001D86             jal load_patterns
7704	74BC  408F6000             mtc0 $15, $12
7705	74C0  40906800             mtc0 $16, $13
7706	74C4  E3AC0000             swc0 $12, 0($29)
7707	74C8  E3AD0004             swc0 $13, 4($29)
7708	74CC  0C001D91             jal increment_offset
7709	74D0  177CFFFA             bne $27, $28, operation_mtc0
7710	                          
7711	74D4  0C001D89            jal reset_offsets
7712	                          operation_mfc0:
7713	74D8  0C001D86             jal load_patterns
7714	74DC  408F6000             mtc0 $15, $12
7715	74E0  400C9000             mfc0 $18, $12
7716	74E4  AFB20000             sw $18, 0($29)
7717	74E8  40906800             mtc0 $16, $13
7718	74EC  400D9000             mfc0 $18, $13
7719	74F0  AFB20004             sw $18, 4($29)
7720	74F4  0C001D91             jal increment_offset
7721	74F8  177CFFF8             bne $27, $28, operation_mfc0
7722	                          
7723	74FC  0C001D89            jal reset_offsets
7724	                          operation_lw_sw:
7725	7500  8FD20000             lw $18, 0($30)
7726	7504  AFB20000             sw $18, 0($29)
7727	7508  0C001D91             jal increment_offset
7728	750C  177CFFFD             bne $27, $28, operation_lw_sw
7729	                          
7730	7510  0C001D89            jal reset_offsets
7731	                          operation_lw0_sw0:
7732	7514  C3CE0000             lwc0 $14, 0($30)
7733	7518  C3CF0004             lwc0 $15, 4($30)
7734	751C  E3AE0000             swc0 $14, 0($29)
7735	7520  E3AF0004             swc0 $15, 4($29)
7736	7524  0C001D91             jal increment_offset
7737	7528  177CFFFB             bne $27, $28, operation_lw0_sw0
7738	                          
7739	752C  0C001D89            jal reset_offsets
7740	                          operation_beq:
7741	7530  0C0025E7             jal load_branch
7742	7534  0C001DA4             jal branch_beq
7743	7538  0C001D91             jal increment_offset
7744	753C  177AFFFD             bne $27, $26, operation_beq
7745	                          
7746	7540  0C001D89            jal reset_offsets
7747	                          operation_bne:
7748	7544  0C0025E7             jal load_branch
7749	7548  0C001DA9             jal branch_bne
7750	754C  0C001D91             jal increment_offset
7751	7550  177AFFFD             bne $27, $26, operation_bne
7752	                          
7753	7554  0C001D89            jal reset_offsets
7754	                          operation_bgez:
7755	7558  0C0025E7             jal load_branch
7756	755C  0C001DAE             jal branch_bgez
7757	7560  0C001D91             jal increment_offset
7758	7564  177AFFFD             bne $27, $26, operation_bgez
7759	                          
7760	7568  0C001D89            jal reset_offsets
7761	                          operation_bgezal:
7762	756C  0C0025E7             jal load_branch
7763	7570  0C001DB3             jal branch_bgezal
7764	7574  0C001D91             jal increment_offset
7765	7578  177AFFFD             bne $27, $26, operation_bgezal
7766	                          
7767	757C  0C001D89            jal reset_offsets
7768	                          operation_bgtz:
7769	7580  0C0025E7             jal load_branch
7770	7584  0C001DB8             jal branch_bgtz
7771	7588  0C001D91             jal increment_offset
7772	758C  177AFFFD             bne $27, $26, operation_bgtz
7773	                          
7774	7590  0C001D89            jal reset_offsets
7775	                          operation_blez:
7776	7594  0C0025E7             jal load_branch
7777	7598  0C001DBD             jal branch_blez
7778	759C  0C001D91             jal increment_offset
7779	75A0  177AFFFD             bne $27, $26, operation_blez
7780	                          
7781	75A4  0C001D89            jal reset_offsets
7782	                          operation_bltz:
7783	75A8  0C0025E7             jal load_branch
7784	75AC  0C001DC2             jal branch_bltz
7785	75B0  0C001D91             jal increment_offset
7786	75B4  177AFFFD             bne $27, $26, operation_bltz
7787	                          
7788	75B8  0C001D89            jal reset_offsets
7789	                          operation_bltzal:
7790	75BC  0C0025E7             jal load_branch
7791	75C0  0C001DC7             jal branch_bltzal
7792	75C4  0C001D91             jal increment_offset
7793	75C8  177AFFFD             bne $27, $26, operation_bltzal
7794	                          
7795	                          ;..........system call..........;
7796	75CC  0C001D9F             jal init_cp
7797	75D0  08001D75             j syscalls
7798	                          
7799	                          syscalls:
7800	75D4  0000000C             syscall
7801	                          
7802	                          ;..........break..........;
7803	75D8  0C001D9F             jal init_cp
7804	75DC  08001D78             j breaks
7805	                          
7806	                          breaks:
7807	75E0  0000000D             break
7808	                          ;..........hilo test..........;
7809	75E4  0C001D89            jal reset_offsets
7810	75E8  0C001D8E            jal reset_hi_lo
7811	                          hilo_register_operation:
7812	75EC  0C001DCC             jal init_upward_1
7813	75F0  0C001E46             jal hi_upward_0
7814	75F4  0C001EDD             jal hi_downward_1
7815	75F8  0C001FCE             jal lo_upward_0
7816	75FC  0C002065             jal lo_downward_1
7817	7600  0C001E09             jal init_upward_0
7818	7604  0C002156             jal hi_upward_1
7819	7608  0C0021ED             jal hi_downward_0
7820	760C  0C0022DE             jal lo_upward_1
7821	7610  0C002375             jal lo_downward_0
7822	                          
7823	7614  08002831            j end
7824	                          
7825	                          load_patterns:
7826	7618  8FCF0000             lw $15, 0($30)
7827	761C  8FD00004             lw $16, 4($30)
7828	7620  03E00008             jr $31
7829	                          
7830	                          reset_offsets:
7831	7624  3C1E0001             lui $30, 1
7832	7628  37DE0008             ori $30, $30, 8
7833	762C  037BD826             xor $27, $27, $27
7834	7630  02529026             xor $18, $18, $18
7835	7634  03E00008             jr $31
7836	                          
7837	                          reset_hi_lo:
7838	7638  00000011             mthi $0
7839	763C  00000013             mtlo $0
7840	7640  03E00008             jr $31
7841	                          
7842	                          increment_offset:
7843	7644  23DE0008             addi $30, $30, 8
7844	7648  237B0002             addi $27, $27, 2
7845	764C  23BD0004             addi $29, $29, 4
7846	7650  03E00008             jr $31
7847	                          
7848	                          increment_immediate:
7849	7654  23DE0008             addi $30, $30, 8
7850	7658  23BD0004             addi $29, $29, 4
7851	765C  03E00008             jr $31
7852	                          
7853	                          increment:
7854	7660  23BD0004             addi $29, $29, 4
7855	7664  03E00008             jr $31
7856	                          
7857	                          store_branch:
7858	7668  AFAF0000             sw $15, 0($29)
7859	766C  03E00008             jr $31
7860	                          
7861	                          store:
7862	7670  AFB20000             sw $18, 0($29)
7863	7674  AFB30004             sw $19, 4($29)
7864	7678  03E00008             jr $31
7865	                          
7866	                          init_cp:
7867	767C  40806000             mtc0 $0, $12
7868	7680  40806800             mtc0 $0, $13
7869	7684  40807000             mtc0 $0, $14
7870	7688  40807800             mtc0 $0, $15
7871	768C  03E00008             jr $31
7872	                          
7873	                          ;..........Branch templates..........;
7874	                          branch_beq:
7875	7690  23F90000             addi $25, $31, 0
7876	7694  11F0FFF5             beq $15, $16, store_branch
7877	7698  00000000             sll $0, $0, 0
7878	769C  AFB00000             sw $16, 0($29)
7879	76A0  03200008             jr $25
7880	                          
7881	                          branch_bne:
7882	76A4  23F90000             addi $25, $31, 0
7883	76A8  15F0FFF0             bne $15, $16, store_branch
7884	76AC  00000000             sll $0, $0, 0
7885	76B0  AFB00000             sw $16, 0($29)
7886	76B4  03200008             jr $25
7887	                          
7888	                          branch_bgez:
7889	76B8  23F90000             addi $25, $31, 0
7890	76BC  05E1FFEB             bgez $15, store_branch
7891	76C0  00000000             sll $0, $0, 0
7892	76C4  AFB00000             sw $16, 0($29)
7893	76C8  03200008             jr $25
7894	                          
7895	                          branch_bgezal:
7896	76CC  23F90000             addi $25, $31, 0
7897	76D0  05F1FFE6             bgezal $15, store_branch
7898	76D4  00000000             sll $0, $0, 0
7899	76D8  AFB00000             sw $16, 0($29)
7900	76DC  03200008             jr $25
7901	                          
7902	                          branch_bgtz:
7903	76E0  23F90000             addi $25, $31, 0
7904	76E4  1DE0FFE1             bgtz $15, store_branch
7905	76E8  00000000             sll $0, $0, 0
7906	76EC  AFB00000             sw $16, 0($29)
7907	76F0  03200008             jr $25
7908	                          
7909	                          branch_blez:
7910	76F4  23F90000             addi $25, $31, 0
7911	76F8  19E0FFDC             blez $15, store_branch
7912	76FC  00000000             sll $0, $0, 0
7913	7700  AFB00000             sw $16, 0($29)
7914	7704  03200008             jr $25
7915	                          
7916	                          branch_bltz:
7917	7708  23F90000             addi $25, $31, 0
7918	770C  05E0FFD7             bltz $15, store_branch
7919	7710  00000000             sll $0, $0, 0
7920	7714  AFB00000             sw $16, 0($29)
7921	7718  03200008             jr $25
7922	                          
7923	                          branch_bltzal:
7924	771C  23F90000             addi $25, $31, 0
7925	7720  05F0FFD2             bltzal $15, store_branch
7926	7724  00000000             sll $0, $0, 0
7927	7728  AFB00000             sw $16, 0($29)
7928	772C  03200008             jr $25
7929	                          
7930	                          ;..........register_initialization..........;
7931	                          init_upward_1:
7932	7730  3C00FFFF             lui $0, 65535
7933	7734  3400FFFF             ori $0, $0, 65535
7934	7738  3C01FFFF             lui $1, 65535
7935	773C  3421FFFF             ori $1, $1, 65535
7936	7740  3C02FFFF             lui $2, 65535
7937	7744  3442FFFF             ori $2, $2, 65535
7938	7748  3C03FFFF             lui $3, 65535
7939	774C  3463FFFF             ori $3, $3, 65535
7940	7750  3C04FFFF             lui $4, 65535
7941	7754  3484FFFF             ori $4, $4, 65535
7942	7758  3C05FFFF             lui $5, 65535
7943	775C  34A5FFFF             ori $5, $5, 65535
7944	7760  3C06FFFF             lui $6, 65535
7945	7764  34C6FFFF             ori $6, $6, 65535
7946	7768  3C07FFFF             lui $7, 65535
7947	776C  34E7FFFF             ori $7, $7, 65535
7948	7770  3C08FFFF             lui $8, 65535
7949	7774  3508FFFF             ori $8, $8, 65535
7950	7778  3C09FFFF             lui $9, 65535
7951	777C  3529FFFF             ori $9, $9, 65535
7952	7780  3C0AFFFF             lui $10, 65535
7953	7784  354AFFFF             ori $10, $10, 65535
7954	7788  3C0BFFFF             lui $11, 65535
7955	778C  356BFFFF             ori $11, $11, 65535
7956	7790  3C0CFFFF             lui $12, 65535
7957	7794  358CFFFF             ori $12, $12, 65535
7958	7798  3C0DFFFF             lui $13, 65535
7959	779C  35ADFFFF             ori $13, $13, 65535
7960	77A0  3C0EFFFF             lui $14, 65535
7961	77A4  35CEFFFF             ori $14, $14, 65535
7962	77A8  3C0FFFFF             lui $15, 65535
7963	77AC  35EFFFFF             ori $15, $15, 65535
7964	77B0  3C10FFFF             lui $16, 65535
7965	77B4  3610FFFF             ori $16, $16, 65535
7966	77B8  3C11FFFF             lui $17, 65535
7967	77BC  3631FFFF             ori $17, $17, 65535
7968	77C0  3C12FFFF             lui $18, 65535
7969	77C4  3652FFFF             ori $18, $18, 65535
7970	77C8  3C13FFFF             lui $19, 65535
7971	77CC  3673FFFF             ori $19, $19, 65535
7972	77D0  3C14FFFF             lui $20, 65535
7973	77D4  3694FFFF             ori $20, $20, 65535
7974	77D8  3C15FFFF             lui $21, 65535
7975	77DC  36B5FFFF             ori $21, $21, 65535
7976	77E0  3C16FFFF             lui $22, 65535
7977	77E4  36D6FFFF             ori $22, $22, 65535
7978	77E8  3C17FFFF             lui $23, 65535
7979	77EC  36F7FFFF             ori $23, $23, 65535
7980	77F0  3C18FFFF             lui $24, 65535
7981	77F4  3718FFFF             ori $24, $24, 65535
7982	77F8  3C19FFFF             lui $25, 65535
7983	77FC  3739FFFF             ori $25, $25, 65535
7984	7800  3C1AFFFF             lui $26, 65535
7985	7804  375AFFFF             ori $26, $26, 65535
7986	7808  3C1BFFFF             lui $27, 65535
7987	780C  377BFFFF             ori $27, $27, 65535
7988	7810  3C1CFFFF             lui $28, 65535
7989	7814  379CFFFF             ori $28, $28, 65535
7990	7818  3C1EFFFF             lui $30, 65535
7991	781C  37DEFFFF             ori $30, $30, 65535
7992	7820  03E00008             jr $31
7993	                          
7994	                          init_upward_0:
7995	7824  3C000000             lui $0, 0
7996	7828  34000000             ori $0, $0, 0
7997	782C  3C010000             lui $1, 0
7998	7830  34210000             ori $1, $1, 0
7999	7834  3C020000             lui $2, 0
8000	7838  34420000             ori $2, $2, 0
8001	783C  3C030000             lui $3, 0
8002	7840  34630000             ori $3, $3, 0
8003	7844  3C040000             lui $4, 0
8004	7848  34840000             ori $4, $4, 0
8005	784C  3C050000             lui $5, 0
8006	7850  34A50000             ori $5, $5, 0
8007	7854  3C060000             lui $6, 0
8008	7858  34C60000             ori $6, $6, 0
8009	785C  3C070000             lui $7, 0
8010	7860  34E70000             ori $7, $7, 0
8011	7864  3C080000             lui $8, 0
8012	7868  35080000             ori $8, $8, 0
8013	786C  3C090000             lui $9, 0
8014	7870  35290000             ori $9, $9, 0
8015	7874  3C0A0000             lui $10, 0
8016	7878  354A0000             ori $10, $10, 0
8017	787C  3C0B0000             lui $11, 0
8018	7880  356B0000             ori $11, $11, 0
8019	7884  3C0C0000             lui $12, 0
8020	7888  358C0000             ori $12, $12, 0
8021	788C  3C0D0000             lui $13, 0
8022	7890  35AD0000             ori $13, $13, 0
8023	7894  3C0E0000             lui $14, 0
8024	7898  35CE0000             ori $14, $14, 0
8025	789C  3C0F0000             lui $15, 0
8026	78A0  35EF0000             ori $15, $15, 0
8027	78A4  3C100000             lui $16, 0
8028	78A8  36100000             ori $16, $16, 0
8029	78AC  3C110000             lui $17, 0
8030	78B0  36310000             ori $17, $17, 0
8031	78B4  3C120000             lui $18, 0
8032	78B8  36520000             ori $18, $18, 0
8033	78BC  3C130000             lui $19, 0
8034	78C0  36730000             ori $19, $19, 0
8035	78C4  3C140000             lui $20, 0
8036	78C8  36940000             ori $20, $20, 0
8037	78CC  3C150000             lui $21, 0
8038	78D0  36B50000             ori $21, $21, 0
8039	78D4  3C160000             lui $22, 0
8040	78D8  36D60000             ori $22, $22, 0
8041	78DC  3C170000             lui $23, 0
8042	78E0  36F70000             ori $23, $23, 0
8043	78E4  3C180000             lui $24, 0
8044	78E8  37180000             ori $24, $24, 0
8045	78EC  3C190000             lui $25, 0
8046	78F0  37390000             ori $25, $25, 0
8047	78F4  3C1A0000             lui $26, 0
8048	78F8  375A0000             ori $26, $26, 0
8049	78FC  3C1B0000             lui $27, 0
8050	7900  377B0000             ori $27, $27, 0
8051	7904  3C1C0000             lui $28, 0
8052	7908  379C0000             ori $28, $28, 0
8053	790C  3C1E0000             lui $30, 0
8054	7910  37DE0000             ori $30, $30, 0
8055	7914  03E00008             jr $31
8056	                          
8057	                          hi_upward_0:
8058	7918  00000011             mthi $0
8059	791C  00000010             mfhi $0
8060	7920  AFA002E8             sw $0, 744($29)
8061	7924  3C000000             lui $0, 0
8062	7928  34000000             ori $0, $0, 0
8063	792C  00200011             mthi $1
8064	7930  00000810             mfhi $1
8065	7934  AFA102EC             sw $1, 748($29)
8066	7938  3C010000             lui $1, 0
8067	793C  34210000             ori $1, $1, 0
8068	7940  00400011             mthi $2
8069	7944  00001010             mfhi $2
8070	7948  AFA202F0             sw $2, 752($29)
8071	794C  3C020000             lui $2, 0
8072	7950  34420000             ori $2, $2, 0
8073	7954  00600011             mthi $3
8074	7958  00001810             mfhi $3
8075	795C  AFA302F4             sw $3, 756($29)
8076	7960  3C030000             lui $3, 0
8077	7964  34630000             ori $3, $3, 0
8078	7968  00800011             mthi $4
8079	796C  00002010             mfhi $4
8080	7970  AFA402F8             sw $4, 760($29)
8081	7974  3C040000             lui $4, 0
8082	7978  34840000             ori $4, $4, 0
8083	797C  00A00011             mthi $5
8084	7980  00002810             mfhi $5
8085	7984  AFA502FC             sw $5, 764($29)
8086	7988  3C050000             lui $5, 0
8087	798C  34A50000             ori $5, $5, 0
8088	7990  00C00011             mthi $6
8089	7994  00003010             mfhi $6
8090	7998  AFA60300             sw $6, 768($29)
8091	799C  3C060000             lui $6, 0
8092	79A0  34C60000             ori $6, $6, 0
8093	79A4  00E00011             mthi $7
8094	79A8  00003810             mfhi $7
8095	79AC  AFA70304             sw $7, 772($29)
8096	79B0  3C070000             lui $7, 0
8097	79B4  34E70000             ori $7, $7, 0
8098	79B8  01000011             mthi $8
8099	79BC  00004010             mfhi $8
8100	79C0  AFA80308             sw $8, 776($29)
8101	79C4  3C080000             lui $8, 0
8102	79C8  35080000             ori $8, $8, 0
8103	79CC  01200011             mthi $9
8104	79D0  00004810             mfhi $9
8105	79D4  AFA9030C             sw $9, 780($29)
8106	79D8  3C090000             lui $9, 0
8107	79DC  35290000             ori $9, $9, 0
8108	79E0  01400011             mthi $10
8109	79E4  00005010             mfhi $10
8110	79E8  AFAA0310             sw $10, 784($29)
8111	79EC  3C0A0000             lui $10, 0
8112	79F0  354A0000             ori $10, $10, 0
8113	79F4  01600011             mthi $11
8114	79F8  00005810             mfhi $11
8115	79FC  AFAB0314             sw $11, 788($29)
8116	7A00  3C0B0000             lui $11, 0
8117	7A04  356B0000             ori $11, $11, 0
8118	7A08  01800011             mthi $12
8119	7A0C  00006010             mfhi $12
8120	7A10  AFAC0318             sw $12, 792($29)
8121	7A14  3C0C0000             lui $12, 0
8122	7A18  358C0000             ori $12, $12, 0
8123	7A1C  01A00011             mthi $13
8124	7A20  00006810             mfhi $13
8125	7A24  AFAD031C             sw $13, 796($29)
8126	7A28  3C0D0000             lui $13, 0
8127	7A2C  35AD0000             ori $13, $13, 0
8128	7A30  01C00011             mthi $14
8129	7A34  00007010             mfhi $14
8130	7A38  AFAE0320             sw $14, 800($29)
8131	7A3C  3C0E0000             lui $14, 0
8132	7A40  35CE0000             ori $14, $14, 0
8133	7A44  01E00011             mthi $15
8134	7A48  00007810             mfhi $15
8135	7A4C  AFAF0324             sw $15, 804($29)
8136	7A50  3C0F0000             lui $15, 0
8137	7A54  35EF0000             ori $15, $15, 0
8138	7A58  02000011             mthi $16
8139	7A5C  00008010             mfhi $16
8140	7A60  AFB00328             sw $16, 808($29)
8141	7A64  3C100000             lui $16, 0
8142	7A68  36100000             ori $16, $16, 0
8143	7A6C  02200011             mthi $17
8144	7A70  00008810             mfhi $17
8145	7A74  AFB1032C             sw $17, 812($29)
8146	7A78  3C110000             lui $17, 0
8147	7A7C  36310000             ori $17, $17, 0
8148	7A80  02400011             mthi $18
8149	7A84  00009010             mfhi $18
8150	7A88  AFB20330             sw $18, 816($29)
8151	7A8C  3C120000             lui $18, 0
8152	7A90  36520000             ori $18, $18, 0
8153	7A94  02600011             mthi $19
8154	7A98  00009810             mfhi $19
8155	7A9C  AFB30334             sw $19, 820($29)
8156	7AA0  3C130000             lui $19, 0
8157	7AA4  36730000             ori $19, $19, 0
8158	7AA8  02800011             mthi $20
8159	7AAC  0000A010             mfhi $20
8160	7AB0  AFB40338             sw $20, 824($29)
8161	7AB4  3C140000             lui $20, 0
8162	7AB8  36940000             ori $20, $20, 0
8163	7ABC  02A00011             mthi $21
8164	7AC0  0000A810             mfhi $21
8165	7AC4  AFB5033C             sw $21, 828($29)
8166	7AC8  3C150000             lui $21, 0
8167	7ACC  36B50000             ori $21, $21, 0
8168	7AD0  02C00011             mthi $22
8169	7AD4  0000B010             mfhi $22
8170	7AD8  AFB60340             sw $22, 832($29)
8171	7ADC  3C160000             lui $22, 0
8172	7AE0  36D60000             ori $22, $22, 0
8173	7AE4  02E00011             mthi $23
8174	7AE8  0000B810             mfhi $23
8175	7AEC  AFB70344             sw $23, 836($29)
8176	7AF0  3C170000             lui $23, 0
8177	7AF4  36F70000             ori $23, $23, 0
8178	7AF8  03000011             mthi $24
8179	7AFC  0000C010             mfhi $24
8180	7B00  AFB80348             sw $24, 840($29)
8181	7B04  3C180000             lui $24, 0
8182	7B08  37180000             ori $24, $24, 0
8183	7B0C  03200011             mthi $25
8184	7B10  0000C810             mfhi $25
8185	7B14  AFB9034C             sw $25, 844($29)
8186	7B18  3C190000             lui $25, 0
8187	7B1C  37390000             ori $25, $25, 0
8188	7B20  03400011             mthi $26
8189	7B24  0000D010             mfhi $26
8190	7B28  AFBA0350             sw $26, 848($29)
8191	7B2C  3C1A0000             lui $26, 0
8192	7B30  375A0000             ori $26, $26, 0
8193	7B34  03600011             mthi $27
8194	7B38  0000D810             mfhi $27
8195	7B3C  AFBB0354             sw $27, 852($29)
8196	7B40  3C1B0000             lui $27, 0
8197	7B44  377B0000             ori $27, $27, 0
8198	7B48  03800011             mthi $28
8199	7B4C  0000E010             mfhi $28
8200	7B50  AFBC0358             sw $28, 856($29)
8201	7B54  3C1C0000             lui $28, 0
8202	7B58  379C0000             ori $28, $28, 0
8203	7B5C  03C00011             mthi $30
8204	7B60  0000F010             mfhi $30
8205	7B64  AFBE035C             sw $30, 860($29)
8206	7B68  3C1E0000             lui $30, 0
8207	7B6C  37DE0000             ori $30, $30, 0
8208	7B70  03E00008             jr $31
8209	                          
8210	                          hi_downward_1:
8211	7B74  00000011             mthi $0
8212	7B78  00000010             mfhi $0
8213	7B7C  AFA00360             sw $0, 864($29)
8214	7B80  3C00FFFF             lui $0, 65535
8215	7B84  3400FFFF             ori $0, $0, 65535
8216	7B88  00000011             mthi $0
8217	7B8C  00000010             mfhi $0
8218	7B90  AFA00364             sw $0, 868($29)
8219	7B94  03C00011             mthi $30
8220	7B98  0000F010             mfhi $30
8221	7B9C  AFBE0368             sw $30, 872($29)
8222	7BA0  3C1EFFFF             lui $30, 65535
8223	7BA4  37DEFFFF             ori $30, $30, 65535
8224	7BA8  03C00011             mthi $30
8225	7BAC  0000F010             mfhi $30
8226	7BB0  AFBE036C             sw $30, 876($29)
8227	7BB4  03800011             mthi $28
8228	7BB8  0000E010             mfhi $28
8229	7BBC  AFBC0370             sw $28, 880($29)
8230	7BC0  3C1CFFFF             lui $28, 65535
8231	7BC4  379CFFFF             ori $28, $28, 65535
8232	7BC8  03800011             mthi $28
8233	7BCC  0000E010             mfhi $28
8234	7BD0  AFBC0374             sw $28, 884($29)
8235	7BD4  03600011             mthi $27
8236	7BD8  0000D810             mfhi $27
8237	7BDC  AFBB0378             sw $27, 888($29)
8238	7BE0  3C1BFFFF             lui $27, 65535
8239	7BE4  377BFFFF             ori $27, $27, 65535
8240	7BE8  03600011             mthi $27
8241	7BEC  0000D810             mfhi $27
8242	7BF0  AFBB037C             sw $27, 892($29)
8243	7BF4  03400011             mthi $26
8244	7BF8  0000D010             mfhi $26
8245	7BFC  AFBA0380             sw $26, 896($29)
8246	7C00  3C1AFFFF             lui $26, 65535
8247	7C04  375AFFFF             ori $26, $26, 65535
8248	7C08  03400011             mthi $26
8249	7C0C  0000D010             mfhi $26
8250	7C10  AFBA0384             sw $26, 900($29)
8251	7C14  03200011             mthi $25
8252	7C18  0000C810             mfhi $25
8253	7C1C  AFB90388             sw $25, 904($29)
8254	7C20  3C19FFFF             lui $25, 65535
8255	7C24  3739FFFF             ori $25, $25, 65535
8256	7C28  03200011             mthi $25
8257	7C2C  0000C810             mfhi $25
8258	7C30  AFB9038C             sw $25, 908($29)
8259	7C34  03000011             mthi $24
8260	7C38  0000C010             mfhi $24
8261	7C3C  AFB80390             sw $24, 912($29)
8262	7C40  3C18FFFF             lui $24, 65535
8263	7C44  3718FFFF             ori $24, $24, 65535
8264	7C48  03000011             mthi $24
8265	7C4C  0000C010             mfhi $24
8266	7C50  AFB80394             sw $24, 916($29)
8267	7C54  02E00011             mthi $23
8268	7C58  0000B810             mfhi $23
8269	7C5C  AFB70398             sw $23, 920($29)
8270	7C60  3C17FFFF             lui $23, 65535
8271	7C64  36F7FFFF             ori $23, $23, 65535
8272	7C68  02E00011             mthi $23
8273	7C6C  0000B810             mfhi $23
8274	7C70  AFB7039C             sw $23, 924($29)
8275	7C74  02C00011             mthi $22
8276	7C78  0000B010             mfhi $22
8277	7C7C  AFB603A0             sw $22, 928($29)
8278	7C80  3C16FFFF             lui $22, 65535
8279	7C84  36D6FFFF             ori $22, $22, 65535
8280	7C88  02C00011             mthi $22
8281	7C8C  0000B010             mfhi $22
8282	7C90  AFB603A4             sw $22, 932($29)
8283	7C94  02A00011             mthi $21
8284	7C98  0000A810             mfhi $21
8285	7C9C  AFB503A8             sw $21, 936($29)
8286	7CA0  3C15FFFF             lui $21, 65535
8287	7CA4  36B5FFFF             ori $21, $21, 65535
8288	7CA8  02A00011             mthi $21
8289	7CAC  0000A810             mfhi $21
8290	7CB0  AFB503AC             sw $21, 940($29)
8291	7CB4  02800011             mthi $20
8292	7CB8  0000A010             mfhi $20
8293	7CBC  AFB403B0             sw $20, 944($29)
8294	7CC0  3C14FFFF             lui $20, 65535
8295	7CC4  3694FFFF             ori $20, $20, 65535
8296	7CC8  02800011             mthi $20
8297	7CCC  0000A010             mfhi $20
8298	7CD0  AFB403B4             sw $20, 948($29)
8299	7CD4  02600011             mthi $19
8300	7CD8  00009810             mfhi $19
8301	7CDC  AFB303B8             sw $19, 952($29)
8302	7CE0  3C13FFFF             lui $19, 65535
8303	7CE4  3673FFFF             ori $19, $19, 65535
8304	7CE8  02600011             mthi $19
8305	7CEC  00009810             mfhi $19
8306	7CF0  AFB303BC             sw $19, 956($29)
8307	7CF4  02400011             mthi $18
8308	7CF8  00009010             mfhi $18
8309	7CFC  AFB203C0             sw $18, 960($29)
8310	7D00  3C12FFFF             lui $18, 65535
8311	7D04  3652FFFF             ori $18, $18, 65535
8312	7D08  02400011             mthi $18
8313	7D0C  00009010             mfhi $18
8314	7D10  AFB203C4             sw $18, 964($29)
8315	7D14  02200011             mthi $17
8316	7D18  00008810             mfhi $17
8317	7D1C  AFB103C8             sw $17, 968($29)
8318	7D20  3C11FFFF             lui $17, 65535
8319	7D24  3631FFFF             ori $17, $17, 65535
8320	7D28  02200011             mthi $17
8321	7D2C  00008810             mfhi $17
8322	7D30  AFB103CC             sw $17, 972($29)
8323	7D34  02000011             mthi $16
8324	7D38  00008010             mfhi $16
8325	7D3C  AFB003D0             sw $16, 976($29)
8326	7D40  3C10FFFF             lui $16, 65535
8327	7D44  3610FFFF             ori $16, $16, 65535
8328	7D48  02000011             mthi $16
8329	7D4C  00008010             mfhi $16
8330	7D50  AFB003D4             sw $16, 980($29)
8331	7D54  01E00011             mthi $15
8332	7D58  00007810             mfhi $15
8333	7D5C  AFAF03D8             sw $15, 984($29)
8334	7D60  3C0FFFFF             lui $15, 65535
8335	7D64  35EFFFFF             ori $15, $15, 65535
8336	7D68  01E00011             mthi $15
8337	7D6C  00007810             mfhi $15
8338	7D70  AFAF03DC             sw $15, 988($29)
8339	7D74  01C00011             mthi $14
8340	7D78  00007010             mfhi $14
8341	7D7C  AFAE03E0             sw $14, 992($29)
8342	7D80  3C0EFFFF             lui $14, 65535
8343	7D84  35CEFFFF             ori $14, $14, 65535
8344	7D88  01C00011             mthi $14
8345	7D8C  00007010             mfhi $14
8346	7D90  AFAE03E4             sw $14, 996($29)
8347	7D94  01A00011             mthi $13
8348	7D98  00006810             mfhi $13
8349	7D9C  AFAD03E8             sw $13, 1000($29)
8350	7DA0  3C0DFFFF             lui $13, 65535
8351	7DA4  35ADFFFF             ori $13, $13, 65535
8352	7DA8  01A00011             mthi $13
8353	7DAC  00006810             mfhi $13
8354	7DB0  AFAD03EC             sw $13, 1004($29)
8355	7DB4  01800011             mthi $12
8356	7DB8  00006010             mfhi $12
8357	7DBC  AFAC03F0             sw $12, 1008($29)
8358	7DC0  3C0CFFFF             lui $12, 65535
8359	7DC4  358CFFFF             ori $12, $12, 65535
8360	7DC8  01800011             mthi $12
8361	7DCC  00006010             mfhi $12
8362	7DD0  AFAC03F4             sw $12, 1012($29)
8363	7DD4  01600011             mthi $11
8364	7DD8  00005810             mfhi $11
8365	7DDC  AFAB03F8             sw $11, 1016($29)
8366	7DE0  3C0BFFFF             lui $11, 65535
8367	7DE4  356BFFFF             ori $11, $11, 65535
8368	7DE8  01600011             mthi $11
8369	7DEC  00005810             mfhi $11
8370	7DF0  AFAB03FC             sw $11, 1020($29)
8371	7DF4  01400011             mthi $10
8372	7DF8  00005010             mfhi $10
8373	7DFC  AFAA0400             sw $10, 1024($29)
8374	7E00  3C0AFFFF             lui $10, 65535
8375	7E04  354AFFFF             ori $10, $10, 65535
8376	7E08  01400011             mthi $10
8377	7E0C  00005010             mfhi $10
8378	7E10  AFAA0404             sw $10, 1028($29)
8379	7E14  01200011             mthi $9
8380	7E18  00004810             mfhi $9
8381	7E1C  AFA90408             sw $9, 1032($29)
8382	7E20  3C09FFFF             lui $9, 65535
8383	7E24  3529FFFF             ori $9, $9, 65535
8384	7E28  01200011             mthi $9
8385	7E2C  00004810             mfhi $9
8386	7E30  AFA9040C             sw $9, 1036($29)
8387	7E34  01000011             mthi $8
8388	7E38  00004010             mfhi $8
8389	7E3C  AFA80410             sw $8, 1040($29)
8390	7E40  3C08FFFF             lui $8, 65535
8391	7E44  3508FFFF             ori $8, $8, 65535
8392	7E48  01000011             mthi $8
8393	7E4C  00004010             mfhi $8
8394	7E50  AFA80414             sw $8, 1044($29)
8395	7E54  00E00011             mthi $7
8396	7E58  00003810             mfhi $7
8397	7E5C  AFA70418             sw $7, 1048($29)
8398	7E60  3C07FFFF             lui $7, 65535
8399	7E64  34E7FFFF             ori $7, $7, 65535
8400	7E68  00E00011             mthi $7
8401	7E6C  00003810             mfhi $7
8402	7E70  AFA7041C             sw $7, 1052($29)
8403	7E74  00C00011             mthi $6
8404	7E78  00003010             mfhi $6
8405	7E7C  AFA60420             sw $6, 1056($29)
8406	7E80  3C06FFFF             lui $6, 65535
8407	7E84  34C6FFFF             ori $6, $6, 65535
8408	7E88  00C00011             mthi $6
8409	7E8C  00003010             mfhi $6
8410	7E90  AFA60424             sw $6, 1060($29)
8411	7E94  00A00011             mthi $5
8412	7E98  00002810             mfhi $5
8413	7E9C  AFA50428             sw $5, 1064($29)
8414	7EA0  3C05FFFF             lui $5, 65535
8415	7EA4  34A5FFFF             ori $5, $5, 65535
8416	7EA8  00A00011             mthi $5
8417	7EAC  00002810             mfhi $5
8418	7EB0  AFA5042C             sw $5, 1068($29)
8419	7EB4  00800011             mthi $4
8420	7EB8  00002010             mfhi $4
8421	7EBC  AFA40430             sw $4, 1072($29)
8422	7EC0  3C04FFFF             lui $4, 65535
8423	7EC4  3484FFFF             ori $4, $4, 65535
8424	7EC8  00800011             mthi $4
8425	7ECC  00002010             mfhi $4
8426	7ED0  AFA40434             sw $4, 1076($29)
8427	7ED4  00600011             mthi $3
8428	7ED8  00001810             mfhi $3
8429	7EDC  AFA30438             sw $3, 1080($29)
8430	7EE0  3C03FFFF             lui $3, 65535
8431	7EE4  3463FFFF             ori $3, $3, 65535
8432	7EE8  00600011             mthi $3
8433	7EEC  00001810             mfhi $3
8434	7EF0  AFA3043C             sw $3, 1084($29)
8435	7EF4  00400011             mthi $2
8436	7EF8  00001010             mfhi $2
8437	7EFC  AFA20440             sw $2, 1088($29)
8438	7F00  3C02FFFF             lui $2, 65535
8439	7F04  3442FFFF             ori $2, $2, 65535
8440	7F08  00400011             mthi $2
8441	7F0C  00001010             mfhi $2
8442	7F10  AFA20444             sw $2, 1092($29)
8443	7F14  00200011             mthi $1
8444	7F18  00000810             mfhi $1
8445	7F1C  AFA10448             sw $1, 1096($29)
8446	7F20  3C01FFFF             lui $1, 65535
8447	7F24  3421FFFF             ori $1, $1, 65535
8448	7F28  00200011             mthi $1
8449	7F2C  00000810             mfhi $1
8450	7F30  AFA1044C             sw $1, 1100($29)
8451	7F34  03E00008             jr $31
8452	                          
8453	                          lo_upward_0:
8454	7F38  00000013             mtlo $0
8455	7F3C  00000012             mflo $0
8456	7F40  AFA00450             sw $0, 1104($29)
8457	7F44  3C000000             lui $0, 0
8458	7F48  34000000             ori $0, $0, 0
8459	7F4C  00200013             mtlo $1
8460	7F50  00000812             mflo $1
8461	7F54  AFA10454             sw $1, 1108($29)
8462	7F58  3C010000             lui $1, 0
8463	7F5C  34210000             ori $1, $1, 0
8464	7F60  00400013             mtlo $2
8465	7F64  00001012             mflo $2
8466	7F68  AFA20458             sw $2, 1112($29)
8467	7F6C  3C020000             lui $2, 0
8468	7F70  34420000             ori $2, $2, 0
8469	7F74  00600013             mtlo $3
8470	7F78  00001812             mflo $3
8471	7F7C  AFA3045C             sw $3, 1116($29)
8472	7F80  3C030000             lui $3, 0
8473	7F84  34630000             ori $3, $3, 0
8474	7F88  00800013             mtlo $4
8475	7F8C  00002012             mflo $4
8476	7F90  AFA40460             sw $4, 1120($29)
8477	7F94  3C040000             lui $4, 0
8478	7F98  34840000             ori $4, $4, 0
8479	7F9C  00A00013             mtlo $5
8480	7FA0  00002812             mflo $5
8481	7FA4  AFA50464             sw $5, 1124($29)
8482	7FA8  3C050000             lui $5, 0
8483	7FAC  34A50000             ori $5, $5, 0
8484	7FB0  00C00013             mtlo $6
8485	7FB4  00003012             mflo $6
8486	7FB8  AFA60468             sw $6, 1128($29)
8487	7FBC  3C060000             lui $6, 0
8488	7FC0  34C60000             ori $6, $6, 0
8489	7FC4  00E00013             mtlo $7
8490	7FC8  00003812             mflo $7
8491	7FCC  AFA7046C             sw $7, 1132($29)
8492	7FD0  3C070000             lui $7, 0
8493	7FD4  34E70000             ori $7, $7, 0
8494	7FD8  01000013             mtlo $8
8495	7FDC  00004012             mflo $8
8496	7FE0  AFA80470             sw $8, 1136($29)
8497	7FE4  3C080000             lui $8, 0
8498	7FE8  35080000             ori $8, $8, 0
8499	7FEC  01200013             mtlo $9
8500	7FF0  00004812             mflo $9
8501	7FF4  AFA90474             sw $9, 1140($29)
8502	7FF8  3C090000             lui $9, 0
8503	7FFC  35290000             ori $9, $9, 0
8504	8000  01400013             mtlo $10
8505	8004  00005012             mflo $10
8506	8008  AFAA0478             sw $10, 1144($29)
8507	800C  3C0A0000             lui $10, 0
8508	8010  354A0000             ori $10, $10, 0
8509	8014  01600013             mtlo $11
8510	8018  00005812             mflo $11
8511	801C  AFAB047C             sw $11, 1148($29)
8512	8020  3C0B0000             lui $11, 0
8513	8024  356B0000             ori $11, $11, 0
8514	8028  01800013             mtlo $12
8515	802C  00006012             mflo $12
8516	8030  AFAC0480             sw $12, 1152($29)
8517	8034  3C0C0000             lui $12, 0
8518	8038  358C0000             ori $12, $12, 0
8519	803C  01A00013             mtlo $13
8520	8040  00006812             mflo $13
8521	8044  AFAD0484             sw $13, 1156($29)
8522	8048  3C0D0000             lui $13, 0
8523	804C  35AD0000             ori $13, $13, 0
8524	8050  01C00013             mtlo $14
8525	8054  00007012             mflo $14
8526	8058  AFAE0488             sw $14, 1160($29)
8527	805C  3C0E0000             lui $14, 0
8528	8060  35CE0000             ori $14, $14, 0
8529	8064  01E00013             mtlo $15
8530	8068  00007812             mflo $15
8531	806C  AFAF048C             sw $15, 1164($29)
8532	8070  3C0F0000             lui $15, 0
8533	8074  35EF0000             ori $15, $15, 0
8534	8078  02000013             mtlo $16
8535	807C  00008012             mflo $16
8536	8080  AFB00490             sw $16, 1168($29)
8537	8084  3C100000             lui $16, 0
8538	8088  36100000             ori $16, $16, 0
8539	808C  02200013             mtlo $17
8540	8090  00008812             mflo $17
8541	8094  AFB10494             sw $17, 1172($29)
8542	8098  3C110000             lui $17, 0
8543	809C  36310000             ori $17, $17, 0
8544	80A0  02400013             mtlo $18
8545	80A4  00009012             mflo $18
8546	80A8  AFB20498             sw $18, 1176($29)
8547	80AC  3C120000             lui $18, 0
8548	80B0  36520000             ori $18, $18, 0
8549	80B4  02600013             mtlo $19
8550	80B8  00009812             mflo $19
8551	80BC  AFB3049C             sw $19, 1180($29)
8552	80C0  3C130000             lui $19, 0
8553	80C4  36730000             ori $19, $19, 0
8554	80C8  02800013             mtlo $20
8555	80CC  0000A012             mflo $20
8556	80D0  AFB404A0             sw $20, 1184($29)
8557	80D4  3C140000             lui $20, 0
8558	80D8  36940000             ori $20, $20, 0
8559	80DC  02A00013             mtlo $21
8560	80E0  0000A812             mflo $21
8561	80E4  AFB504A4             sw $21, 1188($29)
8562	80E8  3C150000             lui $21, 0
8563	80EC  36B50000             ori $21, $21, 0
8564	80F0  02C00013             mtlo $22
8565	80F4  0000B012             mflo $22
8566	80F8  AFB604A8             sw $22, 1192($29)
8567	80FC  3C160000             lui $22, 0
8568	8100  36D60000             ori $22, $22, 0
8569	8104  02E00013             mtlo $23
8570	8108  0000B812             mflo $23
8571	810C  AFB704AC             sw $23, 1196($29)
8572	8110  3C170000             lui $23, 0
8573	8114  36F70000             ori $23, $23, 0
8574	8118  03000013             mtlo $24
8575	811C  0000C012             mflo $24
8576	8120  AFB804B0             sw $24, 1200($29)
8577	8124  3C180000             lui $24, 0
8578	8128  37180000             ori $24, $24, 0
8579	812C  03200013             mtlo $25
8580	8130  0000C812             mflo $25
8581	8134  AFB904B4             sw $25, 1204($29)
8582	8138  3C190000             lui $25, 0
8583	813C  37390000             ori $25, $25, 0
8584	8140  03400013             mtlo $26
8585	8144  0000D012             mflo $26
8586	8148  AFBA04B8             sw $26, 1208($29)
8587	814C  3C1A0000             lui $26, 0
8588	8150  375A0000             ori $26, $26, 0
8589	8154  03600013             mtlo $27
8590	8158  0000D812             mflo $27
8591	815C  AFBB04BC             sw $27, 1212($29)
8592	8160  3C1B0000             lui $27, 0
8593	8164  377B0000             ori $27, $27, 0
8594	8168  03800013             mtlo $28
8595	816C  0000E012             mflo $28
8596	8170  AFBC04C0             sw $28, 1216($29)
8597	8174  3C1C0000             lui $28, 0
8598	8178  379C0000             ori $28, $28, 0
8599	817C  03C00013             mtlo $30
8600	8180  0000F012             mflo $30
8601	8184  AFBE04C4             sw $30, 1220($29)
8602	8188  3C1E0000             lui $30, 0
8603	818C  37DE0000             ori $30, $30, 0
8604	8190  03E00008             jr $31
8605	                          
8606	                          lo_downward_1:
8607	8194  00000013             mtlo $0
8608	8198  00000012             mflo $0
8609	819C  AFA004C8             sw $0, 1224($29)
8610	81A0  3C00FFFF             lui $0, 65535
8611	81A4  3400FFFF             ori $0, $0, 65535
8612	81A8  00000013             mtlo $0
8613	81AC  00000012             mflo $0
8614	81B0  AFA004CC             sw $0, 1228($29)
8615	81B4  03C00013             mtlo $30
8616	81B8  0000F012             mflo $30
8617	81BC  AFBE04D0             sw $30, 1232($29)
8618	81C0  3C1EFFFF             lui $30, 65535
8619	81C4  37DEFFFF             ori $30, $30, 65535
8620	81C8  03C00013             mtlo $30
8621	81CC  0000F012             mflo $30
8622	81D0  AFBE04D4             sw $30, 1236($29)
8623	81D4  03800013             mtlo $28
8624	81D8  0000E012             mflo $28
8625	81DC  AFBC04D8             sw $28, 1240($29)
8626	81E0  3C1CFFFF             lui $28, 65535
8627	81E4  379CFFFF             ori $28, $28, 65535
8628	81E8  03800013             mtlo $28
8629	81EC  0000E012             mflo $28
8630	81F0  AFBC04DC             sw $28, 1244($29)
8631	81F4  03600013             mtlo $27
8632	81F8  0000D812             mflo $27
8633	81FC  AFBB04E0             sw $27, 1248($29)
8634	8200  3C1BFFFF             lui $27, 65535
8635	8204  377BFFFF             ori $27, $27, 65535
8636	8208  03600013             mtlo $27
8637	820C  0000D812             mflo $27
8638	8210  AFBB04E4             sw $27, 1252($29)
8639	8214  03400013             mtlo $26
8640	8218  0000D012             mflo $26
8641	821C  AFBA04E8             sw $26, 1256($29)
8642	8220  3C1AFFFF             lui $26, 65535
8643	8224  375AFFFF             ori $26, $26, 65535
8644	8228  03400013             mtlo $26
8645	822C  0000D012             mflo $26
8646	8230  AFBA04EC             sw $26, 1260($29)
8647	8234  03200013             mtlo $25
8648	8238  0000C812             mflo $25
8649	823C  AFB904F0             sw $25, 1264($29)
8650	8240  3C19FFFF             lui $25, 65535
8651	8244  3739FFFF             ori $25, $25, 65535
8652	8248  03200013             mtlo $25
8653	824C  0000C812             mflo $25
8654	8250  AFB904F4             sw $25, 1268($29)
8655	8254  03000013             mtlo $24
8656	8258  0000C012             mflo $24
8657	825C  AFB804F8             sw $24, 1272($29)
8658	8260  3C18FFFF             lui $24, 65535
8659	8264  3718FFFF             ori $24, $24, 65535
8660	8268  03000013             mtlo $24
8661	826C  0000C012             mflo $24
8662	8270  AFB804FC             sw $24, 1276($29)
8663	8274  02E00013             mtlo $23
8664	8278  0000B812             mflo $23
8665	827C  AFB70500             sw $23, 1280($29)
8666	8280  3C17FFFF             lui $23, 65535
8667	8284  36F7FFFF             ori $23, $23, 65535
8668	8288  02E00013             mtlo $23
8669	828C  0000B812             mflo $23
8670	8290  AFB70504             sw $23, 1284($29)
8671	8294  02C00013             mtlo $22
8672	8298  0000B012             mflo $22
8673	829C  AFB60508             sw $22, 1288($29)
8674	82A0  3C16FFFF             lui $22, 65535
8675	82A4  36D6FFFF             ori $22, $22, 65535
8676	82A8  02C00013             mtlo $22
8677	82AC  0000B012             mflo $22
8678	82B0  AFB6050C             sw $22, 1292($29)
8679	82B4  02A00013             mtlo $21
8680	82B8  0000A812             mflo $21
8681	82BC  AFB50510             sw $21, 1296($29)
8682	82C0  3C15FFFF             lui $21, 65535
8683	82C4  36B5FFFF             ori $21, $21, 65535
8684	82C8  02A00013             mtlo $21
8685	82CC  0000A812             mflo $21
8686	82D0  AFB50514             sw $21, 1300($29)
8687	82D4  02800013             mtlo $20
8688	82D8  0000A012             mflo $20
8689	82DC  AFB40518             sw $20, 1304($29)
8690	82E0  3C14FFFF             lui $20, 65535
8691	82E4  3694FFFF             ori $20, $20, 65535
8692	82E8  02800013             mtlo $20
8693	82EC  0000A012             mflo $20
8694	82F0  AFB4051C             sw $20, 1308($29)
8695	82F4  02600013             mtlo $19
8696	82F8  00009812             mflo $19
8697	82FC  AFB30520             sw $19, 1312($29)
8698	8300  3C13FFFF             lui $19, 65535
8699	8304  3673FFFF             ori $19, $19, 65535
8700	8308  02600013             mtlo $19
8701	830C  00009812             mflo $19
8702	8310  AFB30524             sw $19, 1316($29)
8703	8314  02400013             mtlo $18
8704	8318  00009012             mflo $18
8705	831C  AFB20528             sw $18, 1320($29)
8706	8320  3C12FFFF             lui $18, 65535
8707	8324  3652FFFF             ori $18, $18, 65535
8708	8328  02400013             mtlo $18
8709	832C  00009012             mflo $18
8710	8330  AFB2052C             sw $18, 1324($29)
8711	8334  02200013             mtlo $17
8712	8338  00008812             mflo $17
8713	833C  AFB10530             sw $17, 1328($29)
8714	8340  3C11FFFF             lui $17, 65535
8715	8344  3631FFFF             ori $17, $17, 65535
8716	8348  02200013             mtlo $17
8717	834C  00008812             mflo $17
8718	8350  AFB10534             sw $17, 1332($29)
8719	8354  02000013             mtlo $16
8720	8358  00008012             mflo $16
8721	835C  AFB00538             sw $16, 1336($29)
8722	8360  3C10FFFF             lui $16, 65535
8723	8364  3610FFFF             ori $16, $16, 65535
8724	8368  02000013             mtlo $16
8725	836C  00008012             mflo $16
8726	8370  AFB0053C             sw $16, 1340($29)
8727	8374  01E00013             mtlo $15
8728	8378  00007812             mflo $15
8729	837C  AFAF0540             sw $15, 1344($29)
8730	8380  3C0FFFFF             lui $15, 65535
8731	8384  35EFFFFF             ori $15, $15, 65535
8732	8388  01E00013             mtlo $15
8733	838C  00007812             mflo $15
8734	8390  AFAF0544             sw $15, 1348($29)
8735	8394  01C00013             mtlo $14
8736	8398  00007012             mflo $14
8737	839C  AFAE0548             sw $14, 1352($29)
8738	83A0  3C0EFFFF             lui $14, 65535
8739	83A4  35CEFFFF             ori $14, $14, 65535
8740	83A8  01C00013             mtlo $14
8741	83AC  00007012             mflo $14
8742	83B0  AFAE054C             sw $14, 1356($29)
8743	83B4  01A00013             mtlo $13
8744	83B8  00006812             mflo $13
8745	83BC  AFAD0550             sw $13, 1360($29)
8746	83C0  3C0DFFFF             lui $13, 65535
8747	83C4  35ADFFFF             ori $13, $13, 65535
8748	83C8  01A00013             mtlo $13
8749	83CC  00006812             mflo $13
8750	83D0  AFAD0554             sw $13, 1364($29)
8751	83D4  01800013             mtlo $12
8752	83D8  00006012             mflo $12
8753	83DC  AFAC0558             sw $12, 1368($29)
8754	83E0  3C0CFFFF             lui $12, 65535
8755	83E4  358CFFFF             ori $12, $12, 65535
8756	83E8  01800013             mtlo $12
8757	83EC  00006012             mflo $12
8758	83F0  AFAC055C             sw $12, 1372($29)
8759	83F4  01600013             mtlo $11
8760	83F8  00005812             mflo $11
8761	83FC  AFAB0560             sw $11, 1376($29)
8762	8400  3C0BFFFF             lui $11, 65535
8763	8404  356BFFFF             ori $11, $11, 65535
8764	8408  01600013             mtlo $11
8765	840C  00005812             mflo $11
8766	8410  AFAB0564             sw $11, 1380($29)
8767	8414  01400013             mtlo $10
8768	8418  00005012             mflo $10
8769	841C  AFAA0568             sw $10, 1384($29)
8770	8420  3C0AFFFF             lui $10, 65535
8771	8424  354AFFFF             ori $10, $10, 65535
8772	8428  01400013             mtlo $10
8773	842C  00005012             mflo $10
8774	8430  AFAA056C             sw $10, 1388($29)
8775	8434  01200013             mtlo $9
8776	8438  00004812             mflo $9
8777	843C  AFA90570             sw $9, 1392($29)
8778	8440  3C09FFFF             lui $9, 65535
8779	8444  3529FFFF             ori $9, $9, 65535
8780	8448  01200013             mtlo $9
8781	844C  00004812             mflo $9
8782	8450  AFA90574             sw $9, 1396($29)
8783	8454  01000013             mtlo $8
8784	8458  00004012             mflo $8
8785	845C  AFA80578             sw $8, 1400($29)
8786	8460  3C08FFFF             lui $8, 65535
8787	8464  3508FFFF             ori $8, $8, 65535
8788	8468  01000013             mtlo $8
8789	846C  00004012             mflo $8
8790	8470  AFA8057C             sw $8, 1404($29)
8791	8474  00E00013             mtlo $7
8792	8478  00003812             mflo $7
8793	847C  AFA70580             sw $7, 1408($29)
8794	8480  3C07FFFF             lui $7, 65535
8795	8484  34E7FFFF             ori $7, $7, 65535
8796	8488  00E00013             mtlo $7
8797	848C  00003812             mflo $7
8798	8490  AFA70584             sw $7, 1412($29)
8799	8494  00C00013             mtlo $6
8800	8498  00003012             mflo $6
8801	849C  AFA60588             sw $6, 1416($29)
8802	84A0  3C06FFFF             lui $6, 65535
8803	84A4  34C6FFFF             ori $6, $6, 65535
8804	84A8  00C00013             mtlo $6
8805	84AC  00003012             mflo $6
8806	84B0  AFA6058C             sw $6, 1420($29)
8807	84B4  00A00013             mtlo $5
8808	84B8  00002812             mflo $5
8809	84BC  AFA50590             sw $5, 1424($29)
8810	84C0  3C05FFFF             lui $5, 65535
8811	84C4  34A5FFFF             ori $5, $5, 65535
8812	84C8  00A00013             mtlo $5
8813	84CC  00002812             mflo $5
8814	84D0  AFA50594             sw $5, 1428($29)
8815	84D4  00800013             mtlo $4
8816	84D8  00002012             mflo $4
8817	84DC  AFA40598             sw $4, 1432($29)
8818	84E0  3C04FFFF             lui $4, 65535
8819	84E4  3484FFFF             ori $4, $4, 65535
8820	84E8  00800013             mtlo $4
8821	84EC  00002012             mflo $4
8822	84F0  AFA4059C             sw $4, 1436($29)
8823	84F4  00600013             mtlo $3
8824	84F8  00001812             mflo $3
8825	84FC  AFA305A0             sw $3, 1440($29)
8826	8500  3C03FFFF             lui $3, 65535
8827	8504  3463FFFF             ori $3, $3, 65535
8828	8508  00600013             mtlo $3
8829	850C  00001812             mflo $3
8830	8510  AFA305A4             sw $3, 1444($29)
8831	8514  00400013             mtlo $2
8832	8518  00001012             mflo $2
8833	851C  AFA205A8             sw $2, 1448($29)
8834	8520  3C02FFFF             lui $2, 65535
8835	8524  3442FFFF             ori $2, $2, 65535
8836	8528  00400013             mtlo $2
8837	852C  00001012             mflo $2
8838	8530  AFA205AC             sw $2, 1452($29)
8839	8534  00200013             mtlo $1
8840	8538  00000812             mflo $1
8841	853C  AFA105B0             sw $1, 1456($29)
8842	8540  3C01FFFF             lui $1, 65535
8843	8544  3421FFFF             ori $1, $1, 65535
8844	8548  00200013             mtlo $1
8845	854C  00000812             mflo $1
8846	8550  AFA105B4             sw $1, 1460($29)
8847	8554  03E00008             jr $31
8848	                          
8849	                          hi_upward_1:
8850	8558  00000011             mthi $0
8851	855C  00000010             mfhi $0
8852	8560  AFA005B8             sw $0, 1464($29)
8853	8564  3C00FFFF             lui $0, 65535
8854	8568  3400FFFF             ori $0, $0, 65535
8855	856C  00200011             mthi $1
8856	8570  00000810             mfhi $1
8857	8574  AFA105BC             sw $1, 1468($29)
8858	8578  3C01FFFF             lui $1, 65535
8859	857C  3421FFFF             ori $1, $1, 65535
8860	8580  00400011             mthi $2
8861	8584  00001010             mfhi $2
8862	8588  AFA205C0             sw $2, 1472($29)
8863	858C  3C02FFFF             lui $2, 65535
8864	8590  3442FFFF             ori $2, $2, 65535
8865	8594  00600011             mthi $3
8866	8598  00001810             mfhi $3
8867	859C  AFA305C4             sw $3, 1476($29)
8868	85A0  3C03FFFF             lui $3, 65535
8869	85A4  3463FFFF             ori $3, $3, 65535
8870	85A8  00800011             mthi $4
8871	85AC  00002010             mfhi $4
8872	85B0  AFA405C8             sw $4, 1480($29)
8873	85B4  3C04FFFF             lui $4, 65535
8874	85B8  3484FFFF             ori $4, $4, 65535
8875	85BC  00A00011             mthi $5
8876	85C0  00002810             mfhi $5
8877	85C4  AFA505CC             sw $5, 1484($29)
8878	85C8  3C05FFFF             lui $5, 65535
8879	85CC  34A5FFFF             ori $5, $5, 65535
8880	85D0  00C00011             mthi $6
8881	85D4  00003010             mfhi $6
8882	85D8  AFA605D0             sw $6, 1488($29)
8883	85DC  3C06FFFF             lui $6, 65535
8884	85E0  34C6FFFF             ori $6, $6, 65535
8885	85E4  00E00011             mthi $7
8886	85E8  00003810             mfhi $7
8887	85EC  AFA705D4             sw $7, 1492($29)
8888	85F0  3C07FFFF             lui $7, 65535
8889	85F4  34E7FFFF             ori $7, $7, 65535
8890	85F8  01000011             mthi $8
8891	85FC  00004010             mfhi $8
8892	8600  AFA805D8             sw $8, 1496($29)
8893	8604  3C08FFFF             lui $8, 65535
8894	8608  3508FFFF             ori $8, $8, 65535
8895	860C  01200011             mthi $9
8896	8610  00004810             mfhi $9
8897	8614  AFA905DC             sw $9, 1500($29)
8898	8618  3C09FFFF             lui $9, 65535
8899	861C  3529FFFF             ori $9, $9, 65535
8900	8620  01400011             mthi $10
8901	8624  00005010             mfhi $10
8902	8628  AFAA05E0             sw $10, 1504($29)
8903	862C  3C0AFFFF             lui $10, 65535
8904	8630  354AFFFF             ori $10, $10, 65535
8905	8634  01600011             mthi $11
8906	8638  00005810             mfhi $11
8907	863C  AFAB05E4             sw $11, 1508($29)
8908	8640  3C0BFFFF             lui $11, 65535
8909	8644  356BFFFF             ori $11, $11, 65535
8910	8648  01800011             mthi $12
8911	864C  00006010             mfhi $12
8912	8650  AFAC05E8             sw $12, 1512($29)
8913	8654  3C0CFFFF             lui $12, 65535
8914	8658  358CFFFF             ori $12, $12, 65535
8915	865C  01A00011             mthi $13
8916	8660  00006810             mfhi $13
8917	8664  AFAD05EC             sw $13, 1516($29)
8918	8668  3C0DFFFF             lui $13, 65535
8919	866C  35ADFFFF             ori $13, $13, 65535
8920	8670  01C00011             mthi $14
8921	8674  00007010             mfhi $14
8922	8678  AFAE05F0             sw $14, 1520($29)
8923	867C  3C0EFFFF             lui $14, 65535
8924	8680  35CEFFFF             ori $14, $14, 65535
8925	8684  01E00011             mthi $15
8926	8688  00007810             mfhi $15
8927	868C  AFAF05F4             sw $15, 1524($29)
8928	8690  3C0FFFFF             lui $15, 65535
8929	8694  35EFFFFF             ori $15, $15, 65535
8930	8698  02000011             mthi $16
8931	869C  00008010             mfhi $16
8932	86A0  AFB005F8             sw $16, 1528($29)
8933	86A4  3C10FFFF             lui $16, 65535
8934	86A8  3610FFFF             ori $16, $16, 65535
8935	86AC  02200011             mthi $17
8936	86B0  00008810             mfhi $17
8937	86B4  AFB105FC             sw $17, 1532($29)
8938	86B8  3C11FFFF             lui $17, 65535
8939	86BC  3631FFFF             ori $17, $17, 65535
8940	86C0  02400011             mthi $18
8941	86C4  00009010             mfhi $18
8942	86C8  AFB20600             sw $18, 1536($29)
8943	86CC  3C12FFFF             lui $18, 65535
8944	86D0  3652FFFF             ori $18, $18, 65535
8945	86D4  02600011             mthi $19
8946	86D8  00009810             mfhi $19
8947	86DC  AFB30604             sw $19, 1540($29)
8948	86E0  3C13FFFF             lui $19, 65535
8949	86E4  3673FFFF             ori $19, $19, 65535
8950	86E8  02800011             mthi $20
8951	86EC  0000A010             mfhi $20
8952	86F0  AFB40608             sw $20, 1544($29)
8953	86F4  3C14FFFF             lui $20, 65535
8954	86F8  3694FFFF             ori $20, $20, 65535
8955	86FC  02A00011             mthi $21
8956	8700  0000A810             mfhi $21
8957	8704  AFB5060C             sw $21, 1548($29)
8958	8708  3C15FFFF             lui $21, 65535
8959	870C  36B5FFFF             ori $21, $21, 65535
8960	8710  02C00011             mthi $22
8961	8714  0000B010             mfhi $22
8962	8718  AFB60610             sw $22, 1552($29)
8963	871C  3C16FFFF             lui $22, 65535
8964	8720  36D6FFFF             ori $22, $22, 65535
8965	8724  02E00011             mthi $23
8966	8728  0000B810             mfhi $23
8967	872C  AFB70614             sw $23, 1556($29)
8968	8730  3C17FFFF             lui $23, 65535
8969	8734  36F7FFFF             ori $23, $23, 65535
8970	8738  03000011             mthi $24
8971	873C  0000C010             mfhi $24
8972	8740  AFB80618             sw $24, 1560($29)
8973	8744  3C18FFFF             lui $24, 65535
8974	8748  3718FFFF             ori $24, $24, 65535
8975	874C  03200011             mthi $25
8976	8750  0000C810             mfhi $25
8977	8754  AFB9061C             sw $25, 1564($29)
8978	8758  3C19FFFF             lui $25, 65535
8979	875C  3739FFFF             ori $25, $25, 65535
8980	8760  03400011             mthi $26
8981	8764  0000D010             mfhi $26
8982	8768  AFBA0620             sw $26, 1568($29)
8983	876C  3C1AFFFF             lui $26, 65535
8984	8770  375AFFFF             ori $26, $26, 65535
8985	8774  03600011             mthi $27
8986	8778  0000D810             mfhi $27
8987	877C  AFBB0624             sw $27, 1572($29)
8988	8780  3C1BFFFF             lui $27, 65535
8989	8784  377BFFFF             ori $27, $27, 65535
8990	8788  03800011             mthi $28
8991	878C  0000E010             mfhi $28
8992	8790  AFBC0628             sw $28, 1576($29)
8993	8794  3C1CFFFF             lui $28, 65535
8994	8798  379CFFFF             ori $28, $28, 65535
8995	879C  03C00011             mthi $30
8996	87A0  0000F010             mfhi $30
8997	87A4  AFBE062C             sw $30, 1580($29)
8998	87A8  3C1EFFFF             lui $30, 65535
8999	87AC  37DEFFFF             ori $30, $30, 65535
9000	87B0  03E00008             jr $31
9001	                          
9002	                          hi_downward_0:
9003	87B4  00000011             mthi $0
9004	87B8  00000010             mfhi $0
9005	87BC  AFA00630             sw $0, 1584($29)
9006	87C0  3C000000             lui $0, 0
9007	87C4  34000000             ori $0, $0, 0
9008	87C8  00000011             mthi $0
9009	87CC  00000010             mfhi $0
9010	87D0  AFA00634             sw $0, 1588($29)
9011	87D4  03C00011             mthi $30
9012	87D8  0000F010             mfhi $30
9013	87DC  AFBE0638             sw $30, 1592($29)
9014	87E0  3C1E0000             lui $30, 0
9015	87E4  37DE0000             ori $30, $30, 0
9016	87E8  03C00011             mthi $30
9017	87EC  0000F010             mfhi $30
9018	87F0  AFBE063C             sw $30, 1596($29)
9019	87F4  03800011             mthi $28
9020	87F8  0000E010             mfhi $28
9021	87FC  AFBC0640             sw $28, 1600($29)
9022	8800  3C1C0000             lui $28, 0
9023	8804  379C0000             ori $28, $28, 0
9024	8808  03800011             mthi $28
9025	880C  0000E010             mfhi $28
9026	8810  AFBC0644             sw $28, 1604($29)
9027	8814  03600011             mthi $27
9028	8818  0000D810             mfhi $27
9029	881C  AFBB0648             sw $27, 1608($29)
9030	8820  3C1B0000             lui $27, 0
9031	8824  377B0000             ori $27, $27, 0
9032	8828  03600011             mthi $27
9033	882C  0000D810             mfhi $27
9034	8830  AFBB064C             sw $27, 1612($29)
9035	8834  03400011             mthi $26
9036	8838  0000D010             mfhi $26
9037	883C  AFBA0650             sw $26, 1616($29)
9038	8840  3C1A0000             lui $26, 0
9039	8844  375A0000             ori $26, $26, 0
9040	8848  03400011             mthi $26
9041	884C  0000D010             mfhi $26
9042	8850  AFBA0654             sw $26, 1620($29)
9043	8854  03200011             mthi $25
9044	8858  0000C810             mfhi $25
9045	885C  AFB90658             sw $25, 1624($29)
9046	8860  3C190000             lui $25, 0
9047	8864  37390000             ori $25, $25, 0
9048	8868  03200011             mthi $25
9049	886C  0000C810             mfhi $25
9050	8870  AFB9065C             sw $25, 1628($29)
9051	8874  03000011             mthi $24
9052	8878  0000C010             mfhi $24
9053	887C  AFB80660             sw $24, 1632($29)
9054	8880  3C180000             lui $24, 0
9055	8884  37180000             ori $24, $24, 0
9056	8888  03000011             mthi $24
9057	888C  0000C010             mfhi $24
9058	8890  AFB80664             sw $24, 1636($29)
9059	8894  02E00011             mthi $23
9060	8898  0000B810             mfhi $23
9061	889C  AFB70668             sw $23, 1640($29)
9062	88A0  3C170000             lui $23, 0
9063	88A4  36F70000             ori $23, $23, 0
9064	88A8  02E00011             mthi $23
9065	88AC  0000B810             mfhi $23
9066	88B0  AFB7066C             sw $23, 1644($29)
9067	88B4  02C00011             mthi $22
9068	88B8  0000B010             mfhi $22
9069	88BC  AFB60670             sw $22, 1648($29)
9070	88C0  3C160000             lui $22, 0
9071	88C4  36D60000             ori $22, $22, 0
9072	88C8  02C00011             mthi $22
9073	88CC  0000B010             mfhi $22
9074	88D0  AFB60674             sw $22, 1652($29)
9075	88D4  02A00011             mthi $21
9076	88D8  0000A810             mfhi $21
9077	88DC  AFB50678             sw $21, 1656($29)
9078	88E0  3C150000             lui $21, 0
9079	88E4  36B50000             ori $21, $21, 0
9080	88E8  02A00011             mthi $21
9081	88EC  0000A810             mfhi $21
9082	88F0  AFB5067C             sw $21, 1660($29)
9083	88F4  02800011             mthi $20
9084	88F8  0000A010             mfhi $20
9085	88FC  AFB40680             sw $20, 1664($29)
9086	8900  3C140000             lui $20, 0
9087	8904  36940000             ori $20, $20, 0
9088	8908  02800011             mthi $20
9089	890C  0000A010             mfhi $20
9090	8910  AFB40684             sw $20, 1668($29)
9091	8914  02600011             mthi $19
9092	8918  00009810             mfhi $19
9093	891C  AFB30688             sw $19, 1672($29)
9094	8920  3C130000             lui $19, 0
9095	8924  36730000             ori $19, $19, 0
9096	8928  02600011             mthi $19
9097	892C  00009810             mfhi $19
9098	8930  AFB3068C             sw $19, 1676($29)
9099	8934  02400011             mthi $18
9100	8938  00009010             mfhi $18
9101	893C  AFB20690             sw $18, 1680($29)
9102	8940  3C120000             lui $18, 0
9103	8944  36520000             ori $18, $18, 0
9104	8948  02400011             mthi $18
9105	894C  00009010             mfhi $18
9106	8950  AFB20694             sw $18, 1684($29)
9107	8954  02200011             mthi $17
9108	8958  00008810             mfhi $17
9109	895C  AFB10698             sw $17, 1688($29)
9110	8960  3C110000             lui $17, 0
9111	8964  36310000             ori $17, $17, 0
9112	8968  02200011             mthi $17
9113	896C  00008810             mfhi $17
9114	8970  AFB1069C             sw $17, 1692($29)
9115	8974  02000011             mthi $16
9116	8978  00008010             mfhi $16
9117	897C  AFB006A0             sw $16, 1696($29)
9118	8980  3C100000             lui $16, 0
9119	8984  36100000             ori $16, $16, 0
9120	8988  02000011             mthi $16
9121	898C  00008010             mfhi $16
9122	8990  AFB006A4             sw $16, 1700($29)
9123	8994  01E00011             mthi $15
9124	8998  00007810             mfhi $15
9125	899C  AFAF06A8             sw $15, 1704($29)
9126	89A0  3C0F0000             lui $15, 0
9127	89A4  35EF0000             ori $15, $15, 0
9128	89A8  01E00011             mthi $15
9129	89AC  00007810             mfhi $15
9130	89B0  AFAF06AC             sw $15, 1708($29)
9131	89B4  01C00011             mthi $14
9132	89B8  00007010             mfhi $14
9133	89BC  AFAE06B0             sw $14, 1712($29)
9134	89C0  3C0E0000             lui $14, 0
9135	89C4  35CE0000             ori $14, $14, 0
9136	89C8  01C00011             mthi $14
9137	89CC  00007010             mfhi $14
9138	89D0  AFAE06B4             sw $14, 1716($29)
9139	89D4  01A00011             mthi $13
9140	89D8  00006810             mfhi $13
9141	89DC  AFAD06B8             sw $13, 1720($29)
9142	89E0  3C0D0000             lui $13, 0
9143	89E4  35AD0000             ori $13, $13, 0
9144	89E8  01A00011             mthi $13
9145	89EC  00006810             mfhi $13
9146	89F0  AFAD06BC             sw $13, 1724($29)
9147	89F4  01800011             mthi $12
9148	89F8  00006010             mfhi $12
9149	89FC  AFAC06C0             sw $12, 1728($29)
9150	8A00  3C0C0000             lui $12, 0
9151	8A04  358C0000             ori $12, $12, 0
9152	8A08  01800011             mthi $12
9153	8A0C  00006010             mfhi $12
9154	8A10  AFAC06C4             sw $12, 1732($29)
9155	8A14  01600011             mthi $11
9156	8A18  00005810             mfhi $11
9157	8A1C  AFAB06C8             sw $11, 1736($29)
9158	8A20  3C0B0000             lui $11, 0
9159	8A24  356B0000             ori $11, $11, 0
9160	8A28  01600011             mthi $11
9161	8A2C  00005810             mfhi $11
9162	8A30  AFAB06CC             sw $11, 1740($29)
9163	8A34  01400011             mthi $10
9164	8A38  00005010             mfhi $10
9165	8A3C  AFAA06D0             sw $10, 1744($29)
9166	8A40  3C0A0000             lui $10, 0
9167	8A44  354A0000             ori $10, $10, 0
9168	8A48  01400011             mthi $10
9169	8A4C  00005010             mfhi $10
9170	8A50  AFAA06D4             sw $10, 1748($29)
9171	8A54  01200011             mthi $9
9172	8A58  00004810             mfhi $9
9173	8A5C  AFA906D8             sw $9, 1752($29)
9174	8A60  3C090000             lui $9, 0
9175	8A64  35290000             ori $9, $9, 0
9176	8A68  01200011             mthi $9
9177	8A6C  00004810             mfhi $9
9178	8A70  AFA906DC             sw $9, 1756($29)
9179	8A74  01000011             mthi $8
9180	8A78  00004010             mfhi $8
9181	8A7C  AFA806E0             sw $8, 1760($29)
9182	8A80  3C080000             lui $8, 0
9183	8A84  35080000             ori $8, $8, 0
9184	8A88  01000011             mthi $8
9185	8A8C  00004010             mfhi $8
9186	8A90  AFA806E4             sw $8, 1764($29)
9187	8A94  00E00011             mthi $7
9188	8A98  00003810             mfhi $7
9189	8A9C  AFA706E8             sw $7, 1768($29)
9190	8AA0  3C070000             lui $7, 0
9191	8AA4  34E70000             ori $7, $7, 0
9192	8AA8  00E00011             mthi $7
9193	8AAC  00003810             mfhi $7
9194	8AB0  AFA706EC             sw $7, 1772($29)
9195	8AB4  00C00011             mthi $6
9196	8AB8  00003010             mfhi $6
9197	8ABC  AFA606F0             sw $6, 1776($29)
9198	8AC0  3C060000             lui $6, 0
9199	8AC4  34C60000             ori $6, $6, 0
9200	8AC8  00C00011             mthi $6
9201	8ACC  00003010             mfhi $6
9202	8AD0  AFA606F4             sw $6, 1780($29)
9203	8AD4  00A00011             mthi $5
9204	8AD8  00002810             mfhi $5
9205	8ADC  AFA506F8             sw $5, 1784($29)
9206	8AE0  3C050000             lui $5, 0
9207	8AE4  34A50000             ori $5, $5, 0
9208	8AE8  00A00011             mthi $5
9209	8AEC  00002810             mfhi $5
9210	8AF0  AFA506FC             sw $5, 1788($29)
9211	8AF4  00800011             mthi $4
9212	8AF8  00002010             mfhi $4
9213	8AFC  AFA40700             sw $4, 1792($29)
9214	8B00  3C040000             lui $4, 0
9215	8B04  34840000             ori $4, $4, 0
9216	8B08  00800011             mthi $4
9217	8B0C  00002010             mfhi $4
9218	8B10  AFA40704             sw $4, 1796($29)
9219	8B14  00600011             mthi $3
9220	8B18  00001810             mfhi $3
9221	8B1C  AFA30708             sw $3, 1800($29)
9222	8B20  3C030000             lui $3, 0
9223	8B24  34630000             ori $3, $3, 0
9224	8B28  00600011             mthi $3
9225	8B2C  00001810             mfhi $3
9226	8B30  AFA3070C             sw $3, 1804($29)
9227	8B34  00400011             mthi $2
9228	8B38  00001010             mfhi $2
9229	8B3C  AFA20710             sw $2, 1808($29)
9230	8B40  3C020000             lui $2, 0
9231	8B44  34420000             ori $2, $2, 0
9232	8B48  00400011             mthi $2
9233	8B4C  00001010             mfhi $2
9234	8B50  AFA20714             sw $2, 1812($29)
9235	8B54  00200011             mthi $1
9236	8B58  00000810             mfhi $1
9237	8B5C  AFA10718             sw $1, 1816($29)
9238	8B60  3C010000             lui $1, 0
9239	8B64  34210000             ori $1, $1, 0
9240	8B68  00200011             mthi $1
9241	8B6C  00000810             mfhi $1
9242	8B70  AFA1071C             sw $1, 1820($29)
9243	8B74  03E00008             jr $31
9244	                          
9245	                          lo_upward_1:
9246	8B78  00000013             mtlo $0
9247	8B7C  00000012             mflo $0
9248	8B80  AFA00720             sw $0, 1824($29)
9249	8B84  3C00FFFF             lui $0, 65535
9250	8B88  3400FFFF             ori $0, $0, 65535
9251	8B8C  00200013             mtlo $1
9252	8B90  00000812             mflo $1
9253	8B94  AFA10724             sw $1, 1828($29)
9254	8B98  3C01FFFF             lui $1, 65535
9255	8B9C  3421FFFF             ori $1, $1, 65535
9256	8BA0  00400013             mtlo $2
9257	8BA4  00001012             mflo $2
9258	8BA8  AFA20728             sw $2, 1832($29)
9259	8BAC  3C02FFFF             lui $2, 65535
9260	8BB0  3442FFFF             ori $2, $2, 65535
9261	8BB4  00600013             mtlo $3
9262	8BB8  00001812             mflo $3
9263	8BBC  AFA3072C             sw $3, 1836($29)
9264	8BC0  3C03FFFF             lui $3, 65535
9265	8BC4  3463FFFF             ori $3, $3, 65535
9266	8BC8  00800013             mtlo $4
9267	8BCC  00002012             mflo $4
9268	8BD0  AFA40730             sw $4, 1840($29)
9269	8BD4  3C04FFFF             lui $4, 65535
9270	8BD8  3484FFFF             ori $4, $4, 65535
9271	8BDC  00A00013             mtlo $5
9272	8BE0  00002812             mflo $5
9273	8BE4  AFA50734             sw $5, 1844($29)
9274	8BE8  3C05FFFF             lui $5, 65535
9275	8BEC  34A5FFFF             ori $5, $5, 65535
9276	8BF0  00C00013             mtlo $6
9277	8BF4  00003012             mflo $6
9278	8BF8  AFA60738             sw $6, 1848($29)
9279	8BFC  3C06FFFF             lui $6, 65535
9280	8C00  34C6FFFF             ori $6, $6, 65535
9281	8C04  00E00013             mtlo $7
9282	8C08  00003812             mflo $7
9283	8C0C  AFA7073C             sw $7, 1852($29)
9284	8C10  3C07FFFF             lui $7, 65535
9285	8C14  34E7FFFF             ori $7, $7, 65535
9286	8C18  01000013             mtlo $8
9287	8C1C  00004012             mflo $8
9288	8C20  AFA80740             sw $8, 1856($29)
9289	8C24  3C08FFFF             lui $8, 65535
9290	8C28  3508FFFF             ori $8, $8, 65535
9291	8C2C  01200013             mtlo $9
9292	8C30  00004812             mflo $9
9293	8C34  AFA90744             sw $9, 1860($29)
9294	8C38  3C09FFFF             lui $9, 65535
9295	8C3C  3529FFFF             ori $9, $9, 65535
9296	8C40  01400013             mtlo $10
9297	8C44  00005012             mflo $10
9298	8C48  AFAA0748             sw $10, 1864($29)
9299	8C4C  3C0AFFFF             lui $10, 65535
9300	8C50  354AFFFF             ori $10, $10, 65535
9301	8C54  01600013             mtlo $11
9302	8C58  00005812             mflo $11
9303	8C5C  AFAB074C             sw $11, 1868($29)
9304	8C60  3C0BFFFF             lui $11, 65535
9305	8C64  356BFFFF             ori $11, $11, 65535
9306	8C68  01800013             mtlo $12
9307	8C6C  00006012             mflo $12
9308	8C70  AFAC0750             sw $12, 1872($29)
9309	8C74  3C0CFFFF             lui $12, 65535
9310	8C78  358CFFFF             ori $12, $12, 65535
9311	8C7C  01A00013             mtlo $13
9312	8C80  00006812             mflo $13
9313	8C84  AFAD0754             sw $13, 1876($29)
9314	8C88  3C0DFFFF             lui $13, 65535
9315	8C8C  35ADFFFF             ori $13, $13, 65535
9316	8C90  01C00013             mtlo $14
9317	8C94  00007012             mflo $14
9318	8C98  AFAE0758             sw $14, 1880($29)
9319	8C9C  3C0EFFFF             lui $14, 65535
9320	8CA0  35CEFFFF             ori $14, $14, 65535
9321	8CA4  01E00013             mtlo $15
9322	8CA8  00007812             mflo $15
9323	8CAC  AFAF075C             sw $15, 1884($29)
9324	8CB0  3C0FFFFF             lui $15, 65535
9325	8CB4  35EFFFFF             ori $15, $15, 65535
9326	8CB8  02000013             mtlo $16
9327	8CBC  00008012             mflo $16
9328	8CC0  AFB00760             sw $16, 1888($29)
9329	8CC4  3C10FFFF             lui $16, 65535
9330	8CC8  3610FFFF             ori $16, $16, 65535
9331	8CCC  02200013             mtlo $17
9332	8CD0  00008812             mflo $17
9333	8CD4  AFB10764             sw $17, 1892($29)
9334	8CD8  3C11FFFF             lui $17, 65535
9335	8CDC  3631FFFF             ori $17, $17, 65535
9336	8CE0  02400013             mtlo $18
9337	8CE4  00009012             mflo $18
9338	8CE8  AFB20768             sw $18, 1896($29)
9339	8CEC  3C12FFFF             lui $18, 65535
9340	8CF0  3652FFFF             ori $18, $18, 65535
9341	8CF4  02600013             mtlo $19
9342	8CF8  00009812             mflo $19
9343	8CFC  AFB3076C             sw $19, 1900($29)
9344	8D00  3C13FFFF             lui $19, 65535
9345	8D04  3673FFFF             ori $19, $19, 65535
9346	8D08  02800013             mtlo $20
9347	8D0C  0000A012             mflo $20
9348	8D10  AFB40770             sw $20, 1904($29)
9349	8D14  3C14FFFF             lui $20, 65535
9350	8D18  3694FFFF             ori $20, $20, 65535
9351	8D1C  02A00013             mtlo $21
9352	8D20  0000A812             mflo $21
9353	8D24  AFB50774             sw $21, 1908($29)
9354	8D28  3C15FFFF             lui $21, 65535
9355	8D2C  36B5FFFF             ori $21, $21, 65535
9356	8D30  02C00013             mtlo $22
9357	8D34  0000B012             mflo $22
9358	8D38  AFB60778             sw $22, 1912($29)
9359	8D3C  3C16FFFF             lui $22, 65535
9360	8D40  36D6FFFF             ori $22, $22, 65535
9361	8D44  02E00013             mtlo $23
9362	8D48  0000B812             mflo $23
9363	8D4C  AFB7077C             sw $23, 1916($29)
9364	8D50  3C17FFFF             lui $23, 65535
9365	8D54  36F7FFFF             ori $23, $23, 65535
9366	8D58  03000013             mtlo $24
9367	8D5C  0000C012             mflo $24
9368	8D60  AFB80780             sw $24, 1920($29)
9369	8D64  3C18FFFF             lui $24, 65535
9370	8D68  3718FFFF             ori $24, $24, 65535
9371	8D6C  03200013             mtlo $25
9372	8D70  0000C812             mflo $25
9373	8D74  AFB90784             sw $25, 1924($29)
9374	8D78  3C19FFFF             lui $25, 65535
9375	8D7C  3739FFFF             ori $25, $25, 65535
9376	8D80  03400013             mtlo $26
9377	8D84  0000D012             mflo $26
9378	8D88  AFBA0788             sw $26, 1928($29)
9379	8D8C  3C1AFFFF             lui $26, 65535
9380	8D90  375AFFFF             ori $26, $26, 65535
9381	8D94  03600013             mtlo $27
9382	8D98  0000D812             mflo $27
9383	8D9C  AFBB078C             sw $27, 1932($29)
9384	8DA0  3C1BFFFF             lui $27, 65535
9385	8DA4  377BFFFF             ori $27, $27, 65535
9386	8DA8  03800013             mtlo $28
9387	8DAC  0000E012             mflo $28
9388	8DB0  AFBC0790             sw $28, 1936($29)
9389	8DB4  3C1CFFFF             lui $28, 65535
9390	8DB8  379CFFFF             ori $28, $28, 65535
9391	8DBC  03C00013             mtlo $30
9392	8DC0  0000F012             mflo $30
9393	8DC4  AFBE0794             sw $30, 1940($29)
9394	8DC8  3C1EFFFF             lui $30, 65535
9395	8DCC  37DEFFFF             ori $30, $30, 65535
9396	8DD0  03E00008             jr $31
9397	                          
9398	                          lo_downward_0:
9399	8DD4  00000013             mtlo $0
9400	8DD8  00000012             mflo $0
9401	8DDC  AFA00798             sw $0, 1944($29)
9402	8DE0  3C000000             lui $0, 0
9403	8DE4  34000000             ori $0, $0, 0
9404	8DE8  00000013             mtlo $0
9405	8DEC  00000012             mflo $0
9406	8DF0  AFA0079C             sw $0, 1948($29)
9407	8DF4  03C00013             mtlo $30
9408	8DF8  0000F012             mflo $30
9409	8DFC  AFBE07A0             sw $30, 1952($29)
9410	8E00  3C1E0000             lui $30, 0
9411	8E04  37DE0000             ori $30, $30, 0
9412	8E08  03C00013             mtlo $30
9413	8E0C  0000F012             mflo $30
9414	8E10  AFBE07A4             sw $30, 1956($29)
9415	8E14  03800013             mtlo $28
9416	8E18  0000E012             mflo $28
9417	8E1C  AFBC07A8             sw $28, 1960($29)
9418	8E20  3C1C0000             lui $28, 0
9419	8E24  379C0000             ori $28, $28, 0
9420	8E28  03800013             mtlo $28
9421	8E2C  0000E012             mflo $28
9422	8E30  AFBC07AC             sw $28, 1964($29)
9423	8E34  03600013             mtlo $27
9424	8E38  0000D812             mflo $27
9425	8E3C  AFBB07B0             sw $27, 1968($29)
9426	8E40  3C1B0000             lui $27, 0
9427	8E44  377B0000             ori $27, $27, 0
9428	8E48  03600013             mtlo $27
9429	8E4C  0000D812             mflo $27
9430	8E50  AFBB07B4             sw $27, 1972($29)
9431	8E54  03400013             mtlo $26
9432	8E58  0000D012             mflo $26
9433	8E5C  AFBA07B8             sw $26, 1976($29)
9434	8E60  3C1A0000             lui $26, 0
9435	8E64  375A0000             ori $26, $26, 0
9436	8E68  03400013             mtlo $26
9437	8E6C  0000D012             mflo $26
9438	8E70  AFBA07BC             sw $26, 1980($29)
9439	8E74  03200013             mtlo $25
9440	8E78  0000C812             mflo $25
9441	8E7C  AFB907C0             sw $25, 1984($29)
9442	8E80  3C190000             lui $25, 0
9443	8E84  37390000             ori $25, $25, 0
9444	8E88  03200013             mtlo $25
9445	8E8C  0000C812             mflo $25
9446	8E90  AFB907C4             sw $25, 1988($29)
9447	8E94  03000013             mtlo $24
9448	8E98  0000C012             mflo $24
9449	8E9C  AFB807C8             sw $24, 1992($29)
9450	8EA0  3C180000             lui $24, 0
9451	8EA4  37180000             ori $24, $24, 0
9452	8EA8  03000013             mtlo $24
9453	8EAC  0000C012             mflo $24
9454	8EB0  AFB807CC             sw $24, 1996($29)
9455	8EB4  02E00013             mtlo $23
9456	8EB8  0000B812             mflo $23
9457	8EBC  AFB707D0             sw $23, 2000($29)
9458	8EC0  3C170000             lui $23, 0
9459	8EC4  36F70000             ori $23, $23, 0
9460	8EC8  02E00013             mtlo $23
9461	8ECC  0000B812             mflo $23
9462	8ED0  AFB707D4             sw $23, 2004($29)
9463	8ED4  02C00013             mtlo $22
9464	8ED8  0000B012             mflo $22
9465	8EDC  AFB607D8             sw $22, 2008($29)
9466	8EE0  3C160000             lui $22, 0
9467	8EE4  36D60000             ori $22, $22, 0
9468	8EE8  02C00013             mtlo $22
9469	8EEC  0000B012             mflo $22
9470	8EF0  AFB607DC             sw $22, 2012($29)
9471	8EF4  02A00013             mtlo $21
9472	8EF8  0000A812             mflo $21
9473	8EFC  AFB507E0             sw $21, 2016($29)
9474	8F00  3C150000             lui $21, 0
9475	8F04  36B50000             ori $21, $21, 0
9476	8F08  02A00013             mtlo $21
9477	8F0C  0000A812             mflo $21
9478	8F10  AFB507E4             sw $21, 2020($29)
9479	8F14  02800013             mtlo $20
9480	8F18  0000A012             mflo $20
9481	8F1C  AFB407E8             sw $20, 2024($29)
9482	8F20  3C140000             lui $20, 0
9483	8F24  36940000             ori $20, $20, 0
9484	8F28  02800013             mtlo $20
9485	8F2C  0000A012             mflo $20
9486	8F30  AFB407EC             sw $20, 2028($29)
9487	8F34  02600013             mtlo $19
9488	8F38  00009812             mflo $19
9489	8F3C  AFB307F0             sw $19, 2032($29)
9490	8F40  3C130000             lui $19, 0
9491	8F44  36730000             ori $19, $19, 0
9492	8F48  02600013             mtlo $19
9493	8F4C  00009812             mflo $19
9494	8F50  AFB307F4             sw $19, 2036($29)
9495	8F54  02400013             mtlo $18
9496	8F58  00009012             mflo $18
9497	8F5C  AFB207F8             sw $18, 2040($29)
9498	8F60  3C120000             lui $18, 0
9499	8F64  36520000             ori $18, $18, 0
9500	8F68  02400013             mtlo $18
9501	8F6C  00009012             mflo $18
9502	8F70  AFB207FC             sw $18, 2044($29)
9503	8F74  02200013             mtlo $17
9504	8F78  00008812             mflo $17
9505	8F7C  AFB10800             sw $17, 2048($29)
9506	8F80  3C110000             lui $17, 0
9507	8F84  36310000             ori $17, $17, 0
9508	8F88  02200013             mtlo $17
9509	8F8C  00008812             mflo $17
9510	8F90  AFB10804             sw $17, 2052($29)
9511	8F94  02000013             mtlo $16
9512	8F98  00008012             mflo $16
9513	8F9C  AFB00808             sw $16, 2056($29)
9514	8FA0  3C100000             lui $16, 0
9515	8FA4  36100000             ori $16, $16, 0
9516	8FA8  02000013             mtlo $16
9517	8FAC  00008012             mflo $16
9518	8FB0  AFB0080C             sw $16, 2060($29)
9519	8FB4  01E00013             mtlo $15
9520	8FB8  00007812             mflo $15
9521	8FBC  AFAF0810             sw $15, 2064($29)
9522	8FC0  3C0F0000             lui $15, 0
9523	8FC4  35EF0000             ori $15, $15, 0
9524	8FC8  01E00013             mtlo $15
9525	8FCC  00007812             mflo $15
9526	8FD0  AFAF0814             sw $15, 2068($29)
9527	8FD4  01C00013             mtlo $14
9528	8FD8  00007012             mflo $14
9529	8FDC  AFAE0818             sw $14, 2072($29)
9530	8FE0  3C0E0000             lui $14, 0
9531	8FE4  35CE0000             ori $14, $14, 0
9532	8FE8  01C00013             mtlo $14
9533	8FEC  00007012             mflo $14
9534	8FF0  AFAE081C             sw $14, 2076($29)
9535	8FF4  01A00013             mtlo $13
9536	8FF8  00006812             mflo $13
9537	8FFC  AFAD0820             sw $13, 2080($29)
9538	9000  3C0D0000             lui $13, 0
9539	9004  35AD0000             ori $13, $13, 0
9540	9008  01A00013             mtlo $13
9541	900C  00006812             mflo $13
9542	9010  AFAD0824             sw $13, 2084($29)
9543	9014  01800013             mtlo $12
9544	9018  00006012             mflo $12
9545	901C  AFAC0828             sw $12, 2088($29)
9546	9020  3C0C0000             lui $12, 0
9547	9024  358C0000             ori $12, $12, 0
9548	9028  01800013             mtlo $12
9549	902C  00006012             mflo $12
9550	9030  AFAC082C             sw $12, 2092($29)
9551	9034  01600013             mtlo $11
9552	9038  00005812             mflo $11
9553	903C  AFAB0830             sw $11, 2096($29)
9554	9040  3C0B0000             lui $11, 0
9555	9044  356B0000             ori $11, $11, 0
9556	9048  01600013             mtlo $11
9557	904C  00005812             mflo $11
9558	9050  AFAB0834             sw $11, 2100($29)
9559	9054  01400013             mtlo $10
9560	9058  00005012             mflo $10
9561	905C  AFAA0838             sw $10, 2104($29)
9562	9060  3C0A0000             lui $10, 0
9563	9064  354A0000             ori $10, $10, 0
9564	9068  01400013             mtlo $10
9565	906C  00005012             mflo $10
9566	9070  AFAA083C             sw $10, 2108($29)
9567	9074  01200013             mtlo $9
9568	9078  00004812             mflo $9
9569	907C  AFA90840             sw $9, 2112($29)
9570	9080  3C090000             lui $9, 0
9571	9084  35290000             ori $9, $9, 0
9572	9088  01200013             mtlo $9
9573	908C  00004812             mflo $9
9574	9090  AFA90844             sw $9, 2116($29)
9575	9094  01000013             mtlo $8
9576	9098  00004012             mflo $8
9577	909C  AFA80848             sw $8, 2120($29)
9578	90A0  3C080000             lui $8, 0
9579	90A4  35080000             ori $8, $8, 0
9580	90A8  01000013             mtlo $8
9581	90AC  00004012             mflo $8
9582	90B0  AFA8084C             sw $8, 2124($29)
9583	90B4  00E00013             mtlo $7
9584	90B8  00003812             mflo $7
9585	90BC  AFA70850             sw $7, 2128($29)
9586	90C0  3C070000             lui $7, 0
9587	90C4  34E70000             ori $7, $7, 0
9588	90C8  00E00013             mtlo $7
9589	90CC  00003812             mflo $7
9590	90D0  AFA70854             sw $7, 2132($29)
9591	90D4  00C00013             mtlo $6
9592	90D8  00003012             mflo $6
9593	90DC  AFA60858             sw $6, 2136($29)
9594	90E0  3C060000             lui $6, 0
9595	90E4  34C60000             ori $6, $6, 0
9596	90E8  00C00013             mtlo $6
9597	90EC  00003012             mflo $6
9598	90F0  AFA6085C             sw $6, 2140($29)
9599	90F4  00A00013             mtlo $5
9600	90F8  00002812             mflo $5
9601	90FC  AFA50860             sw $5, 2144($29)
9602	9100  3C050000             lui $5, 0
9603	9104  34A50000             ori $5, $5, 0
9604	9108  00A00013             mtlo $5
9605	910C  00002812             mflo $5
9606	9110  AFA50864             sw $5, 2148($29)
9607	9114  00800013             mtlo $4
9608	9118  00002012             mflo $4
9609	911C  AFA40868             sw $4, 2152($29)
9610	9120  3C040000             lui $4, 0
9611	9124  34840000             ori $4, $4, 0
9612	9128  00800013             mtlo $4
9613	912C  00002012             mflo $4
9614	9130  AFA4086C             sw $4, 2156($29)
9615	9134  00600013             mtlo $3
9616	9138  00001812             mflo $3
9617	913C  AFA30870             sw $3, 2160($29)
9618	9140  3C030000             lui $3, 0
9619	9144  34630000             ori $3, $3, 0
9620	9148  00600013             mtlo $3
9621	914C  00001812             mflo $3
9622	9150  AFA30874             sw $3, 2164($29)
9623	9154  00400013             mtlo $2
9624	9158  00001012             mflo $2
9625	915C  AFA20878             sw $2, 2168($29)
9626	9160  3C020000             lui $2, 0
9627	9164  34420000             ori $2, $2, 0
9628	9168  00400013             mtlo $2
9629	916C  00001012             mflo $2
9630	9170  AFA2087C             sw $2, 2172($29)
9631	9174  00200013             mtlo $1
9632	9178  00000812             mflo $1
9633	917C  AFA10880             sw $1, 2176($29)
9634	9180  3C010000             lui $1, 0
9635	9184  34210000             ori $1, $1, 0
9636	9188  00200013             mtlo $1
9637	918C  00000812             mflo $1
9638	9190  AFA10884             sw $1, 2180($29)
9639	9194  03E00008             jr $31
9640	                          
9641	                          ;..........memory_initialization..........;
9642	                          init_patterns:
9643	9198  3C089E35             lui $8, 40501
9644	919C  35080588             ori $8, $8, 1416
9645	91A0  AFC80000             sw $8, 0($30)
9646	91A4  3C097ADB             lui $9, 31451
9647	91A8  3529C9F5             ori $9, $9, 51701
9648	91AC  AFC90004             sw $9, 4($30)
9649	91B0  3C0A538F             lui $10, 21391
9650	91B4  354A1A25             ori $10, $10, 6693
9651	91B8  AFCA0008             sw $10, 8($30)
9652	91BC  3C0BE404             lui $11, 58372
9653	91C0  356B3471             ori $11, $11, 13425
9654	91C4  AFCB000C             sw $11, 12($30)
9655	91C8  3C0CA1FD             lui $12, 41469
9656	91CC  358CC9BC             ori $12, $12, 51644
9657	91D0  AFCC0010             sw $12, 16($30)
9658	91D4  3C0D6F54             lui $13, 28500
9659	91D8  35AD10BD             ori $13, $13, 4285
9660	91DC  AFCD0014             sw $13, 20($30)
9661	91E0  3C0EC079             lui $14, 49273
9662	91E4  35CEFADF             ori $14, $14, 64223
9663	91E8  AFCE0018             sw $14, 24($30)
9664	91EC  3C0FC301             lui $15, 49921
9665	91F0  35EFB496             ori $15, $15, 46230
9666	91F4  AFCF001C             sw $15, 28($30)
9667	91F8  3C08CC5E             lui $8, 52318
9668	91FC  3508732E             ori $8, $8, 29486
9669	9200  AFC80020             sw $8, 32($30)
9670	9204  3C0906F1             lui $9, 1777
9671	9208  35295773             ori $9, $9, 22387
9672	920C  AFC90024             sw $9, 36($30)
9673	9210  3C0A7B1B             lui $10, 31515
9674	9214  354A94C0             ori $10, $10, 38080
9675	9218  AFCA0028             sw $10, 40($30)
9676	921C  3C0B6411             lui $11, 25617
9677	9220  356B496F             ori $11, $11, 18799
9678	9224  AFCB002C             sw $11, 44($30)
9679	9228  3C0CA212             lui $12, 41490
9680	922C  358C7B62             ori $12, $12, 31586
9681	9230  AFCC0030             sw $12, 48($30)
9682	9234  3C0DB0BB             lui $13, 45243
9683	9238  35ADC2E1             ori $13, $13, 49889
9684	923C  AFCD0034             sw $13, 52($30)
9685	9240  3C0EAA71             lui $14, 43633
9686	9244  35CEBF37             ori $14, $14, 48951
9687	9248  AFCE0038             sw $14, 56($30)
9688	924C  3C0F5641             lui $15, 22081
9689	9250  35EF8CB7             ori $15, $15, 36023
9690	9254  AFCF003C             sw $15, 60($30)
9691	9258  3C0877F7             lui $8, 30711
9692	925C  35087F7A             ori $8, $8, 32634
9693	9260  AFC80040             sw $8, 64($30)
9694	9264  3C09BF8E             lui $9, 49038
9695	9268  3529356A             ori $9, $9, 13674
9696	926C  AFC90044             sw $9, 68($30)
9697	9270  3C0A7665             lui $10, 30309
9698	9274  354A003F             ori $10, $10, 63
9699	9278  AFCA0048             sw $10, 72($30)
9700	927C  3C0B00A0             lui $11, 160
9701	9280  356BEEC1             ori $11, $11, 61121
9702	9284  AFCB004C             sw $11, 76($30)
9703	9288  3C0C1B9A             lui $12, 7066
9704	928C  358C7178             ori $12, $12, 29048
9705	9290  AFCC0050             sw $12, 80($30)
9706	9294  3C0D2633             lui $13, 9779
9707	9298  35AD24B1             ori $13, $13, 9393
9708	929C  AFCD0054             sw $13, 84($30)
9709	92A0  3C0E59CE             lui $14, 22990
9710	92A4  35CE2847             ori $14, $14, 10311
9711	92A8  AFCE0058             sw $14, 88($30)
9712	92AC  3C0F88C0             lui $15, 35008
9713	92B0  35EF2838             ori $15, $15, 10296
9714	92B4  AFCF005C             sw $15, 92($30)
9715	92B8  3C08D5DF             lui $8, 54751
9716	92BC  3508DF1F             ori $8, $8, 57119
9717	92C0  AFC80060             sw $8, 96($30)
9718	92C4  3C0976E1             lui $9, 30433
9719	92C8  35295531             ori $9, $9, 21809
9720	92CC  AFC90064             sw $9, 100($30)
9721	92D0  3C0A0B16             lui $10, 2838
9722	92D4  354A73DD             ori $10, $10, 29661
9723	92D8  AFCA0068             sw $10, 104($30)
9724	92DC  3C0BFA87             lui $11, 64135
9725	92E0  356B20C3             ori $11, $11, 8387
9726	92E4  AFCB006C             sw $11, 108($30)
9727	92E8  3C0C5424             lui $12, 21540
9728	92EC  358CFEE6             ori $12, $12, 65254
9729	92F0  AFCC0070             sw $12, 112($30)
9730	92F4  3C0DBC04             lui $13, 48132
9731	92F8  35AD7CDD             ori $13, $13, 31965
9732	92FC  AFCD0074             sw $13, 116($30)
9733	9300  3C0E2102             lui $14, 8450
9734	9304  35CE01D2             ori $14, $14, 466
9735	9308  AFCE0078             sw $14, 120($30)
9736	930C  3C0FF437             lui $15, 62519
9737	9310  35EF766A             ori $15, $15, 30314
9738	9314  AFCF007C             sw $15, 124($30)
9739	9318  3C0824EF             lui $8, 9455
9740	931C  35080321             ori $8, $8, 801
9741	9320  AFC80080             sw $8, 128($30)
9742	9324  3C090D00             lui $9, 3328
9743	9328  3529E5EC             ori $9, $9, 58860
9744	932C  AFC90084             sw $9, 132($30)
9745	9330  3C0AF3F9             lui $10, 62457
9746	9334  354AB2CF             ori $10, $10, 45775
9747	9338  AFCA0088             sw $10, 136($30)
9748	933C  3C0BEFAB             lui $11, 61355
9749	9340  356BFD41             ori $11, $11, 64833
9750	9344  AFCB008C             sw $11, 140($30)
9751	9348  3C0CEA9A             lui $12, 60058
9752	934C  358C781F             ori $12, $12, 30751
9753	9350  AFCC0090             sw $12, 144($30)
9754	9354  3C0D89FA             lui $13, 35322
9755	9358  35AD0238             ori $13, $13, 568
9756	935C  AFCD0094             sw $13, 148($30)
9757	9360  3C0E7F57             lui $14, 32599
9758	9364  35CE2F59             ori $14, $14, 12121
9759	9368  AFCE0098             sw $14, 152($30)
9760	936C  3C0F9F58             lui $15, 40792
9761	9370  35EFC8FE             ori $15, $15, 51454
9762	9374  AFCF009C             sw $15, 156($30)
9763	9378  3C0808DB             lui $8, 2267
9764	937C  35088620             ori $8, $8, 34336
9765	9380  AFC800A0             sw $8, 160($30)
9766	9384  3C09BD2F             lui $9, 48431
9767	9388  35297FCF             ori $9, $9, 32719
9768	938C  AFC900A4             sw $9, 164($30)
9769	9390  3C0A617A             lui $10, 24954
9770	9394  354A4C7C             ori $10, $10, 19580
9771	9398  AFCA00A8             sw $10, 168($30)
9772	939C  3C0B8184             lui $11, 33156
9773	93A0  356B4CC2             ori $11, $11, 19650
9774	93A4  AFCB00AC             sw $11, 172($30)
9775	93A8  3C0CA421             lui $12, 42017
9776	93AC  358C1E8E             ori $12, $12, 7822
9777	93B0  AFCC00B0             sw $12, 176($30)
9778	93B4  3C0D9B1F             lui $13, 39711
9779	93B8  35ADA8D0             ori $13, $13, 43216
9780	93BC  AFCD00B4             sw $13, 180($30)
9781	93C0  3C0E7B7A             lui $14, 31610
9782	93C4  35CE539C             ori $14, $14, 21404
9783	93C8  AFCE00B8             sw $14, 184($30)
9784	93CC  3C0F3CDA             lui $15, 15578
9785	93D0  35EF8748             ori $15, $15, 34632
9786	93D4  AFCF00BC             sw $15, 188($30)
9787	93D8  3C08C2F3             lui $8, 49907
9788	93DC  350837EE             ori $8, $8, 14318
9789	93E0  AFC800C0             sw $8, 192($30)
9790	93E4  3C0913B1             lui $9, 5041
9791	93E8  3529999C             ori $9, $9, 39324
9792	93EC  AFC900C4             sw $9, 196($30)
9793	93F0  3C0A492E             lui $10, 18734
9794	93F4  354A1559             ori $10, $10, 5465
9795	93F8  AFCA00C8             sw $10, 200($30)
9796	93FC  3C0B7DC3             lui $11, 32195
9797	9400  356BD796             ori $11, $11, 55190
9798	9404  AFCB00CC             sw $11, 204($30)
9799	9408  3C0C630F             lui $12, 25359
9800	940C  358C88A4             ori $12, $12, 34980
9801	9410  AFCC00D0             sw $12, 208($30)
9802	9414  3C0D4A1D             lui $13, 18973
9803	9418  35ADCC26             ori $13, $13, 52262
9804	941C  AFCD00D4             sw $13, 212($30)
9805	9420  3C0E69BD             lui $14, 27069
9806	9424  35CE4BF1             ori $14, $14, 19441
9807	9428  AFCE00D8             sw $14, 216($30)
9808	942C  3C0FF539             lui $15, 62777
9809	9430  35EF4B2C             ori $15, $15, 19244
9810	9434  AFCF00DC             sw $15, 220($30)
9811	9438  3C08E66F             lui $8, 58991
9812	943C  35089FFF             ori $8, $8, 40959
9813	9440  AFC800E0             sw $8, 224($30)
9814	9444  3C093A52             lui $9, 14930
9815	9448  3529B336             ori $9, $9, 45878
9816	944C  AFC900E4             sw $9, 228($30)
9817	9450  3C0A6E36             lui $10, 28214
9818	9454  354AE63B             ori $10, $10, 58939
9819	9458  AFCA00E8             sw $10, 232($30)
9820	945C  3C0BA54A             lui $11, 42314
9821	9460  356B2A22             ori $11, $11, 10786
9822	9464  AFCB00EC             sw $11, 236($30)
9823	9468  3C0C5DE3             lui $12, 24035
9824	946C  358CC87D             ori $12, $12, 51325
9825	9470  AFCC00F0             sw $12, 240($30)
9826	9474  3C0DFAFF             lui $13, 64255
9827	9478  35AD57D7             ori $13, $13, 22487
9828	947C  AFCD00F4             sw $13, 244($30)
9829	9480  3C0EF5EE             lui $14, 62958
9830	9484  35CECBB9             ori $14, $14, 52153
9831	9488  AFCE00F8             sw $14, 248($30)
9832	948C  3C0F23DA             lui $15, 9178
9833	9490  35EF9FFE             ori $15, $15, 40958
9834	9494  AFCF00FC             sw $15, 252($30)
9835	9498  3C08C674             lui $8, 50804
9836	949C  3508B7A1             ori $8, $8, 47009
9837	94A0  AFC80100             sw $8, 256($30)
9838	94A4  3C09DEC6             lui $9, 57030
9839	94A8  352938A4             ori $9, $9, 14500
9840	94AC  AFC90104             sw $9, 260($30)
9841	94B0  3C0A320C             lui $10, 12812
9842	94B4  354A3E08             ori $10, $10, 15880
9843	94B8  AFCA0108             sw $10, 264($30)
9844	94BC  3C0B5FF3             lui $11, 24563
9845	94C0  356B69E2             ori $11, $11, 27106
9846	94C4  AFCB010C             sw $11, 268($30)
9847	94C8  3C0C444A             lui $12, 17482
9848	94CC  358CD9E0             ori $12, $12, 55776
9849	94D0  AFCC0110             sw $12, 272($30)
9850	94D4  3C0D9AEC             lui $13, 39660
9851	94D8  35AD481D             ori $13, $13, 18461
9852	94DC  AFCD0114             sw $13, 276($30)
9853	94E0  3C0E92CC             lui $14, 37580
9854	94E4  35CEA7AB             ori $14, $14, 42923
9855	94E8  AFCE0118             sw $14, 280($30)
9856	94EC  3C0F2F48             lui $15, 12104
9857	94F0  35EF4987             ori $15, $15, 18823
9858	94F4  AFCF011C             sw $15, 284($30)
9859	94F8  3C08CA01             lui $8, 51713
9860	94FC  35081305             ori $8, $8, 4869
9861	9500  AFC80120             sw $8, 288($30)
9862	9504  3C090400             lui $9, 1024
9863	9508  35297A49             ori $9, $9, 31305
9864	950C  AFC90124             sw $9, 292($30)
9865	9510  3C0A7AED             lui $10, 31469
9866	9514  354ABC3C             ori $10, $10, 48188
9867	9518  AFCA0128             sw $10, 296($30)
9868	951C  3C0B040C             lui $11, 1036
9869	9520  356BAF83             ori $11, $11, 44931
9870	9524  AFCB012C             sw $11, 300($30)
9871	9528  3C0CD049             lui $12, 53321
9872	952C  358C3BE2             ori $12, $12, 15330
9873	9530  AFCC0130             sw $12, 304($30)
9874	9534  3C0D6BB4             lui $13, 27572
9875	9538  35ADA2DF             ori $13, $13, 41695
9876	953C  AFCD0134             sw $13, 308($30)
9877	9540  3C0E360F             lui $14, 13839
9878	9544  35CE5FD4             ori $14, $14, 24532
9879	9548  AFCE0138             sw $14, 312($30)
9880	954C  3C0F44C0             lui $15, 17600
9881	9550  35EF02AD             ori $15, $15, 685
9882	9554  AFCF013C             sw $15, 316($30)
9883	9558  3C085A73             lui $8, 23155
9884	955C  3508B333             ori $8, $8, 45875
9885	9560  AFC80140             sw $8, 320($30)
9886	9564  3C09A601             lui $9, 42497
9887	9568  35295D70             ori $9, $9, 23920
9888	956C  AFC90144             sw $9, 324($30)
9889	9570  3C0A0030             lui $10, 48
9890	9574  354AD5C7             ori $10, $10, 54727
9891	9578  AFCA0148             sw $10, 328($30)
9892	957C  3C0B8030             lui $11, 32816
9893	9580  356B7410             ori $11, $11, 29712
9894	9584  AFCB014C             sw $11, 332($30)
9895	9588  3C0C1E54             lui $12, 7764
9896	958C  358C4D36             ori $12, $12, 19766
9897	9590  AFCC0150             sw $12, 336($30)
9898	9594  3C0DF688             lui $13, 63112
9899	9598  35ADD17E             ori $13, $13, 53630
9900	959C  AFCD0154             sw $13, 340($30)
9901	95A0  3C0E6A0E             lui $14, 27150
9902	95A4  35CEEC25             ori $14, $14, 60453
9903	95A8  AFCE0158             sw $14, 344($30)
9904	95AC  3C0FC774             lui $15, 51060
9905	95B0  35EFAB28             ori $15, $15, 43816
9906	95B4  AFCF015C             sw $15, 348($30)
9907	95B8  3C088467             lui $8, 33895
9908	95BC  3508459B             ori $8, $8, 17819
9909	95C0  AFC80160             sw $8, 352($30)
9910	95C4  3C099458             lui $9, 37976
9911	95C8  3529A1AF             ori $9, $9, 41391
9912	95CC  AFC90164             sw $9, 356($30)
9913	95D0  3C0AD3DA             lui $10, 54234
9914	95D4  354A60C3             ori $10, $10, 24771
9915	95D8  AFCA0168             sw $10, 360($30)
9916	95DC  3C0BA915             lui $11, 43285
9917	95E0  356B1A1F             ori $11, $11, 6687
9918	95E4  AFCB016C             sw $11, 364($30)
9919	95E8  3C0C3345             lui $12, 13125
9920	95EC  358C8640             ori $12, $12, 34368
9921	95F0  AFCC0170             sw $12, 368($30)
9922	95F4  3C0D6BF0             lui $13, 27632
9923	95F8  35AD2369             ori $13, $13, 9065
9924	95FC  AFCD0174             sw $13, 372($30)
9925	9600  3C0E7396             lui $14, 29590
9926	9604  35CE77E7             ori $14, $14, 30695
9927	9608  AFCE0178             sw $14, 376($30)
9928	960C  3C0F617B             lui $15, 24955
9929	9610  35EFAFBE             ori $15, $15, 44990
9930	9614  AFCF017C             sw $15, 380($30)
9931	9618  3C08B17F             lui $8, 45439
9932	961C  35082CD7             ori $8, $8, 11479
9933	9620  AFC80180             sw $8, 384($30)
9934	9624  3C091E66             lui $9, 7782
9935	9628  35296877             ori $9, $9, 26743
9936	962C  AFC90184             sw $9, 388($30)
9937	9630  3C0A8F34             lui $10, 36660
9938	9634  354A2083             ori $10, $10, 8323
9939	9638  AFCA0188             sw $10, 392($30)
9940	963C  3C0B427E             lui $11, 17022
9941	9640  356BFBA0             ori $11, $11, 64416
9942	9644  AFCB018C             sw $11, 396($30)
9943	9648  3C0C366C             lui $12, 13932
9944	964C  358C3540             ori $12, $12, 13632
9945	9650  AFCC0190             sw $12, 400($30)
9946	9654  3C0DD154             lui $13, 53588
9947	9658  35ADCFF9             ori $13, $13, 53241
9948	965C  AFCD0194             sw $13, 404($30)
9949	9660  3C0EEC54             lui $14, 60500
9950	9664  35CEF3BF             ori $14, $14, 62399
9951	9668  AFCE0198             sw $14, 408($30)
9952	966C  3C0FEFBF             lui $15, 61375
9953	9670  35EFB14E             ori $15, $15, 45390
9954	9674  AFCF019C             sw $15, 412($30)
9955	9678  3C08D6FF             lui $8, 55039
9956	967C  350859FC             ori $8, $8, 23036
9957	9680  AFC801A0             sw $8, 416($30)
9958	9684  3C091136             lui $9, 4406
9959	9688  35298ACC             ori $9, $9, 35532
9960	968C  AFC901A4             sw $9, 420($30)
9961	9690  3C0A3904             lui $10, 14596
9962	9694  354AD35F             ori $10, $10, 54111
9963	9698  AFCA01A8             sw $10, 424($30)
9964	969C  3C0B3601             lui $11, 13825
9965	96A0  356B0159             ori $11, $11, 345
9966	96A4  AFCB01AC             sw $11, 428($30)
9967	96A8  3C0CAA39             lui $12, 43577
9968	96AC  358CE3CD             ori $12, $12, 58317
9969	96B0  AFCC01B0             sw $12, 432($30)
9970	96B4  3C0DC052             lui $13, 49234
9971	96B8  35AD5882             ori $13, $13, 22658
9972	96BC  AFCD01B4             sw $13, 436($30)
9973	96C0  3C0EE47B             lui $14, 58491
9974	96C4  35CE892D             ori $14, $14, 35117
9975	96C8  AFCE01B8             sw $14, 440($30)
9976	96CC  3C0F93AD             lui $15, 37805
9977	96D0  35EF1EC8             ori $15, $15, 7880
9978	96D4  AFCF01BC             sw $15, 444($30)
9979	96D8  3C080C00             lui $8, 3072
9980	96DC  3508D4D5             ori $8, $8, 54485
9981	96E0  AFC801C0             sw $8, 448($30)
9982	96E4  3C09ADB9             lui $9, 44473
9983	96E8  3529D51C             ori $9, $9, 54556
9984	96EC  AFC901C4             sw $9, 452($30)
9985	96F0  3C0AF40D             lui $10, 62477
9986	96F4  354AFD03             ori $10, $10, 64771
9987	96F8  AFCA01C8             sw $10, 456($30)
9988	96FC  3C0B2A32             lui $11, 10802
9989	9700  356BC4E8             ori $11, $11, 50408
9990	9704  AFCB01CC             sw $11, 460($30)
9991	9708  3C0C934A             lui $12, 37706
9992	970C  358CB64F             ori $12, $12, 46671
9993	9710  AFCC01D0             sw $12, 464($30)
9994	9714  3C0DAC4B             lui $13, 44107
9995	9718  35AD5CB0             ori $13, $13, 23728
9996	971C  AFCD01D4             sw $13, 468($30)
9997	9720  3C0EFCF0             lui $14, 64752
9998	9724  35CE96DF             ori $14, $14, 38623
9999	9728  AFCE01D8             sw $14, 472($30)
10000	972C  3C0FFA4D             lui $15, 64077
10001	9730  35EF06C5             ori $15, $15, 1733
10002	9734  AFCF01DC             sw $15, 476($30)
10003	9738  3C08DD04             lui $8, 56580
10004	973C  3508919A             ori $8, $8, 37274
10005	9740  AFC801E0             sw $8, 480($30)
10006	9744  3C09A2FB             lui $9, 41723
10007	9748  352987AA             ori $9, $9, 34730
10008	974C  AFC901E4             sw $9, 484($30)
10009	9750  3C0A4F66             lui $10, 20326
10010	9754  354A0934             ori $10, $10, 2356
10011	9758  AFCA01E8             sw $10, 488($30)
10012	975C  3C0B1DFD             lui $11, 7677
10013	9760  356BFAC3             ori $11, $11, 64195
10014	9764  AFCB01EC             sw $11, 492($30)
10015	9768  3C0CBB04             lui $12, 47876
10016	976C  358CDB2B             ori $12, $12, 56107
10017	9770  AFCC01F0             sw $12, 496($30)
10018	9774  3C0DFA6D             lui $13, 64109
10019	9778  35ADDB2C             ori $13, $13, 56108
10020	977C  AFCD01F4             sw $13, 500($30)
10021	9780  3C0EFB7C             lui $14, 64380
10022	9784  35CE3AE7             ori $14, $14, 15079
10023	9788  AFCE01F8             sw $14, 504($30)
10024	978C  3C0F049E             lui $15, 1182
10025	9790  35EFFC93             ori $15, $15, 64659
10026	9794  AFCF01FC             sw $15, 508($30)
10027	9798  03E00008             jr $31
10028	                          
10029	                          load_branch:
10030	979C  8FCF0200             lw $15, 512($30)
10031	97A0  8FD00204             lw $16, 516($30)
10032	97A4  03E00008             jr $31
10033	                          
10034	                          ;..........branch_memory_initialization..........;
10035	                          init_branch:
10036	97A8  3C08FFFF             lui $8, 65535
10037	97AC  3508FFFF             ori $8, $8, 65535
10038	97B0  AFC80200             sw $8, 512($30)
10039	97B4  3C09FFFF             lui $9, 65535
10040	97B8  3529FFFF             ori $9, $9, 65535
10041	97BC  AFC90204             sw $9, 516($30)
10042	97C0  3C0A7FFF             lui $10, 32767
10043	97C4  354AFFFF             ori $10, $10, 65535
10044	97C8  AFCA0208             sw $10, 520($30)
10045	97CC  3C0BFFFF             lui $11, 65535
10046	97D0  356BFFFF             ori $11, $11, 65535
10047	97D4  AFCB020C             sw $11, 524($30)
10048	97D8  3C0CBFFF             lui $12, 49151
10049	97DC  358CFFFF             ori $12, $12, 65535
10050	97E0  AFCC0210             sw $12, 528($30)
10051	97E4  3C0DFFFF             lui $13, 65535
10052	97E8  35ADFFFF             ori $13, $13, 65535
10053	97EC  AFCD0214             sw $13, 532($30)
10054	97F0  3C0EDFFF             lui $14, 57343
10055	97F4  35CEFFFF             ori $14, $14, 65535
10056	97F8  AFCE0218             sw $14, 536($30)
10057	97FC  3C0FFFFF             lui $15, 65535
10058	9800  35EFFFFF             ori $15, $15, 65535
10059	9804  AFCF021C             sw $15, 540($30)
10060	9808  3C08EFFF             lui $8, 61439
10061	980C  3508FFFF             ori $8, $8, 65535
10062	9810  AFC80220             sw $8, 544($30)
10063	9814  3C09FFFF             lui $9, 65535
10064	9818  3529FFFF             ori $9, $9, 65535
10065	981C  AFC90224             sw $9, 548($30)
10066	9820  3C0AF7FF             lui $10, 63487
10067	9824  354AFFFF             ori $10, $10, 65535
10068	9828  AFCA0228             sw $10, 552($30)
10069	982C  3C0BFFFF             lui $11, 65535
10070	9830  356BFFFF             ori $11, $11, 65535
10071	9834  AFCB022C             sw $11, 556($30)
10072	9838  3C0C7BFF             lui $12, 31743
10073	983C  358CFFFF             ori $12, $12, 65535
10074	9840  AFCC0230             sw $12, 560($30)
10075	9844  3C0DFFFF             lui $13, 65535
10076	9848  35ADFFFF             ori $13, $13, 65535
10077	984C  AFCD0234             sw $13, 564($30)
10078	9850  3C0EFDFF             lui $14, 65023
10079	9854  35CEFFFF             ori $14, $14, 65535
10080	9858  AFCE0238             sw $14, 568($30)
10081	985C  3C0FFFFF             lui $15, 65535
10082	9860  35EFFFFF             ori $15, $15, 65535
10083	9864  AFCF023C             sw $15, 572($30)
10084	9868  3C08FEFF             lui $8, 65279
10085	986C  3508FFFF             ori $8, $8, 65535
10086	9870  AFC80240             sw $8, 576($30)
10087	9874  3C09FFFF             lui $9, 65535
10088	9878  3529FFFF             ori $9, $9, 65535
10089	987C  AFC90244             sw $9, 580($30)
10090	9880  3C0AFF7F             lui $10, 65407
10091	9884  354AFFFF             ori $10, $10, 65535
10092	9888  AFCA0248             sw $10, 584($30)
10093	988C  3C0BFFFF             lui $11, 65535
10094	9890  356BFFFF             ori $11, $11, 65535
10095	9894  AFCB024C             sw $11, 588($30)
10096	9898  3C0CFFBF             lui $12, 65471
10097	989C  358CFFFF             ori $12, $12, 65535
10098	98A0  AFCC0250             sw $12, 592($30)
10099	98A4  3C0DFFFF             lui $13, 65535
10100	98A8  35ADFFFF             ori $13, $13, 65535
10101	98AC  AFCD0254             sw $13, 596($30)
10102	98B0  3C0EFFDF             lui $14, 65503
10103	98B4  35CEFFFF             ori $14, $14, 65535
10104	98B8  AFCE0258             sw $14, 600($30)
10105	98BC  3C0FFFFF             lui $15, 65535
10106	98C0  35EFFFFF             ori $15, $15, 65535
10107	98C4  AFCF025C             sw $15, 604($30)
10108	98C8  3C08FFEF             lui $8, 65519
10109	98CC  3508FFFF             ori $8, $8, 65535
10110	98D0  AFC80260             sw $8, 608($30)
10111	98D4  3C09FFFF             lui $9, 65535
10112	98D8  3529FFFF             ori $9, $9, 65535
10113	98DC  AFC90264             sw $9, 612($30)
10114	98E0  3C0AFFF7             lui $10, 65527
10115	98E4  354AFFFF             ori $10, $10, 65535
10116	98E8  AFCA0268             sw $10, 616($30)
10117	98EC  3C0BFFFF             lui $11, 65535
10118	98F0  356BFFFF             ori $11, $11, 65535
10119	98F4  AFCB026C             sw $11, 620($30)
10120	98F8  3C0CFFFB             lui $12, 65531
10121	98FC  358CFFFF             ori $12, $12, 65535
10122	9900  AFCC0270             sw $12, 624($30)
10123	9904  3C0DFFFF             lui $13, 65535
10124	9908  35ADFFFF             ori $13, $13, 65535
10125	990C  AFCD0274             sw $13, 628($30)
10126	9910  3C0EFFFD             lui $14, 65533
10127	9914  35CEFFFF             ori $14, $14, 65535
10128	9918  AFCE0278             sw $14, 632($30)
10129	991C  3C0FFFFF             lui $15, 65535
10130	9920  35EFFFFF             ori $15, $15, 65535
10131	9924  AFCF027C             sw $15, 636($30)
10132	9928  3C08FFFE             lui $8, 65534
10133	992C  3508FFFF             ori $8, $8, 65535
10134	9930  AFC80280             sw $8, 640($30)
10135	9934  3C09FFFF             lui $9, 65535
10136	9938  3529FFFF             ori $9, $9, 65535
10137	993C  AFC90284             sw $9, 644($30)
10138	9940  3C0AFFFF             lui $10, 65535
10139	9944  354A7FFF             ori $10, $10, 32767
10140	9948  AFCA0288             sw $10, 648($30)
10141	994C  3C0BFFFF             lui $11, 65535
10142	9950  356BFFFF             ori $11, $11, 65535
10143	9954  AFCB028C             sw $11, 652($30)
10144	9958  3C0CFFFF             lui $12, 65535
10145	995C  358CBFFF             ori $12, $12, 49151
10146	9960  AFCC0290             sw $12, 656($30)
10147	9964  3C0DFFFF             lui $13, 65535
10148	9968  35ADFFFF             ori $13, $13, 65535
10149	996C  AFCD0294             sw $13, 660($30)
10150	9970  3C0EFFFF             lui $14, 65535
10151	9974  35CEDFFF             ori $14, $14, 57343
10152	9978  AFCE0298             sw $14, 664($30)
10153	997C  3C0FFFFF             lui $15, 65535
10154	9980  35EFFFFF             ori $15, $15, 65535
10155	9984  AFCF029C             sw $15, 668($30)
10156	9988  3C08FFFF             lui $8, 65535
10157	998C  3508EFFF             ori $8, $8, 61439
10158	9990  AFC802A0             sw $8, 672($30)
10159	9994  3C09FFFF             lui $9, 65535
10160	9998  3529FFFF             ori $9, $9, 65535
10161	999C  AFC902A4             sw $9, 676($30)
10162	99A0  3C0AFFFF             lui $10, 65535
10163	99A4  354AF7FF             ori $10, $10, 63487
10164	99A8  AFCA02A8             sw $10, 680($30)
10165	99AC  3C0BFFFF             lui $11, 65535
10166	99B0  356BFFFF             ori $11, $11, 65535
10167	99B4  AFCB02AC             sw $11, 684($30)
10168	99B8  3C0CFFFF             lui $12, 65535
10169	99BC  358CFBFF             ori $12, $12, 64511
10170	99C0  AFCC02B0             sw $12, 688($30)
10171	99C4  3C0DFFFF             lui $13, 65535
10172	99C8  35ADFFFF             ori $13, $13, 65535
10173	99CC  AFCD02B4             sw $13, 692($30)
10174	99D0  3C0EFFFF             lui $14, 65535
10175	99D4  35CEFDFF             ori $14, $14, 65023
10176	99D8  AFCE02B8             sw $14, 696($30)
10177	99DC  3C0FFFFF             lui $15, 65535
10178	99E0  35EFFFFF             ori $15, $15, 65535
10179	99E4  AFCF02BC             sw $15, 700($30)
10180	99E8  3C08FFFF             lui $8, 65535
10181	99EC  3508FEFF             ori $8, $8, 65279
10182	99F0  AFC802C0             sw $8, 704($30)
10183	99F4  3C09FFFF             lui $9, 65535
10184	99F8  3529FFFF             ori $9, $9, 65535
10185	99FC  AFC902C4             sw $9, 708($30)
10186	9A00  3C0AFFFF             lui $10, 65535
10187	9A04  354AFF7F             ori $10, $10, 65407
10188	9A08  AFCA02C8             sw $10, 712($30)
10189	9A0C  3C0BFFFF             lui $11, 65535
10190	9A10  356BFFFF             ori $11, $11, 65535
10191	9A14  AFCB02CC             sw $11, 716($30)
10192	9A18  3C0CFFFF             lui $12, 65535
10193	9A1C  358CFFBF             ori $12, $12, 65471
10194	9A20  AFCC02D0             sw $12, 720($30)
10195	9A24  3C0DFFFF             lui $13, 65535
10196	9A28  35ADFFFF             ori $13, $13, 65535
10197	9A2C  AFCD02D4             sw $13, 724($30)
10198	9A30  3C0EFFFF             lui $14, 65535
10199	9A34  35CEFFDF             ori $14, $14, 65503
10200	9A38  AFCE02D8             sw $14, 728($30)
10201	9A3C  3C0FFFFF             lui $15, 65535
10202	9A40  35EFFFFF             ori $15, $15, 65535
10203	9A44  AFCF02DC             sw $15, 732($30)
10204	9A48  3C08FFFF             lui $8, 65535
10205	9A4C  3508FFEF             ori $8, $8, 65519
10206	9A50  AFC802E0             sw $8, 736($30)
10207	9A54  3C09FFFF             lui $9, 65535
10208	9A58  3529FFFF             ori $9, $9, 65535
10209	9A5C  AFC902E4             sw $9, 740($30)
10210	9A60  3C0AFFFF             lui $10, 65535
10211	9A64  354AFFF7             ori $10, $10, 65527
10212	9A68  AFCA02E8             sw $10, 744($30)
10213	9A6C  3C0BFFFF             lui $11, 65535
10214	9A70  356BFFFF             ori $11, $11, 65535
10215	9A74  AFCB02EC             sw $11, 748($30)
10216	9A78  3C0CFFFF             lui $12, 65535
10217	9A7C  358CFFFB             ori $12, $12, 65531
10218	9A80  AFCC02F0             sw $12, 752($30)
10219	9A84  3C0DFFFF             lui $13, 65535
10220	9A88  35ADFFFF             ori $13, $13, 65535
10221	9A8C  AFCD02F4             sw $13, 756($30)
10222	9A90  3C0EFFFF             lui $14, 65535
10223	9A94  35CEFFFD             ori $14, $14, 65533
10224	9A98  AFCE02F8             sw $14, 760($30)
10225	9A9C  3C0FFFFF             lui $15, 65535
10226	9AA0  35EFFFFF             ori $15, $15, 65535
10227	9AA4  AFCF02FC             sw $15, 764($30)
10228	9AA8  3C08FFFF             lui $8, 65535
10229	9AAC  3508FFFE             ori $8, $8, 65534
10230	9AB0  AFC80300             sw $8, 768($30)
10231	9AB4  3C09FFFF             lui $9, 65535
10232	9AB8  3529FFFF             ori $9, $9, 65535
10233	9ABC  AFC90304             sw $9, 772($30)
10234	9AC0  3C0AFFFF             lui $10, 65535
10235	9AC4  354AFFFF             ori $10, $10, 65535
10236	9AC8  AFCA0308             sw $10, 776($30)
10237	9ACC  3C0B7FFF             lui $11, 32767
10238	9AD0  356BFFFF             ori $11, $11, 65535
10239	9AD4  AFCB030C             sw $11, 780($30)
10240	9AD8  3C0CFFFF             lui $12, 65535
10241	9ADC  358CFFFF             ori $12, $12, 65535
10242	9AE0  AFCC0310             sw $12, 784($30)
10243	9AE4  3C0DBFFF             lui $13, 49151
10244	9AE8  35ADFFFF             ori $13, $13, 65535
10245	9AEC  AFCD0314             sw $13, 788($30)
10246	9AF0  3C0EFFFF             lui $14, 65535
10247	9AF4  35CEFFFF             ori $14, $14, 65535
10248	9AF8  AFCE0318             sw $14, 792($30)
10249	9AFC  3C0FDFFF             lui $15, 57343
10250	9B00  35EFFFFF             ori $15, $15, 65535
10251	9B04  AFCF031C             sw $15, 796($30)
10252	9B08  3C08FFFF             lui $8, 65535
10253	9B0C  3508FFFF             ori $8, $8, 65535
10254	9B10  AFC80320             sw $8, 800($30)
10255	9B14  3C09EFFF             lui $9, 61439
10256	9B18  3529FFFF             ori $9, $9, 65535
10257	9B1C  AFC90324             sw $9, 804($30)
10258	9B20  3C0AFFFF             lui $10, 65535
10259	9B24  354AFFFF             ori $10, $10, 65535
10260	9B28  AFCA0328             sw $10, 808($30)
10261	9B2C  3C0BF7FF             lui $11, 63487
10262	9B30  356BFFFF             ori $11, $11, 65535
10263	9B34  AFCB032C             sw $11, 812($30)
10264	9B38  3C0CFFFF             lui $12, 65535
10265	9B3C  358CFFFF             ori $12, $12, 65535
10266	9B40  AFCC0330             sw $12, 816($30)
10267	9B44  3C0D7BFF             lui $13, 31743
10268	9B48  35ADFFFF             ori $13, $13, 65535
10269	9B4C  AFCD0334             sw $13, 820($30)
10270	9B50  3C0EFFFF             lui $14, 65535
10271	9B54  35CEFFFF             ori $14, $14, 65535
10272	9B58  AFCE0338             sw $14, 824($30)
10273	9B5C  3C0FFDFF             lui $15, 65023
10274	9B60  35EFFFFF             ori $15, $15, 65535
10275	9B64  AFCF033C             sw $15, 828($30)
10276	9B68  3C08FFFF             lui $8, 65535
10277	9B6C  3508FFFF             ori $8, $8, 65535
10278	9B70  AFC80340             sw $8, 832($30)
10279	9B74  3C09FEFF             lui $9, 65279
10280	9B78  3529FFFF             ori $9, $9, 65535
10281	9B7C  AFC90344             sw $9, 836($30)
10282	9B80  3C0AFFFF             lui $10, 65535
10283	9B84  354AFFFF             ori $10, $10, 65535
10284	9B88  AFCA0348             sw $10, 840($30)
10285	9B8C  3C0BFF7F             lui $11, 65407
10286	9B90  356BFFFF             ori $11, $11, 65535
10287	9B94  AFCB034C             sw $11, 844($30)
10288	9B98  3C0CFFFF             lui $12, 65535
10289	9B9C  358CFFFF             ori $12, $12, 65535
10290	9BA0  AFCC0350             sw $12, 848($30)
10291	9BA4  3C0DFFBF             lui $13, 65471
10292	9BA8  35ADFFFF             ori $13, $13, 65535
10293	9BAC  AFCD0354             sw $13, 852($30)
10294	9BB0  3C0EFFFF             lui $14, 65535
10295	9BB4  35CEFFFF             ori $14, $14, 65535
10296	9BB8  AFCE0358             sw $14, 856($30)
10297	9BBC  3C0FFFDF             lui $15, 65503
10298	9BC0  35EFFFFF             ori $15, $15, 65535
10299	9BC4  AFCF035C             sw $15, 860($30)
10300	9BC8  3C08FFFF             lui $8, 65535
10301	9BCC  3508FFFF             ori $8, $8, 65535
10302	9BD0  AFC80360             sw $8, 864($30)
10303	9BD4  3C09FFEF             lui $9, 65519
10304	9BD8  3529FFFF             ori $9, $9, 65535
10305	9BDC  AFC90364             sw $9, 868($30)
10306	9BE0  3C0AFFFF             lui $10, 65535
10307	9BE4  354AFFFF             ori $10, $10, 65535
10308	9BE8  AFCA0368             sw $10, 872($30)
10309	9BEC  3C0BFFF7             lui $11, 65527
10310	9BF0  356BFFFF             ori $11, $11, 65535
10311	9BF4  AFCB036C             sw $11, 876($30)
10312	9BF8  3C0CFFFF             lui $12, 65535
10313	9BFC  358CFFFF             ori $12, $12, 65535
10314	9C00  AFCC0370             sw $12, 880($30)
10315	9C04  3C0DFFFB             lui $13, 65531
10316	9C08  35ADFFFF             ori $13, $13, 65535
10317	9C0C  AFCD0374             sw $13, 884($30)
10318	9C10  3C0EFFFF             lui $14, 65535
10319	9C14  35CEFFFF             ori $14, $14, 65535
10320	9C18  AFCE0378             sw $14, 888($30)
10321	9C1C  3C0FFFFD             lui $15, 65533
10322	9C20  35EFFFFF             ori $15, $15, 65535
10323	9C24  AFCF037C             sw $15, 892($30)
10324	9C28  3C08FFFF             lui $8, 65535
10325	9C2C  3508FFFF             ori $8, $8, 65535
10326	9C30  AFC80380             sw $8, 896($30)
10327	9C34  3C09FFFE             lui $9, 65534
10328	9C38  3529FFFF             ori $9, $9, 65535
10329	9C3C  AFC90384             sw $9, 900($30)
10330	9C40  3C0AFFFF             lui $10, 65535
10331	9C44  354AFFFF             ori $10, $10, 65535
10332	9C48  AFCA0388             sw $10, 904($30)
10333	9C4C  3C0BFFFF             lui $11, 65535
10334	9C50  356B7FFF             ori $11, $11, 32767
10335	9C54  AFCB038C             sw $11, 908($30)
10336	9C58  3C0CFFFF             lui $12, 65535
10337	9C5C  358CFFFF             ori $12, $12, 65535
10338	9C60  AFCC0390             sw $12, 912($30)
10339	9C64  3C0DFFFF             lui $13, 65535
10340	9C68  35ADBFFF             ori $13, $13, 49151
10341	9C6C  AFCD0394             sw $13, 916($30)
10342	9C70  3C0EFFFF             lui $14, 65535
10343	9C74  35CEFFFF             ori $14, $14, 65535
10344	9C78  AFCE0398             sw $14, 920($30)
10345	9C7C  3C0FFFFF             lui $15, 65535
10346	9C80  35EFDFFF             ori $15, $15, 57343
10347	9C84  AFCF039C             sw $15, 924($30)
10348	9C88  3C08FFFF             lui $8, 65535
10349	9C8C  3508FFFF             ori $8, $8, 65535
10350	9C90  AFC803A0             sw $8, 928($30)
10351	9C94  3C09FFFF             lui $9, 65535
10352	9C98  3529EFFF             ori $9, $9, 61439
10353	9C9C  AFC903A4             sw $9, 932($30)
10354	9CA0  3C0AFFFF             lui $10, 65535
10355	9CA4  354AFFFF             ori $10, $10, 65535
10356	9CA8  AFCA03A8             sw $10, 936($30)
10357	9CAC  3C0BFFFF             lui $11, 65535
10358	9CB0  356BF7FF             ori $11, $11, 63487
10359	9CB4  AFCB03AC             sw $11, 940($30)
10360	9CB8  3C0CFFFF             lui $12, 65535
10361	9CBC  358CFFFF             ori $12, $12, 65535
10362	9CC0  AFCC03B0             sw $12, 944($30)
10363	9CC4  3C0DFFFF             lui $13, 65535
10364	9CC8  35ADFBFF             ori $13, $13, 64511
10365	9CCC  AFCD03B4             sw $13, 948($30)
10366	9CD0  3C0EFFFF             lui $14, 65535
10367	9CD4  35CEFFFF             ori $14, $14, 65535
10368	9CD8  AFCE03B8             sw $14, 952($30)
10369	9CDC  3C0FFFFF             lui $15, 65535
10370	9CE0  35EFFDFF             ori $15, $15, 65023
10371	9CE4  AFCF03BC             sw $15, 956($30)
10372	9CE8  3C08FFFF             lui $8, 65535
10373	9CEC  3508FFFF             ori $8, $8, 65535
10374	9CF0  AFC803C0             sw $8, 960($30)
10375	9CF4  3C09FFFF             lui $9, 65535
10376	9CF8  3529FEFF             ori $9, $9, 65279
10377	9CFC  AFC903C4             sw $9, 964($30)
10378	9D00  3C0AFFFF             lui $10, 65535
10379	9D04  354AFFFF             ori $10, $10, 65535
10380	9D08  AFCA03C8             sw $10, 968($30)
10381	9D0C  3C0BFFFF             lui $11, 65535
10382	9D10  356BFF7F             ori $11, $11, 65407
10383	9D14  AFCB03CC             sw $11, 972($30)
10384	9D18  3C0CFFFF             lui $12, 65535
10385	9D1C  358CFFFF             ori $12, $12, 65535
10386	9D20  AFCC03D0             sw $12, 976($30)
10387	9D24  3C0DFFFF             lui $13, 65535
10388	9D28  35ADFFBF             ori $13, $13, 65471
10389	9D2C  AFCD03D4             sw $13, 980($30)
10390	9D30  3C0EFFFF             lui $14, 65535
10391	9D34  35CEFFFF             ori $14, $14, 65535
10392	9D38  AFCE03D8             sw $14, 984($30)
10393	9D3C  3C0FFFFF             lui $15, 65535
10394	9D40  35EFFFDF             ori $15, $15, 65503
10395	9D44  AFCF03DC             sw $15, 988($30)
10396	9D48  3C08FFFF             lui $8, 65535
10397	9D4C  3508FFFF             ori $8, $8, 65535
10398	9D50  AFC803E0             sw $8, 992($30)
10399	9D54  3C09FFFF             lui $9, 65535
10400	9D58  3529FFEF             ori $9, $9, 65519
10401	9D5C  AFC903E4             sw $9, 996($30)
10402	9D60  3C0AFFFF             lui $10, 65535
10403	9D64  354AFFFF             ori $10, $10, 65535
10404	9D68  AFCA03E8             sw $10, 1000($30)
10405	9D6C  3C0BFFFF             lui $11, 65535
10406	9D70  356BFFF7             ori $11, $11, 65527
10407	9D74  AFCB03EC             sw $11, 1004($30)
10408	9D78  3C0CFFFF             lui $12, 65535
10409	9D7C  358CFFFF             ori $12, $12, 65535
10410	9D80  AFCC03F0             sw $12, 1008($30)
10411	9D84  3C0DFFFF             lui $13, 65535
10412	9D88  35ADFFFB             ori $13, $13, 65531
10413	9D8C  AFCD03F4             sw $13, 1012($30)
10414	9D90  3C0EFFFF             lui $14, 65535
10415	9D94  35CEFFFF             ori $14, $14, 65535
10416	9D98  AFCE03F8             sw $14, 1016($30)
10417	9D9C  3C0FFFFF             lui $15, 65535
10418	9DA0  35EFFFFD             ori $15, $15, 65533
10419	9DA4  AFCF03FC             sw $15, 1020($30)
10420	9DA8  3C08FFFF             lui $8, 65535
10421	9DAC  3508FFFF             ori $8, $8, 65535
10422	9DB0  AFC80400             sw $8, 1024($30)
10423	9DB4  3C09FFFF             lui $9, 65535
10424	9DB8  3529FFFE             ori $9, $9, 65534
10425	9DBC  AFC90404             sw $9, 1028($30)
10426	9DC0  3C0A7FFF             lui $10, 32767
10427	9DC4  354AFFFF             ori $10, $10, 65535
10428	9DC8  AFCA0408             sw $10, 1032($30)
10429	9DCC  3C0B7FFF             lui $11, 32767
10430	9DD0  356BFFFF             ori $11, $11, 65535
10431	9DD4  AFCB040C             sw $11, 1036($30)
10432	9DD8  3C0CBFFF             lui $12, 49151
10433	9DDC  358CFFFF             ori $12, $12, 65535
10434	9DE0  AFCC0410             sw $12, 1040($30)
10435	9DE4  3C0DBFFF             lui $13, 49151
10436	9DE8  35ADFFFF             ori $13, $13, 65535
10437	9DEC  AFCD0414             sw $13, 1044($30)
10438	9DF0  3C0EDFFF             lui $14, 57343
10439	9DF4  35CEFFFF             ori $14, $14, 65535
10440	9DF8  AFCE0418             sw $14, 1048($30)
10441	9DFC  3C0FDFFF             lui $15, 57343
10442	9E00  35EFFFFF             ori $15, $15, 65535
10443	9E04  AFCF041C             sw $15, 1052($30)
10444	9E08  3C08EFFF             lui $8, 61439
10445	9E0C  3508FFFF             ori $8, $8, 65535
10446	9E10  AFC80420             sw $8, 1056($30)
10447	9E14  3C09EFFF             lui $9, 61439
10448	9E18  3529FFFF             ori $9, $9, 65535
10449	9E1C  AFC90424             sw $9, 1060($30)
10450	9E20  3C0AF7FF             lui $10, 63487
10451	9E24  354AFFFF             ori $10, $10, 65535
10452	9E28  AFCA0428             sw $10, 1064($30)
10453	9E2C  3C0BF7FF             lui $11, 63487
10454	9E30  356BFFFF             ori $11, $11, 65535
10455	9E34  AFCB042C             sw $11, 1068($30)
10456	9E38  3C0C7BFF             lui $12, 31743
10457	9E3C  358CFFFF             ori $12, $12, 65535
10458	9E40  AFCC0430             sw $12, 1072($30)
10459	9E44  3C0D7BFF             lui $13, 31743
10460	9E48  35ADFFFF             ori $13, $13, 65535
10461	9E4C  AFCD0434             sw $13, 1076($30)
10462	9E50  3C0EFDFF             lui $14, 65023
10463	9E54  35CEFFFF             ori $14, $14, 65535
10464	9E58  AFCE0438             sw $14, 1080($30)
10465	9E5C  3C0FFDFF             lui $15, 65023
10466	9E60  35EFFFFF             ori $15, $15, 65535
10467	9E64  AFCF043C             sw $15, 1084($30)
10468	9E68  3C08FEFF             lui $8, 65279
10469	9E6C  3508FFFF             ori $8, $8, 65535
10470	9E70  AFC80440             sw $8, 1088($30)
10471	9E74  3C09FEFF             lui $9, 65279
10472	9E78  3529FFFF             ori $9, $9, 65535
10473	9E7C  AFC90444             sw $9, 1092($30)
10474	9E80  3C0AFF7F             lui $10, 65407
10475	9E84  354AFFFF             ori $10, $10, 65535
10476	9E88  AFCA0448             sw $10, 1096($30)
10477	9E8C  3C0BFF7F             lui $11, 65407
10478	9E90  356BFFFF             ori $11, $11, 65535
10479	9E94  AFCB044C             sw $11, 1100($30)
10480	9E98  3C0CFFBF             lui $12, 65471
10481	9E9C  358CFFFF             ori $12, $12, 65535
10482	9EA0  AFCC0450             sw $12, 1104($30)
10483	9EA4  3C0DFFBF             lui $13, 65471
10484	9EA8  35ADFFFF             ori $13, $13, 65535
10485	9EAC  AFCD0454             sw $13, 1108($30)
10486	9EB0  3C0EFFDF             lui $14, 65503
10487	9EB4  35CEFFFF             ori $14, $14, 65535
10488	9EB8  AFCE0458             sw $14, 1112($30)
10489	9EBC  3C0FFFDF             lui $15, 65503
10490	9EC0  35EFFFFF             ori $15, $15, 65535
10491	9EC4  AFCF045C             sw $15, 1116($30)
10492	9EC8  3C08FFEF             lui $8, 65519
10493	9ECC  3508FFFF             ori $8, $8, 65535
10494	9ED0  AFC80460             sw $8, 1120($30)
10495	9ED4  3C09FFEF             lui $9, 65519
10496	9ED8  3529FFFF             ori $9, $9, 65535
10497	9EDC  AFC90464             sw $9, 1124($30)
10498	9EE0  3C0AFFF7             lui $10, 65527
10499	9EE4  354AFFFF             ori $10, $10, 65535
10500	9EE8  AFCA0468             sw $10, 1128($30)
10501	9EEC  3C0BFFF7             lui $11, 65527
10502	9EF0  356BFFFF             ori $11, $11, 65535
10503	9EF4  AFCB046C             sw $11, 1132($30)
10504	9EF8  3C0CFFFB             lui $12, 65531
10505	9EFC  358CFFFF             ori $12, $12, 65535
10506	9F00  AFCC0470             sw $12, 1136($30)
10507	9F04  3C0DFFFB             lui $13, 65531
10508	9F08  35ADFFFF             ori $13, $13, 65535
10509	9F0C  AFCD0474             sw $13, 1140($30)
10510	9F10  3C0EFFFD             lui $14, 65533
10511	9F14  35CEFFFF             ori $14, $14, 65535
10512	9F18  AFCE0478             sw $14, 1144($30)
10513	9F1C  3C0FFFFD             lui $15, 65533
10514	9F20  35EFFFFF             ori $15, $15, 65535
10515	9F24  AFCF047C             sw $15, 1148($30)
10516	9F28  3C08FFFE             lui $8, 65534
10517	9F2C  3508FFFF             ori $8, $8, 65535
10518	9F30  AFC80480             sw $8, 1152($30)
10519	9F34  3C09FFFE             lui $9, 65534
10520	9F38  3529FFFF             ori $9, $9, 65535
10521	9F3C  AFC90484             sw $9, 1156($30)
10522	9F40  3C0AFFFF             lui $10, 65535
10523	9F44  354A7FFF             ori $10, $10, 32767
10524	9F48  AFCA0488             sw $10, 1160($30)
10525	9F4C  3C0BFFFF             lui $11, 65535
10526	9F50  356B7FFF             ori $11, $11, 32767
10527	9F54  AFCB048C             sw $11, 1164($30)
10528	9F58  3C0CFFFF             lui $12, 65535
10529	9F5C  358CBFFF             ori $12, $12, 49151
10530	9F60  AFCC0490             sw $12, 1168($30)
10531	9F64  3C0DFFFF             lui $13, 65535
10532	9F68  35ADBFFF             ori $13, $13, 49151
10533	9F6C  AFCD0494             sw $13, 1172($30)
10534	9F70  3C0EFFFF             lui $14, 65535
10535	9F74  35CEDFFF             ori $14, $14, 57343
10536	9F78  AFCE0498             sw $14, 1176($30)
10537	9F7C  3C0FFFFF             lui $15, 65535
10538	9F80  35EFDFFF             ori $15, $15, 57343
10539	9F84  AFCF049C             sw $15, 1180($30)
10540	9F88  3C08FFFF             lui $8, 65535
10541	9F8C  3508EFFF             ori $8, $8, 61439
10542	9F90  AFC804A0             sw $8, 1184($30)
10543	9F94  3C09FFFF             lui $9, 65535
10544	9F98  3529EFFF             ori $9, $9, 61439
10545	9F9C  AFC904A4             sw $9, 1188($30)
10546	9FA0  3C0AFFFF             lui $10, 65535
10547	9FA4  354AF7FF             ori $10, $10, 63487
10548	9FA8  AFCA04A8             sw $10, 1192($30)
10549	9FAC  3C0BFFFF             lui $11, 65535
10550	9FB0  356BF7FF             ori $11, $11, 63487
10551	9FB4  AFCB04AC             sw $11, 1196($30)
10552	9FB8  3C0CFFFF             lui $12, 65535
10553	9FBC  358CFBFF             ori $12, $12, 64511
10554	9FC0  AFCC04B0             sw $12, 1200($30)
10555	9FC4  3C0DFFFF             lui $13, 65535
10556	9FC8  35ADFBFF             ori $13, $13, 64511
10557	9FCC  AFCD04B4             sw $13, 1204($30)
10558	9FD0  3C0EFFFF             lui $14, 65535
10559	9FD4  35CEFDFF             ori $14, $14, 65023
10560	9FD8  AFCE04B8             sw $14, 1208($30)
10561	9FDC  3C0FFFFF             lui $15, 65535
10562	9FE0  35EFFDFF             ori $15, $15, 65023
10563	9FE4  AFCF04BC             sw $15, 1212($30)
10564	9FE8  3C08FFFF             lui $8, 65535
10565	9FEC  3508FEFF             ori $8, $8, 65279
10566	9FF0  AFC804C0             sw $8, 1216($30)
10567	9FF4  3C09FFFF             lui $9, 65535
10568	9FF8  3529FEFF             ori $9, $9, 65279
10569	9FFC  AFC904C4             sw $9, 1220($30)
10570	A000  3C0AFFFF             lui $10, 65535
10571	A004  354AFF7F             ori $10, $10, 65407
10572	A008  AFCA04C8             sw $10, 1224($30)
10573	A00C  3C0BFFFF             lui $11, 65535
10574	A010  356BFF7F             ori $11, $11, 65407
10575	A014  AFCB04CC             sw $11, 1228($30)
10576	A018  3C0CFFFF             lui $12, 65535
10577	A01C  358CFFBF             ori $12, $12, 65471
10578	A020  AFCC04D0             sw $12, 1232($30)
10579	A024  3C0DFFFF             lui $13, 65535
10580	A028  35ADFFBF             ori $13, $13, 65471
10581	A02C  AFCD04D4             sw $13, 1236($30)
10582	A030  3C0EFFFF             lui $14, 65535
10583	A034  35CEFFDF             ori $14, $14, 65503
10584	A038  AFCE04D8             sw $14, 1240($30)
10585	A03C  3C0FFFFF             lui $15, 65535
10586	A040  35EFFFDF             ori $15, $15, 65503
10587	A044  AFCF04DC             sw $15, 1244($30)
10588	A048  3C08FFFF             lui $8, 65535
10589	A04C  3508FFEF             ori $8, $8, 65519
10590	A050  AFC804E0             sw $8, 1248($30)
10591	A054  3C09FFFF             lui $9, 65535
10592	A058  3529FFEF             ori $9, $9, 65519
10593	A05C  AFC904E4             sw $9, 1252($30)
10594	A060  3C0AFFFF             lui $10, 65535
10595	A064  354AFFF7             ori $10, $10, 65527
10596	A068  AFCA04E8             sw $10, 1256($30)
10597	A06C  3C0BFFFF             lui $11, 65535
10598	A070  356BFFF7             ori $11, $11, 65527
10599	A074  AFCB04EC             sw $11, 1260($30)
10600	A078  3C0CFFFF             lui $12, 65535
10601	A07C  358CFFFB             ori $12, $12, 65531
10602	A080  AFCC04F0             sw $12, 1264($30)
10603	A084  3C0DFFFF             lui $13, 65535
10604	A088  35ADFFFB             ori $13, $13, 65531
10605	A08C  AFCD04F4             sw $13, 1268($30)
10606	A090  3C0EFFFF             lui $14, 65535
10607	A094  35CEFFFD             ori $14, $14, 65533
10608	A098  AFCE04F8             sw $14, 1272($30)
10609	A09C  3C0FFFFF             lui $15, 65535
10610	A0A0  35EFFFFD             ori $15, $15, 65533
10611	A0A4  AFCF04FC             sw $15, 1276($30)
10612	A0A8  3C08FFFF             lui $8, 65535
10613	A0AC  3508FFFE             ori $8, $8, 65534
10614	A0B0  AFC80500             sw $8, 1280($30)
10615	A0B4  3C09FFFF             lui $9, 65535
10616	A0B8  3529FFFE             ori $9, $9, 65534
10617	A0BC  AFC90504             sw $9, 1284($30)
10618	A0C0  03E00008             jr $31
10619	                          
10620	                          end:
10621	A0C4  08002831              j end
10622	                          
Table des tiquettes :
end	A0C4
init_branch	97A8
load_branch	979C
init_patterns	9198
lo_downward_0	8DD4
lo_upward_1	8B78
hi_downward_0	87B4
hi_upward_1	8558
lo_downward_1	8194
lo_upward_0	7F38
hi_downward_1	7B74
hi_upward_0	7918
init_upward_0	7824
init_upward_1	7730
branch_bltzal	771C
branch_bltz	7708
branch_blez	76F4
branch_bgtz	76E0
branch_bgezal	76CC
branch_bgez	76B8
branch_bne	76A4
branch_beq	7690
init_cp	767C
store	7670
store_branch	7668
increment	7660
increment_immediate	7654
increment_offset	7644
reset_hi_lo	7638
reset_offsets	7624
load_patterns	7618
hilo_register_operation	75EC
breaks	75E0
syscalls	75D4
operation_bltzal	75BC
operation_bltz	75A8
operation_blez	7594
operation_bgtz	7580
operation_bgezal	756C
operation_bgez	7558
operation_bne	7544
operation_beq	7530
operation_lw0_sw0	7514
operation_lw_sw	7500
operation_mfc0	74D8
operation_mtc0	74B8
operation_xori_andi	6DB4
operation_xori_ori	66AC
operation_sltiu_andi	5FA4
operation_sltiu_ori	589C
operation_slti_andi	5194
operation_slti_ori	4A8C
operation_ori_andi	4384
operation_andi_ori	3C7C
operation_addiu_andi	3574
operation_addiu_ori	2E6C
operation_addi_andi	2764
operation_addi_ori	205C
operation_multu_mult	202C
operation_mult_multu	1FFC
operation_mtlo_mthi	1FCC
operation_mtlo_mflo	1F9C
operation_mflo_mtlo	1F6C
operation_mflo_mthi	1F3C
operation_mthi_mflo	1F0C
operation_mthi_mfhi	1EDC
operation_mfhi_mthi	1EAC
operation_mfhi_mflo	1E7C
operation_srav_srlv	1E54
operation_srlv_srav	1E2C
operation_sllv_srl	1E04
operation_sllv_sra	1DDC
operation_sra_sllv	1DB0
operation_sra_srl	1D84
operation_srl_sra	1D58
operation_srl_sllv	1D2C
operation_sll_srl	1D00
operation_sll_sra	1CD4
operation_sltu_slt	1CAC
operation_slt_sltu	1C84
operation_nor_or	1C5C
operation_nor_xor	1C34
operation_xor_nor	1C0C
operation_xor_or	1BE4
operation_or_xor	1BBC
operation_or_and	1B94
operation_and_or	1B6C
operation_and_subu	1B44
operation_subu_and	1B1C
operation_subu_sub	1AF4
operation_sub_subu	1ACC
operation_sub_addu	1AA4
operation_addu_sub	1A7C
operation_addu_add	1A54
operation_add_addu	1A2C
operation_add_sub	1A04
cop0_register	17F0
continue	0F88
pipeline_operation	0C80
reg_special	00C8
main	00C8
_reset	0048
exception_handler	0008
