1	                          ;CODE MEMORY: (0x00000000-0x0000FFFF)
2	                          ;DATA MEMORY: (0x00010000-0x0001FFFF)
3	                          
4	                          org 0000
5	                          
6	                          _reset:
7	                          
8	0000  00000026             xor $0, $0, $0
9	0004  00210826             xor $1, $1, $1
10	0008  00421026             xor $2, $2, $2
11	000C  00631826             xor $3, $3, $3
12	0010  00842026             xor $4, $4, $4
13	0014  00A52826             xor $5, $5, $5
14	0018  00C63026             xor $6, $6, $6
15	001C  00E73826             xor $7, $7, $7
16	0020  01084026             xor $8, $8, $8
17	0024  01294826             xor $9, $9, $9
18	0028  014A5026             xor $10, $10, $10
19	002C  016B5826             xor $11, $11, $11
20	0030  018C6026             xor $12, $12, $12
21	0034  01AD6826             xor $13, $13, $13
22	0038  01CE7026             xor $14, $14, $14
23	003C  01EF7826             xor $15, $15, $15
24	0040  02108026             xor $16, $16, $16
25	0044  02318826             xor $17, $17, $17
26	0048  02529026             xor $18, $18, $18
27	004C  02739826             xor $19, $19, $19
28	0050  0294A026             xor $20, $20, $20
29	0054  02B5A826             xor $21, $21, $21
30	0058  02D6B026             xor $22, $22, $22
31	005C  02F7B826             xor $23, $23, $23
32	0060  0318C026             xor $24, $24, $24
33	0064  0339C826             xor $25, $25, $25
34	0068  035AD026             xor $26, $26, $26
35	006C  037BD826             xor $27, $27, $27
36	0070  039CE026             xor $28, $28, $28
37	0074  03BDE826             xor $29, $29, $29
38	0078  03DEF026             xor $30, $30, $30
39	007C  03FFF826             xor $31, $31, $31
40	                          
41	                          main:
42	                          ;........initialize all registers..............;
43	                          reg_special:
44	0080  3C00FFFF            lui $0, 65535
45	0084  3400FFFF            ori $0, $0, 65535
46	0088  3C01FFFF            lui $1, 65535
47	008C  3421FFFF            ori $1, $1, 65535
48	0090  3C02FFFF            lui $2, 65535
49	0094  3442FFFF            ori $2, $2, 65535
50	0098  3C03FFFF            lui $3, 65535
51	009C  3463FFFF            ori $3, $3, 65535
52	00A0  3C04FFFF            lui $4, 65535
53	00A4  3484FFFF            ori $4, $4, 65535
54	00A8  3C05FFFF            lui $5, 65535
55	00AC  34A5FFFF            ori $5, $5, 65535
56	00B0  3C06FFFF            lui $6, 65535
57	00B4  34C6FFFF            ori $6, $6, 65535
58	00B8  3C07FFFF            lui $7, 65535
59	00BC  34E7FFFF            ori $7, $7, 65535
60	00C0  3C08FFFF            lui $8, 65535
61	00C4  3508FFFF            ori $8, $8, 65535
62	00C8  3C09FFFF            lui $9, 65535
63	00CC  3529FFFF            ori $9, $9, 65535
64	00D0  3C0AFFFF            lui $10, 65535
65	00D4  354AFFFF            ori $10, $10, 65535
66	00D8  3C0BFFFF            lui $11, 65535
67	00DC  356BFFFF            ori $11, $11, 65535
68	00E0  3C0CFFFF            lui $12, 65535
69	00E4  358CFFFF            ori $12, $12, 65535
70	00E8  3C0DFFFF            lui $13, 65535
71	00EC  35ADFFFF            ori $13, $13, 65535
72	00F0  3C0EFFFF            lui $14, 65535
73	00F4  35CEFFFF            ori $14, $14, 65535
74	00F8  3C0FFFFF            lui $15, 65535
75	00FC  35EFFFFF            ori $15, $15, 65535
76	0100  3C10FFFF            lui $16, 65535
77	0104  3610FFFF            ori $16, $16, 65535
78	0108  3C11FFFF            lui $17, 65535
79	010C  3631FFFF            ori $17, $17, 65535
80	0110  3C12FFFF            lui $18, 65535
81	0114  3652FFFF            ori $18, $18, 65535
82	0118  3C13FFFF            lui $19, 65535
83	011C  3673FFFF            ori $19, $19, 65535
84	0120  3C14FFFF            lui $20, 65535
85	0124  3694FFFF            ori $20, $20, 65535
86	0128  3C15FFFF            lui $21, 65535
87	012C  36B5FFFF            ori $21, $21, 65535
88	0130  3C16FFFF            lui $22, 65535
89	0134  36D6FFFF            ori $22, $22, 65535
90	0138  3C17FFFF            lui $23, 65535
91	013C  36F7FFFF            ori $23, $23, 65535
92	0140  3C18FFFF            lui $24, 65535
93	0144  3718FFFF            ori $24, $24, 65535
94	0148  3C19FFFF            lui $25, 65535
95	014C  3739FFFF            ori $25, $25, 65535
96	0150  3C1AFFFF            lui $26, 65535
97	0154  375AFFFF            ori $26, $26, 65535
98	0158  3C1BFFFF            lui $27, 65535
99	015C  377BFFFF            ori $27, $27, 65535
100	0160  3C1CFFFF            lui $28, 65535
101	0164  379CFFFF            ori $28, $28, 65535
102	0168  3C1DFFFF            lui $29, 65535
103	016C  37BDFFFF            ori $29, $29, 65535
104	0170  3C1EFFFF            lui $30, 65535
105	0174  37DEFFFF            ori $30, $30, 65535
106	0178  3C1FFFFF            lui $31, 65535
107	017C  37FFFFFF            ori $31, $31, 65535
108	                          
109	                          ;........test special purpose registers........;
110	0180  3C010001            lui $1, 1
111	0184  342107D0            ori $1, $1, 2000
112	                          
113	0188  00421021            addu $2, $2, $2
114	018C  AC220000            sw $2, 0($1)
115	0190  3C020000            lui $2, 0
116	0194  34420000            ori $2, $2, 0
117	0198  00631821            addu $3, $3, $3
118	019C  AC230004            sw $3, 4($1)
119	01A0  3C030000            lui $3, 0
120	01A4  34630000            ori $3, $3, 0
121	01A8  00842021            addu $4, $4, $4
122	01AC  AC240008            sw $4, 8($1)
123	01B0  3C040000            lui $4, 0
124	01B4  34840000            ori $4, $4, 0
125	01B8  00A52821            addu $5, $5, $5
126	01BC  AC25000C            sw $5, 12($1)
127	01C0  3C050000            lui $5, 0
128	01C4  34A50000            ori $5, $5, 0
129	01C8  00C63021            addu $6, $6, $6
130	01CC  AC260010            sw $6, 16($1)
131	01D0  3C060000            lui $6, 0
132	01D4  34C60000            ori $6, $6, 0
133	01D8  00E73821            addu $7, $7, $7
134	01DC  AC270014            sw $7, 20($1)
135	01E0  3C070000            lui $7, 0
136	01E4  34E70000            ori $7, $7, 0
137	01E8  01084021            addu $8, $8, $8
138	01EC  AC280018            sw $8, 24($1)
139	01F0  3C080000            lui $8, 0
140	01F4  35080000            ori $8, $8, 0
141	01F8  01294821            addu $9, $9, $9
142	01FC  AC29001C            sw $9, 28($1)
143	0200  3C090000            lui $9, 0
144	0204  35290000            ori $9, $9, 0
145	0208  014A5021            addu $10, $10, $10
146	020C  AC2A0020            sw $10, 32($1)
147	0210  3C0A0000            lui $10, 0
148	0214  354A0000            ori $10, $10, 0
149	0218  016B5821            addu $11, $11, $11
150	021C  AC2B0024            sw $11, 36($1)
151	0220  3C0B0000            lui $11, 0
152	0224  356B0000            ori $11, $11, 0
153	0228  018C6021            addu $12, $12, $12
154	022C  AC2C0028            sw $12, 40($1)
155	0230  3C0C0000            lui $12, 0
156	0234  358C0000            ori $12, $12, 0
157	0238  01AD6821            addu $13, $13, $13
158	023C  AC2D002C            sw $13, 44($1)
159	0240  3C0D0000            lui $13, 0
160	0244  35AD0000            ori $13, $13, 0
161	0248  01CE7021            addu $14, $14, $14
162	024C  AC2E0030            sw $14, 48($1)
163	0250  3C0E0000            lui $14, 0
164	0254  35CE0000            ori $14, $14, 0
165	0258  01EF7821            addu $15, $15, $15
166	025C  AC2F0034            sw $15, 52($1)
167	0260  3C0F0000            lui $15, 0
168	0264  35EF0000            ori $15, $15, 0
169	0268  02108021            addu $16, $16, $16
170	026C  AC300038            sw $16, 56($1)
171	0270  3C100000            lui $16, 0
172	0274  36100000            ori $16, $16, 0
173	0278  02318821            addu $17, $17, $17
174	027C  AC31003C            sw $17, 60($1)
175	0280  3C110000            lui $17, 0
176	0284  36310000            ori $17, $17, 0
177	0288  02529021            addu $18, $18, $18
178	028C  AC320040            sw $18, 64($1)
179	0290  3C120000            lui $18, 0
180	0294  36520000            ori $18, $18, 0
181	0298  02739821            addu $19, $19, $19
182	029C  AC330044            sw $19, 68($1)
183	02A0  3C130000            lui $19, 0
184	02A4  36730000            ori $19, $19, 0
185	02A8  0294A021            addu $20, $20, $20
186	02AC  AC340048            sw $20, 72($1)
187	02B0  3C140000            lui $20, 0
188	02B4  36940000            ori $20, $20, 0
189	02B8  02B5A821            addu $21, $21, $21
190	02BC  AC35004C            sw $21, 76($1)
191	02C0  3C150000            lui $21, 0
192	02C4  36B50000            ori $21, $21, 0
193	02C8  02D6B021            addu $22, $22, $22
194	02CC  AC360050            sw $22, 80($1)
195	02D0  3C160000            lui $22, 0
196	02D4  36D60000            ori $22, $22, 0
197	02D8  02F7B821            addu $23, $23, $23
198	02DC  AC370054            sw $23, 84($1)
199	02E0  3C170000            lui $23, 0
200	02E4  36F70000            ori $23, $23, 0
201	02E8  0318C021            addu $24, $24, $24
202	02EC  AC380058            sw $24, 88($1)
203	02F0  3C180000            lui $24, 0
204	02F4  37180000            ori $24, $24, 0
205	02F8  0339C821            addu $25, $25, $25
206	02FC  AC39005C            sw $25, 92($1)
207	0300  3C190000            lui $25, 0
208	0304  37390000            ori $25, $25, 0
209	0308  035AD021            addu $26, $26, $26
210	030C  AC3A0060            sw $26, 96($1)
211	0310  3C1A0000            lui $26, 0
212	0314  375A0000            ori $26, $26, 0
213	0318  037BD821            addu $27, $27, $27
214	031C  AC3B0064            sw $27, 100($1)
215	0320  3C1B0000            lui $27, 0
216	0324  377B0000            ori $27, $27, 0
217	0328  039CE021            addu $28, $28, $28
218	032C  AC3C0068            sw $28, 104($1)
219	0330  3C1C0000            lui $28, 0
220	0334  379C0000            ori $28, $28, 0
221	0338  03BDE821            addu $29, $29, $29
222	033C  AC3D006C            sw $29, 108($1)
223	0340  3C1D0000            lui $29, 0
224	0344  37BD0000            ori $29, $29, 0
225	0348  03DEF021            addu $30, $30, $30
226	034C  AC3E0070            sw $30, 112($1)
227	0350  3C1E0000            lui $30, 0
228	0354  37DE0000            ori $30, $30, 0
229	0358  03FFF821            addu $31, $31, $31
230	035C  AC3F0074            sw $31, 116($1)
231	0360  3C1F0000            lui $31, 0
232	0364  37FF0000            ori $31, $31, 0
233	                          
234	0368  03FFF827            nor $31, $31, $31
235	036C  AC3F0078            sw $31, 120($1)
236	0370  3C1FFFFF            lui $31, 65535
237	0374  37FFFFFF            ori $31, $31, 65535
238	0378  03FFF821            addu $31, $31, $31
239	037C  AC3F007C            sw $31, 124($1)
240	0380  03DEF027            nor $30, $30, $30
241	0384  AC3E0080            sw $30, 128($1)
242	0388  3C1EFFFF            lui $30, 65535
243	038C  37DEFFFF            ori $30, $30, 65535
244	0390  03DEF021            addu $30, $30, $30
245	0394  AC3E0084            sw $30, 132($1)
246	0398  03BDE827            nor $29, $29, $29
247	039C  AC3D0088            sw $29, 136($1)
248	03A0  3C1DFFFF            lui $29, 65535
249	03A4  37BDFFFF            ori $29, $29, 65535
250	03A8  03BDE821            addu $29, $29, $29
251	03AC  AC3D008C            sw $29, 140($1)
252	03B0  039CE027            nor $28, $28, $28
253	03B4  AC3C0090            sw $28, 144($1)
254	03B8  3C1CFFFF            lui $28, 65535
255	03BC  379CFFFF            ori $28, $28, 65535
256	03C0  039CE021            addu $28, $28, $28
257	03C4  AC3C0094            sw $28, 148($1)
258	03C8  037BD827            nor $27, $27, $27
259	03CC  AC3B0098            sw $27, 152($1)
260	03D0  3C1BFFFF            lui $27, 65535
261	03D4  377BFFFF            ori $27, $27, 65535
262	03D8  037BD821            addu $27, $27, $27
263	03DC  AC3B009C            sw $27, 156($1)
264	03E0  035AD027            nor $26, $26, $26
265	03E4  AC3A00A0            sw $26, 160($1)
266	03E8  3C1AFFFF            lui $26, 65535
267	03EC  375AFFFF            ori $26, $26, 65535
268	03F0  035AD021            addu $26, $26, $26
269	03F4  AC3A00A4            sw $26, 164($1)
270	03F8  0339C827            nor $25, $25, $25
271	03FC  AC3900A8            sw $25, 168($1)
272	0400  3C19FFFF            lui $25, 65535
273	0404  3739FFFF            ori $25, $25, 65535
274	0408  0339C821            addu $25, $25, $25
275	040C  AC3900AC            sw $25, 172($1)
276	0410  0318C027            nor $24, $24, $24
277	0414  AC3800B0            sw $24, 176($1)
278	0418  3C18FFFF            lui $24, 65535
279	041C  3718FFFF            ori $24, $24, 65535
280	0420  0318C021            addu $24, $24, $24
281	0424  AC3800B4            sw $24, 180($1)
282	0428  02F7B827            nor $23, $23, $23
283	042C  AC3700B8            sw $23, 184($1)
284	0430  3C17FFFF            lui $23, 65535
285	0434  36F7FFFF            ori $23, $23, 65535
286	0438  02F7B821            addu $23, $23, $23
287	043C  AC3700BC            sw $23, 188($1)
288	0440  02D6B027            nor $22, $22, $22
289	0444  AC3600C0            sw $22, 192($1)
290	0448  3C16FFFF            lui $22, 65535
291	044C  36D6FFFF            ori $22, $22, 65535
292	0450  02D6B021            addu $22, $22, $22
293	0454  AC3600C4            sw $22, 196($1)
294	0458  02B5A827            nor $21, $21, $21
295	045C  AC3500C8            sw $21, 200($1)
296	0460  3C15FFFF            lui $21, 65535
297	0464  36B5FFFF            ori $21, $21, 65535
298	0468  02B5A821            addu $21, $21, $21
299	046C  AC3500CC            sw $21, 204($1)
300	0470  0294A027            nor $20, $20, $20
301	0474  AC3400D0            sw $20, 208($1)
302	0478  3C14FFFF            lui $20, 65535
303	047C  3694FFFF            ori $20, $20, 65535
304	0480  0294A021            addu $20, $20, $20
305	0484  AC3400D4            sw $20, 212($1)
306	0488  02739827            nor $19, $19, $19
307	048C  AC3300D8            sw $19, 216($1)
308	0490  3C13FFFF            lui $19, 65535
309	0494  3673FFFF            ori $19, $19, 65535
310	0498  02739821            addu $19, $19, $19
311	049C  AC3300DC            sw $19, 220($1)
312	04A0  02529027            nor $18, $18, $18
313	04A4  AC3200E0            sw $18, 224($1)
314	04A8  3C12FFFF            lui $18, 65535
315	04AC  3652FFFF            ori $18, $18, 65535
316	04B0  02529021            addu $18, $18, $18
317	04B4  AC3200E4            sw $18, 228($1)
318	04B8  02318827            nor $17, $17, $17
319	04BC  AC3100E8            sw $17, 232($1)
320	04C0  3C11FFFF            lui $17, 65535
321	04C4  3631FFFF            ori $17, $17, 65535
322	04C8  02318821            addu $17, $17, $17
323	04CC  AC3100EC            sw $17, 236($1)
324	04D0  02108027            nor $16, $16, $16
325	04D4  AC3000F0            sw $16, 240($1)
326	04D8  3C10FFFF            lui $16, 65535
327	04DC  3610FFFF            ori $16, $16, 65535
328	04E0  02108021            addu $16, $16, $16
329	04E4  AC3000F4            sw $16, 244($1)
330	04E8  01EF7827            nor $15, $15, $15
331	04EC  AC2F00F8            sw $15, 248($1)
332	04F0  3C0FFFFF            lui $15, 65535
333	04F4  35EFFFFF            ori $15, $15, 65535
334	04F8  01EF7821            addu $15, $15, $15
335	04FC  AC2F00FC            sw $15, 252($1)
336	0500  01CE7027            nor $14, $14, $14
337	0504  AC2E0100            sw $14, 256($1)
338	0508  3C0EFFFF            lui $14, 65535
339	050C  35CEFFFF            ori $14, $14, 65535
340	0510  01CE7021            addu $14, $14, $14
341	0514  AC2E0104            sw $14, 260($1)
342	0518  01AD6827            nor $13, $13, $13
343	051C  AC2D0108            sw $13, 264($1)
344	0520  3C0DFFFF            lui $13, 65535
345	0524  35ADFFFF            ori $13, $13, 65535
346	0528  01AD6821            addu $13, $13, $13
347	052C  AC2D010C            sw $13, 268($1)
348	0530  018C6027            nor $12, $12, $12
349	0534  AC2C0110            sw $12, 272($1)
350	0538  3C0CFFFF            lui $12, 65535
351	053C  358CFFFF            ori $12, $12, 65535
352	0540  018C6021            addu $12, $12, $12
353	0544  AC2C0114            sw $12, 276($1)
354	0548  016B5827            nor $11, $11, $11
355	054C  AC2B0118            sw $11, 280($1)
356	0550  3C0BFFFF            lui $11, 65535
357	0554  356BFFFF            ori $11, $11, 65535
358	0558  016B5821            addu $11, $11, $11
359	055C  AC2B011C            sw $11, 284($1)
360	0560  014A5027            nor $10, $10, $10
361	0564  AC2A0120            sw $10, 288($1)
362	0568  3C0AFFFF            lui $10, 65535
363	056C  354AFFFF            ori $10, $10, 65535
364	0570  014A5021            addu $10, $10, $10
365	0574  AC2A0124            sw $10, 292($1)
366	0578  01294827            nor $9, $9, $9
367	057C  AC290128            sw $9, 296($1)
368	0580  3C09FFFF            lui $9, 65535
369	0584  3529FFFF            ori $9, $9, 65535
370	0588  01294821            addu $9, $9, $9
371	058C  AC29012C            sw $9, 300($1)
372	0590  01084027            nor $8, $8, $8
373	0594  AC280130            sw $8, 304($1)
374	0598  3C08FFFF            lui $8, 65535
375	059C  3508FFFF            ori $8, $8, 65535
376	05A0  01084021            addu $8, $8, $8
377	05A4  AC280134            sw $8, 308($1)
378	05A8  00E73827            nor $7, $7, $7
379	05AC  AC270138            sw $7, 312($1)
380	05B0  3C07FFFF            lui $7, 65535
381	05B4  34E7FFFF            ori $7, $7, 65535
382	05B8  00E73821            addu $7, $7, $7
383	05BC  AC27013C            sw $7, 316($1)
384	05C0  00C63027            nor $6, $6, $6
385	05C4  AC260140            sw $6, 320($1)
386	05C8  3C06FFFF            lui $6, 65535
387	05CC  34C6FFFF            ori $6, $6, 65535
388	05D0  00C63021            addu $6, $6, $6
389	05D4  AC260144            sw $6, 324($1)
390	05D8  00A52827            nor $5, $5, $5
391	05DC  AC250148            sw $5, 328($1)
392	05E0  3C05FFFF            lui $5, 65535
393	05E4  34A5FFFF            ori $5, $5, 65535
394	05E8  00A52821            addu $5, $5, $5
395	05EC  AC25014C            sw $5, 332($1)
396	05F0  00842027            nor $4, $4, $4
397	05F4  AC240150            sw $4, 336($1)
398	05F8  3C04FFFF            lui $4, 65535
399	05FC  3484FFFF            ori $4, $4, 65535
400	0600  00842021            addu $4, $4, $4
401	0604  AC240154            sw $4, 340($1)
402	0608  00631827            nor $3, $3, $3
403	060C  AC230158            sw $3, 344($1)
404	0610  3C03FFFF            lui $3, 65535
405	0614  3463FFFF            ori $3, $3, 65535
406	0618  00631821            addu $3, $3, $3
407	061C  AC23015C            sw $3, 348($1)
408	0620  00421027            nor $2, $2, $2
409	0624  AC220160            sw $2, 352($1)
410	0628  3C02FFFF            lui $2, 65535
411	062C  3442FFFF            ori $2, $2, 65535
412	0630  00421021            addu $2, $2, $2
413	0634  AC220164            sw $2, 356($1)
414	                          
415	                          ;.............special register mirror.............;
416	0638  3C020000            lui $2, 0
417	063C  34420000            ori $2, $2, 0
418	0640  3C030000            lui $3, 0
419	0644  34630000            ori $3, $3, 0
420	0648  3C040000            lui $4, 0
421	064C  34840000            ori $4, $4, 0
422	0650  3C050000            lui $5, 0
423	0654  34A50000            ori $5, $5, 0
424	0658  3C060000            lui $6, 0
425	065C  34C60000            ori $6, $6, 0
426	0660  3C070000            lui $7, 0
427	0664  34E70000            ori $7, $7, 0
428	0668  3C080000            lui $8, 0
429	066C  35080000            ori $8, $8, 0
430	0670  3C090000            lui $9, 0
431	0674  35290000            ori $9, $9, 0
432	0678  3C0A0000            lui $10, 0
433	067C  354A0000            ori $10, $10, 0
434	0680  3C0B0000            lui $11, 0
435	0684  356B0000            ori $11, $11, 0
436	0688  3C0C0000            lui $12, 0
437	068C  358C0000            ori $12, $12, 0
438	0690  3C0D0000            lui $13, 0
439	0694  35AD0000            ori $13, $13, 0
440	0698  3C0E0000            lui $14, 0
441	069C  35CE0000            ori $14, $14, 0
442	06A0  3C0F0000            lui $15, 0
443	06A4  35EF0000            ori $15, $15, 0
444	06A8  3C100000            lui $16, 0
445	06AC  36100000            ori $16, $16, 0
446	06B0  3C110000            lui $17, 0
447	06B4  36310000            ori $17, $17, 0
448	06B8  3C120000            lui $18, 0
449	06BC  36520000            ori $18, $18, 0
450	06C0  3C130000            lui $19, 0
451	06C4  36730000            ori $19, $19, 0
452	06C8  3C140000            lui $20, 0
453	06CC  36940000            ori $20, $20, 0
454	06D0  3C150000            lui $21, 0
455	06D4  36B50000            ori $21, $21, 0
456	06D8  3C160000            lui $22, 0
457	06DC  36D60000            ori $22, $22, 0
458	06E0  3C170000            lui $23, 0
459	06E4  36F70000            ori $23, $23, 0
460	06E8  3C180000            lui $24, 0
461	06EC  37180000            ori $24, $24, 0
462	06F0  3C190000            lui $25, 0
463	06F4  37390000            ori $25, $25, 0
464	06F8  3C1A0000            lui $26, 0
465	06FC  375A0000            ori $26, $26, 0
466	0700  3C1B0000            lui $27, 0
467	0704  377B0000            ori $27, $27, 0
468	0708  3C1C0000            lui $28, 0
469	070C  379C0000            ori $28, $28, 0
470	0710  3C1D0000            lui $29, 0
471	0714  37BD0000            ori $29, $29, 0
472	0718  3C1E0000            lui $30, 0
473	071C  37DE0000            ori $30, $30, 0
474	0720  3C1F0000            lui $31, 0
475	0724  37FF0000            ori $31, $31, 0
476	                          
477	0728  00421027            nor $2, $2, $2
478	072C  AC220000            sw $2, 0($1)
479	0730  3C02FFFF            lui $2, 65535
480	0734  3442FFFF            ori $2, $2, 65535
481	0738  00631827            nor $3, $3, $3
482	073C  AC230004            sw $3, 4($1)
483	0740  3C03FFFF            lui $3, 65535
484	0744  3463FFFF            ori $3, $3, 65535
485	0748  00842027            nor $4, $4, $4
486	074C  AC240008            sw $4, 8($1)
487	0750  3C04FFFF            lui $4, 65535
488	0754  3484FFFF            ori $4, $4, 65535
489	0758  00A52827            nor $5, $5, $5
490	075C  AC25000C            sw $5, 12($1)
491	0760  3C05FFFF            lui $5, 65535
492	0764  34A5FFFF            ori $5, $5, 65535
493	0768  00C63027            nor $6, $6, $6
494	076C  AC260010            sw $6, 16($1)
495	0770  3C06FFFF            lui $6, 65535
496	0774  34C6FFFF            ori $6, $6, 65535
497	0778  00E73827            nor $7, $7, $7
498	077C  AC270014            sw $7, 20($1)
499	0780  3C07FFFF            lui $7, 65535
500	0784  34E7FFFF            ori $7, $7, 65535
501	0788  01084027            nor $8, $8, $8
502	078C  AC280018            sw $8, 24($1)
503	0790  3C08FFFF            lui $8, 65535
504	0794  3508FFFF            ori $8, $8, 65535
505	0798  01294827            nor $9, $9, $9
506	079C  AC29001C            sw $9, 28($1)
507	07A0  3C09FFFF            lui $9, 65535
508	07A4  3529FFFF            ori $9, $9, 65535
509	07A8  014A5027            nor $10, $10, $10
510	07AC  AC2A0020            sw $10, 32($1)
511	07B0  3C0AFFFF            lui $10, 65535
512	07B4  354AFFFF            ori $10, $10, 65535
513	07B8  016B5827            nor $11, $11, $11
514	07BC  AC2B0024            sw $11, 36($1)
515	07C0  3C0BFFFF            lui $11, 65535
516	07C4  356BFFFF            ori $11, $11, 65535
517	07C8  018C6027            nor $12, $12, $12
518	07CC  AC2C0028            sw $12, 40($1)
519	07D0  3C0CFFFF            lui $12, 65535
520	07D4  358CFFFF            ori $12, $12, 65535
521	07D8  01AD6827            nor $13, $13, $13
522	07DC  AC2D002C            sw $13, 44($1)
523	07E0  3C0DFFFF            lui $13, 65535
524	07E4  35ADFFFF            ori $13, $13, 65535
525	07E8  01CE7027            nor $14, $14, $14
526	07EC  AC2E0030            sw $14, 48($1)
527	07F0  3C0EFFFF            lui $14, 65535
528	07F4  35CEFFFF            ori $14, $14, 65535
529	07F8  01EF7827            nor $15, $15, $15
530	07FC  AC2F0034            sw $15, 52($1)
531	0800  3C0FFFFF            lui $15, 65535
532	0804  35EFFFFF            ori $15, $15, 65535
533	0808  02108027            nor $16, $16, $16
534	080C  AC300038            sw $16, 56($1)
535	0810  3C10FFFF            lui $16, 65535
536	0814  3610FFFF            ori $16, $16, 65535
537	0818  02318827            nor $17, $17, $17
538	081C  AC31003C            sw $17, 60($1)
539	0820  3C11FFFF            lui $17, 65535
540	0824  3631FFFF            ori $17, $17, 65535
541	0828  02529027            nor $18, $18, $18
542	082C  AC320040            sw $18, 64($1)
543	0830  3C12FFFF            lui $18, 65535
544	0834  3652FFFF            ori $18, $18, 65535
545	0838  02739827            nor $19, $19, $19
546	083C  AC330044            sw $19, 68($1)
547	0840  3C13FFFF            lui $19, 65535
548	0844  3673FFFF            ori $19, $19, 65535
549	0848  0294A027            nor $20, $20, $20
550	084C  AC340048            sw $20, 72($1)
551	0850  3C14FFFF            lui $20, 65535
552	0854  3694FFFF            ori $20, $20, 65535
553	0858  02B5A827            nor $21, $21, $21
554	085C  AC35004C            sw $21, 76($1)
555	0860  3C15FFFF            lui $21, 65535
556	0864  36B5FFFF            ori $21, $21, 65535
557	0868  02D6B027            nor $22, $22, $22
558	086C  AC360050            sw $22, 80($1)
559	0870  3C16FFFF            lui $22, 65535
560	0874  36D6FFFF            ori $22, $22, 65535
561	0878  02F7B827            nor $23, $23, $23
562	087C  AC370054            sw $23, 84($1)
563	0880  3C17FFFF            lui $23, 65535
564	0884  36F7FFFF            ori $23, $23, 65535
565	0888  0318C027            nor $24, $24, $24
566	088C  AC380058            sw $24, 88($1)
567	0890  3C18FFFF            lui $24, 65535
568	0894  3718FFFF            ori $24, $24, 65535
569	0898  0339C827            nor $25, $25, $25
570	089C  AC39005C            sw $25, 92($1)
571	08A0  3C19FFFF            lui $25, 65535
572	08A4  3739FFFF            ori $25, $25, 65535
573	08A8  035AD027            nor $26, $26, $26
574	08AC  AC3A0060            sw $26, 96($1)
575	08B0  3C1AFFFF            lui $26, 65535
576	08B4  375AFFFF            ori $26, $26, 65535
577	08B8  037BD827            nor $27, $27, $27
578	08BC  AC3B0064            sw $27, 100($1)
579	08C0  3C1BFFFF            lui $27, 65535
580	08C4  377BFFFF            ori $27, $27, 65535
581	08C8  039CE027            nor $28, $28, $28
582	08CC  AC3C0068            sw $28, 104($1)
583	08D0  3C1CFFFF            lui $28, 65535
584	08D4  379CFFFF            ori $28, $28, 65535
585	08D8  03BDE827            nor $29, $29, $29
586	08DC  AC3D006C            sw $29, 108($1)
587	08E0  3C1DFFFF            lui $29, 65535
588	08E4  37BDFFFF            ori $29, $29, 65535
589	08E8  03DEF027            nor $30, $30, $30
590	08EC  AC3E0070            sw $30, 112($1)
591	08F0  3C1EFFFF            lui $30, 65535
592	08F4  37DEFFFF            ori $30, $30, 65535
593	08F8  03FFF827            nor $31, $31, $31
594	08FC  AC3F0074            sw $31, 116($1)
595	0900  3C1FFFFF            lui $31, 65535
596	0904  37FFFFFF            ori $31, $31, 65535
597	                          
598	0908  03FFF821            addu $31, $31, $31
599	090C  AC3F0078            sw $31, 120($1)
600	0910  3C1F0000            lui $31, 0
601	0914  37FF0000            ori $31, $31, 0
602	0918  03FFF827            nor $31, $31, $31
603	091C  AC3F007C            sw $31, 124($1)
604	0920  03DEF021            addu $30, $30, $30
605	0924  AC3E0080            sw $30, 128($1)
606	0928  3C1E0000            lui $30, 0
607	092C  37DE0000            ori $30, $30, 0
608	0930  03DEF027            nor $30, $30, $30
609	0934  AC3E0084            sw $30, 132($1)
610	0938  03BDE821            addu $29, $29, $29
611	093C  AC3D0088            sw $29, 136($1)
612	0940  3C1D0000            lui $29, 0
613	0944  37BD0000            ori $29, $29, 0
614	0948  03BDE827            nor $29, $29, $29
615	094C  AC3D008C            sw $29, 140($1)
616	0950  039CE021            addu $28, $28, $28
617	0954  AC3C0090            sw $28, 144($1)
618	0958  3C1C0000            lui $28, 0
619	095C  379C0000            ori $28, $28, 0
620	0960  039CE027            nor $28, $28, $28
621	0964  AC3C0094            sw $28, 148($1)
622	0968  037BD821            addu $27, $27, $27
623	096C  AC3B0098            sw $27, 152($1)
624	0970  3C1B0000            lui $27, 0
625	0974  377B0000            ori $27, $27, 0
626	0978  037BD827            nor $27, $27, $27
627	097C  AC3B009C            sw $27, 156($1)
628	0980  035AD021            addu $26, $26, $26
629	0984  AC3A00A0            sw $26, 160($1)
630	0988  3C1A0000            lui $26, 0
631	098C  375A0000            ori $26, $26, 0
632	0990  035AD027            nor $26, $26, $26
633	0994  AC3A00A4            sw $26, 164($1)
634	0998  0339C821            addu $25, $25, $25
635	099C  AC3900A8            sw $25, 168($1)
636	09A0  3C190000            lui $25, 0
637	09A4  37390000            ori $25, $25, 0
638	09A8  0339C827            nor $25, $25, $25
639	09AC  AC3900AC            sw $25, 172($1)
640	09B0  0318C021            addu $24, $24, $24
641	09B4  AC3800B0            sw $24, 176($1)
642	09B8  3C180000            lui $24, 0
643	09BC  37180000            ori $24, $24, 0
644	09C0  0318C027            nor $24, $24, $24
645	09C4  AC3800B4            sw $24, 180($1)
646	09C8  02F7B821            addu $23, $23, $23
647	09CC  AC3700B8            sw $23, 184($1)
648	09D0  3C170000            lui $23, 0
649	09D4  36F70000            ori $23, $23, 0
650	09D8  02F7B827            nor $23, $23, $23
651	09DC  AC3700BC            sw $23, 188($1)
652	09E0  02D6B021            addu $22, $22, $22
653	09E4  AC3600C0            sw $22, 192($1)
654	09E8  3C160000            lui $22, 0
655	09EC  36D60000            ori $22, $22, 0
656	09F0  02D6B027            nor $22, $22, $22
657	09F4  AC3600C4            sw $22, 196($1)
658	09F8  02B5A821            addu $21, $21, $21
659	09FC  AC3500C8            sw $21, 200($1)
660	0A00  3C150000            lui $21, 0
661	0A04  36B50000            ori $21, $21, 0
662	0A08  02B5A827            nor $21, $21, $21
663	0A0C  AC3500CC            sw $21, 204($1)
664	0A10  0294A021            addu $20, $20, $20
665	0A14  AC3400D0            sw $20, 208($1)
666	0A18  3C140000            lui $20, 0
667	0A1C  36940000            ori $20, $20, 0
668	0A20  0294A027            nor $20, $20, $20
669	0A24  AC3400D4            sw $20, 212($1)
670	0A28  02739821            addu $19, $19, $19
671	0A2C  AC3300D8            sw $19, 216($1)
672	0A30  3C130000            lui $19, 0
673	0A34  36730000            ori $19, $19, 0
674	0A38  02739827            nor $19, $19, $19
675	0A3C  AC3300DC            sw $19, 220($1)
676	0A40  02529021            addu $18, $18, $18
677	0A44  AC3200E0            sw $18, 224($1)
678	0A48  3C120000            lui $18, 0
679	0A4C  36520000            ori $18, $18, 0
680	0A50  02529027            nor $18, $18, $18
681	0A54  AC3200E4            sw $18, 228($1)
682	0A58  02318821            addu $17, $17, $17
683	0A5C  AC3100E8            sw $17, 232($1)
684	0A60  3C110000            lui $17, 0
685	0A64  36310000            ori $17, $17, 0
686	0A68  02318827            nor $17, $17, $17
687	0A6C  AC3100EC            sw $17, 236($1)
688	0A70  02108021            addu $16, $16, $16
689	0A74  AC3000F0            sw $16, 240($1)
690	0A78  3C100000            lui $16, 0
691	0A7C  36100000            ori $16, $16, 0
692	0A80  02108027            nor $16, $16, $16
693	0A84  AC3000F4            sw $16, 244($1)
694	0A88  01EF7821            addu $15, $15, $15
695	0A8C  AC2F00F8            sw $15, 248($1)
696	0A90  3C0F0000            lui $15, 0
697	0A94  35EF0000            ori $15, $15, 0
698	0A98  01EF7827            nor $15, $15, $15
699	0A9C  AC2F00FC            sw $15, 252($1)
700	0AA0  01CE7021            addu $14, $14, $14
701	0AA4  AC2E0100            sw $14, 256($1)
702	0AA8  3C0E0000            lui $14, 0
703	0AAC  35CE0000            ori $14, $14, 0
704	0AB0  01CE7027            nor $14, $14, $14
705	0AB4  AC2E0104            sw $14, 260($1)
706	0AB8  01AD6821            addu $13, $13, $13
707	0ABC  AC2D0108            sw $13, 264($1)
708	0AC0  3C0D0000            lui $13, 0
709	0AC4  35AD0000            ori $13, $13, 0
710	0AC8  01AD6827            nor $13, $13, $13
711	0ACC  AC2D010C            sw $13, 268($1)
712	0AD0  018C6021            addu $12, $12, $12
713	0AD4  AC2C0110            sw $12, 272($1)
714	0AD8  3C0C0000            lui $12, 0
715	0ADC  358C0000            ori $12, $12, 0
716	0AE0  018C6027            nor $12, $12, $12
717	0AE4  AC2C0114            sw $12, 276($1)
718	0AE8  016B5821            addu $11, $11, $11
719	0AEC  AC2B0118            sw $11, 280($1)
720	0AF0  3C0B0000            lui $11, 0
721	0AF4  356B0000            ori $11, $11, 0
722	0AF8  016B5827            nor $11, $11, $11
723	0AFC  AC2B011C            sw $11, 284($1)
724	0B00  014A5021            addu $10, $10, $10
725	0B04  AC2A0120            sw $10, 288($1)
726	0B08  3C0A0000            lui $10, 0
727	0B0C  354A0000            ori $10, $10, 0
728	0B10  014A5027            nor $10, $10, $10
729	0B14  AC2A0124            sw $10, 292($1)
730	0B18  01294821            addu $9, $9, $9
731	0B1C  AC290128            sw $9, 296($1)
732	0B20  3C090000            lui $9, 0
733	0B24  35290000            ori $9, $9, 0
734	0B28  01294827            nor $9, $9, $9
735	0B2C  AC29012C            sw $9, 300($1)
736	0B30  01084021            addu $8, $8, $8
737	0B34  AC280130            sw $8, 304($1)
738	0B38  3C080000            lui $8, 0
739	0B3C  35080000            ori $8, $8, 0
740	0B40  01084027            nor $8, $8, $8
741	0B44  AC280134            sw $8, 308($1)
742	0B48  00E73821            addu $7, $7, $7
743	0B4C  AC270138            sw $7, 312($1)
744	0B50  3C070000            lui $7, 0
745	0B54  34E70000            ori $7, $7, 0
746	0B58  00E73827            nor $7, $7, $7
747	0B5C  AC27013C            sw $7, 316($1)
748	0B60  00C63021            addu $6, $6, $6
749	0B64  AC260140            sw $6, 320($1)
750	0B68  3C060000            lui $6, 0
751	0B6C  34C60000            ori $6, $6, 0
752	0B70  00C63027            nor $6, $6, $6
753	0B74  AC260144            sw $6, 324($1)
754	0B78  00A52821            addu $5, $5, $5
755	0B7C  AC250148            sw $5, 328($1)
756	0B80  3C050000            lui $5, 0
757	0B84  34A50000            ori $5, $5, 0
758	0B88  00A52827            nor $5, $5, $5
759	0B8C  AC25014C            sw $5, 332($1)
760	0B90  00842021            addu $4, $4, $4
761	0B94  AC240150            sw $4, 336($1)
762	0B98  3C040000            lui $4, 0
763	0B9C  34840000            ori $4, $4, 0
764	0BA0  00842027            nor $4, $4, $4
765	0BA4  AC240154            sw $4, 340($1)
766	0BA8  00631821            addu $3, $3, $3
767	0BAC  AC230158            sw $3, 344($1)
768	0BB0  3C030000            lui $3, 0
769	0BB4  34630000            ori $3, $3, 0
770	0BB8  00631827            nor $3, $3, $3
771	0BBC  AC23015C            sw $3, 348($1)
772	0BC0  00421021            addu $2, $2, $2
773	0BC4  AC220160            sw $2, 352($1)
774	0BC8  3C020000            lui $2, 0
775	0BCC  34420000            ori $2, $2, 0
776	0BD0  00421027            nor $2, $2, $2
777	0BD4  AC220164            sw $2, 356($1)
778	                          
779	0BD8  3C02FFFF            lui $2, 65535
780	0BDC  3442FFFF            ori $2, $2, 65535
781	0BE0  3C03FFFF            lui $3, 65535
782	0BE4  3463FFFF            ori $3, $3, 65535
783	0BE8  3C04FFFF            lui $4, 65535
784	0BEC  3484FFFF            ori $4, $4, 65535
785	0BF0  3C05FFFF            lui $5, 65535
786	0BF4  34A5FFFF            ori $5, $5, 65535
787	0BF8  3C06FFFF            lui $6, 65535
788	0BFC  34C6FFFF            ori $6, $6, 65535
789	0C00  3C07FFFF            lui $7, 65535
790	0C04  34E7FFFF            ori $7, $7, 65535
791	0C08  3C08FFFF            lui $8, 65535
792	0C0C  3508FFFF            ori $8, $8, 65535
793	0C10  3C09FFFF            lui $9, 65535
794	0C14  3529FFFF            ori $9, $9, 65535
795	0C18  3C0AFFFF            lui $10, 65535
796	0C1C  354AFFFF            ori $10, $10, 65535
797	0C20  3C0BFFFF            lui $11, 65535
798	0C24  356BFFFF            ori $11, $11, 65535
799	0C28  3C0CFFFF            lui $12, 65535
800	0C2C  358CFFFF            ori $12, $12, 65535
801	0C30  3C0DFFFF            lui $13, 65535
802	0C34  35ADFFFF            ori $13, $13, 65535
803	0C38  3C0EFFFF            lui $14, 65535
804	0C3C  35CEFFFF            ori $14, $14, 65535
805	0C40  3C0FFFFF            lui $15, 65535
806	0C44  35EFFFFF            ori $15, $15, 65535
807	0C48  3C10FFFF            lui $16, 65535
808	0C4C  3610FFFF            ori $16, $16, 65535
809	0C50  3C11FFFF            lui $17, 65535
810	0C54  3631FFFF            ori $17, $17, 65535
811	0C58  3C12FFFF            lui $18, 65535
812	0C5C  3652FFFF            ori $18, $18, 65535
813	0C60  3C13FFFF            lui $19, 65535
814	0C64  3673FFFF            ori $19, $19, 65535
815	0C68  3C14FFFF            lui $20, 65535
816	0C6C  3694FFFF            ori $20, $20, 65535
817	0C70  3C15FFFF            lui $21, 65535
818	0C74  36B5FFFF            ori $21, $21, 65535
819	0C78  3C16FFFF            lui $22, 65535
820	0C7C  36D6FFFF            ori $22, $22, 65535
821	0C80  3C17FFFF            lui $23, 65535
822	0C84  36F7FFFF            ori $23, $23, 65535
823	0C88  3C18FFFF            lui $24, 65535
824	0C8C  3718FFFF            ori $24, $24, 65535
825	0C90  3C19FFFF            lui $25, 65535
826	0C94  3739FFFF            ori $25, $25, 65535
827	0C98  3C1AFFFF            lui $26, 65535
828	0C9C  375AFFFF            ori $26, $26, 65535
829	0CA0  3C1BFFFF            lui $27, 65535
830	0CA4  377BFFFF            ori $27, $27, 65535
831	0CA8  3C1CFFFF            lui $28, 65535
832	0CAC  379CFFFF            ori $28, $28, 65535
833	0CB0  3C1DFFFF            lui $29, 65535
834	0CB4  37BDFFFF            ori $29, $29, 65535
835	0CB8  3C1EFFFF            lui $30, 65535
836	0CBC  37DEFFFF            ori $30, $30, 65535
837	0CC0  3C1FFFFF            lui $31, 65535
838	0CC4  37FFFFFF            ori $31, $31, 65535
839	                          
840	0CC8  00420019            multu $2, $2
841	0CCC  00001010            mfhi $2
842	0CD0  AC220000            sw $2, 0($1)
843	0CD4  3C020000            lui $2, 0
844	0CD8  34420000            ori $2, $2, 0
845	0CDC  00630019            multu $3, $3
846	0CE0  00001810            mfhi $3
847	0CE4  AC230004            sw $3, 4($1)
848	0CE8  3C030000            lui $3, 0
849	0CEC  34630000            ori $3, $3, 0
850	0CF0  00840019            multu $4, $4
851	0CF4  00002010            mfhi $4
852	0CF8  AC240008            sw $4, 8($1)
853	0CFC  3C040000            lui $4, 0
854	0D00  34840000            ori $4, $4, 0
855	0D04  00A50019            multu $5, $5
856	0D08  00002810            mfhi $5
857	0D0C  AC25000C            sw $5, 12($1)
858	0D10  3C050000            lui $5, 0
859	0D14  34A50000            ori $5, $5, 0
860	0D18  00C60019            multu $6, $6
861	0D1C  00003010            mfhi $6
862	0D20  AC260010            sw $6, 16($1)
863	0D24  3C060000            lui $6, 0
864	0D28  34C60000            ori $6, $6, 0
865	0D2C  00E70019            multu $7, $7
866	0D30  00003810            mfhi $7
867	0D34  AC270014            sw $7, 20($1)
868	0D38  3C070000            lui $7, 0
869	0D3C  34E70000            ori $7, $7, 0
870	0D40  01080019            multu $8, $8
871	0D44  00004010            mfhi $8
872	0D48  AC280018            sw $8, 24($1)
873	0D4C  3C080000            lui $8, 0
874	0D50  35080000            ori $8, $8, 0
875	0D54  01290019            multu $9, $9
876	0D58  00004810            mfhi $9
877	0D5C  AC29001C            sw $9, 28($1)
878	0D60  3C090000            lui $9, 0
879	0D64  35290000            ori $9, $9, 0
880	0D68  014A0019            multu $10, $10
881	0D6C  00005010            mfhi $10
882	0D70  AC2A0020            sw $10, 32($1)
883	0D74  3C0A0000            lui $10, 0
884	0D78  354A0000            ori $10, $10, 0
885	0D7C  016B0019            multu $11, $11
886	0D80  00005810            mfhi $11
887	0D84  AC2B0024            sw $11, 36($1)
888	0D88  3C0B0000            lui $11, 0
889	0D8C  356B0000            ori $11, $11, 0
890	0D90  018C0019            multu $12, $12
891	0D94  00006010            mfhi $12
892	0D98  AC2C0028            sw $12, 40($1)
893	0D9C  3C0C0000            lui $12, 0
894	0DA0  358C0000            ori $12, $12, 0
895	0DA4  01AD0019            multu $13, $13
896	0DA8  00006810            mfhi $13
897	0DAC  AC2D002C            sw $13, 44($1)
898	0DB0  3C0D0000            lui $13, 0
899	0DB4  35AD0000            ori $13, $13, 0
900	0DB8  01CE0019            multu $14, $14
901	0DBC  00007010            mfhi $14
902	0DC0  AC2E0030            sw $14, 48($1)
903	0DC4  3C0E0000            lui $14, 0
904	0DC8  35CE0000            ori $14, $14, 0
905	0DCC  01EF0019            multu $15, $15
906	0DD0  00007810            mfhi $15
907	0DD4  AC2F0034            sw $15, 52($1)
908	0DD8  3C0F0000            lui $15, 0
909	0DDC  35EF0000            ori $15, $15, 0
910	0DE0  02100019            multu $16, $16
911	0DE4  00008010            mfhi $16
912	0DE8  AC300038            sw $16, 56($1)
913	0DEC  3C100000            lui $16, 0
914	0DF0  36100000            ori $16, $16, 0
915	0DF4  02310019            multu $17, $17
916	0DF8  00008810            mfhi $17
917	0DFC  AC31003C            sw $17, 60($1)
918	0E00  3C110000            lui $17, 0
919	0E04  36310000            ori $17, $17, 0
920	0E08  02520019            multu $18, $18
921	0E0C  00009010            mfhi $18
922	0E10  AC320040            sw $18, 64($1)
923	0E14  3C120000            lui $18, 0
924	0E18  36520000            ori $18, $18, 0
925	0E1C  02730019            multu $19, $19
926	0E20  00009810            mfhi $19
927	0E24  AC330044            sw $19, 68($1)
928	0E28  3C130000            lui $19, 0
929	0E2C  36730000            ori $19, $19, 0
930	0E30  02940019            multu $20, $20
931	0E34  0000A010            mfhi $20
932	0E38  AC340048            sw $20, 72($1)
933	0E3C  3C140000            lui $20, 0
934	0E40  36940000            ori $20, $20, 0
935	0E44  02B50019            multu $21, $21
936	0E48  0000A810            mfhi $21
937	0E4C  AC35004C            sw $21, 76($1)
938	0E50  3C150000            lui $21, 0
939	0E54  36B50000            ori $21, $21, 0
940	0E58  02D60019            multu $22, $22
941	0E5C  0000B010            mfhi $22
942	0E60  AC360050            sw $22, 80($1)
943	0E64  3C160000            lui $22, 0
944	0E68  36D60000            ori $22, $22, 0
945	0E6C  02F70019            multu $23, $23
946	0E70  0000B810            mfhi $23
947	0E74  AC370054            sw $23, 84($1)
948	0E78  3C170000            lui $23, 0
949	0E7C  36F70000            ori $23, $23, 0
950	0E80  03180019            multu $24, $24
951	0E84  0000C010            mfhi $24
952	0E88  AC380058            sw $24, 88($1)
953	0E8C  3C180000            lui $24, 0
954	0E90  37180000            ori $24, $24, 0
955	0E94  03390019            multu $25, $25
956	0E98  0000C810            mfhi $25
957	0E9C  AC39005C            sw $25, 92($1)
958	0EA0  3C190000            lui $25, 0
959	0EA4  37390000            ori $25, $25, 0
960	0EA8  035A0019            multu $26, $26
961	0EAC  0000D010            mfhi $26
962	0EB0  AC3A0060            sw $26, 96($1)
963	0EB4  3C1A0000            lui $26, 0
964	0EB8  375A0000            ori $26, $26, 0
965	0EBC  037B0019            multu $27, $27
966	0EC0  0000D810            mfhi $27
967	0EC4  AC3B0064            sw $27, 100($1)
968	0EC8  3C1B0000            lui $27, 0
969	0ECC  377B0000            ori $27, $27, 0
970	0ED0  039C0019            multu $28, $28
971	0ED4  0000E010            mfhi $28
972	0ED8  AC3C0068            sw $28, 104($1)
973	0EDC  3C1C0000            lui $28, 0
974	0EE0  379C0000            ori $28, $28, 0
975	0EE4  03BD0019            multu $29, $29
976	0EE8  0000E810            mfhi $29
977	0EEC  AC3D006C            sw $29, 108($1)
978	0EF0  3C1D0000            lui $29, 0
979	0EF4  37BD0000            ori $29, $29, 0
980	0EF8  03DE0019            multu $30, $30
981	0EFC  0000F010            mfhi $30
982	0F00  AC3E0070            sw $30, 112($1)
983	0F04  3C1E0000            lui $30, 0
984	0F08  37DE0000            ori $30, $30, 0
985	0F0C  03FF0019            multu $31, $31
986	0F10  0000F810            mfhi $31
987	0F14  AC3F0074            sw $31, 116($1)
988	0F18  3C1F0000            lui $31, 0
989	0F1C  37FF0000            ori $31, $31, 0
990	                          
991	0F20  03FF0019            multu $31, $31
992	0F24  0000F810            mfhi $31
993	0F28  AC3F0078            sw $31, 120($1)
994	0F2C  3C1FFFFF            lui $31, 65535
995	0F30  37FFFFFF            ori $31, $31, 65535
996	0F34  03FF0019            multu $31, $31
997	0F38  0000F810            mfhi $31
998	0F3C  AC3F007C            sw $31, 124($1)
999	0F40  03DE0019            multu $30, $30
1000	0F44  0000F010            mfhi $30
1001	0F48  AC3E0080            sw $30, 128($1)
1002	0F4C  3C1EFFFF            lui $30, 65535
1003	0F50  37DEFFFF            ori $30, $30, 65535
1004	0F54  03DE0019            multu $30, $30
1005	0F58  0000F010            mfhi $30
1006	0F5C  AC3E0084            sw $30, 132($1)
1007	0F60  03BD0019            multu $29, $29
1008	0F64  0000E810            mfhi $29
1009	0F68  AC3D0088            sw $29, 136($1)
1010	0F6C  3C1DFFFF            lui $29, 65535
1011	0F70  37BDFFFF            ori $29, $29, 65535
1012	0F74  03BD0019            multu $29, $29
1013	0F78  0000E810            mfhi $29
1014	0F7C  AC3D008C            sw $29, 140($1)
1015	0F80  039C0019            multu $28, $28
1016	0F84  0000E010            mfhi $28
1017	0F88  AC3C0090            sw $28, 144($1)
1018	0F8C  3C1CFFFF            lui $28, 65535
1019	0F90  379CFFFF            ori $28, $28, 65535
1020	0F94  039C0019            multu $28, $28
1021	0F98  0000E010            mfhi $28
1022	0F9C  AC3C0094            sw $28, 148($1)
1023	0FA0  037B0019            multu $27, $27
1024	0FA4  0000D810            mfhi $27
1025	0FA8  AC3B0098            sw $27, 152($1)
1026	0FAC  3C1BFFFF            lui $27, 65535
1027	0FB0  377BFFFF            ori $27, $27, 65535
1028	0FB4  037B0019            multu $27, $27
1029	0FB8  0000D810            mfhi $27
1030	0FBC  AC3B009C            sw $27, 156($1)
1031	0FC0  035A0019            multu $26, $26
1032	0FC4  0000D010            mfhi $26
1033	0FC8  AC3A00A0            sw $26, 160($1)
1034	0FCC  3C1AFFFF            lui $26, 65535
1035	0FD0  375AFFFF            ori $26, $26, 65535
1036	0FD4  035A0019            multu $26, $26
1037	0FD8  0000D010            mfhi $26
1038	0FDC  AC3A00A4            sw $26, 164($1)
1039	0FE0  03390019            multu $25, $25
1040	0FE4  0000C810            mfhi $25
1041	0FE8  AC3900A8            sw $25, 168($1)
1042	0FEC  3C19FFFF            lui $25, 65535
1043	0FF0  3739FFFF            ori $25, $25, 65535
1044	0FF4  03390019            multu $25, $25
1045	0FF8  0000C810            mfhi $25
1046	0FFC  AC3900AC            sw $25, 172($1)
1047	1000  03180019            multu $24, $24
1048	1004  0000C010            mfhi $24
1049	1008  AC3800B0            sw $24, 176($1)
1050	100C  3C18FFFF            lui $24, 65535
1051	1010  3718FFFF            ori $24, $24, 65535
1052	1014  03180019            multu $24, $24
1053	1018  0000C010            mfhi $24
1054	101C  AC3800B4            sw $24, 180($1)
1055	1020  02F70019            multu $23, $23
1056	1024  0000B810            mfhi $23
1057	1028  AC3700B8            sw $23, 184($1)
1058	102C  3C17FFFF            lui $23, 65535
1059	1030  36F7FFFF            ori $23, $23, 65535
1060	1034  02F70019            multu $23, $23
1061	1038  0000B810            mfhi $23
1062	103C  AC3700BC            sw $23, 188($1)
1063	1040  02D60019            multu $22, $22
1064	1044  0000B010            mfhi $22
1065	1048  AC3600C0            sw $22, 192($1)
1066	104C  3C16FFFF            lui $22, 65535
1067	1050  36D6FFFF            ori $22, $22, 65535
1068	1054  02D60019            multu $22, $22
1069	1058  0000B010            mfhi $22
1070	105C  AC3600C4            sw $22, 196($1)
1071	1060  02B50019            multu $21, $21
1072	1064  0000A810            mfhi $21
1073	1068  AC3500C8            sw $21, 200($1)
1074	106C  3C15FFFF            lui $21, 65535
1075	1070  36B5FFFF            ori $21, $21, 65535
1076	1074  02B50019            multu $21, $21
1077	1078  0000A810            mfhi $21
1078	107C  AC3500CC            sw $21, 204($1)
1079	1080  02940019            multu $20, $20
1080	1084  0000A010            mfhi $20
1081	1088  AC3400D0            sw $20, 208($1)
1082	108C  3C14FFFF            lui $20, 65535
1083	1090  3694FFFF            ori $20, $20, 65535
1084	1094  02940019            multu $20, $20
1085	1098  0000A010            mfhi $20
1086	109C  AC3400D4            sw $20, 212($1)
1087	10A0  02730019            multu $19, $19
1088	10A4  00009810            mfhi $19
1089	10A8  AC3300D8            sw $19, 216($1)
1090	10AC  3C13FFFF            lui $19, 65535
1091	10B0  3673FFFF            ori $19, $19, 65535
1092	10B4  02730019            multu $19, $19
1093	10B8  00009810            mfhi $19
1094	10BC  AC3300DC            sw $19, 220($1)
1095	10C0  02520019            multu $18, $18
1096	10C4  00009010            mfhi $18
1097	10C8  AC3200E0            sw $18, 224($1)
1098	10CC  3C12FFFF            lui $18, 65535
1099	10D0  3652FFFF            ori $18, $18, 65535
1100	10D4  02520019            multu $18, $18
1101	10D8  00009010            mfhi $18
1102	10DC  AC3200E4            sw $18, 228($1)
1103	10E0  02310019            multu $17, $17
1104	10E4  00008810            mfhi $17
1105	10E8  AC3100E8            sw $17, 232($1)
1106	10EC  3C11FFFF            lui $17, 65535
1107	10F0  3631FFFF            ori $17, $17, 65535
1108	10F4  02310019            multu $17, $17
1109	10F8  00008810            mfhi $17
1110	10FC  AC3100EC            sw $17, 236($1)
1111	1100  02100019            multu $16, $16
1112	1104  00008010            mfhi $16
1113	1108  AC3000F0            sw $16, 240($1)
1114	110C  3C10FFFF            lui $16, 65535
1115	1110  3610FFFF            ori $16, $16, 65535
1116	1114  02100019            multu $16, $16
1117	1118  00008010            mfhi $16
1118	111C  AC3000F4            sw $16, 244($1)
1119	1120  01EF0019            multu $15, $15
1120	1124  00007810            mfhi $15
1121	1128  AC2F00F8            sw $15, 248($1)
1122	112C  3C0FFFFF            lui $15, 65535
1123	1130  35EFFFFF            ori $15, $15, 65535
1124	1134  01EF0019            multu $15, $15
1125	1138  00007810            mfhi $15
1126	113C  AC2F00FC            sw $15, 252($1)
1127	1140  01CE0019            multu $14, $14
1128	1144  00007010            mfhi $14
1129	1148  AC2E0100            sw $14, 256($1)
1130	114C  3C0EFFFF            lui $14, 65535
1131	1150  35CEFFFF            ori $14, $14, 65535
1132	1154  01CE0019            multu $14, $14
1133	1158  00007010            mfhi $14
1134	115C  AC2E0104            sw $14, 260($1)
1135	1160  01AD0019            multu $13, $13
1136	1164  00006810            mfhi $13
1137	1168  AC2D0108            sw $13, 264($1)
1138	116C  3C0DFFFF            lui $13, 65535
1139	1170  35ADFFFF            ori $13, $13, 65535
1140	1174  01AD0019            multu $13, $13
1141	1178  00006810            mfhi $13
1142	117C  AC2D010C            sw $13, 268($1)
1143	1180  018C0019            multu $12, $12
1144	1184  00006010            mfhi $12
1145	1188  AC2C0110            sw $12, 272($1)
1146	118C  3C0CFFFF            lui $12, 65535
1147	1190  358CFFFF            ori $12, $12, 65535
1148	1194  018C0019            multu $12, $12
1149	1198  00006010            mfhi $12
1150	119C  AC2C0114            sw $12, 276($1)
1151	11A0  016B0019            multu $11, $11
1152	11A4  00005810            mfhi $11
1153	11A8  AC2B0118            sw $11, 280($1)
1154	11AC  3C0BFFFF            lui $11, 65535
1155	11B0  356BFFFF            ori $11, $11, 65535
1156	11B4  016B0019            multu $11, $11
1157	11B8  00005810            mfhi $11
1158	11BC  AC2B011C            sw $11, 284($1)
1159	11C0  014A0019            multu $10, $10
1160	11C4  00005010            mfhi $10
1161	11C8  AC2A0120            sw $10, 288($1)
1162	11CC  3C0AFFFF            lui $10, 65535
1163	11D0  354AFFFF            ori $10, $10, 65535
1164	11D4  014A0019            multu $10, $10
1165	11D8  00005010            mfhi $10
1166	11DC  AC2A0124            sw $10, 292($1)
1167	11E0  01290019            multu $9, $9
1168	11E4  00004810            mfhi $9
1169	11E8  AC290128            sw $9, 296($1)
1170	11EC  3C09FFFF            lui $9, 65535
1171	11F0  3529FFFF            ori $9, $9, 65535
1172	11F4  01290019            multu $9, $9
1173	11F8  00004810            mfhi $9
1174	11FC  AC29012C            sw $9, 300($1)
1175	1200  01080019            multu $8, $8
1176	1204  00004010            mfhi $8
1177	1208  AC280130            sw $8, 304($1)
1178	120C  3C08FFFF            lui $8, 65535
1179	1210  3508FFFF            ori $8, $8, 65535
1180	1214  01080019            multu $8, $8
1181	1218  00004010            mfhi $8
1182	121C  AC280134            sw $8, 308($1)
1183	1220  00E70019            multu $7, $7
1184	1224  00003810            mfhi $7
1185	1228  AC270138            sw $7, 312($1)
1186	122C  3C07FFFF            lui $7, 65535
1187	1230  34E7FFFF            ori $7, $7, 65535
1188	1234  00E70019            multu $7, $7
1189	1238  00003810            mfhi $7
1190	123C  AC27013C            sw $7, 316($1)
1191	1240  00C60019            multu $6, $6
1192	1244  00003010            mfhi $6
1193	1248  AC260140            sw $6, 320($1)
1194	124C  3C06FFFF            lui $6, 65535
1195	1250  34C6FFFF            ori $6, $6, 65535
1196	1254  00C60019            multu $6, $6
1197	1258  00003010            mfhi $6
1198	125C  AC260144            sw $6, 324($1)
1199	1260  00A50019            multu $5, $5
1200	1264  00002810            mfhi $5
1201	1268  AC250148            sw $5, 328($1)
1202	126C  3C05FFFF            lui $5, 65535
1203	1270  34A5FFFF            ori $5, $5, 65535
1204	1274  00A50019            multu $5, $5
1205	1278  00002810            mfhi $5
1206	127C  AC25014C            sw $5, 332($1)
1207	1280  00840019            multu $4, $4
1208	1284  00002010            mfhi $4
1209	1288  AC240150            sw $4, 336($1)
1210	128C  3C04FFFF            lui $4, 65535
1211	1290  3484FFFF            ori $4, $4, 65535
1212	1294  00840019            multu $4, $4
1213	1298  00002010            mfhi $4
1214	129C  AC240154            sw $4, 340($1)
1215	12A0  00630019            multu $3, $3
1216	12A4  00001810            mfhi $3
1217	12A8  AC230158            sw $3, 344($1)
1218	12AC  3C03FFFF            lui $3, 65535
1219	12B0  3463FFFF            ori $3, $3, 65535
1220	12B4  00630019            multu $3, $3
1221	12B8  00001810            mfhi $3
1222	12BC  AC23015C            sw $3, 348($1)
1223	12C0  00420019            multu $2, $2
1224	12C4  00001010            mfhi $2
1225	12C8  AC220160            sw $2, 352($1)
1226	12CC  3C02FFFF            lui $2, 65535
1227	12D0  3442FFFF            ori $2, $2, 65535
1228	12D4  00420019            multu $2, $2
1229	12D8  00001010            mfhi $2
1230	12DC  AC220164            sw $2, 356($1)
1231	                          
1232	12E0  3C02FFFF            lui $2, 65535
1233	12E4  3442FFFF            ori $2, $2, 65535
1234	12E8  3C03FFFF            lui $3, 65535
1235	12EC  3463FFFF            ori $3, $3, 65535
1236	12F0  3C04FFFF            lui $4, 65535
1237	12F4  3484FFFF            ori $4, $4, 65535
1238	12F8  3C05FFFF            lui $5, 65535
1239	12FC  34A5FFFF            ori $5, $5, 65535
1240	1300  3C06FFFF            lui $6, 65535
1241	1304  34C6FFFF            ori $6, $6, 65535
1242	1308  3C07FFFF            lui $7, 65535
1243	130C  34E7FFFF            ori $7, $7, 65535
1244	1310  3C08FFFF            lui $8, 65535
1245	1314  3508FFFF            ori $8, $8, 65535
1246	1318  3C09FFFF            lui $9, 65535
1247	131C  3529FFFF            ori $9, $9, 65535
1248	1320  3C0AFFFF            lui $10, 65535
1249	1324  354AFFFF            ori $10, $10, 65535
1250	1328  3C0BFFFF            lui $11, 65535
1251	132C  356BFFFF            ori $11, $11, 65535
1252	1330  3C0CFFFF            lui $12, 65535
1253	1334  358CFFFF            ori $12, $12, 65535
1254	1338  3C0DFFFF            lui $13, 65535
1255	133C  35ADFFFF            ori $13, $13, 65535
1256	1340  3C0EFFFF            lui $14, 65535
1257	1344  35CEFFFF            ori $14, $14, 65535
1258	1348  3C0FFFFF            lui $15, 65535
1259	134C  35EFFFFF            ori $15, $15, 65535
1260	1350  3C10FFFF            lui $16, 65535
1261	1354  3610FFFF            ori $16, $16, 65535
1262	1358  3C11FFFF            lui $17, 65535
1263	135C  3631FFFF            ori $17, $17, 65535
1264	1360  3C12FFFF            lui $18, 65535
1265	1364  3652FFFF            ori $18, $18, 65535
1266	1368  3C13FFFF            lui $19, 65535
1267	136C  3673FFFF            ori $19, $19, 65535
1268	1370  3C14FFFF            lui $20, 65535
1269	1374  3694FFFF            ori $20, $20, 65535
1270	1378  3C15FFFF            lui $21, 65535
1271	137C  36B5FFFF            ori $21, $21, 65535
1272	1380  3C16FFFF            lui $22, 65535
1273	1384  36D6FFFF            ori $22, $22, 65535
1274	1388  3C17FFFF            lui $23, 65535
1275	138C  36F7FFFF            ori $23, $23, 65535
1276	1390  3C18FFFF            lui $24, 65535
1277	1394  3718FFFF            ori $24, $24, 65535
1278	1398  3C19FFFF            lui $25, 65535
1279	139C  3739FFFF            ori $25, $25, 65535
1280	13A0  3C1AFFFF            lui $26, 65535
1281	13A4  375AFFFF            ori $26, $26, 65535
1282	13A8  3C1BFFFF            lui $27, 65535
1283	13AC  377BFFFF            ori $27, $27, 65535
1284	13B0  3C1CFFFF            lui $28, 65535
1285	13B4  379CFFFF            ori $28, $28, 65535
1286	13B8  3C1DFFFF            lui $29, 65535
1287	13BC  37BDFFFF            ori $29, $29, 65535
1288	13C0  3C1EFFFF            lui $30, 65535
1289	13C4  37DEFFFF            ori $30, $30, 65535
1290	13C8  3C1FFFFF            lui $31, 65535
1291	13CC  37FFFFFF            ori $31, $31, 65535
1292	                          
1293	13D0  00420019            multu $2, $2
1294	13D4  00001012            mflo $2
1295	13D8  AC220000            sw $2, 0($1)
1296	13DC  3C020000            lui $2, 0
1297	13E0  34420000            ori $2, $2, 0
1298	13E4  00630019            multu $3, $3
1299	13E8  00001812            mflo $3
1300	13EC  AC230004            sw $3, 4($1)
1301	13F0  3C030000            lui $3, 0
1302	13F4  34630000            ori $3, $3, 0
1303	13F8  00840019            multu $4, $4
1304	13FC  00002012            mflo $4
1305	1400  AC240008            sw $4, 8($1)
1306	1404  3C040000            lui $4, 0
1307	1408  34840000            ori $4, $4, 0
1308	140C  00A50019            multu $5, $5
1309	1410  00002812            mflo $5
1310	1414  AC25000C            sw $5, 12($1)
1311	1418  3C050000            lui $5, 0
1312	141C  34A50000            ori $5, $5, 0
1313	1420  00C60019            multu $6, $6
1314	1424  00003012            mflo $6
1315	1428  AC260010            sw $6, 16($1)
1316	142C  3C060000            lui $6, 0
1317	1430  34C60000            ori $6, $6, 0
1318	1434  00E70019            multu $7, $7
1319	1438  00003812            mflo $7
1320	143C  AC270014            sw $7, 20($1)
1321	1440  3C070000            lui $7, 0
1322	1444  34E70000            ori $7, $7, 0
1323	1448  01080019            multu $8, $8
1324	144C  00004012            mflo $8
1325	1450  AC280018            sw $8, 24($1)
1326	1454  3C080000            lui $8, 0
1327	1458  35080000            ori $8, $8, 0
1328	145C  01290019            multu $9, $9
1329	1460  00004812            mflo $9
1330	1464  AC29001C            sw $9, 28($1)
1331	1468  3C090000            lui $9, 0
1332	146C  35290000            ori $9, $9, 0
1333	1470  014A0019            multu $10, $10
1334	1474  00005012            mflo $10
1335	1478  AC2A0020            sw $10, 32($1)
1336	147C  3C0A0000            lui $10, 0
1337	1480  354A0000            ori $10, $10, 0
1338	1484  016B0019            multu $11, $11
1339	1488  00005812            mflo $11
1340	148C  AC2B0024            sw $11, 36($1)
1341	1490  3C0B0000            lui $11, 0
1342	1494  356B0000            ori $11, $11, 0
1343	1498  018C0019            multu $12, $12
1344	149C  00006012            mflo $12
1345	14A0  AC2C0028            sw $12, 40($1)
1346	14A4  3C0C0000            lui $12, 0
1347	14A8  358C0000            ori $12, $12, 0
1348	14AC  01AD0019            multu $13, $13
1349	14B0  00006812            mflo $13
1350	14B4  AC2D002C            sw $13, 44($1)
1351	14B8  3C0D0000            lui $13, 0
1352	14BC  35AD0000            ori $13, $13, 0
1353	14C0  01CE0019            multu $14, $14
1354	14C4  00007012            mflo $14
1355	14C8  AC2E0030            sw $14, 48($1)
1356	14CC  3C0E0000            lui $14, 0
1357	14D0  35CE0000            ori $14, $14, 0
1358	14D4  01EF0019            multu $15, $15
1359	14D8  00007812            mflo $15
1360	14DC  AC2F0034            sw $15, 52($1)
1361	14E0  3C0F0000            lui $15, 0
1362	14E4  35EF0000            ori $15, $15, 0
1363	14E8  02100019            multu $16, $16
1364	14EC  00008012            mflo $16
1365	14F0  AC300038            sw $16, 56($1)
1366	14F4  3C100000            lui $16, 0
1367	14F8  36100000            ori $16, $16, 0
1368	14FC  02310019            multu $17, $17
1369	1500  00008812            mflo $17
1370	1504  AC31003C            sw $17, 60($1)
1371	1508  3C110000            lui $17, 0
1372	150C  36310000            ori $17, $17, 0
1373	1510  02520019            multu $18, $18
1374	1514  00009012            mflo $18
1375	1518  AC320040            sw $18, 64($1)
1376	151C  3C120000            lui $18, 0
1377	1520  36520000            ori $18, $18, 0
1378	1524  02730019            multu $19, $19
1379	1528  00009812            mflo $19
1380	152C  AC330044            sw $19, 68($1)
1381	1530  3C130000            lui $19, 0
1382	1534  36730000            ori $19, $19, 0
1383	1538  02940019            multu $20, $20
1384	153C  0000A012            mflo $20
1385	1540  AC340048            sw $20, 72($1)
1386	1544  3C140000            lui $20, 0
1387	1548  36940000            ori $20, $20, 0
1388	154C  02B50019            multu $21, $21
1389	1550  0000A812            mflo $21
1390	1554  AC35004C            sw $21, 76($1)
1391	1558  3C150000            lui $21, 0
1392	155C  36B50000            ori $21, $21, 0
1393	1560  02D60019            multu $22, $22
1394	1564  0000B012            mflo $22
1395	1568  AC360050            sw $22, 80($1)
1396	156C  3C160000            lui $22, 0
1397	1570  36D60000            ori $22, $22, 0
1398	1574  02F70019            multu $23, $23
1399	1578  0000B812            mflo $23
1400	157C  AC370054            sw $23, 84($1)
1401	1580  3C170000            lui $23, 0
1402	1584  36F70000            ori $23, $23, 0
1403	1588  03180019            multu $24, $24
1404	158C  0000C012            mflo $24
1405	1590  AC380058            sw $24, 88($1)
1406	1594  3C180000            lui $24, 0
1407	1598  37180000            ori $24, $24, 0
1408	159C  03390019            multu $25, $25
1409	15A0  0000C812            mflo $25
1410	15A4  AC39005C            sw $25, 92($1)
1411	15A8  3C190000            lui $25, 0
1412	15AC  37390000            ori $25, $25, 0
1413	15B0  035A0019            multu $26, $26
1414	15B4  0000D012            mflo $26
1415	15B8  AC3A0060            sw $26, 96($1)
1416	15BC  3C1A0000            lui $26, 0
1417	15C0  375A0000            ori $26, $26, 0
1418	15C4  037B0019            multu $27, $27
1419	15C8  0000D812            mflo $27
1420	15CC  AC3B0064            sw $27, 100($1)
1421	15D0  3C1B0000            lui $27, 0
1422	15D4  377B0000            ori $27, $27, 0
1423	15D8  039C0019            multu $28, $28
1424	15DC  0000E012            mflo $28
1425	15E0  AC3C0068            sw $28, 104($1)
1426	15E4  3C1C0000            lui $28, 0
1427	15E8  379C0000            ori $28, $28, 0
1428	15EC  03BD0019            multu $29, $29
1429	15F0  0000E812            mflo $29
1430	15F4  AC3D006C            sw $29, 108($1)
1431	15F8  3C1D0000            lui $29, 0
1432	15FC  37BD0000            ori $29, $29, 0
1433	1600  03DE0019            multu $30, $30
1434	1604  0000F012            mflo $30
1435	1608  AC3E0070            sw $30, 112($1)
1436	160C  3C1E0000            lui $30, 0
1437	1610  37DE0000            ori $30, $30, 0
1438	1614  03FF0019            multu $31, $31
1439	1618  0000F812            mflo $31
1440	161C  AC3F0074            sw $31, 116($1)
1441	1620  3C1F0000            lui $31, 0
1442	1624  37FF0000            ori $31, $31, 0
1443	                          
1444	1628  03FF0019            multu $31, $31
1445	162C  0000F812            mflo $31
1446	1630  AC3F0078            sw $31, 120($1)
1447	1634  3C1FFFFF            lui $31, 65535
1448	1638  37FFFFFF            ori $31, $31, 65535
1449	163C  03FF0019            multu $31, $31
1450	1640  0000F812            mflo $31
1451	1644  AC3F007C            sw $31, 124($1)
1452	1648  03DE0019            multu $30, $30
1453	164C  0000F012            mflo $30
1454	1650  AC3E0080            sw $30, 128($1)
1455	1654  3C1EFFFF            lui $30, 65535
1456	1658  37DEFFFF            ori $30, $30, 65535
1457	165C  03DE0019            multu $30, $30
1458	1660  0000F012            mflo $30
1459	1664  AC3E0084            sw $30, 132($1)
1460	1668  03BD0019            multu $29, $29
1461	166C  0000E812            mflo $29
1462	1670  AC3D0088            sw $29, 136($1)
1463	1674  3C1DFFFF            lui $29, 65535
1464	1678  37BDFFFF            ori $29, $29, 65535
1465	167C  03BD0019            multu $29, $29
1466	1680  0000E812            mflo $29
1467	1684  AC3D008C            sw $29, 140($1)
1468	1688  039C0019            multu $28, $28
1469	168C  0000E012            mflo $28
1470	1690  AC3C0090            sw $28, 144($1)
1471	1694  3C1CFFFF            lui $28, 65535
1472	1698  379CFFFF            ori $28, $28, 65535
1473	169C  039C0019            multu $28, $28
1474	16A0  0000E012            mflo $28
1475	16A4  AC3C0094            sw $28, 148($1)
1476	16A8  037B0019            multu $27, $27
1477	16AC  0000D812            mflo $27
1478	16B0  AC3B0098            sw $27, 152($1)
1479	16B4  3C1BFFFF            lui $27, 65535
1480	16B8  377BFFFF            ori $27, $27, 65535
1481	16BC  037B0019            multu $27, $27
1482	16C0  0000D812            mflo $27
1483	16C4  AC3B009C            sw $27, 156($1)
1484	16C8  035A0019            multu $26, $26
1485	16CC  0000D012            mflo $26
1486	16D0  AC3A00A0            sw $26, 160($1)
1487	16D4  3C1AFFFF            lui $26, 65535
1488	16D8  375AFFFF            ori $26, $26, 65535
1489	16DC  035A0019            multu $26, $26
1490	16E0  0000D012            mflo $26
1491	16E4  AC3A00A4            sw $26, 164($1)
1492	16E8  03390019            multu $25, $25
1493	16EC  0000C812            mflo $25
1494	16F0  AC3900A8            sw $25, 168($1)
1495	16F4  3C19FFFF            lui $25, 65535
1496	16F8  3739FFFF            ori $25, $25, 65535
1497	16FC  03390019            multu $25, $25
1498	1700  0000C812            mflo $25
1499	1704  AC3900AC            sw $25, 172($1)
1500	1708  03180019            multu $24, $24
1501	170C  0000C012            mflo $24
1502	1710  AC3800B0            sw $24, 176($1)
1503	1714  3C18FFFF            lui $24, 65535
1504	1718  3718FFFF            ori $24, $24, 65535
1505	171C  03180019            multu $24, $24
1506	1720  0000C012            mflo $24
1507	1724  AC3800B4            sw $24, 180($1)
1508	1728  02F70019            multu $23, $23
1509	172C  0000B812            mflo $23
1510	1730  AC3700B8            sw $23, 184($1)
1511	1734  3C17FFFF            lui $23, 65535
1512	1738  36F7FFFF            ori $23, $23, 65535
1513	173C  02F70019            multu $23, $23
1514	1740  0000B812            mflo $23
1515	1744  AC3700BC            sw $23, 188($1)
1516	1748  02D60019            multu $22, $22
1517	174C  0000B012            mflo $22
1518	1750  AC3600C0            sw $22, 192($1)
1519	1754  3C16FFFF            lui $22, 65535
1520	1758  36D6FFFF            ori $22, $22, 65535
1521	175C  02D60019            multu $22, $22
1522	1760  0000B012            mflo $22
1523	1764  AC3600C4            sw $22, 196($1)
1524	1768  02B50019            multu $21, $21
1525	176C  0000A812            mflo $21
1526	1770  AC3500C8            sw $21, 200($1)
1527	1774  3C15FFFF            lui $21, 65535
1528	1778  36B5FFFF            ori $21, $21, 65535
1529	177C  02B50019            multu $21, $21
1530	1780  0000A812            mflo $21
1531	1784  AC3500CC            sw $21, 204($1)
1532	1788  02940019            multu $20, $20
1533	178C  0000A012            mflo $20
1534	1790  AC3400D0            sw $20, 208($1)
1535	1794  3C14FFFF            lui $20, 65535
1536	1798  3694FFFF            ori $20, $20, 65535
1537	179C  02940019            multu $20, $20
1538	17A0  0000A012            mflo $20
1539	17A4  AC3400D4            sw $20, 212($1)
1540	17A8  02730019            multu $19, $19
1541	17AC  00009812            mflo $19
1542	17B0  AC3300D8            sw $19, 216($1)
1543	17B4  3C13FFFF            lui $19, 65535
1544	17B8  3673FFFF            ori $19, $19, 65535
1545	17BC  02730019            multu $19, $19
1546	17C0  00009812            mflo $19
1547	17C4  AC3300DC            sw $19, 220($1)
1548	17C8  02520019            multu $18, $18
1549	17CC  00009012            mflo $18
1550	17D0  AC3200E0            sw $18, 224($1)
1551	17D4  3C12FFFF            lui $18, 65535
1552	17D8  3652FFFF            ori $18, $18, 65535
1553	17DC  02520019            multu $18, $18
1554	17E0  00009012            mflo $18
1555	17E4  AC3200E4            sw $18, 228($1)
1556	17E8  02310019            multu $17, $17
1557	17EC  00008812            mflo $17
1558	17F0  AC3100E8            sw $17, 232($1)
1559	17F4  3C11FFFF            lui $17, 65535
1560	17F8  3631FFFF            ori $17, $17, 65535
1561	17FC  02310019            multu $17, $17
1562	1800  00008812            mflo $17
1563	1804  AC3100EC            sw $17, 236($1)
1564	1808  02100019            multu $16, $16
1565	180C  00008012            mflo $16
1566	1810  AC3000F0            sw $16, 240($1)
1567	1814  3C10FFFF            lui $16, 65535
1568	1818  3610FFFF            ori $16, $16, 65535
1569	181C  02100019            multu $16, $16
1570	1820  00008012            mflo $16
1571	1824  AC3000F4            sw $16, 244($1)
1572	1828  01EF0019            multu $15, $15
1573	182C  00007812            mflo $15
1574	1830  AC2F00F8            sw $15, 248($1)
1575	1834  3C0FFFFF            lui $15, 65535
1576	1838  35EFFFFF            ori $15, $15, 65535
1577	183C  01EF0019            multu $15, $15
1578	1840  00007812            mflo $15
1579	1844  AC2F00FC            sw $15, 252($1)
1580	1848  01CE0019            multu $14, $14
1581	184C  00007012            mflo $14
1582	1850  AC2E0100            sw $14, 256($1)
1583	1854  3C0EFFFF            lui $14, 65535
1584	1858  35CEFFFF            ori $14, $14, 65535
1585	185C  01CE0019            multu $14, $14
1586	1860  00007012            mflo $14
1587	1864  AC2E0104            sw $14, 260($1)
1588	1868  01AD0019            multu $13, $13
1589	186C  00006812            mflo $13
1590	1870  AC2D0108            sw $13, 264($1)
1591	1874  3C0DFFFF            lui $13, 65535
1592	1878  35ADFFFF            ori $13, $13, 65535
1593	187C  01AD0019            multu $13, $13
1594	1880  00006812            mflo $13
1595	1884  AC2D010C            sw $13, 268($1)
1596	1888  018C0019            multu $12, $12
1597	188C  00006012            mflo $12
1598	1890  AC2C0110            sw $12, 272($1)
1599	1894  3C0CFFFF            lui $12, 65535
1600	1898  358CFFFF            ori $12, $12, 65535
1601	189C  018C0019            multu $12, $12
1602	18A0  00006012            mflo $12
1603	18A4  AC2C0114            sw $12, 276($1)
1604	18A8  016B0019            multu $11, $11
1605	18AC  00005812            mflo $11
1606	18B0  AC2B0118            sw $11, 280($1)
1607	18B4  3C0BFFFF            lui $11, 65535
1608	18B8  356BFFFF            ori $11, $11, 65535
1609	18BC  016B0019            multu $11, $11
1610	18C0  00005812            mflo $11
1611	18C4  AC2B011C            sw $11, 284($1)
1612	18C8  014A0019            multu $10, $10
1613	18CC  00005012            mflo $10
1614	18D0  AC2A0120            sw $10, 288($1)
1615	18D4  3C0AFFFF            lui $10, 65535
1616	18D8  354AFFFF            ori $10, $10, 65535
1617	18DC  014A0019            multu $10, $10
1618	18E0  00005012            mflo $10
1619	18E4  AC2A0124            sw $10, 292($1)
1620	18E8  01290019            multu $9, $9
1621	18EC  00004812            mflo $9
1622	18F0  AC290128            sw $9, 296($1)
1623	18F4  3C09FFFF            lui $9, 65535
1624	18F8  3529FFFF            ori $9, $9, 65535
1625	18FC  01290019            multu $9, $9
1626	1900  00004812            mflo $9
1627	1904  AC29012C            sw $9, 300($1)
1628	1908  01080019            multu $8, $8
1629	190C  00004012            mflo $8
1630	1910  AC280130            sw $8, 304($1)
1631	1914  3C08FFFF            lui $8, 65535
1632	1918  3508FFFF            ori $8, $8, 65535
1633	191C  01080019            multu $8, $8
1634	1920  00004012            mflo $8
1635	1924  AC280134            sw $8, 308($1)
1636	1928  00E70019            multu $7, $7
1637	192C  00003812            mflo $7
1638	1930  AC270138            sw $7, 312($1)
1639	1934  3C07FFFF            lui $7, 65535
1640	1938  34E7FFFF            ori $7, $7, 65535
1641	193C  00E70019            multu $7, $7
1642	1940  00003812            mflo $7
1643	1944  AC27013C            sw $7, 316($1)
1644	1948  00C60019            multu $6, $6
1645	194C  00003012            mflo $6
1646	1950  AC260140            sw $6, 320($1)
1647	1954  3C06FFFF            lui $6, 65535
1648	1958  34C6FFFF            ori $6, $6, 65535
1649	195C  00C60019            multu $6, $6
1650	1960  00003012            mflo $6
1651	1964  AC260144            sw $6, 324($1)
1652	1968  00A50019            multu $5, $5
1653	196C  00002812            mflo $5
1654	1970  AC250148            sw $5, 328($1)
1655	1974  3C05FFFF            lui $5, 65535
1656	1978  34A5FFFF            ori $5, $5, 65535
1657	197C  00A50019            multu $5, $5
1658	1980  00002812            mflo $5
1659	1984  AC25014C            sw $5, 332($1)
1660	1988  00840019            multu $4, $4
1661	198C  00002012            mflo $4
1662	1990  AC240150            sw $4, 336($1)
1663	1994  3C04FFFF            lui $4, 65535
1664	1998  3484FFFF            ori $4, $4, 65535
1665	199C  00840019            multu $4, $4
1666	19A0  00002012            mflo $4
1667	19A4  AC240154            sw $4, 340($1)
1668	19A8  00630019            multu $3, $3
1669	19AC  00001812            mflo $3
1670	19B0  AC230158            sw $3, 344($1)
1671	19B4  3C03FFFF            lui $3, 65535
1672	19B8  3463FFFF            ori $3, $3, 65535
1673	19BC  00630019            multu $3, $3
1674	19C0  00001812            mflo $3
1675	19C4  AC23015C            sw $3, 348($1)
1676	19C8  00420019            multu $2, $2
1677	19CC  00001012            mflo $2
1678	19D0  AC220160            sw $2, 352($1)
1679	19D4  3C02FFFF            lui $2, 65535
1680	19D8  3442FFFF            ori $2, $2, 65535
1681	19DC  00420019            multu $2, $2
1682	19E0  00001012            mflo $2
1683	19E4  AC220164            sw $2, 356($1)
1684	                          
1685	                          ;........continue test........;
1686	19E8  3C1C0000            lui $28, 0
1687	19EC  379C014C            ori $28, $28, 332
1688	19F0  3C1D0001            lui $29, 1
1689	19F4  37BD07D0            ori $29, $29, 2000
1690	                          
1691	19F8  0C0030F8            jal reset_offsets
1692	19FC  0C0039B3            jal init_patterns
1693	                          
1694	                          ;..........register test..........;
1695	1A00  0C0030F8            jal reset_offsets
1696	                          register_operation:
1697	1A04  0C003109            jal init_upward_1
1698	1A08  0C003144            jal store_load_upward_0
1699	1A0C  0C0031B9            jal store_load_downward_1
1700	                          
1701	1A10  0C0030F8            jal reset_offsets
1702	                          register_operation_2:
1703	1A14  0C003268            jal init_upward_0
1704	1A18  0C0032A3            jal store_load_upward_1
1705	1A1C  0C003318            jal store_load_downward_0
1706	                          
1707	                          ;........other test........;
1708	                          ;........reset $28 back for loops........;
1709	1A20  3C1C0000            lui $28, 0
1710	1A24  379C014C            ori $28, $28, 332
1711	                          
1712	1A28  3C1D0001            lui $29, 1
1713	1A2C  37BD07D0            ori $29, $29, 2000
1714	                          
1715	1A30  0C0030F8            jal reset_offsets
1716	                          operation_addu:
1717	1A34  0C0030F5             jal load_patterns
1718	1A38  00439021             addu $18, $2, $3
1719	1A3C  AFB20000             sw $18, 0($29)
1720	1A40  0C003102             jal increment_offset
1721	1A44  177CFFFC             bne $27, $28, operation_addu
1722	                          
1723	1A48  0C0030F8            jal reset_offsets
1724	                          operation_and:
1725	1A4C  0C0030F5             jal load_patterns
1726	1A50  00439024             and $18, $2, $3
1727	1A54  AFB20000             sw $18, 0($29)
1728	1A58  0C003102             jal increment_offset
1729	1A5C  177CFFFC             bne $27, $28, operation_and
1730	                          
1731	1A60  0C0030F8            jal reset_offsets
1732	                          operation_nor:
1733	1A64  0C0030F5             jal load_patterns
1734	1A68  00439027             nor $18, $2, $3
1735	1A6C  AFB20000             sw $18, 0($29)
1736	1A70  0C003102             jal increment_offset
1737	1A74  177CFFFC             bne $27, $28, operation_nor
1738	                          
1739	1A78  0C0030F8            jal reset_offsets
1740	                          operation_or:
1741	1A7C  0C0030F5             jal load_patterns
1742	1A80  00439025             or $18, $2, $3
1743	1A84  AFB20000             sw $18, 0($29)
1744	1A88  0C003102             jal increment_offset
1745	1A8C  177CFFFC             bne $27, $28, operation_or
1746	                          
1747	1A90  0C0030F8            jal reset_offsets
1748	                          operation_subu:
1749	1A94  0C0030F5             jal load_patterns
1750	1A98  00439023             subu $18, $2, $3
1751	1A9C  AFB20000             sw $18, 0($29)
1752	1AA0  0C003102             jal increment_offset
1753	1AA4  177CFFFC             bne $27, $28, operation_subu
1754	                          
1755	1AA8  0C0030F8            jal reset_offsets
1756	                          operation_xor:
1757	1AAC  0C0030F5             jal load_patterns
1758	1AB0  00439026             xor $18, $2, $3
1759	1AB4  AFB20000             sw $18, 0($29)
1760	1AB8  0C003102             jal increment_offset
1761	1ABC  177CFFFC             bne $27, $28, operation_xor
1762	                          
1763	1AC0  0C0030F8            jal reset_offsets
1764	                          operation_sllv:
1765	1AC4  0C0030F5             jal load_patterns
1766	1AC8  00629004             sllv $18, $2, $3
1767	1ACC  AFB20000             sw $18, 0($29)
1768	1AD0  0C003102             jal increment_offset
1769	1AD4  177CFFFC             bne $27, $28, operation_sllv
1770	                          
1771	1AD8  0C0030F8            jal reset_offsets
1772	                          operation_slt:
1773	1ADC  0C0030F5             jal load_patterns
1774	1AE0  0043902A             slt $18, $2, $3
1775	1AE4  AFB20000             sw $18, 0($29)
1776	1AE8  0C003102             jal increment_offset
1777	1AEC  177CFFFC             bne $27, $28, operation_slt
1778	                          
1779	1AF0  0C0030F8            jal reset_offsets
1780	                          operation_sltu:
1781	1AF4  0C0030F5             jal load_patterns
1782	1AF8  0043902B             sltu $18, $2, $3
1783	1AFC  AFB20000             sw $18, 0($29)
1784	1B00  0C003102             jal increment_offset
1785	1B04  177CFFFC             bne $27, $28, operation_sltu
1786	                          
1787	1B08  0C0030F8            jal reset_offsets
1788	                          operation_srav:
1789	1B0C  0C0030F5             jal load_patterns
1790	1B10  00629007             srav $18, $2, $3
1791	1B14  AFB20000             sw $18, 0($29)
1792	1B18  0C003102             jal increment_offset
1793	1B1C  177CFFFC             bne $27, $28, operation_srav
1794	                          
1795	1B20  0C0030F8            jal reset_offsets
1796	                          operation_srlv:
1797	1B24  0C0030F5             jal load_patterns
1798	1B28  00629006             srlv $18, $2, $3
1799	1B2C  AFB20000             sw $18, 0($29)
1800	1B30  0C003102             jal increment_offset
1801	1B34  177CFFFC             bne $27, $28, operation_srlv
1802	                          
1803	1B38  0C0030F8            jal reset_offsets
1804	                          operation_sll:
1805	1B3C  0C0030F5             jal load_patterns
1806	1B40  00029140             sll $18 ,$2, 5
1807	1B44  AFB20000             sw $18, 0($29)
1808	1B48  0C003102             jal increment_offset
1809	1B4C  177CFFFC             bne $27, $28, operation_sll
1810	                          
1811	1B50  0C0030F8            jal reset_offsets
1812	                          operation_srl:
1813	1B54  0C0030F5             jal load_patterns
1814	1B58  00029142             srl $18 ,$2, 5
1815	1B5C  AFB20000             sw $18, 0($29)
1816	1B60  0C003102             jal increment_offset
1817	1B64  177CFFFC             bne $27, $28, operation_srl
1818	                          
1819	1B68  0C0030F8            jal reset_offsets
1820	                          operation_sra:
1821	1B6C  0C0030F5             jal load_patterns
1822	1B70  00029143             sra $18 ,$2, 5
1823	1B74  AFB20000             sw $18, 0($29)
1824	1B78  0C003102             jal increment_offset
1825	1B7C  177CFFFC             bne $27, $28, operation_sra
1826	                          
1827	1B80  0C0030F8            jal reset_offsets
1828	                          operation_mult:
1829	1B84  0C0030F5             jal load_patterns
1830	1B88  00430018             mult $2, $3
1831	1B8C  AFB20000             sw $18, 0($29)
1832	1B90  0C003102             jal increment_offset
1833	1B94  177CFFFC             bne $27, $28, operation_mult
1834	                          
1835	1B98  0C0030F8            jal reset_offsets
1836	                          operation_multu:
1837	1B9C  0C0030F5             jal load_patterns
1838	1BA0  00430019             multu $2, $3
1839	1BA4  AFB20000             sw $18, 0($29)
1840	1BA8  0C003102             jal increment_offset
1841	1BAC  177CFFFC             bne $27, $28, operation_multu
1842	                          
1843	1BB0  0C0030F8            jal reset_offsets
1844	1BB4  0C0030FD            jal reset_hi_lo
1845	                          operation_mfhi:
1846	1BB8  0C0030F5             jal load_patterns
1847	1BBC  00009010             mfhi $18
1848	1BC0  AFB20000             sw $18, 0($29)
1849	1BC4  0C003102             jal increment_offset
1850	1BC8  177CFFFC             bne $27, $28, operation_mfhi
1851	                          
1852	1BCC  0C0030F8            jal reset_offsets
1853	1BD0  0C0030FD            jal reset_hi_lo
1854	                          operation_mflo:
1855	1BD4  0C0030F5             jal load_patterns
1856	1BD8  00009012             mflo $18
1857	1BDC  AFB20000             sw $18, 0($29)
1858	1BE0  0C003102             jal increment_offset
1859	1BE4  177CFFFC             bne $27, $28, operation_mflo
1860	                          
1861	1BE8  0C0030F8            jal reset_offsets
1862	                          operation_mthi:
1863	1BEC  0C0030F5             jal load_patterns
1864	1BF0  00400011             mthi $2
1865	1BF4  AFB20000             sw $18, 0($29)
1866	1BF8  0C003102             jal increment_offset
1867	1BFC  177CFFFC             bne $27, $28, operation_mthi
1868	                          
1869	1C00  0C0030F8            jal reset_offsets
1870	                          operation_mtlo:
1871	1C04  0C0030F5             jal load_patterns
1872	1C08  00400013             mtlo $2
1873	1C0C  AFB20000             sw $18, 0($29)
1874	1C10  0C003102             jal increment_offset
1875	1C14  177CFFFC             bne $27, $28, operation_mtlo
1876	                          
1877	1C18  0C0030F8            jal reset_offsets
1878	                          operation_mult_lo:
1879	1C1C  0C0030F5             jal load_patterns
1880	1C20  00430018             mult $2, $3
1881	1C24  00009012             mflo $18
1882	1C28  AFB20000             sw $18, 0($29)
1883	1C2C  0C003102             jal increment_offset
1884	1C30  177CFFFB             bne $27, $28, operation_mult_lo
1885	                          
1886	1C34  0C0030F8            jal reset_offsets
1887	                          operation_mult_hi:
1888	1C38  0C0030F5             jal load_patterns
1889	1C3C  00430018             mult $2, $3
1890	1C40  00009010             mfhi $18
1891	1C44  AFB20000             sw $18, 0($29)
1892	1C48  0C003102             jal increment_offset
1893	1C4C  177CFFFB             bne $27, $28, operation_mult_hi
1894	                          
1895	1C50  0C0030F8            jal reset_offsets
1896	                          operation_multu_lo:
1897	1C54  0C0030F5             jal load_patterns
1898	1C58  00430019             multu $2, $3
1899	1C5C  00009012             mflo $18
1900	1C60  AFB20000             sw $18, 0($29)
1901	1C64  0C003102             jal increment_offset
1902	1C68  177CFFFB             bne $27, $28, operation_multu_lo
1903	                          
1904	1C6C  0C0030F8            jal reset_offsets
1905	                          operation_multu_hi:
1906	1C70  0C0030F5             jal load_patterns
1907	1C74  00430019             multu $2, $3
1908	1C78  00009010             mfhi $18
1909	1C7C  AFB20000             sw $18, 0($29)
1910	1C80  0C003102             jal increment_offset
1911	1C84  177CFFFB             bne $27, $28, operation_multu_hi
1912	                          
1913	1C88  0C0030F8            jal reset_offsets
1914	                          operation_mthi_hi_lo:
1915	1C8C  0C0030F5             jal load_patterns
1916	1C90  00400011             mthi $2
1917	1C94  00009010             mfhi $18
1918	1C98  AFB20000             sw $18, 0($29)
1919	1C9C  0C003102             jal increment_offset
1920	1CA0  177CFFFB             bne $27, $28, operation_mthi_hi_lo
1921	                          
1922	1CA4  0C0030F8            jal reset_offsets
1923	                          operation_mtlo_hi_lo:
1924	1CA8  0C0030F5             jal load_patterns
1925	1CAC  00400013             mtlo $2
1926	1CB0  00009012             mflo $18
1927	1CB4  AFB20000             sw $18, 0($29)
1928	1CB8  0C003102             jal increment_offset
1929	1CBC  177CFFFB             bne $27, $28, operation_mtlo_hi_lo
1930	                          
1931	                          ;..........data-path test..........;
1932	1CC0  0C0030F8            jal reset_offsets
1933	                          operation_addu_psuedo:
1934	1CC4  3C020000             lui $2, 0
1935	1CC8  34420000             ori $2, $2, 0
1936	1CCC  3C030000             lui $3, 0
1937	1CD0  34630000             ori $3, $3, 0
1938	1CD4  00439021             addu $18, $2, $3
1939	1CD8  AFB20000             sw $18, 0($29)
1940	1CDC  0C003102             jal increment_offset
1941	1CE0  3C020000             lui $2, 0
1942	1CE4  34420000             ori $2, $2, 0
1943	1CE8  3C03FFFF             lui $3, 65535
1944	1CEC  3463FFFF             ori $3, $3, 65535
1945	1CF0  00439021             addu $18, $2, $3
1946	1CF4  AFB20000             sw $18, 0($29)
1947	1CF8  0C003102             jal increment_offset
1948	1CFC  3C02FFFF             lui $2, 65535
1949	1D00  3442FFFF             ori $2, $2, 65535
1950	1D04  3C030000             lui $3, 0
1951	1D08  34630000             ori $3, $3, 0
1952	1D0C  00439021             addu $18, $2, $3
1953	1D10  AFB20000             sw $18, 0($29)
1954	1D14  0C003102             jal increment_offset
1955	1D18  3C025555             lui $2, 21845
1956	1D1C  34425555             ori $2, $2, 21845
1957	1D20  3C035555             lui $3, 21845
1958	1D24  34635555             ori $3, $3, 21845
1959	1D28  00439021             addu $18, $2, $3
1960	1D2C  AFB20000             sw $18, 0($29)
1961	1D30  0C003102             jal increment_offset
1962	1D34  3C02AAAA             lui $2, 43690
1963	1D38  3442AAAA             ori $2, $2, 43690
1964	1D3C  3C03AAAA             lui $3, 43690
1965	1D40  3463AAAA             ori $3, $3, 43690
1966	1D44  00439021             addu $18, $2, $3
1967	1D48  AFB20000             sw $18, 0($29)
1968	1D4C  0C003102             jal increment_offset
1969	1D50  3C020000             lui $2, 0
1970	1D54  34420001             ori $2, $2, 1
1971	1D58  3C03FFFF             lui $3, 65535
1972	1D5C  3463FFFF             ori $3, $3, 65535
1973	1D60  00439021             addu $18, $2, $3
1974	1D64  AFB20000             sw $18, 0($29)
1975	1D68  0C003102             jal increment_offset
1976	1D6C  3C02FFFF             lui $2, 65535
1977	1D70  3442FFFF             ori $2, $2, 65535
1978	1D74  3C030000             lui $3, 0
1979	1D78  34630001             ori $3, $3, 1
1980	1D7C  00439021             addu $18, $2, $3
1981	1D80  AFB20000             sw $18, 0($29)
1982	1D84  0C003102             jal increment_offset
1983	1D88  3C02FFFF             lui $2, 65535
1984	1D8C  3442FFFF             ori $2, $2, 65535
1985	1D90  3C03FFFF             lui $3, 65535
1986	1D94  3463FFFF             ori $3, $3, 65535
1987	1D98  00439021             addu $18, $2, $3
1988	1D9C  AFB20000             sw $18, 0($29)
1989	1DA0  0C003102             jal increment_offset
1990	1DA4  3C026666             lui $2, 26214
1991	1DA8  34426666             ori $2, $2, 26214
1992	1DAC  3C035555             lui $3, 21845
1993	1DB0  34635555             ori $3, $3, 21845
1994	1DB4  00439021             addu $18, $2, $3
1995	1DB8  AFB20000             sw $18, 0($29)
1996	1DBC  0C003102             jal increment_offset
1997	                          
1998	1DC0  0C0030F8            jal reset_offsets
1999	                          operation_subu_psuedo:
2000	1DC4  3C020000             lui $2, 0
2001	1DC8  34420000             ori $2, $2, 0
2002	1DCC  3C030000             lui $3, 0
2003	1DD0  34630000             ori $3, $3, 0
2004	1DD4  00439023             subu $18, $2, $3
2005	1DD8  AFB20000             sw $18, 0($29)
2006	1DDC  0C003102             jal increment_offset
2007	1DE0  3C020000             lui $2, 0
2008	1DE4  34420000             ori $2, $2, 0
2009	1DE8  3C030000             lui $3, 0
2010	1DEC  34630001             ori $3, $3, 1
2011	1DF0  00439023             subu $18, $2, $3
2012	1DF4  AFB20000             sw $18, 0($29)
2013	1DF8  0C003102             jal increment_offset
2014	1DFC  3C020000             lui $2, 0
2015	1E00  34420000             ori $2, $2, 0
2016	1E04  3C03FFFF             lui $3, 65535
2017	1E08  3463FFFF             ori $3, $3, 65535
2018	1E0C  00439023             subu $18, $2, $3
2019	1E10  AFB20000             sw $18, 0($29)
2020	1E14  0C003102             jal increment_offset
2021	1E18  3C025555             lui $2, 21845
2022	1E1C  34425555             ori $2, $2, 21845
2023	1E20  3C03AAAA             lui $3, 43690
2024	1E24  3463AAAA             ori $3, $3, 43690
2025	1E28  00439023             subu $18, $2, $3
2026	1E2C  AFB20000             sw $18, 0($29)
2027	1E30  0C003102             jal increment_offset
2028	1E34  3C02AAAA             lui $2, 43690
2029	1E38  3442AAAA             ori $2, $2, 43690
2030	1E3C  3C035555             lui $3, 21845
2031	1E40  34635555             ori $3, $3, 21845
2032	1E44  00439023             subu $18, $2, $3
2033	1E48  AFB20000             sw $18, 0($29)
2034	1E4C  0C003102             jal increment_offset
2035	1E50  3C02FFFF             lui $2, 65535
2036	1E54  3442FFFF             ori $2, $2, 65535
2037	1E58  3C030000             lui $3, 0
2038	1E5C  34630001             ori $3, $3, 1
2039	1E60  00439023             subu $18, $2, $3
2040	1E64  AFB20000             sw $18, 0($29)
2041	1E68  0C003102             jal increment_offset
2042	1E6C  3C02FFFF             lui $2, 65535
2043	1E70  3442FFFE             ori $2, $2, 65534
2044	1E74  3C03FFFF             lui $3, 65535
2045	1E78  3463FFFE             ori $3, $3, 65534
2046	1E7C  00439023             subu $18, $2, $3
2047	1E80  AFB20000             sw $18, 0($29)
2048	1E84  0C003102             jal increment_offset
2049	1E88  3C02FFFF             lui $2, 65535
2050	1E8C  3442FFFE             ori $2, $2, 65534
2051	1E90  3C03FFFF             lui $3, 65535
2052	1E94  3463FFFF             ori $3, $3, 65535
2053	1E98  00439023             subu $18, $2, $3
2054	1E9C  AFB20000             sw $18, 0($29)
2055	1EA0  0C003102             jal increment_offset
2056	1EA4  3C026666             lui $2, 26214
2057	1EA8  34426666             ori $2, $2, 26214
2058	1EAC  3C035555             lui $3, 21845
2059	1EB0  34635555             ori $3, $3, 21845
2060	1EB4  00439023             subu $18, $2, $3
2061	1EB8  AFB20000             sw $18, 0($29)
2062	1EBC  0C003102             jal increment_offset
2063	                          
2064	1EC0  0C0030F8            jal reset_offsets
2065	                          operation_and_psuedo:
2066	1EC4  3C020000             lui $2, 0
2067	1EC8  34420000             ori $2, $2, 0
2068	1ECC  3C030000             lui $3, 0
2069	1ED0  34630000             ori $3, $3, 0
2070	1ED4  00439024             and $18, $2, $3
2071	1ED8  AFB20000             sw $18, 0($29)
2072	1EDC  0C003102             jal increment_offset
2073	1EE0  3C020000             lui $2, 0
2074	1EE4  34420000             ori $2, $2, 0
2075	1EE8  3C03FFFF             lui $3, 65535
2076	1EEC  3463FFFF             ori $3, $3, 65535
2077	1EF0  00439024             and $18, $2, $3
2078	1EF4  AFB20000             sw $18, 0($29)
2079	1EF8  0C003102             jal increment_offset
2080	1EFC  3C02FFFF             lui $2, 65535
2081	1F00  3442FFFF             ori $2, $2, 65535
2082	1F04  3C030000             lui $3, 0
2083	1F08  34630000             ori $3, $3, 0
2084	1F0C  00439024             and $18, $2, $3
2085	1F10  AFB20000             sw $18, 0($29)
2086	1F14  0C003102             jal increment_offset
2087	1F18  3C02FFFF             lui $2, 65535
2088	1F1C  3442FFFF             ori $2, $2, 65535
2089	1F20  3C03FFFF             lui $3, 65535
2090	1F24  3463FFFF             ori $3, $3, 65535
2091	1F28  00439024             and $18, $2, $3
2092	1F2C  AFB20000             sw $18, 0($29)
2093	1F30  0C003102             jal increment_offset
2094	                          
2095	1F34  0C0030F8            jal reset_offsets
2096	                          operation_or_psuedo:
2097	1F38  3C020000             lui $2, 0
2098	1F3C  34420000             ori $2, $2, 0
2099	1F40  3C030000             lui $3, 0
2100	1F44  34630000             ori $3, $3, 0
2101	1F48  00439025             or $18, $2, $3
2102	1F4C  AFB20000             sw $18, 0($29)
2103	1F50  0C003102             jal increment_offset
2104	1F54  3C020000             lui $2, 0
2105	1F58  34420000             ori $2, $2, 0
2106	1F5C  3C03FFFF             lui $3, 65535
2107	1F60  3463FFFF             ori $3, $3, 65535
2108	1F64  00439025             or $18, $2, $3
2109	1F68  AFB20000             sw $18, 0($29)
2110	1F6C  0C003102             jal increment_offset
2111	1F70  3C02FFFF             lui $2, 65535
2112	1F74  3442FFFF             ori $2, $2, 65535
2113	1F78  3C030000             lui $3, 0
2114	1F7C  34630000             ori $3, $3, 0
2115	1F80  00439025             or $18, $2, $3
2116	1F84  AFB20000             sw $18, 0($29)
2117	1F88  0C003102             jal increment_offset
2118	1F8C  3C02FFFF             lui $2, 65535
2119	1F90  3442FFFF             ori $2, $2, 65535
2120	1F94  3C03FFFF             lui $3, 65535
2121	1F98  3463FFFF             ori $3, $3, 65535
2122	1F9C  00439025             or $18, $2, $3
2123	1FA0  AFB20000             sw $18, 0($29)
2124	1FA4  0C003102             jal increment_offset
2125	                          
2126	1FA8  0C0030F8            jal reset_offsets
2127	                          operation_xor_psuedo:
2128	1FAC  3C020000             lui $2, 0
2129	1FB0  34420000             ori $2, $2, 0
2130	1FB4  3C030000             lui $3, 0
2131	1FB8  34630000             ori $3, $3, 0
2132	1FBC  00439026             xor $18, $2, $3
2133	1FC0  AFB20000             sw $18, 0($29)
2134	1FC4  0C003102             jal increment_offset
2135	1FC8  3C020000             lui $2, 0
2136	1FCC  34420000             ori $2, $2, 0
2137	1FD0  3C03FFFF             lui $3, 65535
2138	1FD4  3463FFFF             ori $3, $3, 65535
2139	1FD8  00439026             xor $18, $2, $3
2140	1FDC  AFB20000             sw $18, 0($29)
2141	1FE0  0C003102             jal increment_offset
2142	1FE4  3C02FFFF             lui $2, 65535
2143	1FE8  3442FFFF             ori $2, $2, 65535
2144	1FEC  3C030000             lui $3, 0
2145	1FF0  34630000             ori $3, $3, 0
2146	1FF4  00439026             xor $18, $2, $3
2147	1FF8  AFB20000             sw $18, 0($29)
2148	1FFC  0C003102             jal increment_offset
2149	2000  3C02FFFF             lui $2, 65535
2150	2004  3442FFFF             ori $2, $2, 65535
2151	2008  3C03FFFF             lui $3, 65535
2152	200C  3463FFFF             ori $3, $3, 65535
2153	2010  00439026             xor $18, $2, $3
2154	2014  AFB20000             sw $18, 0($29)
2155	2018  0C003102             jal increment_offset
2156	                          
2157	201C  0C0030F8            jal reset_offsets
2158	                          operation_nor_psuedo:
2159	2020  3C020000             lui $2, 0
2160	2024  34420000             ori $2, $2, 0
2161	2028  3C030000             lui $3, 0
2162	202C  34630000             ori $3, $3, 0
2163	2030  00439027             nor $18, $2, $3
2164	2034  AFB20000             sw $18, 0($29)
2165	2038  0C003102             jal increment_offset
2166	203C  3C020000             lui $2, 0
2167	2040  34420000             ori $2, $2, 0
2168	2044  3C03FFFF             lui $3, 65535
2169	2048  3463FFFF             ori $3, $3, 65535
2170	204C  00439027             nor $18, $2, $3
2171	2050  AFB20000             sw $18, 0($29)
2172	2054  0C003102             jal increment_offset
2173	2058  3C02FFFF             lui $2, 65535
2174	205C  3442FFFF             ori $2, $2, 65535
2175	2060  3C030000             lui $3, 0
2176	2064  34630000             ori $3, $3, 0
2177	2068  00439027             nor $18, $2, $3
2178	206C  AFB20000             sw $18, 0($29)
2179	2070  0C003102             jal increment_offset
2180	2074  3C02FFFF             lui $2, 65535
2181	2078  3442FFFF             ori $2, $2, 65535
2182	207C  3C03FFFF             lui $3, 65535
2183	2080  3463FFFF             ori $3, $3, 65535
2184	2084  00439027             nor $18, $2, $3
2185	2088  AFB20000             sw $18, 0($29)
2186	208C  0C003102             jal increment_offset
2187	                          
2188	2090  0C0030F8            jal reset_offsets
2189	                          operation_sll_psuedo:
2190	2094  3C020000             lui $2, 0
2191	2098  34420001             ori $2, $2, 1
2192	209C  00029140             sll $18, $2, 5
2193	20A0  AFB20000             sw $18, 0($29)
2194	20A4  0C003102             jal increment_offset
2195	20A8  3C020000             lui $2, 0
2196	20AC  34420001             ori $2, $2, 1
2197	20B0  00029140             sll $18, $2, 5
2198	20B4  AFB20000             sw $18, 0($29)
2199	20B8  0C003102             jal increment_offset
2200	                          
2201	20BC  0C0030F8            jal reset_offsets
2202	                          operation_srl_psuedo:
2203	20C0  3C020000             lui $2, 0
2204	20C4  34420001             ori $2, $2, 1
2205	20C8  00029142             srl $18, $2, 5
2206	20CC  AFB20000             sw $18, 0($29)
2207	20D0  0C003102             jal increment_offset
2208	20D4  3C020000             lui $2, 0
2209	20D8  34420001             ori $2, $2, 1
2210	20DC  00029142             srl $18, $2, 5
2211	20E0  AFB20000             sw $18, 0($29)
2212	20E4  0C003102             jal increment_offset
2213	                          
2214	20E8  0C0030F8            jal reset_offsets
2215	                          operation_sra_psuedo:
2216	20EC  3C020000             lui $2, 0
2217	20F0  34420001             ori $2, $2, 1
2218	20F4  00029143             sra $18, $2, 5
2219	20F8  AFB20000             sw $18, 0($29)
2220	20FC  0C003102             jal increment_offset
2221	2100  3C020000             lui $2, 0
2222	2104  34420001             ori $2, $2, 1
2223	2108  00029143             sra $18, $2, 5
2224	210C  AFB20000             sw $18, 0($29)
2225	2110  0C003102             jal increment_offset
2226	                          
2227	2114  0C0030F8            jal reset_offsets
2228	                          operation_slt_psuedo:
2229	2118  3C025555             lui $2, 21845
2230	211C  34425555             ori $2, $2, 21845
2231	2120  3C030000             lui $3, 0
2232	2124  34630001             ori $3, $3, 1
2233	2128  0043902A             slt $18, $2, $3
2234	212C  AFB20000             sw $18, 0($29)
2235	2130  0C003102             jal increment_offset
2236	2134  3C02AAAA             lui $2, 43690
2237	2138  3442AAAA             ori $2, $2, 43690
2238	213C  3C030000             lui $3, 0
2239	2140  34630001             ori $3, $3, 1
2240	2144  0043902A             slt $18, $2, $3
2241	2148  AFB20000             sw $18, 0($29)
2242	214C  0C003102             jal increment_offset
2243	                          
2244	2150  0C0030F8            jal reset_offsets
2245	                          operation_sltu_psuedo:
2246	2154  3C025555             lui $2, 21845
2247	2158  34425555             ori $2, $2, 21845
2248	215C  3C030000             lui $3, 0
2249	2160  34630001             ori $3, $3, 1
2250	2164  0043902B             sltu $18, $2, $3
2251	2168  AFB20000             sw $18, 0($29)
2252	216C  0C003102             jal increment_offset
2253	2170  3C02AAAA             lui $2, 43690
2254	2174  3442AAAA             ori $2, $2, 43690
2255	2178  3C030000             lui $3, 0
2256	217C  34630001             ori $3, $3, 1
2257	2180  0043902B             sltu $18, $2, $3
2258	2184  AFB20000             sw $18, 0($29)
2259	2188  0C003102             jal increment_offset
2260	                          
2261	218C  0C0030F8            jal reset_offsets
2262	                          operation_mult_psuedo:
2263	2190  3C020000             lui $2, 0
2264	2194  34420000             ori $2, $2, 0
2265	2198  3C030000             lui $3, 0
2266	219C  34630003             ori $3, $3, 3
2267	21A0  00430018             mult $2, $3
2268	21A4  00009012             mflo $18
2269	21A8  AFB20000             sw $18, 0($29)
2270	21AC  00009010             mfhi $18
2271	21B0  AFB20000             sw $18, 0($29)
2272	21B4  0C003102             jal increment_offset
2273	21B8  3C02AAAA             lui $2, 43690
2274	21BC  3442AAAA             ori $2, $2, 43690
2275	21C0  3C030000             lui $3, 0
2276	21C4  34630003             ori $3, $3, 3
2277	21C8  00430018             mult $2, $3
2278	21CC  00009012             mflo $18
2279	21D0  AFB20000             sw $18, 0($29)
2280	21D4  00009010             mfhi $18
2281	21D8  AFB20000             sw $18, 0($29)
2282	21DC  0C003102             jal increment_offset
2283	21E0  3C02D34D             lui $2, 54093
2284	21E4  34425555             ori $2, $2, 21845
2285	21E8  3C030000             lui $3, 0
2286	21EC  34630003             ori $3, $3, 3
2287	21F0  00430018             mult $2, $3
2288	21F4  00009012             mflo $18
2289	21F8  AFB20000             sw $18, 0($29)
2290	21FC  00009010             mfhi $18
2291	2200  AFB20000             sw $18, 0($29)
2292	2204  0C003102             jal increment_offset
2293	2208  3C021999             lui $2, 6553
2294	220C  3442999A             ori $2, $2, 39322
2295	2210  3C030000             lui $3, 0
2296	2214  34630003             ori $3, $3, 3
2297	2218  00430018             mult $2, $3
2298	221C  00009012             mflo $18
2299	2220  AFB20000             sw $18, 0($29)
2300	2224  00009010             mfhi $18
2301	2228  AFB20000             sw $18, 0($29)
2302	222C  0C003102             jal increment_offset
2303	2230  3C023536             lui $2, 13622
2304	2234  34426666             ori $2, $2, 26214
2305	2238  3C030000             lui $3, 0
2306	223C  34630003             ori $3, $3, 3
2307	2240  00430018             mult $2, $3
2308	2244  00009012             mflo $18
2309	2248  AFB20000             sw $18, 0($29)
2310	224C  00009010             mfhi $18
2311	2250  AFB20000             sw $18, 0($29)
2312	2254  0C003102             jal increment_offset
2313	2258  3C024CD4             lui $2, 19668
2314	225C  3442CCCB             ori $2, $2, 52427
2315	2260  3C030000             lui $3, 0
2316	2264  34630003             ori $3, $3, 3
2317	2268  00430018             mult $2, $3
2318	226C  00009012             mflo $18
2319	2270  AFB20000             sw $18, 0($29)
2320	2274  00009010             mfhi $18
2321	2278  AFB20000             sw $18, 0($29)
2322	227C  0C003102             jal increment_offset
2323	2280  3C026773             lui $2, 26483
2324	2284  3442F337             ori $2, $2, 62263
2325	2288  3C030000             lui $3, 0
2326	228C  34630003             ori $3, $3, 3
2327	2290  00430018             mult $2, $3
2328	2294  00009012             mflo $18
2329	2298  AFB20000             sw $18, 0($29)
2330	229C  00009010             mfhi $18
2331	22A0  AFB20000             sw $18, 0($29)
2332	22A4  0C003102             jal increment_offset
2333	22A8  3C02FDDD             lui $2, 64989
2334	22AC  34425EDF             ori $2, $2, 24287
2335	22B0  3C030000             lui $3, 0
2336	22B4  34630003             ori $3, $3, 3
2337	22B8  00430018             mult $2, $3
2338	22BC  00009012             mflo $18
2339	22C0  AFB20000             sw $18, 0($29)
2340	22C4  00009010             mfhi $18
2341	22C8  AFB20000             sw $18, 0($29)
2342	22CC  0C003102             jal increment_offset
2343	22D0  3C025666             lui $2, 22118
2344	22D4  3442BB6C             ori $2, $2, 47980
2345	22D8  3C030000             lui $3, 0
2346	22DC  34630003             ori $3, $3, 3
2347	22E0  00430018             mult $2, $3
2348	22E4  00009012             mflo $18
2349	22E8  AFB20000             sw $18, 0($29)
2350	22EC  00009010             mfhi $18
2351	22F0  AFB20000             sw $18, 0($29)
2352	22F4  0C003102             jal increment_offset
2353	22F8  3C02AAAB             lui $2, 43691
2354	22FC  344215B3             ori $2, $2, 5555
2355	2300  3C030000             lui $3, 0
2356	2304  34630003             ori $3, $3, 3
2357	2308  00430018             mult $2, $3
2358	230C  00009012             mflo $18
2359	2310  AFB20000             sw $18, 0($29)
2360	2314  00009010             mfhi $18
2361	2318  AFB20000             sw $18, 0($29)
2362	231C  0C003102             jal increment_offset
2363	2320  3C020000             lui $2, 0
2364	2324  34420000             ori $2, $2, 0
2365	2328  3C030000             lui $3, 0
2366	232C  34630006             ori $3, $3, 6
2367	2330  00430018             mult $2, $3
2368	2334  00009012             mflo $18
2369	2338  AFB20000             sw $18, 0($29)
2370	233C  00009010             mfhi $18
2371	2340  AFB20000             sw $18, 0($29)
2372	2344  0C003102             jal increment_offset
2373	2348  3C02AAAA             lui $2, 43690
2374	234C  3442AAAA             ori $2, $2, 43690
2375	2350  3C030000             lui $3, 0
2376	2354  34630006             ori $3, $3, 6
2377	2358  00430018             mult $2, $3
2378	235C  00009012             mflo $18
2379	2360  AFB20000             sw $18, 0($29)
2380	2364  00009010             mfhi $18
2381	2368  AFB20000             sw $18, 0($29)
2382	236C  0C003102             jal increment_offset
2383	2370  3C02D34D             lui $2, 54093
2384	2374  34425555             ori $2, $2, 21845
2385	2378  3C030000             lui $3, 0
2386	237C  34630006             ori $3, $3, 6
2387	2380  00430018             mult $2, $3
2388	2384  00009012             mflo $18
2389	2388  AFB20000             sw $18, 0($29)
2390	238C  00009010             mfhi $18
2391	2390  AFB20000             sw $18, 0($29)
2392	2394  0C003102             jal increment_offset
2393	2398  3C021999             lui $2, 6553
2394	239C  3442999A             ori $2, $2, 39322
2395	23A0  3C030000             lui $3, 0
2396	23A4  34630006             ori $3, $3, 6
2397	23A8  00430018             mult $2, $3
2398	23AC  00009012             mflo $18
2399	23B0  AFB20000             sw $18, 0($29)
2400	23B4  00009010             mfhi $18
2401	23B8  AFB20000             sw $18, 0($29)
2402	23BC  0C003102             jal increment_offset
2403	23C0  3C023536             lui $2, 13622
2404	23C4  34426666             ori $2, $2, 26214
2405	23C8  3C030000             lui $3, 0
2406	23CC  34630006             ori $3, $3, 6
2407	23D0  00430018             mult $2, $3
2408	23D4  00009012             mflo $18
2409	23D8  AFB20000             sw $18, 0($29)
2410	23DC  00009010             mfhi $18
2411	23E0  AFB20000             sw $18, 0($29)
2412	23E4  0C003102             jal increment_offset
2413	23E8  3C024CD4             lui $2, 19668
2414	23EC  3442CCCB             ori $2, $2, 52427
2415	23F0  3C030000             lui $3, 0
2416	23F4  34630006             ori $3, $3, 6
2417	23F8  00430018             mult $2, $3
2418	23FC  00009012             mflo $18
2419	2400  AFB20000             sw $18, 0($29)
2420	2404  00009010             mfhi $18
2421	2408  AFB20000             sw $18, 0($29)
2422	240C  0C003102             jal increment_offset
2423	2410  3C026773             lui $2, 26483
2424	2414  3442F337             ori $2, $2, 62263
2425	2418  3C030000             lui $3, 0
2426	241C  34630006             ori $3, $3, 6
2427	2420  00430018             mult $2, $3
2428	2424  00009012             mflo $18
2429	2428  AFB20000             sw $18, 0($29)
2430	242C  00009010             mfhi $18
2431	2430  AFB20000             sw $18, 0($29)
2432	2434  0C003102             jal increment_offset
2433	2438  3C02FDDD             lui $2, 64989
2434	243C  34425EDF             ori $2, $2, 24287
2435	2440  3C030000             lui $3, 0
2436	2444  34630006             ori $3, $3, 6
2437	2448  00430018             mult $2, $3
2438	244C  00009012             mflo $18
2439	2450  AFB20000             sw $18, 0($29)
2440	2454  00009010             mfhi $18
2441	2458  AFB20000             sw $18, 0($29)
2442	245C  0C003102             jal increment_offset
2443	2460  3C025666             lui $2, 22118
2444	2464  3442BB6C             ori $2, $2, 47980
2445	2468  3C030000             lui $3, 0
2446	246C  34630006             ori $3, $3, 6
2447	2470  00430018             mult $2, $3
2448	2474  00009012             mflo $18
2449	2478  AFB20000             sw $18, 0($29)
2450	247C  00009010             mfhi $18
2451	2480  AFB20000             sw $18, 0($29)
2452	2484  0C003102             jal increment_offset
2453	2488  3C02AAAB             lui $2, 43691
2454	248C  344215B3             ori $2, $2, 5555
2455	2490  3C030000             lui $3, 0
2456	2494  34630006             ori $3, $3, 6
2457	2498  00430018             mult $2, $3
2458	249C  00009012             mflo $18
2459	24A0  AFB20000             sw $18, 0($29)
2460	24A4  00009010             mfhi $18
2461	24A8  AFB20000             sw $18, 0($29)
2462	24AC  0C003102             jal increment_offset
2463	24B0  3C020000             lui $2, 0
2464	24B4  34420000             ori $2, $2, 0
2465	24B8  3C030000             lui $3, 0
2466	24BC  3463000C             ori $3, $3, 12
2467	24C0  00430018             mult $2, $3
2468	24C4  00009012             mflo $18
2469	24C8  AFB20000             sw $18, 0($29)
2470	24CC  00009010             mfhi $18
2471	24D0  AFB20000             sw $18, 0($29)
2472	24D4  0C003102             jal increment_offset
2473	24D8  3C02AAAA             lui $2, 43690
2474	24DC  3442AAAA             ori $2, $2, 43690
2475	24E0  3C030000             lui $3, 0
2476	24E4  3463000C             ori $3, $3, 12
2477	24E8  00430018             mult $2, $3
2478	24EC  00009012             mflo $18
2479	24F0  AFB20000             sw $18, 0($29)
2480	24F4  00009010             mfhi $18
2481	24F8  AFB20000             sw $18, 0($29)
2482	24FC  0C003102             jal increment_offset
2483	2500  3C02D34D             lui $2, 54093
2484	2504  34425555             ori $2, $2, 21845
2485	2508  3C030000             lui $3, 0
2486	250C  3463000C             ori $3, $3, 12
2487	2510  00430018             mult $2, $3
2488	2514  00009012             mflo $18
2489	2518  AFB20000             sw $18, 0($29)
2490	251C  00009010             mfhi $18
2491	2520  AFB20000             sw $18, 0($29)
2492	2524  0C003102             jal increment_offset
2493	2528  3C021999             lui $2, 6553
2494	252C  3442999A             ori $2, $2, 39322
2495	2530  3C030000             lui $3, 0
2496	2534  3463000C             ori $3, $3, 12
2497	2538  00430018             mult $2, $3
2498	253C  00009012             mflo $18
2499	2540  AFB20000             sw $18, 0($29)
2500	2544  00009010             mfhi $18
2501	2548  AFB20000             sw $18, 0($29)
2502	254C  0C003102             jal increment_offset
2503	2550  3C023536             lui $2, 13622
2504	2554  34426666             ori $2, $2, 26214
2505	2558  3C030000             lui $3, 0
2506	255C  3463000C             ori $3, $3, 12
2507	2560  00430018             mult $2, $3
2508	2564  00009012             mflo $18
2509	2568  AFB20000             sw $18, 0($29)
2510	256C  00009010             mfhi $18
2511	2570  AFB20000             sw $18, 0($29)
2512	2574  0C003102             jal increment_offset
2513	2578  3C024CD4             lui $2, 19668
2514	257C  3442CCCB             ori $2, $2, 52427
2515	2580  3C030000             lui $3, 0
2516	2584  3463000C             ori $3, $3, 12
2517	2588  00430018             mult $2, $3
2518	258C  00009012             mflo $18
2519	2590  AFB20000             sw $18, 0($29)
2520	2594  00009010             mfhi $18
2521	2598  AFB20000             sw $18, 0($29)
2522	259C  0C003102             jal increment_offset
2523	25A0  3C026773             lui $2, 26483
2524	25A4  3442F337             ori $2, $2, 62263
2525	25A8  3C030000             lui $3, 0
2526	25AC  3463000C             ori $3, $3, 12
2527	25B0  00430018             mult $2, $3
2528	25B4  00009012             mflo $18
2529	25B8  AFB20000             sw $18, 0($29)
2530	25BC  00009010             mfhi $18
2531	25C0  AFB20000             sw $18, 0($29)
2532	25C4  0C003102             jal increment_offset
2533	25C8  3C02FDDD             lui $2, 64989
2534	25CC  34425EDF             ori $2, $2, 24287
2535	25D0  3C030000             lui $3, 0
2536	25D4  3463000C             ori $3, $3, 12
2537	25D8  00430018             mult $2, $3
2538	25DC  00009012             mflo $18
2539	25E0  AFB20000             sw $18, 0($29)
2540	25E4  00009010             mfhi $18
2541	25E8  AFB20000             sw $18, 0($29)
2542	25EC  0C003102             jal increment_offset
2543	25F0  3C025666             lui $2, 22118
2544	25F4  3442BB6C             ori $2, $2, 47980
2545	25F8  3C030000             lui $3, 0
2546	25FC  3463000C             ori $3, $3, 12
2547	2600  00430018             mult $2, $3
2548	2604  00009012             mflo $18
2549	2608  AFB20000             sw $18, 0($29)
2550	260C  00009010             mfhi $18
2551	2610  AFB20000             sw $18, 0($29)
2552	2614  0C003102             jal increment_offset
2553	2618  3C02AAAB             lui $2, 43691
2554	261C  344215B3             ori $2, $2, 5555
2555	2620  3C030000             lui $3, 0
2556	2624  3463000C             ori $3, $3, 12
2557	2628  00430018             mult $2, $3
2558	262C  00009012             mflo $18
2559	2630  AFB20000             sw $18, 0($29)
2560	2634  00009010             mfhi $18
2561	2638  AFB20000             sw $18, 0($29)
2562	263C  0C003102             jal increment_offset
2563	2640  3C020000             lui $2, 0
2564	2644  34420000             ori $2, $2, 0
2565	2648  3C030000             lui $3, 0
2566	264C  34630018             ori $3, $3, 24
2567	2650  00430018             mult $2, $3
2568	2654  00009012             mflo $18
2569	2658  AFB20000             sw $18, 0($29)
2570	265C  00009010             mfhi $18
2571	2660  AFB20000             sw $18, 0($29)
2572	2664  0C003102             jal increment_offset
2573	2668  3C02AAAA             lui $2, 43690
2574	266C  3442AAAA             ori $2, $2, 43690
2575	2670  3C030000             lui $3, 0
2576	2674  34630018             ori $3, $3, 24
2577	2678  00430018             mult $2, $3
2578	267C  00009012             mflo $18
2579	2680  AFB20000             sw $18, 0($29)
2580	2684  00009010             mfhi $18
2581	2688  AFB20000             sw $18, 0($29)
2582	268C  0C003102             jal increment_offset
2583	2690  3C02D34D             lui $2, 54093
2584	2694  34425555             ori $2, $2, 21845
2585	2698  3C030000             lui $3, 0
2586	269C  34630018             ori $3, $3, 24
2587	26A0  00430018             mult $2, $3
2588	26A4  00009012             mflo $18
2589	26A8  AFB20000             sw $18, 0($29)
2590	26AC  00009010             mfhi $18
2591	26B0  AFB20000             sw $18, 0($29)
2592	26B4  0C003102             jal increment_offset
2593	26B8  3C021999             lui $2, 6553
2594	26BC  3442999A             ori $2, $2, 39322
2595	26C0  3C030000             lui $3, 0
2596	26C4  34630018             ori $3, $3, 24
2597	26C8  00430018             mult $2, $3
2598	26CC  00009012             mflo $18
2599	26D0  AFB20000             sw $18, 0($29)
2600	26D4  00009010             mfhi $18
2601	26D8  AFB20000             sw $18, 0($29)
2602	26DC  0C003102             jal increment_offset
2603	26E0  3C023536             lui $2, 13622
2604	26E4  34426666             ori $2, $2, 26214
2605	26E8  3C030000             lui $3, 0
2606	26EC  34630018             ori $3, $3, 24
2607	26F0  00430018             mult $2, $3
2608	26F4  00009012             mflo $18
2609	26F8  AFB20000             sw $18, 0($29)
2610	26FC  00009010             mfhi $18
2611	2700  AFB20000             sw $18, 0($29)
2612	2704  0C003102             jal increment_offset
2613	2708  3C024CD4             lui $2, 19668
2614	270C  3442CCCB             ori $2, $2, 52427
2615	2710  3C030000             lui $3, 0
2616	2714  34630018             ori $3, $3, 24
2617	2718  00430018             mult $2, $3
2618	271C  00009012             mflo $18
2619	2720  AFB20000             sw $18, 0($29)
2620	2724  00009010             mfhi $18
2621	2728  AFB20000             sw $18, 0($29)
2622	272C  0C003102             jal increment_offset
2623	2730  3C026773             lui $2, 26483
2624	2734  3442F337             ori $2, $2, 62263
2625	2738  3C030000             lui $3, 0
2626	273C  34630018             ori $3, $3, 24
2627	2740  00430018             mult $2, $3
2628	2744  00009012             mflo $18
2629	2748  AFB20000             sw $18, 0($29)
2630	274C  00009010             mfhi $18
2631	2750  AFB20000             sw $18, 0($29)
2632	2754  0C003102             jal increment_offset
2633	2758  3C02FDDD             lui $2, 64989
2634	275C  34425EDF             ori $2, $2, 24287
2635	2760  3C030000             lui $3, 0
2636	2764  34630018             ori $3, $3, 24
2637	2768  00430018             mult $2, $3
2638	276C  00009012             mflo $18
2639	2770  AFB20000             sw $18, 0($29)
2640	2774  00009010             mfhi $18
2641	2778  AFB20000             sw $18, 0($29)
2642	277C  0C003102             jal increment_offset
2643	2780  3C025666             lui $2, 22118
2644	2784  3442BB6C             ori $2, $2, 47980
2645	2788  3C030000             lui $3, 0
2646	278C  34630018             ori $3, $3, 24
2647	2790  00430018             mult $2, $3
2648	2794  00009012             mflo $18
2649	2798  AFB20000             sw $18, 0($29)
2650	279C  00009010             mfhi $18
2651	27A0  AFB20000             sw $18, 0($29)
2652	27A4  0C003102             jal increment_offset
2653	27A8  3C02AAAB             lui $2, 43691
2654	27AC  344215B3             ori $2, $2, 5555
2655	27B0  3C030000             lui $3, 0
2656	27B4  34630018             ori $3, $3, 24
2657	27B8  00430018             mult $2, $3
2658	27BC  00009012             mflo $18
2659	27C0  AFB20000             sw $18, 0($29)
2660	27C4  00009010             mfhi $18
2661	27C8  AFB20000             sw $18, 0($29)
2662	27CC  0C003102             jal increment_offset
2663	27D0  3C020000             lui $2, 0
2664	27D4  34420000             ori $2, $2, 0
2665	27D8  3C030000             lui $3, 0
2666	27DC  34630030             ori $3, $3, 48
2667	27E0  00430018             mult $2, $3
2668	27E4  00009012             mflo $18
2669	27E8  AFB20000             sw $18, 0($29)
2670	27EC  00009010             mfhi $18
2671	27F0  AFB20000             sw $18, 0($29)
2672	27F4  0C003102             jal increment_offset
2673	27F8  3C02AAAA             lui $2, 43690
2674	27FC  3442AAAA             ori $2, $2, 43690
2675	2800  3C030000             lui $3, 0
2676	2804  34630030             ori $3, $3, 48
2677	2808  00430018             mult $2, $3
2678	280C  00009012             mflo $18
2679	2810  AFB20000             sw $18, 0($29)
2680	2814  00009010             mfhi $18
2681	2818  AFB20000             sw $18, 0($29)
2682	281C  0C003102             jal increment_offset
2683	2820  3C02D34D             lui $2, 54093
2684	2824  34425555             ori $2, $2, 21845
2685	2828  3C030000             lui $3, 0
2686	282C  34630030             ori $3, $3, 48
2687	2830  00430018             mult $2, $3
2688	2834  00009012             mflo $18
2689	2838  AFB20000             sw $18, 0($29)
2690	283C  00009010             mfhi $18
2691	2840  AFB20000             sw $18, 0($29)
2692	2844  0C003102             jal increment_offset
2693	2848  3C021999             lui $2, 6553
2694	284C  3442999A             ori $2, $2, 39322
2695	2850  3C030000             lui $3, 0
2696	2854  34630030             ori $3, $3, 48
2697	2858  00430018             mult $2, $3
2698	285C  00009012             mflo $18
2699	2860  AFB20000             sw $18, 0($29)
2700	2864  00009010             mfhi $18
2701	2868  AFB20000             sw $18, 0($29)
2702	286C  0C003102             jal increment_offset
2703	2870  3C023536             lui $2, 13622
2704	2874  34426666             ori $2, $2, 26214
2705	2878  3C030000             lui $3, 0
2706	287C  34630030             ori $3, $3, 48
2707	2880  00430018             mult $2, $3
2708	2884  00009012             mflo $18
2709	2888  AFB20000             sw $18, 0($29)
2710	288C  00009010             mfhi $18
2711	2890  AFB20000             sw $18, 0($29)
2712	2894  0C003102             jal increment_offset
2713	2898  3C024CD4             lui $2, 19668
2714	289C  3442CCCB             ori $2, $2, 52427
2715	28A0  3C030000             lui $3, 0
2716	28A4  34630030             ori $3, $3, 48
2717	28A8  00430018             mult $2, $3
2718	28AC  00009012             mflo $18
2719	28B0  AFB20000             sw $18, 0($29)
2720	28B4  00009010             mfhi $18
2721	28B8  AFB20000             sw $18, 0($29)
2722	28BC  0C003102             jal increment_offset
2723	28C0  3C026773             lui $2, 26483
2724	28C4  3442F337             ori $2, $2, 62263
2725	28C8  3C030000             lui $3, 0
2726	28CC  34630030             ori $3, $3, 48
2727	28D0  00430018             mult $2, $3
2728	28D4  00009012             mflo $18
2729	28D8  AFB20000             sw $18, 0($29)
2730	28DC  00009010             mfhi $18
2731	28E0  AFB20000             sw $18, 0($29)
2732	28E4  0C003102             jal increment_offset
2733	28E8  3C02FDDD             lui $2, 64989
2734	28EC  34425EDF             ori $2, $2, 24287
2735	28F0  3C030000             lui $3, 0
2736	28F4  34630030             ori $3, $3, 48
2737	28F8  00430018             mult $2, $3
2738	28FC  00009012             mflo $18
2739	2900  AFB20000             sw $18, 0($29)
2740	2904  00009010             mfhi $18
2741	2908  AFB20000             sw $18, 0($29)
2742	290C  0C003102             jal increment_offset
2743	2910  3C025666             lui $2, 22118
2744	2914  3442BB6C             ori $2, $2, 47980
2745	2918  3C030000             lui $3, 0
2746	291C  34630030             ori $3, $3, 48
2747	2920  00430018             mult $2, $3
2748	2924  00009012             mflo $18
2749	2928  AFB20000             sw $18, 0($29)
2750	292C  00009010             mfhi $18
2751	2930  AFB20000             sw $18, 0($29)
2752	2934  0C003102             jal increment_offset
2753	2938  3C02AAAB             lui $2, 43691
2754	293C  344215B3             ori $2, $2, 5555
2755	2940  3C030000             lui $3, 0
2756	2944  34630030             ori $3, $3, 48
2757	2948  00430018             mult $2, $3
2758	294C  00009012             mflo $18
2759	2950  AFB20000             sw $18, 0($29)
2760	2954  00009010             mfhi $18
2761	2958  AFB20000             sw $18, 0($29)
2762	295C  0C003102             jal increment_offset
2763	2960  3C020000             lui $2, 0
2764	2964  34420000             ori $2, $2, 0
2765	2968  3C030000             lui $3, 0
2766	296C  34630060             ori $3, $3, 96
2767	2970  00430018             mult $2, $3
2768	2974  00009012             mflo $18
2769	2978  AFB20000             sw $18, 0($29)
2770	297C  00009010             mfhi $18
2771	2980  AFB20000             sw $18, 0($29)
2772	2984  0C003102             jal increment_offset
2773	2988  3C02AAAA             lui $2, 43690
2774	298C  3442AAAA             ori $2, $2, 43690
2775	2990  3C030000             lui $3, 0
2776	2994  34630060             ori $3, $3, 96
2777	2998  00430018             mult $2, $3
2778	299C  00009012             mflo $18
2779	29A0  AFB20000             sw $18, 0($29)
2780	29A4  00009010             mfhi $18
2781	29A8  AFB20000             sw $18, 0($29)
2782	29AC  0C003102             jal increment_offset
2783	29B0  3C02D34D             lui $2, 54093
2784	29B4  34425555             ori $2, $2, 21845
2785	29B8  3C030000             lui $3, 0
2786	29BC  34630060             ori $3, $3, 96
2787	29C0  00430018             mult $2, $3
2788	29C4  00009012             mflo $18
2789	29C8  AFB20000             sw $18, 0($29)
2790	29CC  00009010             mfhi $18
2791	29D0  AFB20000             sw $18, 0($29)
2792	29D4  0C003102             jal increment_offset
2793	29D8  3C021999             lui $2, 6553
2794	29DC  3442999A             ori $2, $2, 39322
2795	29E0  3C030000             lui $3, 0
2796	29E4  34630060             ori $3, $3, 96
2797	29E8  00430018             mult $2, $3
2798	29EC  00009012             mflo $18
2799	29F0  AFB20000             sw $18, 0($29)
2800	29F4  00009010             mfhi $18
2801	29F8  AFB20000             sw $18, 0($29)
2802	29FC  0C003102             jal increment_offset
2803	2A00  3C023536             lui $2, 13622
2804	2A04  34426666             ori $2, $2, 26214
2805	2A08  3C030000             lui $3, 0
2806	2A0C  34630060             ori $3, $3, 96
2807	2A10  00430018             mult $2, $3
2808	2A14  00009012             mflo $18
2809	2A18  AFB20000             sw $18, 0($29)
2810	2A1C  00009010             mfhi $18
2811	2A20  AFB20000             sw $18, 0($29)
2812	2A24  0C003102             jal increment_offset
2813	2A28  3C024CD4             lui $2, 19668
2814	2A2C  3442CCCB             ori $2, $2, 52427
2815	2A30  3C030000             lui $3, 0
2816	2A34  34630060             ori $3, $3, 96
2817	2A38  00430018             mult $2, $3
2818	2A3C  00009012             mflo $18
2819	2A40  AFB20000             sw $18, 0($29)
2820	2A44  00009010             mfhi $18
2821	2A48  AFB20000             sw $18, 0($29)
2822	2A4C  0C003102             jal increment_offset
2823	2A50  3C026773             lui $2, 26483
2824	2A54  3442F337             ori $2, $2, 62263
2825	2A58  3C030000             lui $3, 0
2826	2A5C  34630060             ori $3, $3, 96
2827	2A60  00430018             mult $2, $3
2828	2A64  00009012             mflo $18
2829	2A68  AFB20000             sw $18, 0($29)
2830	2A6C  00009010             mfhi $18
2831	2A70  AFB20000             sw $18, 0($29)
2832	2A74  0C003102             jal increment_offset
2833	2A78  3C02FDDD             lui $2, 64989
2834	2A7C  34425EDF             ori $2, $2, 24287
2835	2A80  3C030000             lui $3, 0
2836	2A84  34630060             ori $3, $3, 96
2837	2A88  00430018             mult $2, $3
2838	2A8C  00009012             mflo $18
2839	2A90  AFB20000             sw $18, 0($29)
2840	2A94  00009010             mfhi $18
2841	2A98  AFB20000             sw $18, 0($29)
2842	2A9C  0C003102             jal increment_offset
2843	2AA0  3C025666             lui $2, 22118
2844	2AA4  3442BB6C             ori $2, $2, 47980
2845	2AA8  3C030000             lui $3, 0
2846	2AAC  34630060             ori $3, $3, 96
2847	2AB0  00430018             mult $2, $3
2848	2AB4  00009012             mflo $18
2849	2AB8  AFB20000             sw $18, 0($29)
2850	2ABC  00009010             mfhi $18
2851	2AC0  AFB20000             sw $18, 0($29)
2852	2AC4  0C003102             jal increment_offset
2853	2AC8  3C02AAAB             lui $2, 43691
2854	2ACC  344215B3             ori $2, $2, 5555
2855	2AD0  3C030000             lui $3, 0
2856	2AD4  34630060             ori $3, $3, 96
2857	2AD8  00430018             mult $2, $3
2858	2ADC  00009012             mflo $18
2859	2AE0  AFB20000             sw $18, 0($29)
2860	2AE4  00009010             mfhi $18
2861	2AE8  AFB20000             sw $18, 0($29)
2862	2AEC  0C003102             jal increment_offset
2863	2AF0  3C020000             lui $2, 0
2864	2AF4  34420000             ori $2, $2, 0
2865	2AF8  3C030000             lui $3, 0
2866	2AFC  346300C0             ori $3, $3, 192
2867	2B00  00430018             mult $2, $3
2868	2B04  00009012             mflo $18
2869	2B08  AFB20000             sw $18, 0($29)
2870	2B0C  00009010             mfhi $18
2871	2B10  AFB20000             sw $18, 0($29)
2872	2B14  0C003102             jal increment_offset
2873	2B18  3C02AAAA             lui $2, 43690
2874	2B1C  3442AAAA             ori $2, $2, 43690
2875	2B20  3C030000             lui $3, 0
2876	2B24  346300C0             ori $3, $3, 192
2877	2B28  00430018             mult $2, $3
2878	2B2C  00009012             mflo $18
2879	2B30  AFB20000             sw $18, 0($29)
2880	2B34  00009010             mfhi $18
2881	2B38  AFB20000             sw $18, 0($29)
2882	2B3C  0C003102             jal increment_offset
2883	2B40  3C02D34D             lui $2, 54093
2884	2B44  34425555             ori $2, $2, 21845
2885	2B48  3C030000             lui $3, 0
2886	2B4C  346300C0             ori $3, $3, 192
2887	2B50  00430018             mult $2, $3
2888	2B54  00009012             mflo $18
2889	2B58  AFB20000             sw $18, 0($29)
2890	2B5C  00009010             mfhi $18
2891	2B60  AFB20000             sw $18, 0($29)
2892	2B64  0C003102             jal increment_offset
2893	2B68  3C021999             lui $2, 6553
2894	2B6C  3442999A             ori $2, $2, 39322
2895	2B70  3C030000             lui $3, 0
2896	2B74  346300C0             ori $3, $3, 192
2897	2B78  00430018             mult $2, $3
2898	2B7C  00009012             mflo $18
2899	2B80  AFB20000             sw $18, 0($29)
2900	2B84  00009010             mfhi $18
2901	2B88  AFB20000             sw $18, 0($29)
2902	2B8C  0C003102             jal increment_offset
2903	2B90  3C023536             lui $2, 13622
2904	2B94  34426666             ori $2, $2, 26214
2905	2B98  3C030000             lui $3, 0
2906	2B9C  346300C0             ori $3, $3, 192
2907	2BA0  00430018             mult $2, $3
2908	2BA4  00009012             mflo $18
2909	2BA8  AFB20000             sw $18, 0($29)
2910	2BAC  00009010             mfhi $18
2911	2BB0  AFB20000             sw $18, 0($29)
2912	2BB4  0C003102             jal increment_offset
2913	2BB8  3C024CD4             lui $2, 19668
2914	2BBC  3442CCCB             ori $2, $2, 52427
2915	2BC0  3C030000             lui $3, 0
2916	2BC4  346300C0             ori $3, $3, 192
2917	2BC8  00430018             mult $2, $3
2918	2BCC  00009012             mflo $18
2919	2BD0  AFB20000             sw $18, 0($29)
2920	2BD4  00009010             mfhi $18
2921	2BD8  AFB20000             sw $18, 0($29)
2922	2BDC  0C003102             jal increment_offset
2923	2BE0  3C026773             lui $2, 26483
2924	2BE4  3442F337             ori $2, $2, 62263
2925	2BE8  3C030000             lui $3, 0
2926	2BEC  346300C0             ori $3, $3, 192
2927	2BF0  00430018             mult $2, $3
2928	2BF4  00009012             mflo $18
2929	2BF8  AFB20000             sw $18, 0($29)
2930	2BFC  00009010             mfhi $18
2931	2C00  AFB20000             sw $18, 0($29)
2932	2C04  0C003102             jal increment_offset
2933	2C08  3C02FDDD             lui $2, 64989
2934	2C0C  34425EDF             ori $2, $2, 24287
2935	2C10  3C030000             lui $3, 0
2936	2C14  346300C0             ori $3, $3, 192
2937	2C18  00430018             mult $2, $3
2938	2C1C  00009012             mflo $18
2939	2C20  AFB20000             sw $18, 0($29)
2940	2C24  00009010             mfhi $18
2941	2C28  AFB20000             sw $18, 0($29)
2942	2C2C  0C003102             jal increment_offset
2943	2C30  3C025666             lui $2, 22118
2944	2C34  3442BB6C             ori $2, $2, 47980
2945	2C38  3C030000             lui $3, 0
2946	2C3C  346300C0             ori $3, $3, 192
2947	2C40  00430018             mult $2, $3
2948	2C44  00009012             mflo $18
2949	2C48  AFB20000             sw $18, 0($29)
2950	2C4C  00009010             mfhi $18
2951	2C50  AFB20000             sw $18, 0($29)
2952	2C54  0C003102             jal increment_offset
2953	2C58  3C02AAAB             lui $2, 43691
2954	2C5C  344215B3             ori $2, $2, 5555
2955	2C60  3C030000             lui $3, 0
2956	2C64  346300C0             ori $3, $3, 192
2957	2C68  00430018             mult $2, $3
2958	2C6C  00009012             mflo $18
2959	2C70  AFB20000             sw $18, 0($29)
2960	2C74  00009010             mfhi $18
2961	2C78  AFB20000             sw $18, 0($29)
2962	2C7C  0C003102             jal increment_offset
2963	2C80  3C020000             lui $2, 0
2964	2C84  34420000             ori $2, $2, 0
2965	2C88  3C030000             lui $3, 0
2966	2C8C  34630180             ori $3, $3, 384
2967	2C90  00430018             mult $2, $3
2968	2C94  00009012             mflo $18
2969	2C98  AFB20000             sw $18, 0($29)
2970	2C9C  00009010             mfhi $18
2971	2CA0  AFB20000             sw $18, 0($29)
2972	2CA4  0C003102             jal increment_offset
2973	2CA8  3C02AAAA             lui $2, 43690
2974	2CAC  3442AAAA             ori $2, $2, 43690
2975	2CB0  3C030000             lui $3, 0
2976	2CB4  34630180             ori $3, $3, 384
2977	2CB8  00430018             mult $2, $3
2978	2CBC  00009012             mflo $18
2979	2CC0  AFB20000             sw $18, 0($29)
2980	2CC4  00009010             mfhi $18
2981	2CC8  AFB20000             sw $18, 0($29)
2982	2CCC  0C003102             jal increment_offset
2983	2CD0  3C02D34D             lui $2, 54093
2984	2CD4  34425555             ori $2, $2, 21845
2985	2CD8  3C030000             lui $3, 0
2986	2CDC  34630180             ori $3, $3, 384
2987	2CE0  00430018             mult $2, $3
2988	2CE4  00009012             mflo $18
2989	2CE8  AFB20000             sw $18, 0($29)
2990	2CEC  00009010             mfhi $18
2991	2CF0  AFB20000             sw $18, 0($29)
2992	2CF4  0C003102             jal increment_offset
2993	2CF8  3C021999             lui $2, 6553
2994	2CFC  3442999A             ori $2, $2, 39322
2995	2D00  3C030000             lui $3, 0
2996	2D04  34630180             ori $3, $3, 384
2997	2D08  00430018             mult $2, $3
2998	2D0C  00009012             mflo $18
2999	2D10  AFB20000             sw $18, 0($29)
3000	2D14  00009010             mfhi $18
3001	2D18  AFB20000             sw $18, 0($29)
3002	2D1C  0C003102             jal increment_offset
3003	2D20  3C023536             lui $2, 13622
3004	2D24  34426666             ori $2, $2, 26214
3005	2D28  3C030000             lui $3, 0
3006	2D2C  34630180             ori $3, $3, 384
3007	2D30  00430018             mult $2, $3
3008	2D34  00009012             mflo $18
3009	2D38  AFB20000             sw $18, 0($29)
3010	2D3C  00009010             mfhi $18
3011	2D40  AFB20000             sw $18, 0($29)
3012	2D44  0C003102             jal increment_offset
3013	2D48  3C024CD4             lui $2, 19668
3014	2D4C  3442CCCB             ori $2, $2, 52427
3015	2D50  3C030000             lui $3, 0
3016	2D54  34630180             ori $3, $3, 384
3017	2D58  00430018             mult $2, $3
3018	2D5C  00009012             mflo $18
3019	2D60  AFB20000             sw $18, 0($29)
3020	2D64  00009010             mfhi $18
3021	2D68  AFB20000             sw $18, 0($29)
3022	2D6C  0C003102             jal increment_offset
3023	2D70  3C026773             lui $2, 26483
3024	2D74  3442F337             ori $2, $2, 62263
3025	2D78  3C030000             lui $3, 0
3026	2D7C  34630180             ori $3, $3, 384
3027	2D80  00430018             mult $2, $3
3028	2D84  00009012             mflo $18
3029	2D88  AFB20000             sw $18, 0($29)
3030	2D8C  00009010             mfhi $18
3031	2D90  AFB20000             sw $18, 0($29)
3032	2D94  0C003102             jal increment_offset
3033	2D98  3C02FDDD             lui $2, 64989
3034	2D9C  34425EDF             ori $2, $2, 24287
3035	2DA0  3C030000             lui $3, 0
3036	2DA4  34630180             ori $3, $3, 384
3037	2DA8  00430018             mult $2, $3
3038	2DAC  00009012             mflo $18
3039	2DB0  AFB20000             sw $18, 0($29)
3040	2DB4  00009010             mfhi $18
3041	2DB8  AFB20000             sw $18, 0($29)
3042	2DBC  0C003102             jal increment_offset
3043	2DC0  3C025666             lui $2, 22118
3044	2DC4  3442BB6C             ori $2, $2, 47980
3045	2DC8  3C030000             lui $3, 0
3046	2DCC  34630180             ori $3, $3, 384
3047	2DD0  00430018             mult $2, $3
3048	2DD4  00009012             mflo $18
3049	2DD8  AFB20000             sw $18, 0($29)
3050	2DDC  00009010             mfhi $18
3051	2DE0  AFB20000             sw $18, 0($29)
3052	2DE4  0C003102             jal increment_offset
3053	2DE8  3C02AAAB             lui $2, 43691
3054	2DEC  344215B3             ori $2, $2, 5555
3055	2DF0  3C030000             lui $3, 0
3056	2DF4  34630180             ori $3, $3, 384
3057	2DF8  00430018             mult $2, $3
3058	2DFC  00009012             mflo $18
3059	2E00  AFB20000             sw $18, 0($29)
3060	2E04  00009010             mfhi $18
3061	2E08  AFB20000             sw $18, 0($29)
3062	2E0C  0C003102             jal increment_offset
3063	2E10  3C020000             lui $2, 0
3064	2E14  34420000             ori $2, $2, 0
3065	2E18  3C030000             lui $3, 0
3066	2E1C  34630300             ori $3, $3, 768
3067	2E20  00430018             mult $2, $3
3068	2E24  00009012             mflo $18
3069	2E28  AFB20000             sw $18, 0($29)
3070	2E2C  00009010             mfhi $18
3071	2E30  AFB20000             sw $18, 0($29)
3072	2E34  0C003102             jal increment_offset
3073	2E38  3C02AAAA             lui $2, 43690
3074	2E3C  3442AAAA             ori $2, $2, 43690
3075	2E40  3C030000             lui $3, 0
3076	2E44  34630300             ori $3, $3, 768
3077	2E48  00430018             mult $2, $3
3078	2E4C  00009012             mflo $18
3079	2E50  AFB20000             sw $18, 0($29)
3080	2E54  00009010             mfhi $18
3081	2E58  AFB20000             sw $18, 0($29)
3082	2E5C  0C003102             jal increment_offset
3083	2E60  3C02D34D             lui $2, 54093
3084	2E64  34425555             ori $2, $2, 21845
3085	2E68  3C030000             lui $3, 0
3086	2E6C  34630300             ori $3, $3, 768
3087	2E70  00430018             mult $2, $3
3088	2E74  00009012             mflo $18
3089	2E78  AFB20000             sw $18, 0($29)
3090	2E7C  00009010             mfhi $18
3091	2E80  AFB20000             sw $18, 0($29)
3092	2E84  0C003102             jal increment_offset
3093	2E88  3C021999             lui $2, 6553
3094	2E8C  3442999A             ori $2, $2, 39322
3095	2E90  3C030000             lui $3, 0
3096	2E94  34630300             ori $3, $3, 768
3097	2E98  00430018             mult $2, $3
3098	2E9C  00009012             mflo $18
3099	2EA0  AFB20000             sw $18, 0($29)
3100	2EA4  00009010             mfhi $18
3101	2EA8  AFB20000             sw $18, 0($29)
3102	2EAC  0C003102             jal increment_offset
3103	2EB0  3C023536             lui $2, 13622
3104	2EB4  34426666             ori $2, $2, 26214
3105	2EB8  3C030000             lui $3, 0
3106	2EBC  34630300             ori $3, $3, 768
3107	2EC0  00430018             mult $2, $3
3108	2EC4  00009012             mflo $18
3109	2EC8  AFB20000             sw $18, 0($29)
3110	2ECC  00009010             mfhi $18
3111	2ED0  AFB20000             sw $18, 0($29)
3112	2ED4  0C003102             jal increment_offset
3113	2ED8  3C024CD4             lui $2, 19668
3114	2EDC  3442CCCB             ori $2, $2, 52427
3115	2EE0  3C030000             lui $3, 0
3116	2EE4  34630300             ori $3, $3, 768
3117	2EE8  00430018             mult $2, $3
3118	2EEC  00009012             mflo $18
3119	2EF0  AFB20000             sw $18, 0($29)
3120	2EF4  00009010             mfhi $18
3121	2EF8  AFB20000             sw $18, 0($29)
3122	2EFC  0C003102             jal increment_offset
3123	2F00  3C026773             lui $2, 26483
3124	2F04  3442F337             ori $2, $2, 62263
3125	2F08  3C030000             lui $3, 0
3126	2F0C  34630300             ori $3, $3, 768
3127	2F10  00430018             mult $2, $3
3128	2F14  00009012             mflo $18
3129	2F18  AFB20000             sw $18, 0($29)
3130	2F1C  00009010             mfhi $18
3131	2F20  AFB20000             sw $18, 0($29)
3132	2F24  0C003102             jal increment_offset
3133	2F28  3C02FDDD             lui $2, 64989
3134	2F2C  34425EDF             ori $2, $2, 24287
3135	2F30  3C030000             lui $3, 0
3136	2F34  34630300             ori $3, $3, 768
3137	2F38  00430018             mult $2, $3
3138	2F3C  00009012             mflo $18
3139	2F40  AFB20000             sw $18, 0($29)
3140	2F44  00009010             mfhi $18
3141	2F48  AFB20000             sw $18, 0($29)
3142	2F4C  0C003102             jal increment_offset
3143	2F50  3C025666             lui $2, 22118
3144	2F54  3442BB6C             ori $2, $2, 47980
3145	2F58  3C030000             lui $3, 0
3146	2F5C  34630300             ori $3, $3, 768
3147	2F60  00430018             mult $2, $3
3148	2F64  00009012             mflo $18
3149	2F68  AFB20000             sw $18, 0($29)
3150	2F6C  00009010             mfhi $18
3151	2F70  AFB20000             sw $18, 0($29)
3152	2F74  0C003102             jal increment_offset
3153	2F78  3C02AAAB             lui $2, 43691
3154	2F7C  344215B3             ori $2, $2, 5555
3155	2F80  3C030000             lui $3, 0
3156	2F84  34630300             ori $3, $3, 768
3157	2F88  00430018             mult $2, $3
3158	2F8C  00009012             mflo $18
3159	2F90  AFB20000             sw $18, 0($29)
3160	2F94  00009010             mfhi $18
3161	2F98  AFB20000             sw $18, 0($29)
3162	2F9C  0C003102             jal increment_offset
3163	2FA0  3C020000             lui $2, 0
3164	2FA4  34420000             ori $2, $2, 0
3165	2FA8  3C030000             lui $3, 0
3166	2FAC  34630600             ori $3, $3, 1536
3167	2FB0  00430018             mult $2, $3
3168	2FB4  00009012             mflo $18
3169	2FB8  AFB20000             sw $18, 0($29)
3170	2FBC  00009010             mfhi $18
3171	2FC0  AFB20000             sw $18, 0($29)
3172	2FC4  0C003102             jal increment_offset
3173	2FC8  3C02AAAA             lui $2, 43690
3174	2FCC  3442AAAA             ori $2, $2, 43690
3175	2FD0  3C030000             lui $3, 0
3176	2FD4  34630600             ori $3, $3, 1536
3177	2FD8  00430018             mult $2, $3
3178	2FDC  00009012             mflo $18
3179	2FE0  AFB20000             sw $18, 0($29)
3180	2FE4  00009010             mfhi $18
3181	2FE8  AFB20000             sw $18, 0($29)
3182	2FEC  0C003102             jal increment_offset
3183	2FF0  3C02D34D             lui $2, 54093
3184	2FF4  34425555             ori $2, $2, 21845
3185	2FF8  3C030000             lui $3, 0
3186	2FFC  34630600             ori $3, $3, 1536
3187	3000  00430018             mult $2, $3
3188	3004  00009012             mflo $18
3189	3008  AFB20000             sw $18, 0($29)
3190	300C  00009010             mfhi $18
3191	3010  AFB20000             sw $18, 0($29)
3192	3014  0C003102             jal increment_offset
3193	3018  3C021999             lui $2, 6553
3194	301C  3442999A             ori $2, $2, 39322
3195	3020  3C030000             lui $3, 0
3196	3024  34630600             ori $3, $3, 1536
3197	3028  00430018             mult $2, $3
3198	302C  00009012             mflo $18
3199	3030  AFB20000             sw $18, 0($29)
3200	3034  00009010             mfhi $18
3201	3038  AFB20000             sw $18, 0($29)
3202	303C  0C003102             jal increment_offset
3203	3040  3C023536             lui $2, 13622
3204	3044  34426666             ori $2, $2, 26214
3205	3048  3C030000             lui $3, 0
3206	304C  34630600             ori $3, $3, 1536
3207	3050  00430018             mult $2, $3
3208	3054  00009012             mflo $18
3209	3058  AFB20000             sw $18, 0($29)
3210	305C  00009010             mfhi $18
3211	3060  AFB20000             sw $18, 0($29)
3212	3064  0C003102             jal increment_offset
3213	3068  3C024CD4             lui $2, 19668
3214	306C  3442CCCB             ori $2, $2, 52427
3215	3070  3C030000             lui $3, 0
3216	3074  34630600             ori $3, $3, 1536
3217	3078  00430018             mult $2, $3
3218	307C  00009012             mflo $18
3219	3080  AFB20000             sw $18, 0($29)
3220	3084  00009010             mfhi $18
3221	3088  AFB20000             sw $18, 0($29)
3222	308C  0C003102             jal increment_offset
3223	3090  3C026773             lui $2, 26483
3224	3094  3442F337             ori $2, $2, 62263
3225	3098  3C030000             lui $3, 0
3226	309C  34630600             ori $3, $3, 1536
3227	30A0  00430018             mult $2, $3
3228	30A4  00009012             mflo $18
3229	30A8  AFB20000             sw $18, 0($29)
3230	30AC  00009010             mfhi $18
3231	30B0  AFB20000             sw $18, 0($29)
3232	30B4  0C003102             jal increment_offset
3233	30B8  3C02FDDD             lui $2, 64989
3234	30BC  34425EDF             ori $2, $2, 24287
3235	30C0  3C030000             lui $3, 0
3236	30C4  34630600             ori $3, $3, 1536
3237	30C8  00430018             mult $2, $3
3238	30CC  00009012             mflo $18
3239	30D0  AFB20000             sw $18, 0($29)
3240	30D4  00009010             mfhi $18
3241	30D8  AFB20000             sw $18, 0($29)
3242	30DC  0C003102             jal increment_offset
3243	30E0  3C025666             lui $2, 22118
3244	30E4  3442BB6C             ori $2, $2, 47980
3245	30E8  3C030000             lui $3, 0
3246	30EC  34630600             ori $3, $3, 1536
3247	30F0  00430018             mult $2, $3
3248	30F4  00009012             mflo $18
3249	30F8  AFB20000             sw $18, 0($29)
3250	30FC  00009010             mfhi $18
3251	3100  AFB20000             sw $18, 0($29)
3252	3104  0C003102             jal increment_offset
3253	3108  3C02AAAB             lui $2, 43691
3254	310C  344215B3             ori $2, $2, 5555
3255	3110  3C030000             lui $3, 0
3256	3114  34630600             ori $3, $3, 1536
3257	3118  00430018             mult $2, $3
3258	311C  00009012             mflo $18
3259	3120  AFB20000             sw $18, 0($29)
3260	3124  00009010             mfhi $18
3261	3128  AFB20000             sw $18, 0($29)
3262	312C  0C003102             jal increment_offset
3263	3130  3C020000             lui $2, 0
3264	3134  34420000             ori $2, $2, 0
3265	3138  3C030000             lui $3, 0
3266	313C  34630C00             ori $3, $3, 3072
3267	3140  00430018             mult $2, $3
3268	3144  00009012             mflo $18
3269	3148  AFB20000             sw $18, 0($29)
3270	314C  00009010             mfhi $18
3271	3150  AFB20000             sw $18, 0($29)
3272	3154  0C003102             jal increment_offset
3273	3158  3C02AAAA             lui $2, 43690
3274	315C  3442AAAA             ori $2, $2, 43690
3275	3160  3C030000             lui $3, 0
3276	3164  34630C00             ori $3, $3, 3072
3277	3168  00430018             mult $2, $3
3278	316C  00009012             mflo $18
3279	3170  AFB20000             sw $18, 0($29)
3280	3174  00009010             mfhi $18
3281	3178  AFB20000             sw $18, 0($29)
3282	317C  0C003102             jal increment_offset
3283	3180  3C02D34D             lui $2, 54093
3284	3184  34425555             ori $2, $2, 21845
3285	3188  3C030000             lui $3, 0
3286	318C  34630C00             ori $3, $3, 3072
3287	3190  00430018             mult $2, $3
3288	3194  00009012             mflo $18
3289	3198  AFB20000             sw $18, 0($29)
3290	319C  00009010             mfhi $18
3291	31A0  AFB20000             sw $18, 0($29)
3292	31A4  0C003102             jal increment_offset
3293	31A8  3C021999             lui $2, 6553
3294	31AC  3442999A             ori $2, $2, 39322
3295	31B0  3C030000             lui $3, 0
3296	31B4  34630C00             ori $3, $3, 3072
3297	31B8  00430018             mult $2, $3
3298	31BC  00009012             mflo $18
3299	31C0  AFB20000             sw $18, 0($29)
3300	31C4  00009010             mfhi $18
3301	31C8  AFB20000             sw $18, 0($29)
3302	31CC  0C003102             jal increment_offset
3303	31D0  3C023536             lui $2, 13622
3304	31D4  34426666             ori $2, $2, 26214
3305	31D8  3C030000             lui $3, 0
3306	31DC  34630C00             ori $3, $3, 3072
3307	31E0  00430018             mult $2, $3
3308	31E4  00009012             mflo $18
3309	31E8  AFB20000             sw $18, 0($29)
3310	31EC  00009010             mfhi $18
3311	31F0  AFB20000             sw $18, 0($29)
3312	31F4  0C003102             jal increment_offset
3313	31F8  3C024CD4             lui $2, 19668
3314	31FC  3442CCCB             ori $2, $2, 52427
3315	3200  3C030000             lui $3, 0
3316	3204  34630C00             ori $3, $3, 3072
3317	3208  00430018             mult $2, $3
3318	320C  00009012             mflo $18
3319	3210  AFB20000             sw $18, 0($29)
3320	3214  00009010             mfhi $18
3321	3218  AFB20000             sw $18, 0($29)
3322	321C  0C003102             jal increment_offset
3323	3220  3C026773             lui $2, 26483
3324	3224  3442F337             ori $2, $2, 62263
3325	3228  3C030000             lui $3, 0
3326	322C  34630C00             ori $3, $3, 3072
3327	3230  00430018             mult $2, $3
3328	3234  00009012             mflo $18
3329	3238  AFB20000             sw $18, 0($29)
3330	323C  00009010             mfhi $18
3331	3240  AFB20000             sw $18, 0($29)
3332	3244  0C003102             jal increment_offset
3333	3248  3C02FDDD             lui $2, 64989
3334	324C  34425EDF             ori $2, $2, 24287
3335	3250  3C030000             lui $3, 0
3336	3254  34630C00             ori $3, $3, 3072
3337	3258  00430018             mult $2, $3
3338	325C  00009012             mflo $18
3339	3260  AFB20000             sw $18, 0($29)
3340	3264  00009010             mfhi $18
3341	3268  AFB20000             sw $18, 0($29)
3342	326C  0C003102             jal increment_offset
3343	3270  3C025666             lui $2, 22118
3344	3274  3442BB6C             ori $2, $2, 47980
3345	3278  3C030000             lui $3, 0
3346	327C  34630C00             ori $3, $3, 3072
3347	3280  00430018             mult $2, $3
3348	3284  00009012             mflo $18
3349	3288  AFB20000             sw $18, 0($29)
3350	328C  00009010             mfhi $18
3351	3290  AFB20000             sw $18, 0($29)
3352	3294  0C003102             jal increment_offset
3353	3298  3C02AAAB             lui $2, 43691
3354	329C  344215B3             ori $2, $2, 5555
3355	32A0  3C030000             lui $3, 0
3356	32A4  34630C00             ori $3, $3, 3072
3357	32A8  00430018             mult $2, $3
3358	32AC  00009012             mflo $18
3359	32B0  AFB20000             sw $18, 0($29)
3360	32B4  00009010             mfhi $18
3361	32B8  AFB20000             sw $18, 0($29)
3362	32BC  0C003102             jal increment_offset
3363	32C0  3C020000             lui $2, 0
3364	32C4  34420000             ori $2, $2, 0
3365	32C8  3C030000             lui $3, 0
3366	32CC  34631800             ori $3, $3, 6144
3367	32D0  00430018             mult $2, $3
3368	32D4  00009012             mflo $18
3369	32D8  AFB20000             sw $18, 0($29)
3370	32DC  00009010             mfhi $18
3371	32E0  AFB20000             sw $18, 0($29)
3372	32E4  0C003102             jal increment_offset
3373	32E8  3C02AAAA             lui $2, 43690
3374	32EC  3442AAAA             ori $2, $2, 43690
3375	32F0  3C030000             lui $3, 0
3376	32F4  34631800             ori $3, $3, 6144
3377	32F8  00430018             mult $2, $3
3378	32FC  00009012             mflo $18
3379	3300  AFB20000             sw $18, 0($29)
3380	3304  00009010             mfhi $18
3381	3308  AFB20000             sw $18, 0($29)
3382	330C  0C003102             jal increment_offset
3383	3310  3C02D34D             lui $2, 54093
3384	3314  34425555             ori $2, $2, 21845
3385	3318  3C030000             lui $3, 0
3386	331C  34631800             ori $3, $3, 6144
3387	3320  00430018             mult $2, $3
3388	3324  00009012             mflo $18
3389	3328  AFB20000             sw $18, 0($29)
3390	332C  00009010             mfhi $18
3391	3330  AFB20000             sw $18, 0($29)
3392	3334  0C003102             jal increment_offset
3393	3338  3C021999             lui $2, 6553
3394	333C  3442999A             ori $2, $2, 39322
3395	3340  3C030000             lui $3, 0
3396	3344  34631800             ori $3, $3, 6144
3397	3348  00430018             mult $2, $3
3398	334C  00009012             mflo $18
3399	3350  AFB20000             sw $18, 0($29)
3400	3354  00009010             mfhi $18
3401	3358  AFB20000             sw $18, 0($29)
3402	335C  0C003102             jal increment_offset
3403	3360  3C023536             lui $2, 13622
3404	3364  34426666             ori $2, $2, 26214
3405	3368  3C030000             lui $3, 0
3406	336C  34631800             ori $3, $3, 6144
3407	3370  00430018             mult $2, $3
3408	3374  00009012             mflo $18
3409	3378  AFB20000             sw $18, 0($29)
3410	337C  00009010             mfhi $18
3411	3380  AFB20000             sw $18, 0($29)
3412	3384  0C003102             jal increment_offset
3413	3388  3C024CD4             lui $2, 19668
3414	338C  3442CCCB             ori $2, $2, 52427
3415	3390  3C030000             lui $3, 0
3416	3394  34631800             ori $3, $3, 6144
3417	3398  00430018             mult $2, $3
3418	339C  00009012             mflo $18
3419	33A0  AFB20000             sw $18, 0($29)
3420	33A4  00009010             mfhi $18
3421	33A8  AFB20000             sw $18, 0($29)
3422	33AC  0C003102             jal increment_offset
3423	33B0  3C026773             lui $2, 26483
3424	33B4  3442F337             ori $2, $2, 62263
3425	33B8  3C030000             lui $3, 0
3426	33BC  34631800             ori $3, $3, 6144
3427	33C0  00430018             mult $2, $3
3428	33C4  00009012             mflo $18
3429	33C8  AFB20000             sw $18, 0($29)
3430	33CC  00009010             mfhi $18
3431	33D0  AFB20000             sw $18, 0($29)
3432	33D4  0C003102             jal increment_offset
3433	33D8  3C02FDDD             lui $2, 64989
3434	33DC  34425EDF             ori $2, $2, 24287
3435	33E0  3C030000             lui $3, 0
3436	33E4  34631800             ori $3, $3, 6144
3437	33E8  00430018             mult $2, $3
3438	33EC  00009012             mflo $18
3439	33F0  AFB20000             sw $18, 0($29)
3440	33F4  00009010             mfhi $18
3441	33F8  AFB20000             sw $18, 0($29)
3442	33FC  0C003102             jal increment_offset
3443	3400  3C025666             lui $2, 22118
3444	3404  3442BB6C             ori $2, $2, 47980
3445	3408  3C030000             lui $3, 0
3446	340C  34631800             ori $3, $3, 6144
3447	3410  00430018             mult $2, $3
3448	3414  00009012             mflo $18
3449	3418  AFB20000             sw $18, 0($29)
3450	341C  00009010             mfhi $18
3451	3420  AFB20000             sw $18, 0($29)
3452	3424  0C003102             jal increment_offset
3453	3428  3C02AAAB             lui $2, 43691
3454	342C  344215B3             ori $2, $2, 5555
3455	3430  3C030000             lui $3, 0
3456	3434  34631800             ori $3, $3, 6144
3457	3438  00430018             mult $2, $3
3458	343C  00009012             mflo $18
3459	3440  AFB20000             sw $18, 0($29)
3460	3444  00009010             mfhi $18
3461	3448  AFB20000             sw $18, 0($29)
3462	344C  0C003102             jal increment_offset
3463	3450  3C020000             lui $2, 0
3464	3454  34420000             ori $2, $2, 0
3465	3458  3C030000             lui $3, 0
3466	345C  34633000             ori $3, $3, 12288
3467	3460  00430018             mult $2, $3
3468	3464  00009012             mflo $18
3469	3468  AFB20000             sw $18, 0($29)
3470	346C  00009010             mfhi $18
3471	3470  AFB20000             sw $18, 0($29)
3472	3474  0C003102             jal increment_offset
3473	3478  3C02AAAA             lui $2, 43690
3474	347C  3442AAAA             ori $2, $2, 43690
3475	3480  3C030000             lui $3, 0
3476	3484  34633000             ori $3, $3, 12288
3477	3488  00430018             mult $2, $3
3478	348C  00009012             mflo $18
3479	3490  AFB20000             sw $18, 0($29)
3480	3494  00009010             mfhi $18
3481	3498  AFB20000             sw $18, 0($29)
3482	349C  0C003102             jal increment_offset
3483	34A0  3C02D34D             lui $2, 54093
3484	34A4  34425555             ori $2, $2, 21845
3485	34A8  3C030000             lui $3, 0
3486	34AC  34633000             ori $3, $3, 12288
3487	34B0  00430018             mult $2, $3
3488	34B4  00009012             mflo $18
3489	34B8  AFB20000             sw $18, 0($29)
3490	34BC  00009010             mfhi $18
3491	34C0  AFB20000             sw $18, 0($29)
3492	34C4  0C003102             jal increment_offset
3493	34C8  3C021999             lui $2, 6553
3494	34CC  3442999A             ori $2, $2, 39322
3495	34D0  3C030000             lui $3, 0
3496	34D4  34633000             ori $3, $3, 12288
3497	34D8  00430018             mult $2, $3
3498	34DC  00009012             mflo $18
3499	34E0  AFB20000             sw $18, 0($29)
3500	34E4  00009010             mfhi $18
3501	34E8  AFB20000             sw $18, 0($29)
3502	34EC  0C003102             jal increment_offset
3503	34F0  3C023536             lui $2, 13622
3504	34F4  34426666             ori $2, $2, 26214
3505	34F8  3C030000             lui $3, 0
3506	34FC  34633000             ori $3, $3, 12288
3507	3500  00430018             mult $2, $3
3508	3504  00009012             mflo $18
3509	3508  AFB20000             sw $18, 0($29)
3510	350C  00009010             mfhi $18
3511	3510  AFB20000             sw $18, 0($29)
3512	3514  0C003102             jal increment_offset
3513	3518  3C024CD4             lui $2, 19668
3514	351C  3442CCCB             ori $2, $2, 52427
3515	3520  3C030000             lui $3, 0
3516	3524  34633000             ori $3, $3, 12288
3517	3528  00430018             mult $2, $3
3518	352C  00009012             mflo $18
3519	3530  AFB20000             sw $18, 0($29)
3520	3534  00009010             mfhi $18
3521	3538  AFB20000             sw $18, 0($29)
3522	353C  0C003102             jal increment_offset
3523	3540  3C026773             lui $2, 26483
3524	3544  3442F337             ori $2, $2, 62263
3525	3548  3C030000             lui $3, 0
3526	354C  34633000             ori $3, $3, 12288
3527	3550  00430018             mult $2, $3
3528	3554  00009012             mflo $18
3529	3558  AFB20000             sw $18, 0($29)
3530	355C  00009010             mfhi $18
3531	3560  AFB20000             sw $18, 0($29)
3532	3564  0C003102             jal increment_offset
3533	3568  3C02FDDD             lui $2, 64989
3534	356C  34425EDF             ori $2, $2, 24287
3535	3570  3C030000             lui $3, 0
3536	3574  34633000             ori $3, $3, 12288
3537	3578  00430018             mult $2, $3
3538	357C  00009012             mflo $18
3539	3580  AFB20000             sw $18, 0($29)
3540	3584  00009010             mfhi $18
3541	3588  AFB20000             sw $18, 0($29)
3542	358C  0C003102             jal increment_offset
3543	3590  3C025666             lui $2, 22118
3544	3594  3442BB6C             ori $2, $2, 47980
3545	3598  3C030000             lui $3, 0
3546	359C  34633000             ori $3, $3, 12288
3547	35A0  00430018             mult $2, $3
3548	35A4  00009012             mflo $18
3549	35A8  AFB20000             sw $18, 0($29)
3550	35AC  00009010             mfhi $18
3551	35B0  AFB20000             sw $18, 0($29)
3552	35B4  0C003102             jal increment_offset
3553	35B8  3C02AAAB             lui $2, 43691
3554	35BC  344215B3             ori $2, $2, 5555
3555	35C0  3C030000             lui $3, 0
3556	35C4  34633000             ori $3, $3, 12288
3557	35C8  00430018             mult $2, $3
3558	35CC  00009012             mflo $18
3559	35D0  AFB20000             sw $18, 0($29)
3560	35D4  00009010             mfhi $18
3561	35D8  AFB20000             sw $18, 0($29)
3562	35DC  0C003102             jal increment_offset
3563	35E0  3C020000             lui $2, 0
3564	35E4  34420000             ori $2, $2, 0
3565	35E8  3C030000             lui $3, 0
3566	35EC  34636000             ori $3, $3, 24576
3567	35F0  00430018             mult $2, $3
3568	35F4  00009012             mflo $18
3569	35F8  AFB20000             sw $18, 0($29)
3570	35FC  00009010             mfhi $18
3571	3600  AFB20000             sw $18, 0($29)
3572	3604  0C003102             jal increment_offset
3573	3608  3C02AAAA             lui $2, 43690
3574	360C  3442AAAA             ori $2, $2, 43690
3575	3610  3C030000             lui $3, 0
3576	3614  34636000             ori $3, $3, 24576
3577	3618  00430018             mult $2, $3
3578	361C  00009012             mflo $18
3579	3620  AFB20000             sw $18, 0($29)
3580	3624  00009010             mfhi $18
3581	3628  AFB20000             sw $18, 0($29)
3582	362C  0C003102             jal increment_offset
3583	3630  3C02D34D             lui $2, 54093
3584	3634  34425555             ori $2, $2, 21845
3585	3638  3C030000             lui $3, 0
3586	363C  34636000             ori $3, $3, 24576
3587	3640  00430018             mult $2, $3
3588	3644  00009012             mflo $18
3589	3648  AFB20000             sw $18, 0($29)
3590	364C  00009010             mfhi $18
3591	3650  AFB20000             sw $18, 0($29)
3592	3654  0C003102             jal increment_offset
3593	3658  3C021999             lui $2, 6553
3594	365C  3442999A             ori $2, $2, 39322
3595	3660  3C030000             lui $3, 0
3596	3664  34636000             ori $3, $3, 24576
3597	3668  00430018             mult $2, $3
3598	366C  00009012             mflo $18
3599	3670  AFB20000             sw $18, 0($29)
3600	3674  00009010             mfhi $18
3601	3678  AFB20000             sw $18, 0($29)
3602	367C  0C003102             jal increment_offset
3603	3680  3C023536             lui $2, 13622
3604	3684  34426666             ori $2, $2, 26214
3605	3688  3C030000             lui $3, 0
3606	368C  34636000             ori $3, $3, 24576
3607	3690  00430018             mult $2, $3
3608	3694  00009012             mflo $18
3609	3698  AFB20000             sw $18, 0($29)
3610	369C  00009010             mfhi $18
3611	36A0  AFB20000             sw $18, 0($29)
3612	36A4  0C003102             jal increment_offset
3613	36A8  3C024CD4             lui $2, 19668
3614	36AC  3442CCCB             ori $2, $2, 52427
3615	36B0  3C030000             lui $3, 0
3616	36B4  34636000             ori $3, $3, 24576
3617	36B8  00430018             mult $2, $3
3618	36BC  00009012             mflo $18
3619	36C0  AFB20000             sw $18, 0($29)
3620	36C4  00009010             mfhi $18
3621	36C8  AFB20000             sw $18, 0($29)
3622	36CC  0C003102             jal increment_offset
3623	36D0  3C026773             lui $2, 26483
3624	36D4  3442F337             ori $2, $2, 62263
3625	36D8  3C030000             lui $3, 0
3626	36DC  34636000             ori $3, $3, 24576
3627	36E0  00430018             mult $2, $3
3628	36E4  00009012             mflo $18
3629	36E8  AFB20000             sw $18, 0($29)
3630	36EC  00009010             mfhi $18
3631	36F0  AFB20000             sw $18, 0($29)
3632	36F4  0C003102             jal increment_offset
3633	36F8  3C02FDDD             lui $2, 64989
3634	36FC  34425EDF             ori $2, $2, 24287
3635	3700  3C030000             lui $3, 0
3636	3704  34636000             ori $3, $3, 24576
3637	3708  00430018             mult $2, $3
3638	370C  00009012             mflo $18
3639	3710  AFB20000             sw $18, 0($29)
3640	3714  00009010             mfhi $18
3641	3718  AFB20000             sw $18, 0($29)
3642	371C  0C003102             jal increment_offset
3643	3720  3C025666             lui $2, 22118
3644	3724  3442BB6C             ori $2, $2, 47980
3645	3728  3C030000             lui $3, 0
3646	372C  34636000             ori $3, $3, 24576
3647	3730  00430018             mult $2, $3
3648	3734  00009012             mflo $18
3649	3738  AFB20000             sw $18, 0($29)
3650	373C  00009010             mfhi $18
3651	3740  AFB20000             sw $18, 0($29)
3652	3744  0C003102             jal increment_offset
3653	3748  3C02AAAB             lui $2, 43691
3654	374C  344215B3             ori $2, $2, 5555
3655	3750  3C030000             lui $3, 0
3656	3754  34636000             ori $3, $3, 24576
3657	3758  00430018             mult $2, $3
3658	375C  00009012             mflo $18
3659	3760  AFB20000             sw $18, 0($29)
3660	3764  00009010             mfhi $18
3661	3768  AFB20000             sw $18, 0($29)
3662	376C  0C003102             jal increment_offset
3663	3770  3C020000             lui $2, 0
3664	3774  34420000             ori $2, $2, 0
3665	3778  3C030000             lui $3, 0
3666	377C  3463C000             ori $3, $3, 49152
3667	3780  00430018             mult $2, $3
3668	3784  00009012             mflo $18
3669	3788  AFB20000             sw $18, 0($29)
3670	378C  00009010             mfhi $18
3671	3790  AFB20000             sw $18, 0($29)
3672	3794  0C003102             jal increment_offset
3673	3798  3C02AAAA             lui $2, 43690
3674	379C  3442AAAA             ori $2, $2, 43690
3675	37A0  3C030000             lui $3, 0
3676	37A4  3463C000             ori $3, $3, 49152
3677	37A8  00430018             mult $2, $3
3678	37AC  00009012             mflo $18
3679	37B0  AFB20000             sw $18, 0($29)
3680	37B4  00009010             mfhi $18
3681	37B8  AFB20000             sw $18, 0($29)
3682	37BC  0C003102             jal increment_offset
3683	37C0  3C02D34D             lui $2, 54093
3684	37C4  34425555             ori $2, $2, 21845
3685	37C8  3C030000             lui $3, 0
3686	37CC  3463C000             ori $3, $3, 49152
3687	37D0  00430018             mult $2, $3
3688	37D4  00009012             mflo $18
3689	37D8  AFB20000             sw $18, 0($29)
3690	37DC  00009010             mfhi $18
3691	37E0  AFB20000             sw $18, 0($29)
3692	37E4  0C003102             jal increment_offset
3693	37E8  3C021999             lui $2, 6553
3694	37EC  3442999A             ori $2, $2, 39322
3695	37F0  3C030000             lui $3, 0
3696	37F4  3463C000             ori $3, $3, 49152
3697	37F8  00430018             mult $2, $3
3698	37FC  00009012             mflo $18
3699	3800  AFB20000             sw $18, 0($29)
3700	3804  00009010             mfhi $18
3701	3808  AFB20000             sw $18, 0($29)
3702	380C  0C003102             jal increment_offset
3703	3810  3C023536             lui $2, 13622
3704	3814  34426666             ori $2, $2, 26214
3705	3818  3C030000             lui $3, 0
3706	381C  3463C000             ori $3, $3, 49152
3707	3820  00430018             mult $2, $3
3708	3824  00009012             mflo $18
3709	3828  AFB20000             sw $18, 0($29)
3710	382C  00009010             mfhi $18
3711	3830  AFB20000             sw $18, 0($29)
3712	3834  0C003102             jal increment_offset
3713	3838  3C024CD4             lui $2, 19668
3714	383C  3442CCCB             ori $2, $2, 52427
3715	3840  3C030000             lui $3, 0
3716	3844  3463C000             ori $3, $3, 49152
3717	3848  00430018             mult $2, $3
3718	384C  00009012             mflo $18
3719	3850  AFB20000             sw $18, 0($29)
3720	3854  00009010             mfhi $18
3721	3858  AFB20000             sw $18, 0($29)
3722	385C  0C003102             jal increment_offset
3723	3860  3C026773             lui $2, 26483
3724	3864  3442F337             ori $2, $2, 62263
3725	3868  3C030000             lui $3, 0
3726	386C  3463C000             ori $3, $3, 49152
3727	3870  00430018             mult $2, $3
3728	3874  00009012             mflo $18
3729	3878  AFB20000             sw $18, 0($29)
3730	387C  00009010             mfhi $18
3731	3880  AFB20000             sw $18, 0($29)
3732	3884  0C003102             jal increment_offset
3733	3888  3C02FDDD             lui $2, 64989
3734	388C  34425EDF             ori $2, $2, 24287
3735	3890  3C030000             lui $3, 0
3736	3894  3463C000             ori $3, $3, 49152
3737	3898  00430018             mult $2, $3
3738	389C  00009012             mflo $18
3739	38A0  AFB20000             sw $18, 0($29)
3740	38A4  00009010             mfhi $18
3741	38A8  AFB20000             sw $18, 0($29)
3742	38AC  0C003102             jal increment_offset
3743	38B0  3C025666             lui $2, 22118
3744	38B4  3442BB6C             ori $2, $2, 47980
3745	38B8  3C030000             lui $3, 0
3746	38BC  3463C000             ori $3, $3, 49152
3747	38C0  00430018             mult $2, $3
3748	38C4  00009012             mflo $18
3749	38C8  AFB20000             sw $18, 0($29)
3750	38CC  00009010             mfhi $18
3751	38D0  AFB20000             sw $18, 0($29)
3752	38D4  0C003102             jal increment_offset
3753	38D8  3C02AAAB             lui $2, 43691
3754	38DC  344215B3             ori $2, $2, 5555
3755	38E0  3C030000             lui $3, 0
3756	38E4  3463C000             ori $3, $3, 49152
3757	38E8  00430018             mult $2, $3
3758	38EC  00009012             mflo $18
3759	38F0  AFB20000             sw $18, 0($29)
3760	38F4  00009010             mfhi $18
3761	38F8  AFB20000             sw $18, 0($29)
3762	38FC  0C003102             jal increment_offset
3763	3900  3C020000             lui $2, 0
3764	3904  34420000             ori $2, $2, 0
3765	3908  3C030001             lui $3, 1
3766	390C  34638000             ori $3, $3, 32768
3767	3910  00430018             mult $2, $3
3768	3914  00009012             mflo $18
3769	3918  AFB20000             sw $18, 0($29)
3770	391C  00009010             mfhi $18
3771	3920  AFB20000             sw $18, 0($29)
3772	3924  0C003102             jal increment_offset
3773	3928  3C02AAAA             lui $2, 43690
3774	392C  3442AAAA             ori $2, $2, 43690
3775	3930  3C030001             lui $3, 1
3776	3934  34638000             ori $3, $3, 32768
3777	3938  00430018             mult $2, $3
3778	393C  00009012             mflo $18
3779	3940  AFB20000             sw $18, 0($29)
3780	3944  00009010             mfhi $18
3781	3948  AFB20000             sw $18, 0($29)
3782	394C  0C003102             jal increment_offset
3783	3950  3C02D34D             lui $2, 54093
3784	3954  34425555             ori $2, $2, 21845
3785	3958  3C030001             lui $3, 1
3786	395C  34638000             ori $3, $3, 32768
3787	3960  00430018             mult $2, $3
3788	3964  00009012             mflo $18
3789	3968  AFB20000             sw $18, 0($29)
3790	396C  00009010             mfhi $18
3791	3970  AFB20000             sw $18, 0($29)
3792	3974  0C003102             jal increment_offset
3793	3978  3C021999             lui $2, 6553
3794	397C  3442999A             ori $2, $2, 39322
3795	3980  3C030001             lui $3, 1
3796	3984  34638000             ori $3, $3, 32768
3797	3988  00430018             mult $2, $3
3798	398C  00009012             mflo $18
3799	3990  AFB20000             sw $18, 0($29)
3800	3994  00009010             mfhi $18
3801	3998  AFB20000             sw $18, 0($29)
3802	399C  0C003102             jal increment_offset
3803	39A0  3C023536             lui $2, 13622
3804	39A4  34426666             ori $2, $2, 26214
3805	39A8  3C030001             lui $3, 1
3806	39AC  34638000             ori $3, $3, 32768
3807	39B0  00430018             mult $2, $3
3808	39B4  00009012             mflo $18
3809	39B8  AFB20000             sw $18, 0($29)
3810	39BC  00009010             mfhi $18
3811	39C0  AFB20000             sw $18, 0($29)
3812	39C4  0C003102             jal increment_offset
3813	39C8  3C024CD4             lui $2, 19668
3814	39CC  3442CCCB             ori $2, $2, 52427
3815	39D0  3C030001             lui $3, 1
3816	39D4  34638000             ori $3, $3, 32768
3817	39D8  00430018             mult $2, $3
3818	39DC  00009012             mflo $18
3819	39E0  AFB20000             sw $18, 0($29)
3820	39E4  00009010             mfhi $18
3821	39E8  AFB20000             sw $18, 0($29)
3822	39EC  0C003102             jal increment_offset
3823	39F0  3C026773             lui $2, 26483
3824	39F4  3442F337             ori $2, $2, 62263
3825	39F8  3C030001             lui $3, 1
3826	39FC  34638000             ori $3, $3, 32768
3827	3A00  00430018             mult $2, $3
3828	3A04  00009012             mflo $18
3829	3A08  AFB20000             sw $18, 0($29)
3830	3A0C  00009010             mfhi $18
3831	3A10  AFB20000             sw $18, 0($29)
3832	3A14  0C003102             jal increment_offset
3833	3A18  3C02FDDD             lui $2, 64989
3834	3A1C  34425EDF             ori $2, $2, 24287
3835	3A20  3C030001             lui $3, 1
3836	3A24  34638000             ori $3, $3, 32768
3837	3A28  00430018             mult $2, $3
3838	3A2C  00009012             mflo $18
3839	3A30  AFB20000             sw $18, 0($29)
3840	3A34  00009010             mfhi $18
3841	3A38  AFB20000             sw $18, 0($29)
3842	3A3C  0C003102             jal increment_offset
3843	3A40  3C025666             lui $2, 22118
3844	3A44  3442BB6C             ori $2, $2, 47980
3845	3A48  3C030001             lui $3, 1
3846	3A4C  34638000             ori $3, $3, 32768
3847	3A50  00430018             mult $2, $3
3848	3A54  00009012             mflo $18
3849	3A58  AFB20000             sw $18, 0($29)
3850	3A5C  00009010             mfhi $18
3851	3A60  AFB20000             sw $18, 0($29)
3852	3A64  0C003102             jal increment_offset
3853	3A68  3C02AAAB             lui $2, 43691
3854	3A6C  344215B3             ori $2, $2, 5555
3855	3A70  3C030001             lui $3, 1
3856	3A74  34638000             ori $3, $3, 32768
3857	3A78  00430018             mult $2, $3
3858	3A7C  00009012             mflo $18
3859	3A80  AFB20000             sw $18, 0($29)
3860	3A84  00009010             mfhi $18
3861	3A88  AFB20000             sw $18, 0($29)
3862	3A8C  0C003102             jal increment_offset
3863	3A90  3C020000             lui $2, 0
3864	3A94  34420000             ori $2, $2, 0
3865	3A98  3C030003             lui $3, 3
3866	3A9C  34630000             ori $3, $3, 0
3867	3AA0  00430018             mult $2, $3
3868	3AA4  00009012             mflo $18
3869	3AA8  AFB20000             sw $18, 0($29)
3870	3AAC  00009010             mfhi $18
3871	3AB0  AFB20000             sw $18, 0($29)
3872	3AB4  0C003102             jal increment_offset
3873	3AB8  3C02AAAA             lui $2, 43690
3874	3ABC  3442AAAA             ori $2, $2, 43690
3875	3AC0  3C030003             lui $3, 3
3876	3AC4  34630000             ori $3, $3, 0
3877	3AC8  00430018             mult $2, $3
3878	3ACC  00009012             mflo $18
3879	3AD0  AFB20000             sw $18, 0($29)
3880	3AD4  00009010             mfhi $18
3881	3AD8  AFB20000             sw $18, 0($29)
3882	3ADC  0C003102             jal increment_offset
3883	3AE0  3C02D34D             lui $2, 54093
3884	3AE4  34425555             ori $2, $2, 21845
3885	3AE8  3C030003             lui $3, 3
3886	3AEC  34630000             ori $3, $3, 0
3887	3AF0  00430018             mult $2, $3
3888	3AF4  00009012             mflo $18
3889	3AF8  AFB20000             sw $18, 0($29)
3890	3AFC  00009010             mfhi $18
3891	3B00  AFB20000             sw $18, 0($29)
3892	3B04  0C003102             jal increment_offset
3893	3B08  3C021999             lui $2, 6553
3894	3B0C  3442999A             ori $2, $2, 39322
3895	3B10  3C030003             lui $3, 3
3896	3B14  34630000             ori $3, $3, 0
3897	3B18  00430018             mult $2, $3
3898	3B1C  00009012             mflo $18
3899	3B20  AFB20000             sw $18, 0($29)
3900	3B24  00009010             mfhi $18
3901	3B28  AFB20000             sw $18, 0($29)
3902	3B2C  0C003102             jal increment_offset
3903	3B30  3C023536             lui $2, 13622
3904	3B34  34426666             ori $2, $2, 26214
3905	3B38  3C030003             lui $3, 3
3906	3B3C  34630000             ori $3, $3, 0
3907	3B40  00430018             mult $2, $3
3908	3B44  00009012             mflo $18
3909	3B48  AFB20000             sw $18, 0($29)
3910	3B4C  00009010             mfhi $18
3911	3B50  AFB20000             sw $18, 0($29)
3912	3B54  0C003102             jal increment_offset
3913	3B58  3C024CD4             lui $2, 19668
3914	3B5C  3442CCCB             ori $2, $2, 52427
3915	3B60  3C030003             lui $3, 3
3916	3B64  34630000             ori $3, $3, 0
3917	3B68  00430018             mult $2, $3
3918	3B6C  00009012             mflo $18
3919	3B70  AFB20000             sw $18, 0($29)
3920	3B74  00009010             mfhi $18
3921	3B78  AFB20000             sw $18, 0($29)
3922	3B7C  0C003102             jal increment_offset
3923	3B80  3C026773             lui $2, 26483
3924	3B84  3442F337             ori $2, $2, 62263
3925	3B88  3C030003             lui $3, 3
3926	3B8C  34630000             ori $3, $3, 0
3927	3B90  00430018             mult $2, $3
3928	3B94  00009012             mflo $18
3929	3B98  AFB20000             sw $18, 0($29)
3930	3B9C  00009010             mfhi $18
3931	3BA0  AFB20000             sw $18, 0($29)
3932	3BA4  0C003102             jal increment_offset
3933	3BA8  3C02FDDD             lui $2, 64989
3934	3BAC  34425EDF             ori $2, $2, 24287
3935	3BB0  3C030003             lui $3, 3
3936	3BB4  34630000             ori $3, $3, 0
3937	3BB8  00430018             mult $2, $3
3938	3BBC  00009012             mflo $18
3939	3BC0  AFB20000             sw $18, 0($29)
3940	3BC4  00009010             mfhi $18
3941	3BC8  AFB20000             sw $18, 0($29)
3942	3BCC  0C003102             jal increment_offset
3943	3BD0  3C025666             lui $2, 22118
3944	3BD4  3442BB6C             ori $2, $2, 47980
3945	3BD8  3C030003             lui $3, 3
3946	3BDC  34630000             ori $3, $3, 0
3947	3BE0  00430018             mult $2, $3
3948	3BE4  00009012             mflo $18
3949	3BE8  AFB20000             sw $18, 0($29)
3950	3BEC  00009010             mfhi $18
3951	3BF0  AFB20000             sw $18, 0($29)
3952	3BF4  0C003102             jal increment_offset
3953	3BF8  3C02AAAB             lui $2, 43691
3954	3BFC  344215B3             ori $2, $2, 5555
3955	3C00  3C030003             lui $3, 3
3956	3C04  34630000             ori $3, $3, 0
3957	3C08  00430018             mult $2, $3
3958	3C0C  00009012             mflo $18
3959	3C10  AFB20000             sw $18, 0($29)
3960	3C14  00009010             mfhi $18
3961	3C18  AFB20000             sw $18, 0($29)
3962	3C1C  0C003102             jal increment_offset
3963	3C20  3C020000             lui $2, 0
3964	3C24  34420000             ori $2, $2, 0
3965	3C28  3C030006             lui $3, 6
3966	3C2C  34630000             ori $3, $3, 0
3967	3C30  00430018             mult $2, $3
3968	3C34  00009012             mflo $18
3969	3C38  AFB20000             sw $18, 0($29)
3970	3C3C  00009010             mfhi $18
3971	3C40  AFB20000             sw $18, 0($29)
3972	3C44  0C003102             jal increment_offset
3973	3C48  3C02AAAA             lui $2, 43690
3974	3C4C  3442AAAA             ori $2, $2, 43690
3975	3C50  3C030006             lui $3, 6
3976	3C54  34630000             ori $3, $3, 0
3977	3C58  00430018             mult $2, $3
3978	3C5C  00009012             mflo $18
3979	3C60  AFB20000             sw $18, 0($29)
3980	3C64  00009010             mfhi $18
3981	3C68  AFB20000             sw $18, 0($29)
3982	3C6C  0C003102             jal increment_offset
3983	3C70  3C02D34D             lui $2, 54093
3984	3C74  34425555             ori $2, $2, 21845
3985	3C78  3C030006             lui $3, 6
3986	3C7C  34630000             ori $3, $3, 0
3987	3C80  00430018             mult $2, $3
3988	3C84  00009012             mflo $18
3989	3C88  AFB20000             sw $18, 0($29)
3990	3C8C  00009010             mfhi $18
3991	3C90  AFB20000             sw $18, 0($29)
3992	3C94  0C003102             jal increment_offset
3993	3C98  3C021999             lui $2, 6553
3994	3C9C  3442999A             ori $2, $2, 39322
3995	3CA0  3C030006             lui $3, 6
3996	3CA4  34630000             ori $3, $3, 0
3997	3CA8  00430018             mult $2, $3
3998	3CAC  00009012             mflo $18
3999	3CB0  AFB20000             sw $18, 0($29)
4000	3CB4  00009010             mfhi $18
4001	3CB8  AFB20000             sw $18, 0($29)
4002	3CBC  0C003102             jal increment_offset
4003	3CC0  3C023536             lui $2, 13622
4004	3CC4  34426666             ori $2, $2, 26214
4005	3CC8  3C030006             lui $3, 6
4006	3CCC  34630000             ori $3, $3, 0
4007	3CD0  00430018             mult $2, $3
4008	3CD4  00009012             mflo $18
4009	3CD8  AFB20000             sw $18, 0($29)
4010	3CDC  00009010             mfhi $18
4011	3CE0  AFB20000             sw $18, 0($29)
4012	3CE4  0C003102             jal increment_offset
4013	3CE8  3C024CD4             lui $2, 19668
4014	3CEC  3442CCCB             ori $2, $2, 52427
4015	3CF0  3C030006             lui $3, 6
4016	3CF4  34630000             ori $3, $3, 0
4017	3CF8  00430018             mult $2, $3
4018	3CFC  00009012             mflo $18
4019	3D00  AFB20000             sw $18, 0($29)
4020	3D04  00009010             mfhi $18
4021	3D08  AFB20000             sw $18, 0($29)
4022	3D0C  0C003102             jal increment_offset
4023	3D10  3C026773             lui $2, 26483
4024	3D14  3442F337             ori $2, $2, 62263
4025	3D18  3C030006             lui $3, 6
4026	3D1C  34630000             ori $3, $3, 0
4027	3D20  00430018             mult $2, $3
4028	3D24  00009012             mflo $18
4029	3D28  AFB20000             sw $18, 0($29)
4030	3D2C  00009010             mfhi $18
4031	3D30  AFB20000             sw $18, 0($29)
4032	3D34  0C003102             jal increment_offset
4033	3D38  3C02FDDD             lui $2, 64989
4034	3D3C  34425EDF             ori $2, $2, 24287
4035	3D40  3C030006             lui $3, 6
4036	3D44  34630000             ori $3, $3, 0
4037	3D48  00430018             mult $2, $3
4038	3D4C  00009012             mflo $18
4039	3D50  AFB20000             sw $18, 0($29)
4040	3D54  00009010             mfhi $18
4041	3D58  AFB20000             sw $18, 0($29)
4042	3D5C  0C003102             jal increment_offset
4043	3D60  3C025666             lui $2, 22118
4044	3D64  3442BB6C             ori $2, $2, 47980
4045	3D68  3C030006             lui $3, 6
4046	3D6C  34630000             ori $3, $3, 0
4047	3D70  00430018             mult $2, $3
4048	3D74  00009012             mflo $18
4049	3D78  AFB20000             sw $18, 0($29)
4050	3D7C  00009010             mfhi $18
4051	3D80  AFB20000             sw $18, 0($29)
4052	3D84  0C003102             jal increment_offset
4053	3D88  3C02AAAB             lui $2, 43691
4054	3D8C  344215B3             ori $2, $2, 5555
4055	3D90  3C030006             lui $3, 6
4056	3D94  34630000             ori $3, $3, 0
4057	3D98  00430018             mult $2, $3
4058	3D9C  00009012             mflo $18
4059	3DA0  AFB20000             sw $18, 0($29)
4060	3DA4  00009010             mfhi $18
4061	3DA8  AFB20000             sw $18, 0($29)
4062	3DAC  0C003102             jal increment_offset
4063	3DB0  3C020000             lui $2, 0
4064	3DB4  34420000             ori $2, $2, 0
4065	3DB8  3C03000C             lui $3, 12
4066	3DBC  34630000             ori $3, $3, 0
4067	3DC0  00430018             mult $2, $3
4068	3DC4  00009012             mflo $18
4069	3DC8  AFB20000             sw $18, 0($29)
4070	3DCC  00009010             mfhi $18
4071	3DD0  AFB20000             sw $18, 0($29)
4072	3DD4  0C003102             jal increment_offset
4073	3DD8  3C02AAAA             lui $2, 43690
4074	3DDC  3442AAAA             ori $2, $2, 43690
4075	3DE0  3C03000C             lui $3, 12
4076	3DE4  34630000             ori $3, $3, 0
4077	3DE8  00430018             mult $2, $3
4078	3DEC  00009012             mflo $18
4079	3DF0  AFB20000             sw $18, 0($29)
4080	3DF4  00009010             mfhi $18
4081	3DF8  AFB20000             sw $18, 0($29)
4082	3DFC  0C003102             jal increment_offset
4083	3E00  3C02D34D             lui $2, 54093
4084	3E04  34425555             ori $2, $2, 21845
4085	3E08  3C03000C             lui $3, 12
4086	3E0C  34630000             ori $3, $3, 0
4087	3E10  00430018             mult $2, $3
4088	3E14  00009012             mflo $18
4089	3E18  AFB20000             sw $18, 0($29)
4090	3E1C  00009010             mfhi $18
4091	3E20  AFB20000             sw $18, 0($29)
4092	3E24  0C003102             jal increment_offset
4093	3E28  3C021999             lui $2, 6553
4094	3E2C  3442999A             ori $2, $2, 39322
4095	3E30  3C03000C             lui $3, 12
4096	3E34  34630000             ori $3, $3, 0
4097	3E38  00430018             mult $2, $3
4098	3E3C  00009012             mflo $18
4099	3E40  AFB20000             sw $18, 0($29)
4100	3E44  00009010             mfhi $18
4101	3E48  AFB20000             sw $18, 0($29)
4102	3E4C  0C003102             jal increment_offset
4103	3E50  3C023536             lui $2, 13622
4104	3E54  34426666             ori $2, $2, 26214
4105	3E58  3C03000C             lui $3, 12
4106	3E5C  34630000             ori $3, $3, 0
4107	3E60  00430018             mult $2, $3
4108	3E64  00009012             mflo $18
4109	3E68  AFB20000             sw $18, 0($29)
4110	3E6C  00009010             mfhi $18
4111	3E70  AFB20000             sw $18, 0($29)
4112	3E74  0C003102             jal increment_offset
4113	3E78  3C024CD4             lui $2, 19668
4114	3E7C  3442CCCB             ori $2, $2, 52427
4115	3E80  3C03000C             lui $3, 12
4116	3E84  34630000             ori $3, $3, 0
4117	3E88  00430018             mult $2, $3
4118	3E8C  00009012             mflo $18
4119	3E90  AFB20000             sw $18, 0($29)
4120	3E94  00009010             mfhi $18
4121	3E98  AFB20000             sw $18, 0($29)
4122	3E9C  0C003102             jal increment_offset
4123	3EA0  3C026773             lui $2, 26483
4124	3EA4  3442F337             ori $2, $2, 62263
4125	3EA8  3C03000C             lui $3, 12
4126	3EAC  34630000             ori $3, $3, 0
4127	3EB0  00430018             mult $2, $3
4128	3EB4  00009012             mflo $18
4129	3EB8  AFB20000             sw $18, 0($29)
4130	3EBC  00009010             mfhi $18
4131	3EC0  AFB20000             sw $18, 0($29)
4132	3EC4  0C003102             jal increment_offset
4133	3EC8  3C02FDDD             lui $2, 64989
4134	3ECC  34425EDF             ori $2, $2, 24287
4135	3ED0  3C03000C             lui $3, 12
4136	3ED4  34630000             ori $3, $3, 0
4137	3ED8  00430018             mult $2, $3
4138	3EDC  00009012             mflo $18
4139	3EE0  AFB20000             sw $18, 0($29)
4140	3EE4  00009010             mfhi $18
4141	3EE8  AFB20000             sw $18, 0($29)
4142	3EEC  0C003102             jal increment_offset
4143	3EF0  3C025666             lui $2, 22118
4144	3EF4  3442BB6C             ori $2, $2, 47980
4145	3EF8  3C03000C             lui $3, 12
4146	3EFC  34630000             ori $3, $3, 0
4147	3F00  00430018             mult $2, $3
4148	3F04  00009012             mflo $18
4149	3F08  AFB20000             sw $18, 0($29)
4150	3F0C  00009010             mfhi $18
4151	3F10  AFB20000             sw $18, 0($29)
4152	3F14  0C003102             jal increment_offset
4153	3F18  3C02AAAB             lui $2, 43691
4154	3F1C  344215B3             ori $2, $2, 5555
4155	3F20  3C03000C             lui $3, 12
4156	3F24  34630000             ori $3, $3, 0
4157	3F28  00430018             mult $2, $3
4158	3F2C  00009012             mflo $18
4159	3F30  AFB20000             sw $18, 0($29)
4160	3F34  00009010             mfhi $18
4161	3F38  AFB20000             sw $18, 0($29)
4162	3F3C  0C003102             jal increment_offset
4163	3F40  3C020000             lui $2, 0
4164	3F44  34420000             ori $2, $2, 0
4165	3F48  3C030018             lui $3, 24
4166	3F4C  34630000             ori $3, $3, 0
4167	3F50  00430018             mult $2, $3
4168	3F54  00009012             mflo $18
4169	3F58  AFB20000             sw $18, 0($29)
4170	3F5C  00009010             mfhi $18
4171	3F60  AFB20000             sw $18, 0($29)
4172	3F64  0C003102             jal increment_offset
4173	3F68  3C02AAAA             lui $2, 43690
4174	3F6C  3442AAAA             ori $2, $2, 43690
4175	3F70  3C030018             lui $3, 24
4176	3F74  34630000             ori $3, $3, 0
4177	3F78  00430018             mult $2, $3
4178	3F7C  00009012             mflo $18
4179	3F80  AFB20000             sw $18, 0($29)
4180	3F84  00009010             mfhi $18
4181	3F88  AFB20000             sw $18, 0($29)
4182	3F8C  0C003102             jal increment_offset
4183	3F90  3C02D34D             lui $2, 54093
4184	3F94  34425555             ori $2, $2, 21845
4185	3F98  3C030018             lui $3, 24
4186	3F9C  34630000             ori $3, $3, 0
4187	3FA0  00430018             mult $2, $3
4188	3FA4  00009012             mflo $18
4189	3FA8  AFB20000             sw $18, 0($29)
4190	3FAC  00009010             mfhi $18
4191	3FB0  AFB20000             sw $18, 0($29)
4192	3FB4  0C003102             jal increment_offset
4193	3FB8  3C021999             lui $2, 6553
4194	3FBC  3442999A             ori $2, $2, 39322
4195	3FC0  3C030018             lui $3, 24
4196	3FC4  34630000             ori $3, $3, 0
4197	3FC8  00430018             mult $2, $3
4198	3FCC  00009012             mflo $18
4199	3FD0  AFB20000             sw $18, 0($29)
4200	3FD4  00009010             mfhi $18
4201	3FD8  AFB20000             sw $18, 0($29)
4202	3FDC  0C003102             jal increment_offset
4203	3FE0  3C023536             lui $2, 13622
4204	3FE4  34426666             ori $2, $2, 26214
4205	3FE8  3C030018             lui $3, 24
4206	3FEC  34630000             ori $3, $3, 0
4207	3FF0  00430018             mult $2, $3
4208	3FF4  00009012             mflo $18
4209	3FF8  AFB20000             sw $18, 0($29)
4210	3FFC  00009010             mfhi $18
4211	4000  AFB20000             sw $18, 0($29)
4212	4004  0C003102             jal increment_offset
4213	4008  3C024CD4             lui $2, 19668
4214	400C  3442CCCB             ori $2, $2, 52427
4215	4010  3C030018             lui $3, 24
4216	4014  34630000             ori $3, $3, 0
4217	4018  00430018             mult $2, $3
4218	401C  00009012             mflo $18
4219	4020  AFB20000             sw $18, 0($29)
4220	4024  00009010             mfhi $18
4221	4028  AFB20000             sw $18, 0($29)
4222	402C  0C003102             jal increment_offset
4223	4030  3C026773             lui $2, 26483
4224	4034  3442F337             ori $2, $2, 62263
4225	4038  3C030018             lui $3, 24
4226	403C  34630000             ori $3, $3, 0
4227	4040  00430018             mult $2, $3
4228	4044  00009012             mflo $18
4229	4048  AFB20000             sw $18, 0($29)
4230	404C  00009010             mfhi $18
4231	4050  AFB20000             sw $18, 0($29)
4232	4054  0C003102             jal increment_offset
4233	4058  3C02FDDD             lui $2, 64989
4234	405C  34425EDF             ori $2, $2, 24287
4235	4060  3C030018             lui $3, 24
4236	4064  34630000             ori $3, $3, 0
4237	4068  00430018             mult $2, $3
4238	406C  00009012             mflo $18
4239	4070  AFB20000             sw $18, 0($29)
4240	4074  00009010             mfhi $18
4241	4078  AFB20000             sw $18, 0($29)
4242	407C  0C003102             jal increment_offset
4243	4080  3C025666             lui $2, 22118
4244	4084  3442BB6C             ori $2, $2, 47980
4245	4088  3C030018             lui $3, 24
4246	408C  34630000             ori $3, $3, 0
4247	4090  00430018             mult $2, $3
4248	4094  00009012             mflo $18
4249	4098  AFB20000             sw $18, 0($29)
4250	409C  00009010             mfhi $18
4251	40A0  AFB20000             sw $18, 0($29)
4252	40A4  0C003102             jal increment_offset
4253	40A8  3C02AAAB             lui $2, 43691
4254	40AC  344215B3             ori $2, $2, 5555
4255	40B0  3C030018             lui $3, 24
4256	40B4  34630000             ori $3, $3, 0
4257	40B8  00430018             mult $2, $3
4258	40BC  00009012             mflo $18
4259	40C0  AFB20000             sw $18, 0($29)
4260	40C4  00009010             mfhi $18
4261	40C8  AFB20000             sw $18, 0($29)
4262	40CC  0C003102             jal increment_offset
4263	40D0  3C020000             lui $2, 0
4264	40D4  34420000             ori $2, $2, 0
4265	40D8  3C030030             lui $3, 48
4266	40DC  34630000             ori $3, $3, 0
4267	40E0  00430018             mult $2, $3
4268	40E4  00009012             mflo $18
4269	40E8  AFB20000             sw $18, 0($29)
4270	40EC  00009010             mfhi $18
4271	40F0  AFB20000             sw $18, 0($29)
4272	40F4  0C003102             jal increment_offset
4273	40F8  3C02AAAA             lui $2, 43690
4274	40FC  3442AAAA             ori $2, $2, 43690
4275	4100  3C030030             lui $3, 48
4276	4104  34630000             ori $3, $3, 0
4277	4108  00430018             mult $2, $3
4278	410C  00009012             mflo $18
4279	4110  AFB20000             sw $18, 0($29)
4280	4114  00009010             mfhi $18
4281	4118  AFB20000             sw $18, 0($29)
4282	411C  0C003102             jal increment_offset
4283	4120  3C02D34D             lui $2, 54093
4284	4124  34425555             ori $2, $2, 21845
4285	4128  3C030030             lui $3, 48
4286	412C  34630000             ori $3, $3, 0
4287	4130  00430018             mult $2, $3
4288	4134  00009012             mflo $18
4289	4138  AFB20000             sw $18, 0($29)
4290	413C  00009010             mfhi $18
4291	4140  AFB20000             sw $18, 0($29)
4292	4144  0C003102             jal increment_offset
4293	4148  3C021999             lui $2, 6553
4294	414C  3442999A             ori $2, $2, 39322
4295	4150  3C030030             lui $3, 48
4296	4154  34630000             ori $3, $3, 0
4297	4158  00430018             mult $2, $3
4298	415C  00009012             mflo $18
4299	4160  AFB20000             sw $18, 0($29)
4300	4164  00009010             mfhi $18
4301	4168  AFB20000             sw $18, 0($29)
4302	416C  0C003102             jal increment_offset
4303	4170  3C023536             lui $2, 13622
4304	4174  34426666             ori $2, $2, 26214
4305	4178  3C030030             lui $3, 48
4306	417C  34630000             ori $3, $3, 0
4307	4180  00430018             mult $2, $3
4308	4184  00009012             mflo $18
4309	4188  AFB20000             sw $18, 0($29)
4310	418C  00009010             mfhi $18
4311	4190  AFB20000             sw $18, 0($29)
4312	4194  0C003102             jal increment_offset
4313	4198  3C024CD4             lui $2, 19668
4314	419C  3442CCCB             ori $2, $2, 52427
4315	41A0  3C030030             lui $3, 48
4316	41A4  34630000             ori $3, $3, 0
4317	41A8  00430018             mult $2, $3
4318	41AC  00009012             mflo $18
4319	41B0  AFB20000             sw $18, 0($29)
4320	41B4  00009010             mfhi $18
4321	41B8  AFB20000             sw $18, 0($29)
4322	41BC  0C003102             jal increment_offset
4323	41C0  3C026773             lui $2, 26483
4324	41C4  3442F337             ori $2, $2, 62263
4325	41C8  3C030030             lui $3, 48
4326	41CC  34630000             ori $3, $3, 0
4327	41D0  00430018             mult $2, $3
4328	41D4  00009012             mflo $18
4329	41D8  AFB20000             sw $18, 0($29)
4330	41DC  00009010             mfhi $18
4331	41E0  AFB20000             sw $18, 0($29)
4332	41E4  0C003102             jal increment_offset
4333	41E8  3C02FDDD             lui $2, 64989
4334	41EC  34425EDF             ori $2, $2, 24287
4335	41F0  3C030030             lui $3, 48
4336	41F4  34630000             ori $3, $3, 0
4337	41F8  00430018             mult $2, $3
4338	41FC  00009012             mflo $18
4339	4200  AFB20000             sw $18, 0($29)
4340	4204  00009010             mfhi $18
4341	4208  AFB20000             sw $18, 0($29)
4342	420C  0C003102             jal increment_offset
4343	4210  3C025666             lui $2, 22118
4344	4214  3442BB6C             ori $2, $2, 47980
4345	4218  3C030030             lui $3, 48
4346	421C  34630000             ori $3, $3, 0
4347	4220  00430018             mult $2, $3
4348	4224  00009012             mflo $18
4349	4228  AFB20000             sw $18, 0($29)
4350	422C  00009010             mfhi $18
4351	4230  AFB20000             sw $18, 0($29)
4352	4234  0C003102             jal increment_offset
4353	4238  3C02AAAB             lui $2, 43691
4354	423C  344215B3             ori $2, $2, 5555
4355	4240  3C030030             lui $3, 48
4356	4244  34630000             ori $3, $3, 0
4357	4248  00430018             mult $2, $3
4358	424C  00009012             mflo $18
4359	4250  AFB20000             sw $18, 0($29)
4360	4254  00009010             mfhi $18
4361	4258  AFB20000             sw $18, 0($29)
4362	425C  0C003102             jal increment_offset
4363	4260  3C020000             lui $2, 0
4364	4264  34420000             ori $2, $2, 0
4365	4268  3C030060             lui $3, 96
4366	426C  34630000             ori $3, $3, 0
4367	4270  00430018             mult $2, $3
4368	4274  00009012             mflo $18
4369	4278  AFB20000             sw $18, 0($29)
4370	427C  00009010             mfhi $18
4371	4280  AFB20000             sw $18, 0($29)
4372	4284  0C003102             jal increment_offset
4373	4288  3C02AAAA             lui $2, 43690
4374	428C  3442AAAA             ori $2, $2, 43690
4375	4290  3C030060             lui $3, 96
4376	4294  34630000             ori $3, $3, 0
4377	4298  00430018             mult $2, $3
4378	429C  00009012             mflo $18
4379	42A0  AFB20000             sw $18, 0($29)
4380	42A4  00009010             mfhi $18
4381	42A8  AFB20000             sw $18, 0($29)
4382	42AC  0C003102             jal increment_offset
4383	42B0  3C02D34D             lui $2, 54093
4384	42B4  34425555             ori $2, $2, 21845
4385	42B8  3C030060             lui $3, 96
4386	42BC  34630000             ori $3, $3, 0
4387	42C0  00430018             mult $2, $3
4388	42C4  00009012             mflo $18
4389	42C8  AFB20000             sw $18, 0($29)
4390	42CC  00009010             mfhi $18
4391	42D0  AFB20000             sw $18, 0($29)
4392	42D4  0C003102             jal increment_offset
4393	42D8  3C021999             lui $2, 6553
4394	42DC  3442999A             ori $2, $2, 39322
4395	42E0  3C030060             lui $3, 96
4396	42E4  34630000             ori $3, $3, 0
4397	42E8  00430018             mult $2, $3
4398	42EC  00009012             mflo $18
4399	42F0  AFB20000             sw $18, 0($29)
4400	42F4  00009010             mfhi $18
4401	42F8  AFB20000             sw $18, 0($29)
4402	42FC  0C003102             jal increment_offset
4403	4300  3C023536             lui $2, 13622
4404	4304  34426666             ori $2, $2, 26214
4405	4308  3C030060             lui $3, 96
4406	430C  34630000             ori $3, $3, 0
4407	4310  00430018             mult $2, $3
4408	4314  00009012             mflo $18
4409	4318  AFB20000             sw $18, 0($29)
4410	431C  00009010             mfhi $18
4411	4320  AFB20000             sw $18, 0($29)
4412	4324  0C003102             jal increment_offset
4413	4328  3C024CD4             lui $2, 19668
4414	432C  3442CCCB             ori $2, $2, 52427
4415	4330  3C030060             lui $3, 96
4416	4334  34630000             ori $3, $3, 0
4417	4338  00430018             mult $2, $3
4418	433C  00009012             mflo $18
4419	4340  AFB20000             sw $18, 0($29)
4420	4344  00009010             mfhi $18
4421	4348  AFB20000             sw $18, 0($29)
4422	434C  0C003102             jal increment_offset
4423	4350  3C026773             lui $2, 26483
4424	4354  3442F337             ori $2, $2, 62263
4425	4358  3C030060             lui $3, 96
4426	435C  34630000             ori $3, $3, 0
4427	4360  00430018             mult $2, $3
4428	4364  00009012             mflo $18
4429	4368  AFB20000             sw $18, 0($29)
4430	436C  00009010             mfhi $18
4431	4370  AFB20000             sw $18, 0($29)
4432	4374  0C003102             jal increment_offset
4433	4378  3C02FDDD             lui $2, 64989
4434	437C  34425EDF             ori $2, $2, 24287
4435	4380  3C030060             lui $3, 96
4436	4384  34630000             ori $3, $3, 0
4437	4388  00430018             mult $2, $3
4438	438C  00009012             mflo $18
4439	4390  AFB20000             sw $18, 0($29)
4440	4394  00009010             mfhi $18
4441	4398  AFB20000             sw $18, 0($29)
4442	439C  0C003102             jal increment_offset
4443	43A0  3C025666             lui $2, 22118
4444	43A4  3442BB6C             ori $2, $2, 47980
4445	43A8  3C030060             lui $3, 96
4446	43AC  34630000             ori $3, $3, 0
4447	43B0  00430018             mult $2, $3
4448	43B4  00009012             mflo $18
4449	43B8  AFB20000             sw $18, 0($29)
4450	43BC  00009010             mfhi $18
4451	43C0  AFB20000             sw $18, 0($29)
4452	43C4  0C003102             jal increment_offset
4453	43C8  3C02AAAB             lui $2, 43691
4454	43CC  344215B3             ori $2, $2, 5555
4455	43D0  3C030060             lui $3, 96
4456	43D4  34630000             ori $3, $3, 0
4457	43D8  00430018             mult $2, $3
4458	43DC  00009012             mflo $18
4459	43E0  AFB20000             sw $18, 0($29)
4460	43E4  00009010             mfhi $18
4461	43E8  AFB20000             sw $18, 0($29)
4462	43EC  0C003102             jal increment_offset
4463	43F0  3C020000             lui $2, 0
4464	43F4  34420000             ori $2, $2, 0
4465	43F8  3C0300C0             lui $3, 192
4466	43FC  34630000             ori $3, $3, 0
4467	4400  00430018             mult $2, $3
4468	4404  00009012             mflo $18
4469	4408  AFB20000             sw $18, 0($29)
4470	440C  00009010             mfhi $18
4471	4410  AFB20000             sw $18, 0($29)
4472	4414  0C003102             jal increment_offset
4473	4418  3C02AAAA             lui $2, 43690
4474	441C  3442AAAA             ori $2, $2, 43690
4475	4420  3C0300C0             lui $3, 192
4476	4424  34630000             ori $3, $3, 0
4477	4428  00430018             mult $2, $3
4478	442C  00009012             mflo $18
4479	4430  AFB20000             sw $18, 0($29)
4480	4434  00009010             mfhi $18
4481	4438  AFB20000             sw $18, 0($29)
4482	443C  0C003102             jal increment_offset
4483	4440  3C02D34D             lui $2, 54093
4484	4444  34425555             ori $2, $2, 21845
4485	4448  3C0300C0             lui $3, 192
4486	444C  34630000             ori $3, $3, 0
4487	4450  00430018             mult $2, $3
4488	4454  00009012             mflo $18
4489	4458  AFB20000             sw $18, 0($29)
4490	445C  00009010             mfhi $18
4491	4460  AFB20000             sw $18, 0($29)
4492	4464  0C003102             jal increment_offset
4493	4468  3C021999             lui $2, 6553
4494	446C  3442999A             ori $2, $2, 39322
4495	4470  3C0300C0             lui $3, 192
4496	4474  34630000             ori $3, $3, 0
4497	4478  00430018             mult $2, $3
4498	447C  00009012             mflo $18
4499	4480  AFB20000             sw $18, 0($29)
4500	4484  00009010             mfhi $18
4501	4488  AFB20000             sw $18, 0($29)
4502	448C  0C003102             jal increment_offset
4503	4490  3C023536             lui $2, 13622
4504	4494  34426666             ori $2, $2, 26214
4505	4498  3C0300C0             lui $3, 192
4506	449C  34630000             ori $3, $3, 0
4507	44A0  00430018             mult $2, $3
4508	44A4  00009012             mflo $18
4509	44A8  AFB20000             sw $18, 0($29)
4510	44AC  00009010             mfhi $18
4511	44B0  AFB20000             sw $18, 0($29)
4512	44B4  0C003102             jal increment_offset
4513	44B8  3C024CD4             lui $2, 19668
4514	44BC  3442CCCB             ori $2, $2, 52427
4515	44C0  3C0300C0             lui $3, 192
4516	44C4  34630000             ori $3, $3, 0
4517	44C8  00430018             mult $2, $3
4518	44CC  00009012             mflo $18
4519	44D0  AFB20000             sw $18, 0($29)
4520	44D4  00009010             mfhi $18
4521	44D8  AFB20000             sw $18, 0($29)
4522	44DC  0C003102             jal increment_offset
4523	44E0  3C026773             lui $2, 26483
4524	44E4  3442F337             ori $2, $2, 62263
4525	44E8  3C0300C0             lui $3, 192
4526	44EC  34630000             ori $3, $3, 0
4527	44F0  00430018             mult $2, $3
4528	44F4  00009012             mflo $18
4529	44F8  AFB20000             sw $18, 0($29)
4530	44FC  00009010             mfhi $18
4531	4500  AFB20000             sw $18, 0($29)
4532	4504  0C003102             jal increment_offset
4533	4508  3C02FDDD             lui $2, 64989
4534	450C  34425EDF             ori $2, $2, 24287
4535	4510  3C0300C0             lui $3, 192
4536	4514  34630000             ori $3, $3, 0
4537	4518  00430018             mult $2, $3
4538	451C  00009012             mflo $18
4539	4520  AFB20000             sw $18, 0($29)
4540	4524  00009010             mfhi $18
4541	4528  AFB20000             sw $18, 0($29)
4542	452C  0C003102             jal increment_offset
4543	4530  3C025666             lui $2, 22118
4544	4534  3442BB6C             ori $2, $2, 47980
4545	4538  3C0300C0             lui $3, 192
4546	453C  34630000             ori $3, $3, 0
4547	4540  00430018             mult $2, $3
4548	4544  00009012             mflo $18
4549	4548  AFB20000             sw $18, 0($29)
4550	454C  00009010             mfhi $18
4551	4550  AFB20000             sw $18, 0($29)
4552	4554  0C003102             jal increment_offset
4553	4558  3C02AAAB             lui $2, 43691
4554	455C  344215B3             ori $2, $2, 5555
4555	4560  3C0300C0             lui $3, 192
4556	4564  34630000             ori $3, $3, 0
4557	4568  00430018             mult $2, $3
4558	456C  00009012             mflo $18
4559	4570  AFB20000             sw $18, 0($29)
4560	4574  00009010             mfhi $18
4561	4578  AFB20000             sw $18, 0($29)
4562	457C  0C003102             jal increment_offset
4563	4580  3C020000             lui $2, 0
4564	4584  34420000             ori $2, $2, 0
4565	4588  3C030180             lui $3, 384
4566	458C  34630000             ori $3, $3, 0
4567	4590  00430018             mult $2, $3
4568	4594  00009012             mflo $18
4569	4598  AFB20000             sw $18, 0($29)
4570	459C  00009010             mfhi $18
4571	45A0  AFB20000             sw $18, 0($29)
4572	45A4  0C003102             jal increment_offset
4573	45A8  3C02AAAA             lui $2, 43690
4574	45AC  3442AAAA             ori $2, $2, 43690
4575	45B0  3C030180             lui $3, 384
4576	45B4  34630000             ori $3, $3, 0
4577	45B8  00430018             mult $2, $3
4578	45BC  00009012             mflo $18
4579	45C0  AFB20000             sw $18, 0($29)
4580	45C4  00009010             mfhi $18
4581	45C8  AFB20000             sw $18, 0($29)
4582	45CC  0C003102             jal increment_offset
4583	45D0  3C02D34D             lui $2, 54093
4584	45D4  34425555             ori $2, $2, 21845
4585	45D8  3C030180             lui $3, 384
4586	45DC  34630000             ori $3, $3, 0
4587	45E0  00430018             mult $2, $3
4588	45E4  00009012             mflo $18
4589	45E8  AFB20000             sw $18, 0($29)
4590	45EC  00009010             mfhi $18
4591	45F0  AFB20000             sw $18, 0($29)
4592	45F4  0C003102             jal increment_offset
4593	45F8  3C021999             lui $2, 6553
4594	45FC  3442999A             ori $2, $2, 39322
4595	4600  3C030180             lui $3, 384
4596	4604  34630000             ori $3, $3, 0
4597	4608  00430018             mult $2, $3
4598	460C  00009012             mflo $18
4599	4610  AFB20000             sw $18, 0($29)
4600	4614  00009010             mfhi $18
4601	4618  AFB20000             sw $18, 0($29)
4602	461C  0C003102             jal increment_offset
4603	4620  3C023536             lui $2, 13622
4604	4624  34426666             ori $2, $2, 26214
4605	4628  3C030180             lui $3, 384
4606	462C  34630000             ori $3, $3, 0
4607	4630  00430018             mult $2, $3
4608	4634  00009012             mflo $18
4609	4638  AFB20000             sw $18, 0($29)
4610	463C  00009010             mfhi $18
4611	4640  AFB20000             sw $18, 0($29)
4612	4644  0C003102             jal increment_offset
4613	4648  3C024CD4             lui $2, 19668
4614	464C  3442CCCB             ori $2, $2, 52427
4615	4650  3C030180             lui $3, 384
4616	4654  34630000             ori $3, $3, 0
4617	4658  00430018             mult $2, $3
4618	465C  00009012             mflo $18
4619	4660  AFB20000             sw $18, 0($29)
4620	4664  00009010             mfhi $18
4621	4668  AFB20000             sw $18, 0($29)
4622	466C  0C003102             jal increment_offset
4623	4670  3C026773             lui $2, 26483
4624	4674  3442F337             ori $2, $2, 62263
4625	4678  3C030180             lui $3, 384
4626	467C  34630000             ori $3, $3, 0
4627	4680  00430018             mult $2, $3
4628	4684  00009012             mflo $18
4629	4688  AFB20000             sw $18, 0($29)
4630	468C  00009010             mfhi $18
4631	4690  AFB20000             sw $18, 0($29)
4632	4694  0C003102             jal increment_offset
4633	4698  3C02FDDD             lui $2, 64989
4634	469C  34425EDF             ori $2, $2, 24287
4635	46A0  3C030180             lui $3, 384
4636	46A4  34630000             ori $3, $3, 0
4637	46A8  00430018             mult $2, $3
4638	46AC  00009012             mflo $18
4639	46B0  AFB20000             sw $18, 0($29)
4640	46B4  00009010             mfhi $18
4641	46B8  AFB20000             sw $18, 0($29)
4642	46BC  0C003102             jal increment_offset
4643	46C0  3C025666             lui $2, 22118
4644	46C4  3442BB6C             ori $2, $2, 47980
4645	46C8  3C030180             lui $3, 384
4646	46CC  34630000             ori $3, $3, 0
4647	46D0  00430018             mult $2, $3
4648	46D4  00009012             mflo $18
4649	46D8  AFB20000             sw $18, 0($29)
4650	46DC  00009010             mfhi $18
4651	46E0  AFB20000             sw $18, 0($29)
4652	46E4  0C003102             jal increment_offset
4653	46E8  3C02AAAB             lui $2, 43691
4654	46EC  344215B3             ori $2, $2, 5555
4655	46F0  3C030180             lui $3, 384
4656	46F4  34630000             ori $3, $3, 0
4657	46F8  00430018             mult $2, $3
4658	46FC  00009012             mflo $18
4659	4700  AFB20000             sw $18, 0($29)
4660	4704  00009010             mfhi $18
4661	4708  AFB20000             sw $18, 0($29)
4662	470C  0C003102             jal increment_offset
4663	4710  3C020000             lui $2, 0
4664	4714  34420000             ori $2, $2, 0
4665	4718  3C030300             lui $3, 768
4666	471C  34630000             ori $3, $3, 0
4667	4720  00430018             mult $2, $3
4668	4724  00009012             mflo $18
4669	4728  AFB20000             sw $18, 0($29)
4670	472C  00009010             mfhi $18
4671	4730  AFB20000             sw $18, 0($29)
4672	4734  0C003102             jal increment_offset
4673	4738  3C02AAAA             lui $2, 43690
4674	473C  3442AAAA             ori $2, $2, 43690
4675	4740  3C030300             lui $3, 768
4676	4744  34630000             ori $3, $3, 0
4677	4748  00430018             mult $2, $3
4678	474C  00009012             mflo $18
4679	4750  AFB20000             sw $18, 0($29)
4680	4754  00009010             mfhi $18
4681	4758  AFB20000             sw $18, 0($29)
4682	475C  0C003102             jal increment_offset
4683	4760  3C02D34D             lui $2, 54093
4684	4764  34425555             ori $2, $2, 21845
4685	4768  3C030300             lui $3, 768
4686	476C  34630000             ori $3, $3, 0
4687	4770  00430018             mult $2, $3
4688	4774  00009012             mflo $18
4689	4778  AFB20000             sw $18, 0($29)
4690	477C  00009010             mfhi $18
4691	4780  AFB20000             sw $18, 0($29)
4692	4784  0C003102             jal increment_offset
4693	4788  3C021999             lui $2, 6553
4694	478C  3442999A             ori $2, $2, 39322
4695	4790  3C030300             lui $3, 768
4696	4794  34630000             ori $3, $3, 0
4697	4798  00430018             mult $2, $3
4698	479C  00009012             mflo $18
4699	47A0  AFB20000             sw $18, 0($29)
4700	47A4  00009010             mfhi $18
4701	47A8  AFB20000             sw $18, 0($29)
4702	47AC  0C003102             jal increment_offset
4703	47B0  3C023536             lui $2, 13622
4704	47B4  34426666             ori $2, $2, 26214
4705	47B8  3C030300             lui $3, 768
4706	47BC  34630000             ori $3, $3, 0
4707	47C0  00430018             mult $2, $3
4708	47C4  00009012             mflo $18
4709	47C8  AFB20000             sw $18, 0($29)
4710	47CC  00009010             mfhi $18
4711	47D0  AFB20000             sw $18, 0($29)
4712	47D4  0C003102             jal increment_offset
4713	47D8  3C024CD4             lui $2, 19668
4714	47DC  3442CCCB             ori $2, $2, 52427
4715	47E0  3C030300             lui $3, 768
4716	47E4  34630000             ori $3, $3, 0
4717	47E8  00430018             mult $2, $3
4718	47EC  00009012             mflo $18
4719	47F0  AFB20000             sw $18, 0($29)
4720	47F4  00009010             mfhi $18
4721	47F8  AFB20000             sw $18, 0($29)
4722	47FC  0C003102             jal increment_offset
4723	4800  3C026773             lui $2, 26483
4724	4804  3442F337             ori $2, $2, 62263
4725	4808  3C030300             lui $3, 768
4726	480C  34630000             ori $3, $3, 0
4727	4810  00430018             mult $2, $3
4728	4814  00009012             mflo $18
4729	4818  AFB20000             sw $18, 0($29)
4730	481C  00009010             mfhi $18
4731	4820  AFB20000             sw $18, 0($29)
4732	4824  0C003102             jal increment_offset
4733	4828  3C02FDDD             lui $2, 64989
4734	482C  34425EDF             ori $2, $2, 24287
4735	4830  3C030300             lui $3, 768
4736	4834  34630000             ori $3, $3, 0
4737	4838  00430018             mult $2, $3
4738	483C  00009012             mflo $18
4739	4840  AFB20000             sw $18, 0($29)
4740	4844  00009010             mfhi $18
4741	4848  AFB20000             sw $18, 0($29)
4742	484C  0C003102             jal increment_offset
4743	4850  3C025666             lui $2, 22118
4744	4854  3442BB6C             ori $2, $2, 47980
4745	4858  3C030300             lui $3, 768
4746	485C  34630000             ori $3, $3, 0
4747	4860  00430018             mult $2, $3
4748	4864  00009012             mflo $18
4749	4868  AFB20000             sw $18, 0($29)
4750	486C  00009010             mfhi $18
4751	4870  AFB20000             sw $18, 0($29)
4752	4874  0C003102             jal increment_offset
4753	4878  3C02AAAB             lui $2, 43691
4754	487C  344215B3             ori $2, $2, 5555
4755	4880  3C030300             lui $3, 768
4756	4884  34630000             ori $3, $3, 0
4757	4888  00430018             mult $2, $3
4758	488C  00009012             mflo $18
4759	4890  AFB20000             sw $18, 0($29)
4760	4894  00009010             mfhi $18
4761	4898  AFB20000             sw $18, 0($29)
4762	489C  0C003102             jal increment_offset
4763	48A0  3C020000             lui $2, 0
4764	48A4  34420000             ori $2, $2, 0
4765	48A8  3C030600             lui $3, 1536
4766	48AC  34630000             ori $3, $3, 0
4767	48B0  00430018             mult $2, $3
4768	48B4  00009012             mflo $18
4769	48B8  AFB20000             sw $18, 0($29)
4770	48BC  00009010             mfhi $18
4771	48C0  AFB20000             sw $18, 0($29)
4772	48C4  0C003102             jal increment_offset
4773	48C8  3C02AAAA             lui $2, 43690
4774	48CC  3442AAAA             ori $2, $2, 43690
4775	48D0  3C030600             lui $3, 1536
4776	48D4  34630000             ori $3, $3, 0
4777	48D8  00430018             mult $2, $3
4778	48DC  00009012             mflo $18
4779	48E0  AFB20000             sw $18, 0($29)
4780	48E4  00009010             mfhi $18
4781	48E8  AFB20000             sw $18, 0($29)
4782	48EC  0C003102             jal increment_offset
4783	48F0  3C02D34D             lui $2, 54093
4784	48F4  34425555             ori $2, $2, 21845
4785	48F8  3C030600             lui $3, 1536
4786	48FC  34630000             ori $3, $3, 0
4787	4900  00430018             mult $2, $3
4788	4904  00009012             mflo $18
4789	4908  AFB20000             sw $18, 0($29)
4790	490C  00009010             mfhi $18
4791	4910  AFB20000             sw $18, 0($29)
4792	4914  0C003102             jal increment_offset
4793	4918  3C021999             lui $2, 6553
4794	491C  3442999A             ori $2, $2, 39322
4795	4920  3C030600             lui $3, 1536
4796	4924  34630000             ori $3, $3, 0
4797	4928  00430018             mult $2, $3
4798	492C  00009012             mflo $18
4799	4930  AFB20000             sw $18, 0($29)
4800	4934  00009010             mfhi $18
4801	4938  AFB20000             sw $18, 0($29)
4802	493C  0C003102             jal increment_offset
4803	4940  3C023536             lui $2, 13622
4804	4944  34426666             ori $2, $2, 26214
4805	4948  3C030600             lui $3, 1536
4806	494C  34630000             ori $3, $3, 0
4807	4950  00430018             mult $2, $3
4808	4954  00009012             mflo $18
4809	4958  AFB20000             sw $18, 0($29)
4810	495C  00009010             mfhi $18
4811	4960  AFB20000             sw $18, 0($29)
4812	4964  0C003102             jal increment_offset
4813	4968  3C024CD4             lui $2, 19668
4814	496C  3442CCCB             ori $2, $2, 52427
4815	4970  3C030600             lui $3, 1536
4816	4974  34630000             ori $3, $3, 0
4817	4978  00430018             mult $2, $3
4818	497C  00009012             mflo $18
4819	4980  AFB20000             sw $18, 0($29)
4820	4984  00009010             mfhi $18
4821	4988  AFB20000             sw $18, 0($29)
4822	498C  0C003102             jal increment_offset
4823	4990  3C026773             lui $2, 26483
4824	4994  3442F337             ori $2, $2, 62263
4825	4998  3C030600             lui $3, 1536
4826	499C  34630000             ori $3, $3, 0
4827	49A0  00430018             mult $2, $3
4828	49A4  00009012             mflo $18
4829	49A8  AFB20000             sw $18, 0($29)
4830	49AC  00009010             mfhi $18
4831	49B0  AFB20000             sw $18, 0($29)
4832	49B4  0C003102             jal increment_offset
4833	49B8  3C02FDDD             lui $2, 64989
4834	49BC  34425EDF             ori $2, $2, 24287
4835	49C0  3C030600             lui $3, 1536
4836	49C4  34630000             ori $3, $3, 0
4837	49C8  00430018             mult $2, $3
4838	49CC  00009012             mflo $18
4839	49D0  AFB20000             sw $18, 0($29)
4840	49D4  00009010             mfhi $18
4841	49D8  AFB20000             sw $18, 0($29)
4842	49DC  0C003102             jal increment_offset
4843	49E0  3C025666             lui $2, 22118
4844	49E4  3442BB6C             ori $2, $2, 47980
4845	49E8  3C030600             lui $3, 1536
4846	49EC  34630000             ori $3, $3, 0
4847	49F0  00430018             mult $2, $3
4848	49F4  00009012             mflo $18
4849	49F8  AFB20000             sw $18, 0($29)
4850	49FC  00009010             mfhi $18
4851	4A00  AFB20000             sw $18, 0($29)
4852	4A04  0C003102             jal increment_offset
4853	4A08  3C02AAAB             lui $2, 43691
4854	4A0C  344215B3             ori $2, $2, 5555
4855	4A10  3C030600             lui $3, 1536
4856	4A14  34630000             ori $3, $3, 0
4857	4A18  00430018             mult $2, $3
4858	4A1C  00009012             mflo $18
4859	4A20  AFB20000             sw $18, 0($29)
4860	4A24  00009010             mfhi $18
4861	4A28  AFB20000             sw $18, 0($29)
4862	4A2C  0C003102             jal increment_offset
4863	4A30  3C020000             lui $2, 0
4864	4A34  34420000             ori $2, $2, 0
4865	4A38  3C030C00             lui $3, 3072
4866	4A3C  34630000             ori $3, $3, 0
4867	4A40  00430018             mult $2, $3
4868	4A44  00009012             mflo $18
4869	4A48  AFB20000             sw $18, 0($29)
4870	4A4C  00009010             mfhi $18
4871	4A50  AFB20000             sw $18, 0($29)
4872	4A54  0C003102             jal increment_offset
4873	4A58  3C02AAAA             lui $2, 43690
4874	4A5C  3442AAAA             ori $2, $2, 43690
4875	4A60  3C030C00             lui $3, 3072
4876	4A64  34630000             ori $3, $3, 0
4877	4A68  00430018             mult $2, $3
4878	4A6C  00009012             mflo $18
4879	4A70  AFB20000             sw $18, 0($29)
4880	4A74  00009010             mfhi $18
4881	4A78  AFB20000             sw $18, 0($29)
4882	4A7C  0C003102             jal increment_offset
4883	4A80  3C02D34D             lui $2, 54093
4884	4A84  34425555             ori $2, $2, 21845
4885	4A88  3C030C00             lui $3, 3072
4886	4A8C  34630000             ori $3, $3, 0
4887	4A90  00430018             mult $2, $3
4888	4A94  00009012             mflo $18
4889	4A98  AFB20000             sw $18, 0($29)
4890	4A9C  00009010             mfhi $18
4891	4AA0  AFB20000             sw $18, 0($29)
4892	4AA4  0C003102             jal increment_offset
4893	4AA8  3C021999             lui $2, 6553
4894	4AAC  3442999A             ori $2, $2, 39322
4895	4AB0  3C030C00             lui $3, 3072
4896	4AB4  34630000             ori $3, $3, 0
4897	4AB8  00430018             mult $2, $3
4898	4ABC  00009012             mflo $18
4899	4AC0  AFB20000             sw $18, 0($29)
4900	4AC4  00009010             mfhi $18
4901	4AC8  AFB20000             sw $18, 0($29)
4902	4ACC  0C003102             jal increment_offset
4903	4AD0  3C023536             lui $2, 13622
4904	4AD4  34426666             ori $2, $2, 26214
4905	4AD8  3C030C00             lui $3, 3072
4906	4ADC  34630000             ori $3, $3, 0
4907	4AE0  00430018             mult $2, $3
4908	4AE4  00009012             mflo $18
4909	4AE8  AFB20000             sw $18, 0($29)
4910	4AEC  00009010             mfhi $18
4911	4AF0  AFB20000             sw $18, 0($29)
4912	4AF4  0C003102             jal increment_offset
4913	4AF8  3C024CD4             lui $2, 19668
4914	4AFC  3442CCCB             ori $2, $2, 52427
4915	4B00  3C030C00             lui $3, 3072
4916	4B04  34630000             ori $3, $3, 0
4917	4B08  00430018             mult $2, $3
4918	4B0C  00009012             mflo $18
4919	4B10  AFB20000             sw $18, 0($29)
4920	4B14  00009010             mfhi $18
4921	4B18  AFB20000             sw $18, 0($29)
4922	4B1C  0C003102             jal increment_offset
4923	4B20  3C026773             lui $2, 26483
4924	4B24  3442F337             ori $2, $2, 62263
4925	4B28  3C030C00             lui $3, 3072
4926	4B2C  34630000             ori $3, $3, 0
4927	4B30  00430018             mult $2, $3
4928	4B34  00009012             mflo $18
4929	4B38  AFB20000             sw $18, 0($29)
4930	4B3C  00009010             mfhi $18
4931	4B40  AFB20000             sw $18, 0($29)
4932	4B44  0C003102             jal increment_offset
4933	4B48  3C02FDDD             lui $2, 64989
4934	4B4C  34425EDF             ori $2, $2, 24287
4935	4B50  3C030C00             lui $3, 3072
4936	4B54  34630000             ori $3, $3, 0
4937	4B58  00430018             mult $2, $3
4938	4B5C  00009012             mflo $18
4939	4B60  AFB20000             sw $18, 0($29)
4940	4B64  00009010             mfhi $18
4941	4B68  AFB20000             sw $18, 0($29)
4942	4B6C  0C003102             jal increment_offset
4943	4B70  3C025666             lui $2, 22118
4944	4B74  3442BB6C             ori $2, $2, 47980
4945	4B78  3C030C00             lui $3, 3072
4946	4B7C  34630000             ori $3, $3, 0
4947	4B80  00430018             mult $2, $3
4948	4B84  00009012             mflo $18
4949	4B88  AFB20000             sw $18, 0($29)
4950	4B8C  00009010             mfhi $18
4951	4B90  AFB20000             sw $18, 0($29)
4952	4B94  0C003102             jal increment_offset
4953	4B98  3C02AAAB             lui $2, 43691
4954	4B9C  344215B3             ori $2, $2, 5555
4955	4BA0  3C030C00             lui $3, 3072
4956	4BA4  34630000             ori $3, $3, 0
4957	4BA8  00430018             mult $2, $3
4958	4BAC  00009012             mflo $18
4959	4BB0  AFB20000             sw $18, 0($29)
4960	4BB4  00009010             mfhi $18
4961	4BB8  AFB20000             sw $18, 0($29)
4962	4BBC  0C003102             jal increment_offset
4963	4BC0  3C020000             lui $2, 0
4964	4BC4  34420000             ori $2, $2, 0
4965	4BC8  3C031800             lui $3, 6144
4966	4BCC  34630000             ori $3, $3, 0
4967	4BD0  00430018             mult $2, $3
4968	4BD4  00009012             mflo $18
4969	4BD8  AFB20000             sw $18, 0($29)
4970	4BDC  00009010             mfhi $18
4971	4BE0  AFB20000             sw $18, 0($29)
4972	4BE4  0C003102             jal increment_offset
4973	4BE8  3C02AAAA             lui $2, 43690
4974	4BEC  3442AAAA             ori $2, $2, 43690
4975	4BF0  3C031800             lui $3, 6144
4976	4BF4  34630000             ori $3, $3, 0
4977	4BF8  00430018             mult $2, $3
4978	4BFC  00009012             mflo $18
4979	4C00  AFB20000             sw $18, 0($29)
4980	4C04  00009010             mfhi $18
4981	4C08  AFB20000             sw $18, 0($29)
4982	4C0C  0C003102             jal increment_offset
4983	4C10  3C02D34D             lui $2, 54093
4984	4C14  34425555             ori $2, $2, 21845
4985	4C18  3C031800             lui $3, 6144
4986	4C1C  34630000             ori $3, $3, 0
4987	4C20  00430018             mult $2, $3
4988	4C24  00009012             mflo $18
4989	4C28  AFB20000             sw $18, 0($29)
4990	4C2C  00009010             mfhi $18
4991	4C30  AFB20000             sw $18, 0($29)
4992	4C34  0C003102             jal increment_offset
4993	4C38  3C021999             lui $2, 6553
4994	4C3C  3442999A             ori $2, $2, 39322
4995	4C40  3C031800             lui $3, 6144
4996	4C44  34630000             ori $3, $3, 0
4997	4C48  00430018             mult $2, $3
4998	4C4C  00009012             mflo $18
4999	4C50  AFB20000             sw $18, 0($29)
5000	4C54  00009010             mfhi $18
5001	4C58  AFB20000             sw $18, 0($29)
5002	4C5C  0C003102             jal increment_offset
5003	4C60  3C023536             lui $2, 13622
5004	4C64  34426666             ori $2, $2, 26214
5005	4C68  3C031800             lui $3, 6144
5006	4C6C  34630000             ori $3, $3, 0
5007	4C70  00430018             mult $2, $3
5008	4C74  00009012             mflo $18
5009	4C78  AFB20000             sw $18, 0($29)
5010	4C7C  00009010             mfhi $18
5011	4C80  AFB20000             sw $18, 0($29)
5012	4C84  0C003102             jal increment_offset
5013	4C88  3C024CD4             lui $2, 19668
5014	4C8C  3442CCCB             ori $2, $2, 52427
5015	4C90  3C031800             lui $3, 6144
5016	4C94  34630000             ori $3, $3, 0
5017	4C98  00430018             mult $2, $3
5018	4C9C  00009012             mflo $18
5019	4CA0  AFB20000             sw $18, 0($29)
5020	4CA4  00009010             mfhi $18
5021	4CA8  AFB20000             sw $18, 0($29)
5022	4CAC  0C003102             jal increment_offset
5023	4CB0  3C026773             lui $2, 26483
5024	4CB4  3442F337             ori $2, $2, 62263
5025	4CB8  3C031800             lui $3, 6144
5026	4CBC  34630000             ori $3, $3, 0
5027	4CC0  00430018             mult $2, $3
5028	4CC4  00009012             mflo $18
5029	4CC8  AFB20000             sw $18, 0($29)
5030	4CCC  00009010             mfhi $18
5031	4CD0  AFB20000             sw $18, 0($29)
5032	4CD4  0C003102             jal increment_offset
5033	4CD8  3C02FDDD             lui $2, 64989
5034	4CDC  34425EDF             ori $2, $2, 24287
5035	4CE0  3C031800             lui $3, 6144
5036	4CE4  34630000             ori $3, $3, 0
5037	4CE8  00430018             mult $2, $3
5038	4CEC  00009012             mflo $18
5039	4CF0  AFB20000             sw $18, 0($29)
5040	4CF4  00009010             mfhi $18
5041	4CF8  AFB20000             sw $18, 0($29)
5042	4CFC  0C003102             jal increment_offset
5043	4D00  3C025666             lui $2, 22118
5044	4D04  3442BB6C             ori $2, $2, 47980
5045	4D08  3C031800             lui $3, 6144
5046	4D0C  34630000             ori $3, $3, 0
5047	4D10  00430018             mult $2, $3
5048	4D14  00009012             mflo $18
5049	4D18  AFB20000             sw $18, 0($29)
5050	4D1C  00009010             mfhi $18
5051	4D20  AFB20000             sw $18, 0($29)
5052	4D24  0C003102             jal increment_offset
5053	4D28  3C02AAAB             lui $2, 43691
5054	4D2C  344215B3             ori $2, $2, 5555
5055	4D30  3C031800             lui $3, 6144
5056	4D34  34630000             ori $3, $3, 0
5057	4D38  00430018             mult $2, $3
5058	4D3C  00009012             mflo $18
5059	4D40  AFB20000             sw $18, 0($29)
5060	4D44  00009010             mfhi $18
5061	4D48  AFB20000             sw $18, 0($29)
5062	4D4C  0C003102             jal increment_offset
5063	4D50  3C020000             lui $2, 0
5064	4D54  34420000             ori $2, $2, 0
5065	4D58  3C033000             lui $3, 12288
5066	4D5C  34630000             ori $3, $3, 0
5067	4D60  00430018             mult $2, $3
5068	4D64  00009012             mflo $18
5069	4D68  AFB20000             sw $18, 0($29)
5070	4D6C  00009010             mfhi $18
5071	4D70  AFB20000             sw $18, 0($29)
5072	4D74  0C003102             jal increment_offset
5073	4D78  3C02AAAA             lui $2, 43690
5074	4D7C  3442AAAA             ori $2, $2, 43690
5075	4D80  3C033000             lui $3, 12288
5076	4D84  34630000             ori $3, $3, 0
5077	4D88  00430018             mult $2, $3
5078	4D8C  00009012             mflo $18
5079	4D90  AFB20000             sw $18, 0($29)
5080	4D94  00009010             mfhi $18
5081	4D98  AFB20000             sw $18, 0($29)
5082	4D9C  0C003102             jal increment_offset
5083	4DA0  3C02D34D             lui $2, 54093
5084	4DA4  34425555             ori $2, $2, 21845
5085	4DA8  3C033000             lui $3, 12288
5086	4DAC  34630000             ori $3, $3, 0
5087	4DB0  00430018             mult $2, $3
5088	4DB4  00009012             mflo $18
5089	4DB8  AFB20000             sw $18, 0($29)
5090	4DBC  00009010             mfhi $18
5091	4DC0  AFB20000             sw $18, 0($29)
5092	4DC4  0C003102             jal increment_offset
5093	4DC8  3C021999             lui $2, 6553
5094	4DCC  3442999A             ori $2, $2, 39322
5095	4DD0  3C033000             lui $3, 12288
5096	4DD4  34630000             ori $3, $3, 0
5097	4DD8  00430018             mult $2, $3
5098	4DDC  00009012             mflo $18
5099	4DE0  AFB20000             sw $18, 0($29)
5100	4DE4  00009010             mfhi $18
5101	4DE8  AFB20000             sw $18, 0($29)
5102	4DEC  0C003102             jal increment_offset
5103	4DF0  3C023536             lui $2, 13622
5104	4DF4  34426666             ori $2, $2, 26214
5105	4DF8  3C033000             lui $3, 12288
5106	4DFC  34630000             ori $3, $3, 0
5107	4E00  00430018             mult $2, $3
5108	4E04  00009012             mflo $18
5109	4E08  AFB20000             sw $18, 0($29)
5110	4E0C  00009010             mfhi $18
5111	4E10  AFB20000             sw $18, 0($29)
5112	4E14  0C003102             jal increment_offset
5113	4E18  3C024CD4             lui $2, 19668
5114	4E1C  3442CCCB             ori $2, $2, 52427
5115	4E20  3C033000             lui $3, 12288
5116	4E24  34630000             ori $3, $3, 0
5117	4E28  00430018             mult $2, $3
5118	4E2C  00009012             mflo $18
5119	4E30  AFB20000             sw $18, 0($29)
5120	4E34  00009010             mfhi $18
5121	4E38  AFB20000             sw $18, 0($29)
5122	4E3C  0C003102             jal increment_offset
5123	4E40  3C026773             lui $2, 26483
5124	4E44  3442F337             ori $2, $2, 62263
5125	4E48  3C033000             lui $3, 12288
5126	4E4C  34630000             ori $3, $3, 0
5127	4E50  00430018             mult $2, $3
5128	4E54  00009012             mflo $18
5129	4E58  AFB20000             sw $18, 0($29)
5130	4E5C  00009010             mfhi $18
5131	4E60  AFB20000             sw $18, 0($29)
5132	4E64  0C003102             jal increment_offset
5133	4E68  3C02FDDD             lui $2, 64989
5134	4E6C  34425EDF             ori $2, $2, 24287
5135	4E70  3C033000             lui $3, 12288
5136	4E74  34630000             ori $3, $3, 0
5137	4E78  00430018             mult $2, $3
5138	4E7C  00009012             mflo $18
5139	4E80  AFB20000             sw $18, 0($29)
5140	4E84  00009010             mfhi $18
5141	4E88  AFB20000             sw $18, 0($29)
5142	4E8C  0C003102             jal increment_offset
5143	4E90  3C025666             lui $2, 22118
5144	4E94  3442BB6C             ori $2, $2, 47980
5145	4E98  3C033000             lui $3, 12288
5146	4E9C  34630000             ori $3, $3, 0
5147	4EA0  00430018             mult $2, $3
5148	4EA4  00009012             mflo $18
5149	4EA8  AFB20000             sw $18, 0($29)
5150	4EAC  00009010             mfhi $18
5151	4EB0  AFB20000             sw $18, 0($29)
5152	4EB4  0C003102             jal increment_offset
5153	4EB8  3C02AAAB             lui $2, 43691
5154	4EBC  344215B3             ori $2, $2, 5555
5155	4EC0  3C033000             lui $3, 12288
5156	4EC4  34630000             ori $3, $3, 0
5157	4EC8  00430018             mult $2, $3
5158	4ECC  00009012             mflo $18
5159	4ED0  AFB20000             sw $18, 0($29)
5160	4ED4  00009010             mfhi $18
5161	4ED8  AFB20000             sw $18, 0($29)
5162	4EDC  0C003102             jal increment_offset
5163	4EE0  3C020000             lui $2, 0
5164	4EE4  34420000             ori $2, $2, 0
5165	4EE8  3C036000             lui $3, 24576
5166	4EEC  34630000             ori $3, $3, 0
5167	4EF0  00430018             mult $2, $3
5168	4EF4  00009012             mflo $18
5169	4EF8  AFB20000             sw $18, 0($29)
5170	4EFC  00009010             mfhi $18
5171	4F00  AFB20000             sw $18, 0($29)
5172	4F04  0C003102             jal increment_offset
5173	4F08  3C02AAAA             lui $2, 43690
5174	4F0C  3442AAAA             ori $2, $2, 43690
5175	4F10  3C036000             lui $3, 24576
5176	4F14  34630000             ori $3, $3, 0
5177	4F18  00430018             mult $2, $3
5178	4F1C  00009012             mflo $18
5179	4F20  AFB20000             sw $18, 0($29)
5180	4F24  00009010             mfhi $18
5181	4F28  AFB20000             sw $18, 0($29)
5182	4F2C  0C003102             jal increment_offset
5183	4F30  3C02D34D             lui $2, 54093
5184	4F34  34425555             ori $2, $2, 21845
5185	4F38  3C036000             lui $3, 24576
5186	4F3C  34630000             ori $3, $3, 0
5187	4F40  00430018             mult $2, $3
5188	4F44  00009012             mflo $18
5189	4F48  AFB20000             sw $18, 0($29)
5190	4F4C  00009010             mfhi $18
5191	4F50  AFB20000             sw $18, 0($29)
5192	4F54  0C003102             jal increment_offset
5193	4F58  3C021999             lui $2, 6553
5194	4F5C  3442999A             ori $2, $2, 39322
5195	4F60  3C036000             lui $3, 24576
5196	4F64  34630000             ori $3, $3, 0
5197	4F68  00430018             mult $2, $3
5198	4F6C  00009012             mflo $18
5199	4F70  AFB20000             sw $18, 0($29)
5200	4F74  00009010             mfhi $18
5201	4F78  AFB20000             sw $18, 0($29)
5202	4F7C  0C003102             jal increment_offset
5203	4F80  3C023536             lui $2, 13622
5204	4F84  34426666             ori $2, $2, 26214
5205	4F88  3C036000             lui $3, 24576
5206	4F8C  34630000             ori $3, $3, 0
5207	4F90  00430018             mult $2, $3
5208	4F94  00009012             mflo $18
5209	4F98  AFB20000             sw $18, 0($29)
5210	4F9C  00009010             mfhi $18
5211	4FA0  AFB20000             sw $18, 0($29)
5212	4FA4  0C003102             jal increment_offset
5213	4FA8  3C024CD4             lui $2, 19668
5214	4FAC  3442CCCB             ori $2, $2, 52427
5215	4FB0  3C036000             lui $3, 24576
5216	4FB4  34630000             ori $3, $3, 0
5217	4FB8  00430018             mult $2, $3
5218	4FBC  00009012             mflo $18
5219	4FC0  AFB20000             sw $18, 0($29)
5220	4FC4  00009010             mfhi $18
5221	4FC8  AFB20000             sw $18, 0($29)
5222	4FCC  0C003102             jal increment_offset
5223	4FD0  3C026773             lui $2, 26483
5224	4FD4  3442F337             ori $2, $2, 62263
5225	4FD8  3C036000             lui $3, 24576
5226	4FDC  34630000             ori $3, $3, 0
5227	4FE0  00430018             mult $2, $3
5228	4FE4  00009012             mflo $18
5229	4FE8  AFB20000             sw $18, 0($29)
5230	4FEC  00009010             mfhi $18
5231	4FF0  AFB20000             sw $18, 0($29)
5232	4FF4  0C003102             jal increment_offset
5233	4FF8  3C02FDDD             lui $2, 64989
5234	4FFC  34425EDF             ori $2, $2, 24287
5235	5000  3C036000             lui $3, 24576
5236	5004  34630000             ori $3, $3, 0
5237	5008  00430018             mult $2, $3
5238	500C  00009012             mflo $18
5239	5010  AFB20000             sw $18, 0($29)
5240	5014  00009010             mfhi $18
5241	5018  AFB20000             sw $18, 0($29)
5242	501C  0C003102             jal increment_offset
5243	5020  3C025666             lui $2, 22118
5244	5024  3442BB6C             ori $2, $2, 47980
5245	5028  3C036000             lui $3, 24576
5246	502C  34630000             ori $3, $3, 0
5247	5030  00430018             mult $2, $3
5248	5034  00009012             mflo $18
5249	5038  AFB20000             sw $18, 0($29)
5250	503C  00009010             mfhi $18
5251	5040  AFB20000             sw $18, 0($29)
5252	5044  0C003102             jal increment_offset
5253	5048  3C02AAAB             lui $2, 43691
5254	504C  344215B3             ori $2, $2, 5555
5255	5050  3C036000             lui $3, 24576
5256	5054  34630000             ori $3, $3, 0
5257	5058  00430018             mult $2, $3
5258	505C  00009012             mflo $18
5259	5060  AFB20000             sw $18, 0($29)
5260	5064  00009010             mfhi $18
5261	5068  AFB20000             sw $18, 0($29)
5262	506C  0C003102             jal increment_offset
5263	5070  3C020000             lui $2, 0
5264	5074  34420000             ori $2, $2, 0
5265	5078  3C03C000             lui $3, 49152
5266	507C  34630000             ori $3, $3, 0
5267	5080  00430018             mult $2, $3
5268	5084  00009012             mflo $18
5269	5088  AFB20000             sw $18, 0($29)
5270	508C  00009010             mfhi $18
5271	5090  AFB20000             sw $18, 0($29)
5272	5094  0C003102             jal increment_offset
5273	5098  3C02AAAA             lui $2, 43690
5274	509C  3442AAAA             ori $2, $2, 43690
5275	50A0  3C03C000             lui $3, 49152
5276	50A4  34630000             ori $3, $3, 0
5277	50A8  00430018             mult $2, $3
5278	50AC  00009012             mflo $18
5279	50B0  AFB20000             sw $18, 0($29)
5280	50B4  00009010             mfhi $18
5281	50B8  AFB20000             sw $18, 0($29)
5282	50BC  0C003102             jal increment_offset
5283	50C0  3C02D34D             lui $2, 54093
5284	50C4  34425555             ori $2, $2, 21845
5285	50C8  3C03C000             lui $3, 49152
5286	50CC  34630000             ori $3, $3, 0
5287	50D0  00430018             mult $2, $3
5288	50D4  00009012             mflo $18
5289	50D8  AFB20000             sw $18, 0($29)
5290	50DC  00009010             mfhi $18
5291	50E0  AFB20000             sw $18, 0($29)
5292	50E4  0C003102             jal increment_offset
5293	50E8  3C021999             lui $2, 6553
5294	50EC  3442999A             ori $2, $2, 39322
5295	50F0  3C03C000             lui $3, 49152
5296	50F4  34630000             ori $3, $3, 0
5297	50F8  00430018             mult $2, $3
5298	50FC  00009012             mflo $18
5299	5100  AFB20000             sw $18, 0($29)
5300	5104  00009010             mfhi $18
5301	5108  AFB20000             sw $18, 0($29)
5302	510C  0C003102             jal increment_offset
5303	5110  3C023536             lui $2, 13622
5304	5114  34426666             ori $2, $2, 26214
5305	5118  3C03C000             lui $3, 49152
5306	511C  34630000             ori $3, $3, 0
5307	5120  00430018             mult $2, $3
5308	5124  00009012             mflo $18
5309	5128  AFB20000             sw $18, 0($29)
5310	512C  00009010             mfhi $18
5311	5130  AFB20000             sw $18, 0($29)
5312	5134  0C003102             jal increment_offset
5313	5138  3C024CD4             lui $2, 19668
5314	513C  3442CCCB             ori $2, $2, 52427
5315	5140  3C03C000             lui $3, 49152
5316	5144  34630000             ori $3, $3, 0
5317	5148  00430018             mult $2, $3
5318	514C  00009012             mflo $18
5319	5150  AFB20000             sw $18, 0($29)
5320	5154  00009010             mfhi $18
5321	5158  AFB20000             sw $18, 0($29)
5322	515C  0C003102             jal increment_offset
5323	5160  3C026773             lui $2, 26483
5324	5164  3442F337             ori $2, $2, 62263
5325	5168  3C03C000             lui $3, 49152
5326	516C  34630000             ori $3, $3, 0
5327	5170  00430018             mult $2, $3
5328	5174  00009012             mflo $18
5329	5178  AFB20000             sw $18, 0($29)
5330	517C  00009010             mfhi $18
5331	5180  AFB20000             sw $18, 0($29)
5332	5184  0C003102             jal increment_offset
5333	5188  3C02FDDD             lui $2, 64989
5334	518C  34425EDF             ori $2, $2, 24287
5335	5190  3C03C000             lui $3, 49152
5336	5194  34630000             ori $3, $3, 0
5337	5198  00430018             mult $2, $3
5338	519C  00009012             mflo $18
5339	51A0  AFB20000             sw $18, 0($29)
5340	51A4  00009010             mfhi $18
5341	51A8  AFB20000             sw $18, 0($29)
5342	51AC  0C003102             jal increment_offset
5343	51B0  3C025666             lui $2, 22118
5344	51B4  3442BB6C             ori $2, $2, 47980
5345	51B8  3C03C000             lui $3, 49152
5346	51BC  34630000             ori $3, $3, 0
5347	51C0  00430018             mult $2, $3
5348	51C4  00009012             mflo $18
5349	51C8  AFB20000             sw $18, 0($29)
5350	51CC  00009010             mfhi $18
5351	51D0  AFB20000             sw $18, 0($29)
5352	51D4  0C003102             jal increment_offset
5353	51D8  3C02AAAB             lui $2, 43691
5354	51DC  344215B3             ori $2, $2, 5555
5355	51E0  3C03C000             lui $3, 49152
5356	51E4  34630000             ori $3, $3, 0
5357	51E8  00430018             mult $2, $3
5358	51EC  00009012             mflo $18
5359	51F0  AFB20000             sw $18, 0($29)
5360	51F4  00009010             mfhi $18
5361	51F8  AFB20000             sw $18, 0($29)
5362	51FC  0C003102             jal increment_offset
5363	                          
5364	5200  0C0030F8            jal reset_offsets
5365	                          operation_multu_psuedo:
5366	5204  3C020000             lui $2, 0
5367	5208  34420000             ori $2, $2, 0
5368	520C  3C030000             lui $3, 0
5369	5210  34630003             ori $3, $3, 3
5370	5214  00430019             multu $2, $3
5371	5218  00009012             mflo $18
5372	521C  AFB20000             sw $18, 0($29)
5373	5220  00009010             mfhi $18
5374	5224  AFB20000             sw $18, 0($29)
5375	5228  0C003102             jal increment_offset
5376	522C  3C02AAAA             lui $2, 43690
5377	5230  3442AAAA             ori $2, $2, 43690
5378	5234  3C030000             lui $3, 0
5379	5238  34630003             ori $3, $3, 3
5380	523C  00430019             multu $2, $3
5381	5240  00009012             mflo $18
5382	5244  AFB20000             sw $18, 0($29)
5383	5248  00009010             mfhi $18
5384	524C  AFB20000             sw $18, 0($29)
5385	5250  0C003102             jal increment_offset
5386	5254  3C02D34D             lui $2, 54093
5387	5258  34425555             ori $2, $2, 21845
5388	525C  3C030000             lui $3, 0
5389	5260  34630003             ori $3, $3, 3
5390	5264  00430019             multu $2, $3
5391	5268  00009012             mflo $18
5392	526C  AFB20000             sw $18, 0($29)
5393	5270  00009010             mfhi $18
5394	5274  AFB20000             sw $18, 0($29)
5395	5278  0C003102             jal increment_offset
5396	527C  3C021999             lui $2, 6553
5397	5280  3442999A             ori $2, $2, 39322
5398	5284  3C030000             lui $3, 0
5399	5288  34630003             ori $3, $3, 3
5400	528C  00430019             multu $2, $3
5401	5290  00009012             mflo $18
5402	5294  AFB20000             sw $18, 0($29)
5403	5298  00009010             mfhi $18
5404	529C  AFB20000             sw $18, 0($29)
5405	52A0  0C003102             jal increment_offset
5406	52A4  3C023536             lui $2, 13622
5407	52A8  34426666             ori $2, $2, 26214
5408	52AC  3C030000             lui $3, 0
5409	52B0  34630003             ori $3, $3, 3
5410	52B4  00430019             multu $2, $3
5411	52B8  00009012             mflo $18
5412	52BC  AFB20000             sw $18, 0($29)
5413	52C0  00009010             mfhi $18
5414	52C4  AFB20000             sw $18, 0($29)
5415	52C8  0C003102             jal increment_offset
5416	52CC  3C024CD4             lui $2, 19668
5417	52D0  3442CCCB             ori $2, $2, 52427
5418	52D4  3C030000             lui $3, 0
5419	52D8  34630003             ori $3, $3, 3
5420	52DC  00430019             multu $2, $3
5421	52E0  00009012             mflo $18
5422	52E4  AFB20000             sw $18, 0($29)
5423	52E8  00009010             mfhi $18
5424	52EC  AFB20000             sw $18, 0($29)
5425	52F0  0C003102             jal increment_offset
5426	52F4  3C026773             lui $2, 26483
5427	52F8  3442F337             ori $2, $2, 62263
5428	52FC  3C030000             lui $3, 0
5429	5300  34630003             ori $3, $3, 3
5430	5304  00430019             multu $2, $3
5431	5308  00009012             mflo $18
5432	530C  AFB20000             sw $18, 0($29)
5433	5310  00009010             mfhi $18
5434	5314  AFB20000             sw $18, 0($29)
5435	5318  0C003102             jal increment_offset
5436	531C  3C02FDDD             lui $2, 64989
5437	5320  34425EDF             ori $2, $2, 24287
5438	5324  3C030000             lui $3, 0
5439	5328  34630003             ori $3, $3, 3
5440	532C  00430019             multu $2, $3
5441	5330  00009012             mflo $18
5442	5334  AFB20000             sw $18, 0($29)
5443	5338  00009010             mfhi $18
5444	533C  AFB20000             sw $18, 0($29)
5445	5340  0C003102             jal increment_offset
5446	5344  3C025666             lui $2, 22118
5447	5348  3442BB6C             ori $2, $2, 47980
5448	534C  3C030000             lui $3, 0
5449	5350  34630003             ori $3, $3, 3
5450	5354  00430019             multu $2, $3
5451	5358  00009012             mflo $18
5452	535C  AFB20000             sw $18, 0($29)
5453	5360  00009010             mfhi $18
5454	5364  AFB20000             sw $18, 0($29)
5455	5368  0C003102             jal increment_offset
5456	536C  3C02AAAB             lui $2, 43691
5457	5370  344215B3             ori $2, $2, 5555
5458	5374  3C030000             lui $3, 0
5459	5378  34630003             ori $3, $3, 3
5460	537C  00430019             multu $2, $3
5461	5380  00009012             mflo $18
5462	5384  AFB20000             sw $18, 0($29)
5463	5388  00009010             mfhi $18
5464	538C  AFB20000             sw $18, 0($29)
5465	5390  0C003102             jal increment_offset
5466	5394  3C020000             lui $2, 0
5467	5398  34420000             ori $2, $2, 0
5468	539C  3C030000             lui $3, 0
5469	53A0  34630006             ori $3, $3, 6
5470	53A4  00430019             multu $2, $3
5471	53A8  00009012             mflo $18
5472	53AC  AFB20000             sw $18, 0($29)
5473	53B0  00009010             mfhi $18
5474	53B4  AFB20000             sw $18, 0($29)
5475	53B8  0C003102             jal increment_offset
5476	53BC  3C02AAAA             lui $2, 43690
5477	53C0  3442AAAA             ori $2, $2, 43690
5478	53C4  3C030000             lui $3, 0
5479	53C8  34630006             ori $3, $3, 6
5480	53CC  00430019             multu $2, $3
5481	53D0  00009012             mflo $18
5482	53D4  AFB20000             sw $18, 0($29)
5483	53D8  00009010             mfhi $18
5484	53DC  AFB20000             sw $18, 0($29)
5485	53E0  0C003102             jal increment_offset
5486	53E4  3C02D34D             lui $2, 54093
5487	53E8  34425555             ori $2, $2, 21845
5488	53EC  3C030000             lui $3, 0
5489	53F0  34630006             ori $3, $3, 6
5490	53F4  00430019             multu $2, $3
5491	53F8  00009012             mflo $18
5492	53FC  AFB20000             sw $18, 0($29)
5493	5400  00009010             mfhi $18
5494	5404  AFB20000             sw $18, 0($29)
5495	5408  0C003102             jal increment_offset
5496	540C  3C021999             lui $2, 6553
5497	5410  3442999A             ori $2, $2, 39322
5498	5414  3C030000             lui $3, 0
5499	5418  34630006             ori $3, $3, 6
5500	541C  00430019             multu $2, $3
5501	5420  00009012             mflo $18
5502	5424  AFB20000             sw $18, 0($29)
5503	5428  00009010             mfhi $18
5504	542C  AFB20000             sw $18, 0($29)
5505	5430  0C003102             jal increment_offset
5506	5434  3C023536             lui $2, 13622
5507	5438  34426666             ori $2, $2, 26214
5508	543C  3C030000             lui $3, 0
5509	5440  34630006             ori $3, $3, 6
5510	5444  00430019             multu $2, $3
5511	5448  00009012             mflo $18
5512	544C  AFB20000             sw $18, 0($29)
5513	5450  00009010             mfhi $18
5514	5454  AFB20000             sw $18, 0($29)
5515	5458  0C003102             jal increment_offset
5516	545C  3C024CD4             lui $2, 19668
5517	5460  3442CCCB             ori $2, $2, 52427
5518	5464  3C030000             lui $3, 0
5519	5468  34630006             ori $3, $3, 6
5520	546C  00430019             multu $2, $3
5521	5470  00009012             mflo $18
5522	5474  AFB20000             sw $18, 0($29)
5523	5478  00009010             mfhi $18
5524	547C  AFB20000             sw $18, 0($29)
5525	5480  0C003102             jal increment_offset
5526	5484  3C026773             lui $2, 26483
5527	5488  3442F337             ori $2, $2, 62263
5528	548C  3C030000             lui $3, 0
5529	5490  34630006             ori $3, $3, 6
5530	5494  00430019             multu $2, $3
5531	5498  00009012             mflo $18
5532	549C  AFB20000             sw $18, 0($29)
5533	54A0  00009010             mfhi $18
5534	54A4  AFB20000             sw $18, 0($29)
5535	54A8  0C003102             jal increment_offset
5536	54AC  3C02FDDD             lui $2, 64989
5537	54B0  34425EDF             ori $2, $2, 24287
5538	54B4  3C030000             lui $3, 0
5539	54B8  34630006             ori $3, $3, 6
5540	54BC  00430019             multu $2, $3
5541	54C0  00009012             mflo $18
5542	54C4  AFB20000             sw $18, 0($29)
5543	54C8  00009010             mfhi $18
5544	54CC  AFB20000             sw $18, 0($29)
5545	54D0  0C003102             jal increment_offset
5546	54D4  3C025666             lui $2, 22118
5547	54D8  3442BB6C             ori $2, $2, 47980
5548	54DC  3C030000             lui $3, 0
5549	54E0  34630006             ori $3, $3, 6
5550	54E4  00430019             multu $2, $3
5551	54E8  00009012             mflo $18
5552	54EC  AFB20000             sw $18, 0($29)
5553	54F0  00009010             mfhi $18
5554	54F4  AFB20000             sw $18, 0($29)
5555	54F8  0C003102             jal increment_offset
5556	54FC  3C02AAAB             lui $2, 43691
5557	5500  344215B3             ori $2, $2, 5555
5558	5504  3C030000             lui $3, 0
5559	5508  34630006             ori $3, $3, 6
5560	550C  00430019             multu $2, $3
5561	5510  00009012             mflo $18
5562	5514  AFB20000             sw $18, 0($29)
5563	5518  00009010             mfhi $18
5564	551C  AFB20000             sw $18, 0($29)
5565	5520  0C003102             jal increment_offset
5566	5524  3C020000             lui $2, 0
5567	5528  34420000             ori $2, $2, 0
5568	552C  3C030000             lui $3, 0
5569	5530  3463000C             ori $3, $3, 12
5570	5534  00430019             multu $2, $3
5571	5538  00009012             mflo $18
5572	553C  AFB20000             sw $18, 0($29)
5573	5540  00009010             mfhi $18
5574	5544  AFB20000             sw $18, 0($29)
5575	5548  0C003102             jal increment_offset
5576	554C  3C02AAAA             lui $2, 43690
5577	5550  3442AAAA             ori $2, $2, 43690
5578	5554  3C030000             lui $3, 0
5579	5558  3463000C             ori $3, $3, 12
5580	555C  00430019             multu $2, $3
5581	5560  00009012             mflo $18
5582	5564  AFB20000             sw $18, 0($29)
5583	5568  00009010             mfhi $18
5584	556C  AFB20000             sw $18, 0($29)
5585	5570  0C003102             jal increment_offset
5586	5574  3C02D34D             lui $2, 54093
5587	5578  34425555             ori $2, $2, 21845
5588	557C  3C030000             lui $3, 0
5589	5580  3463000C             ori $3, $3, 12
5590	5584  00430019             multu $2, $3
5591	5588  00009012             mflo $18
5592	558C  AFB20000             sw $18, 0($29)
5593	5590  00009010             mfhi $18
5594	5594  AFB20000             sw $18, 0($29)
5595	5598  0C003102             jal increment_offset
5596	559C  3C021999             lui $2, 6553
5597	55A0  3442999A             ori $2, $2, 39322
5598	55A4  3C030000             lui $3, 0
5599	55A8  3463000C             ori $3, $3, 12
5600	55AC  00430019             multu $2, $3
5601	55B0  00009012             mflo $18
5602	55B4  AFB20000             sw $18, 0($29)
5603	55B8  00009010             mfhi $18
5604	55BC  AFB20000             sw $18, 0($29)
5605	55C0  0C003102             jal increment_offset
5606	55C4  3C023536             lui $2, 13622
5607	55C8  34426666             ori $2, $2, 26214
5608	55CC  3C030000             lui $3, 0
5609	55D0  3463000C             ori $3, $3, 12
5610	55D4  00430019             multu $2, $3
5611	55D8  00009012             mflo $18
5612	55DC  AFB20000             sw $18, 0($29)
5613	55E0  00009010             mfhi $18
5614	55E4  AFB20000             sw $18, 0($29)
5615	55E8  0C003102             jal increment_offset
5616	55EC  3C024CD4             lui $2, 19668
5617	55F0  3442CCCB             ori $2, $2, 52427
5618	55F4  3C030000             lui $3, 0
5619	55F8  3463000C             ori $3, $3, 12
5620	55FC  00430019             multu $2, $3
5621	5600  00009012             mflo $18
5622	5604  AFB20000             sw $18, 0($29)
5623	5608  00009010             mfhi $18
5624	560C  AFB20000             sw $18, 0($29)
5625	5610  0C003102             jal increment_offset
5626	5614  3C026773             lui $2, 26483
5627	5618  3442F337             ori $2, $2, 62263
5628	561C  3C030000             lui $3, 0
5629	5620  3463000C             ori $3, $3, 12
5630	5624  00430019             multu $2, $3
5631	5628  00009012             mflo $18
5632	562C  AFB20000             sw $18, 0($29)
5633	5630  00009010             mfhi $18
5634	5634  AFB20000             sw $18, 0($29)
5635	5638  0C003102             jal increment_offset
5636	563C  3C02FDDD             lui $2, 64989
5637	5640  34425EDF             ori $2, $2, 24287
5638	5644  3C030000             lui $3, 0
5639	5648  3463000C             ori $3, $3, 12
5640	564C  00430019             multu $2, $3
5641	5650  00009012             mflo $18
5642	5654  AFB20000             sw $18, 0($29)
5643	5658  00009010             mfhi $18
5644	565C  AFB20000             sw $18, 0($29)
5645	5660  0C003102             jal increment_offset
5646	5664  3C025666             lui $2, 22118
5647	5668  3442BB6C             ori $2, $2, 47980
5648	566C  3C030000             lui $3, 0
5649	5670  3463000C             ori $3, $3, 12
5650	5674  00430019             multu $2, $3
5651	5678  00009012             mflo $18
5652	567C  AFB20000             sw $18, 0($29)
5653	5680  00009010             mfhi $18
5654	5684  AFB20000             sw $18, 0($29)
5655	5688  0C003102             jal increment_offset
5656	568C  3C02AAAB             lui $2, 43691
5657	5690  344215B3             ori $2, $2, 5555
5658	5694  3C030000             lui $3, 0
5659	5698  3463000C             ori $3, $3, 12
5660	569C  00430019             multu $2, $3
5661	56A0  00009012             mflo $18
5662	56A4  AFB20000             sw $18, 0($29)
5663	56A8  00009010             mfhi $18
5664	56AC  AFB20000             sw $18, 0($29)
5665	56B0  0C003102             jal increment_offset
5666	56B4  3C020000             lui $2, 0
5667	56B8  34420000             ori $2, $2, 0
5668	56BC  3C030000             lui $3, 0
5669	56C0  34630018             ori $3, $3, 24
5670	56C4  00430019             multu $2, $3
5671	56C8  00009012             mflo $18
5672	56CC  AFB20000             sw $18, 0($29)
5673	56D0  00009010             mfhi $18
5674	56D4  AFB20000             sw $18, 0($29)
5675	56D8  0C003102             jal increment_offset
5676	56DC  3C02AAAA             lui $2, 43690
5677	56E0  3442AAAA             ori $2, $2, 43690
5678	56E4  3C030000             lui $3, 0
5679	56E8  34630018             ori $3, $3, 24
5680	56EC  00430019             multu $2, $3
5681	56F0  00009012             mflo $18
5682	56F4  AFB20000             sw $18, 0($29)
5683	56F8  00009010             mfhi $18
5684	56FC  AFB20000             sw $18, 0($29)
5685	5700  0C003102             jal increment_offset
5686	5704  3C02D34D             lui $2, 54093
5687	5708  34425555             ori $2, $2, 21845
5688	570C  3C030000             lui $3, 0
5689	5710  34630018             ori $3, $3, 24
5690	5714  00430019             multu $2, $3
5691	5718  00009012             mflo $18
5692	571C  AFB20000             sw $18, 0($29)
5693	5720  00009010             mfhi $18
5694	5724  AFB20000             sw $18, 0($29)
5695	5728  0C003102             jal increment_offset
5696	572C  3C021999             lui $2, 6553
5697	5730  3442999A             ori $2, $2, 39322
5698	5734  3C030000             lui $3, 0
5699	5738  34630018             ori $3, $3, 24
5700	573C  00430019             multu $2, $3
5701	5740  00009012             mflo $18
5702	5744  AFB20000             sw $18, 0($29)
5703	5748  00009010             mfhi $18
5704	574C  AFB20000             sw $18, 0($29)
5705	5750  0C003102             jal increment_offset
5706	5754  3C023536             lui $2, 13622
5707	5758  34426666             ori $2, $2, 26214
5708	575C  3C030000             lui $3, 0
5709	5760  34630018             ori $3, $3, 24
5710	5764  00430019             multu $2, $3
5711	5768  00009012             mflo $18
5712	576C  AFB20000             sw $18, 0($29)
5713	5770  00009010             mfhi $18
5714	5774  AFB20000             sw $18, 0($29)
5715	5778  0C003102             jal increment_offset
5716	577C  3C024CD4             lui $2, 19668
5717	5780  3442CCCB             ori $2, $2, 52427
5718	5784  3C030000             lui $3, 0
5719	5788  34630018             ori $3, $3, 24
5720	578C  00430019             multu $2, $3
5721	5790  00009012             mflo $18
5722	5794  AFB20000             sw $18, 0($29)
5723	5798  00009010             mfhi $18
5724	579C  AFB20000             sw $18, 0($29)
5725	57A0  0C003102             jal increment_offset
5726	57A4  3C026773             lui $2, 26483
5727	57A8  3442F337             ori $2, $2, 62263
5728	57AC  3C030000             lui $3, 0
5729	57B0  34630018             ori $3, $3, 24
5730	57B4  00430019             multu $2, $3
5731	57B8  00009012             mflo $18
5732	57BC  AFB20000             sw $18, 0($29)
5733	57C0  00009010             mfhi $18
5734	57C4  AFB20000             sw $18, 0($29)
5735	57C8  0C003102             jal increment_offset
5736	57CC  3C02FDDD             lui $2, 64989
5737	57D0  34425EDF             ori $2, $2, 24287
5738	57D4  3C030000             lui $3, 0
5739	57D8  34630018             ori $3, $3, 24
5740	57DC  00430019             multu $2, $3
5741	57E0  00009012             mflo $18
5742	57E4  AFB20000             sw $18, 0($29)
5743	57E8  00009010             mfhi $18
5744	57EC  AFB20000             sw $18, 0($29)
5745	57F0  0C003102             jal increment_offset
5746	57F4  3C025666             lui $2, 22118
5747	57F8  3442BB6C             ori $2, $2, 47980
5748	57FC  3C030000             lui $3, 0
5749	5800  34630018             ori $3, $3, 24
5750	5804  00430019             multu $2, $3
5751	5808  00009012             mflo $18
5752	580C  AFB20000             sw $18, 0($29)
5753	5810  00009010             mfhi $18
5754	5814  AFB20000             sw $18, 0($29)
5755	5818  0C003102             jal increment_offset
5756	581C  3C02AAAB             lui $2, 43691
5757	5820  344215B3             ori $2, $2, 5555
5758	5824  3C030000             lui $3, 0
5759	5828  34630018             ori $3, $3, 24
5760	582C  00430019             multu $2, $3
5761	5830  00009012             mflo $18
5762	5834  AFB20000             sw $18, 0($29)
5763	5838  00009010             mfhi $18
5764	583C  AFB20000             sw $18, 0($29)
5765	5840  0C003102             jal increment_offset
5766	5844  3C020000             lui $2, 0
5767	5848  34420000             ori $2, $2, 0
5768	584C  3C030000             lui $3, 0
5769	5850  34630030             ori $3, $3, 48
5770	5854  00430019             multu $2, $3
5771	5858  00009012             mflo $18
5772	585C  AFB20000             sw $18, 0($29)
5773	5860  00009010             mfhi $18
5774	5864  AFB20000             sw $18, 0($29)
5775	5868  0C003102             jal increment_offset
5776	586C  3C02AAAA             lui $2, 43690
5777	5870  3442AAAA             ori $2, $2, 43690
5778	5874  3C030000             lui $3, 0
5779	5878  34630030             ori $3, $3, 48
5780	587C  00430019             multu $2, $3
5781	5880  00009012             mflo $18
5782	5884  AFB20000             sw $18, 0($29)
5783	5888  00009010             mfhi $18
5784	588C  AFB20000             sw $18, 0($29)
5785	5890  0C003102             jal increment_offset
5786	5894  3C02D34D             lui $2, 54093
5787	5898  34425555             ori $2, $2, 21845
5788	589C  3C030000             lui $3, 0
5789	58A0  34630030             ori $3, $3, 48
5790	58A4  00430019             multu $2, $3
5791	58A8  00009012             mflo $18
5792	58AC  AFB20000             sw $18, 0($29)
5793	58B0  00009010             mfhi $18
5794	58B4  AFB20000             sw $18, 0($29)
5795	58B8  0C003102             jal increment_offset
5796	58BC  3C021999             lui $2, 6553
5797	58C0  3442999A             ori $2, $2, 39322
5798	58C4  3C030000             lui $3, 0
5799	58C8  34630030             ori $3, $3, 48
5800	58CC  00430019             multu $2, $3
5801	58D0  00009012             mflo $18
5802	58D4  AFB20000             sw $18, 0($29)
5803	58D8  00009010             mfhi $18
5804	58DC  AFB20000             sw $18, 0($29)
5805	58E0  0C003102             jal increment_offset
5806	58E4  3C023536             lui $2, 13622
5807	58E8  34426666             ori $2, $2, 26214
5808	58EC  3C030000             lui $3, 0
5809	58F0  34630030             ori $3, $3, 48
5810	58F4  00430019             multu $2, $3
5811	58F8  00009012             mflo $18
5812	58FC  AFB20000             sw $18, 0($29)
5813	5900  00009010             mfhi $18
5814	5904  AFB20000             sw $18, 0($29)
5815	5908  0C003102             jal increment_offset
5816	590C  3C024CD4             lui $2, 19668
5817	5910  3442CCCB             ori $2, $2, 52427
5818	5914  3C030000             lui $3, 0
5819	5918  34630030             ori $3, $3, 48
5820	591C  00430019             multu $2, $3
5821	5920  00009012             mflo $18
5822	5924  AFB20000             sw $18, 0($29)
5823	5928  00009010             mfhi $18
5824	592C  AFB20000             sw $18, 0($29)
5825	5930  0C003102             jal increment_offset
5826	5934  3C026773             lui $2, 26483
5827	5938  3442F337             ori $2, $2, 62263
5828	593C  3C030000             lui $3, 0
5829	5940  34630030             ori $3, $3, 48
5830	5944  00430019             multu $2, $3
5831	5948  00009012             mflo $18
5832	594C  AFB20000             sw $18, 0($29)
5833	5950  00009010             mfhi $18
5834	5954  AFB20000             sw $18, 0($29)
5835	5958  0C003102             jal increment_offset
5836	595C  3C02FDDD             lui $2, 64989
5837	5960  34425EDF             ori $2, $2, 24287
5838	5964  3C030000             lui $3, 0
5839	5968  34630030             ori $3, $3, 48
5840	596C  00430019             multu $2, $3
5841	5970  00009012             mflo $18
5842	5974  AFB20000             sw $18, 0($29)
5843	5978  00009010             mfhi $18
5844	597C  AFB20000             sw $18, 0($29)
5845	5980  0C003102             jal increment_offset
5846	5984  3C025666             lui $2, 22118
5847	5988  3442BB6C             ori $2, $2, 47980
5848	598C  3C030000             lui $3, 0
5849	5990  34630030             ori $3, $3, 48
5850	5994  00430019             multu $2, $3
5851	5998  00009012             mflo $18
5852	599C  AFB20000             sw $18, 0($29)
5853	59A0  00009010             mfhi $18
5854	59A4  AFB20000             sw $18, 0($29)
5855	59A8  0C003102             jal increment_offset
5856	59AC  3C02AAAB             lui $2, 43691
5857	59B0  344215B3             ori $2, $2, 5555
5858	59B4  3C030000             lui $3, 0
5859	59B8  34630030             ori $3, $3, 48
5860	59BC  00430019             multu $2, $3
5861	59C0  00009012             mflo $18
5862	59C4  AFB20000             sw $18, 0($29)
5863	59C8  00009010             mfhi $18
5864	59CC  AFB20000             sw $18, 0($29)
5865	59D0  0C003102             jal increment_offset
5866	59D4  3C020000             lui $2, 0
5867	59D8  34420000             ori $2, $2, 0
5868	59DC  3C030000             lui $3, 0
5869	59E0  34630060             ori $3, $3, 96
5870	59E4  00430019             multu $2, $3
5871	59E8  00009012             mflo $18
5872	59EC  AFB20000             sw $18, 0($29)
5873	59F0  00009010             mfhi $18
5874	59F4  AFB20000             sw $18, 0($29)
5875	59F8  0C003102             jal increment_offset
5876	59FC  3C02AAAA             lui $2, 43690
5877	5A00  3442AAAA             ori $2, $2, 43690
5878	5A04  3C030000             lui $3, 0
5879	5A08  34630060             ori $3, $3, 96
5880	5A0C  00430019             multu $2, $3
5881	5A10  00009012             mflo $18
5882	5A14  AFB20000             sw $18, 0($29)
5883	5A18  00009010             mfhi $18
5884	5A1C  AFB20000             sw $18, 0($29)
5885	5A20  0C003102             jal increment_offset
5886	5A24  3C02D34D             lui $2, 54093
5887	5A28  34425555             ori $2, $2, 21845
5888	5A2C  3C030000             lui $3, 0
5889	5A30  34630060             ori $3, $3, 96
5890	5A34  00430019             multu $2, $3
5891	5A38  00009012             mflo $18
5892	5A3C  AFB20000             sw $18, 0($29)
5893	5A40  00009010             mfhi $18
5894	5A44  AFB20000             sw $18, 0($29)
5895	5A48  0C003102             jal increment_offset
5896	5A4C  3C021999             lui $2, 6553
5897	5A50  3442999A             ori $2, $2, 39322
5898	5A54  3C030000             lui $3, 0
5899	5A58  34630060             ori $3, $3, 96
5900	5A5C  00430019             multu $2, $3
5901	5A60  00009012             mflo $18
5902	5A64  AFB20000             sw $18, 0($29)
5903	5A68  00009010             mfhi $18
5904	5A6C  AFB20000             sw $18, 0($29)
5905	5A70  0C003102             jal increment_offset
5906	5A74  3C023536             lui $2, 13622
5907	5A78  34426666             ori $2, $2, 26214
5908	5A7C  3C030000             lui $3, 0
5909	5A80  34630060             ori $3, $3, 96
5910	5A84  00430019             multu $2, $3
5911	5A88  00009012             mflo $18
5912	5A8C  AFB20000             sw $18, 0($29)
5913	5A90  00009010             mfhi $18
5914	5A94  AFB20000             sw $18, 0($29)
5915	5A98  0C003102             jal increment_offset
5916	5A9C  3C024CD4             lui $2, 19668
5917	5AA0  3442CCCB             ori $2, $2, 52427
5918	5AA4  3C030000             lui $3, 0
5919	5AA8  34630060             ori $3, $3, 96
5920	5AAC  00430019             multu $2, $3
5921	5AB0  00009012             mflo $18
5922	5AB4  AFB20000             sw $18, 0($29)
5923	5AB8  00009010             mfhi $18
5924	5ABC  AFB20000             sw $18, 0($29)
5925	5AC0  0C003102             jal increment_offset
5926	5AC4  3C026773             lui $2, 26483
5927	5AC8  3442F337             ori $2, $2, 62263
5928	5ACC  3C030000             lui $3, 0
5929	5AD0  34630060             ori $3, $3, 96
5930	5AD4  00430019             multu $2, $3
5931	5AD8  00009012             mflo $18
5932	5ADC  AFB20000             sw $18, 0($29)
5933	5AE0  00009010             mfhi $18
5934	5AE4  AFB20000             sw $18, 0($29)
5935	5AE8  0C003102             jal increment_offset
5936	5AEC  3C02FDDD             lui $2, 64989
5937	5AF0  34425EDF             ori $2, $2, 24287
5938	5AF4  3C030000             lui $3, 0
5939	5AF8  34630060             ori $3, $3, 96
5940	5AFC  00430019             multu $2, $3
5941	5B00  00009012             mflo $18
5942	5B04  AFB20000             sw $18, 0($29)
5943	5B08  00009010             mfhi $18
5944	5B0C  AFB20000             sw $18, 0($29)
5945	5B10  0C003102             jal increment_offset
5946	5B14  3C025666             lui $2, 22118
5947	5B18  3442BB6C             ori $2, $2, 47980
5948	5B1C  3C030000             lui $3, 0
5949	5B20  34630060             ori $3, $3, 96
5950	5B24  00430019             multu $2, $3
5951	5B28  00009012             mflo $18
5952	5B2C  AFB20000             sw $18, 0($29)
5953	5B30  00009010             mfhi $18
5954	5B34  AFB20000             sw $18, 0($29)
5955	5B38  0C003102             jal increment_offset
5956	5B3C  3C02AAAB             lui $2, 43691
5957	5B40  344215B3             ori $2, $2, 5555
5958	5B44  3C030000             lui $3, 0
5959	5B48  34630060             ori $3, $3, 96
5960	5B4C  00430019             multu $2, $3
5961	5B50  00009012             mflo $18
5962	5B54  AFB20000             sw $18, 0($29)
5963	5B58  00009010             mfhi $18
5964	5B5C  AFB20000             sw $18, 0($29)
5965	5B60  0C003102             jal increment_offset
5966	5B64  3C020000             lui $2, 0
5967	5B68  34420000             ori $2, $2, 0
5968	5B6C  3C030000             lui $3, 0
5969	5B70  346300C0             ori $3, $3, 192
5970	5B74  00430019             multu $2, $3
5971	5B78  00009012             mflo $18
5972	5B7C  AFB20000             sw $18, 0($29)
5973	5B80  00009010             mfhi $18
5974	5B84  AFB20000             sw $18, 0($29)
5975	5B88  0C003102             jal increment_offset
5976	5B8C  3C02AAAA             lui $2, 43690
5977	5B90  3442AAAA             ori $2, $2, 43690
5978	5B94  3C030000             lui $3, 0
5979	5B98  346300C0             ori $3, $3, 192
5980	5B9C  00430019             multu $2, $3
5981	5BA0  00009012             mflo $18
5982	5BA4  AFB20000             sw $18, 0($29)
5983	5BA8  00009010             mfhi $18
5984	5BAC  AFB20000             sw $18, 0($29)
5985	5BB0  0C003102             jal increment_offset
5986	5BB4  3C02D34D             lui $2, 54093
5987	5BB8  34425555             ori $2, $2, 21845
5988	5BBC  3C030000             lui $3, 0
5989	5BC0  346300C0             ori $3, $3, 192
5990	5BC4  00430019             multu $2, $3
5991	5BC8  00009012             mflo $18
5992	5BCC  AFB20000             sw $18, 0($29)
5993	5BD0  00009010             mfhi $18
5994	5BD4  AFB20000             sw $18, 0($29)
5995	5BD8  0C003102             jal increment_offset
5996	5BDC  3C021999             lui $2, 6553
5997	5BE0  3442999A             ori $2, $2, 39322
5998	5BE4  3C030000             lui $3, 0
5999	5BE8  346300C0             ori $3, $3, 192
6000	5BEC  00430019             multu $2, $3
6001	5BF0  00009012             mflo $18
6002	5BF4  AFB20000             sw $18, 0($29)
6003	5BF8  00009010             mfhi $18
6004	5BFC  AFB20000             sw $18, 0($29)
6005	5C00  0C003102             jal increment_offset
6006	5C04  3C023536             lui $2, 13622
6007	5C08  34426666             ori $2, $2, 26214
6008	5C0C  3C030000             lui $3, 0
6009	5C10  346300C0             ori $3, $3, 192
6010	5C14  00430019             multu $2, $3
6011	5C18  00009012             mflo $18
6012	5C1C  AFB20000             sw $18, 0($29)
6013	5C20  00009010             mfhi $18
6014	5C24  AFB20000             sw $18, 0($29)
6015	5C28  0C003102             jal increment_offset
6016	5C2C  3C024CD4             lui $2, 19668
6017	5C30  3442CCCB             ori $2, $2, 52427
6018	5C34  3C030000             lui $3, 0
6019	5C38  346300C0             ori $3, $3, 192
6020	5C3C  00430019             multu $2, $3
6021	5C40  00009012             mflo $18
6022	5C44  AFB20000             sw $18, 0($29)
6023	5C48  00009010             mfhi $18
6024	5C4C  AFB20000             sw $18, 0($29)
6025	5C50  0C003102             jal increment_offset
6026	5C54  3C026773             lui $2, 26483
6027	5C58  3442F337             ori $2, $2, 62263
6028	5C5C  3C030000             lui $3, 0
6029	5C60  346300C0             ori $3, $3, 192
6030	5C64  00430019             multu $2, $3
6031	5C68  00009012             mflo $18
6032	5C6C  AFB20000             sw $18, 0($29)
6033	5C70  00009010             mfhi $18
6034	5C74  AFB20000             sw $18, 0($29)
6035	5C78  0C003102             jal increment_offset
6036	5C7C  3C02FDDD             lui $2, 64989
6037	5C80  34425EDF             ori $2, $2, 24287
6038	5C84  3C030000             lui $3, 0
6039	5C88  346300C0             ori $3, $3, 192
6040	5C8C  00430019             multu $2, $3
6041	5C90  00009012             mflo $18
6042	5C94  AFB20000             sw $18, 0($29)
6043	5C98  00009010             mfhi $18
6044	5C9C  AFB20000             sw $18, 0($29)
6045	5CA0  0C003102             jal increment_offset
6046	5CA4  3C025666             lui $2, 22118
6047	5CA8  3442BB6C             ori $2, $2, 47980
6048	5CAC  3C030000             lui $3, 0
6049	5CB0  346300C0             ori $3, $3, 192
6050	5CB4  00430019             multu $2, $3
6051	5CB8  00009012             mflo $18
6052	5CBC  AFB20000             sw $18, 0($29)
6053	5CC0  00009010             mfhi $18
6054	5CC4  AFB20000             sw $18, 0($29)
6055	5CC8  0C003102             jal increment_offset
6056	5CCC  3C02AAAB             lui $2, 43691
6057	5CD0  344215B3             ori $2, $2, 5555
6058	5CD4  3C030000             lui $3, 0
6059	5CD8  346300C0             ori $3, $3, 192
6060	5CDC  00430019             multu $2, $3
6061	5CE0  00009012             mflo $18
6062	5CE4  AFB20000             sw $18, 0($29)
6063	5CE8  00009010             mfhi $18
6064	5CEC  AFB20000             sw $18, 0($29)
6065	5CF0  0C003102             jal increment_offset
6066	5CF4  3C020000             lui $2, 0
6067	5CF8  34420000             ori $2, $2, 0
6068	5CFC  3C030000             lui $3, 0
6069	5D00  34630180             ori $3, $3, 384
6070	5D04  00430019             multu $2, $3
6071	5D08  00009012             mflo $18
6072	5D0C  AFB20000             sw $18, 0($29)
6073	5D10  00009010             mfhi $18
6074	5D14  AFB20000             sw $18, 0($29)
6075	5D18  0C003102             jal increment_offset
6076	5D1C  3C02AAAA             lui $2, 43690
6077	5D20  3442AAAA             ori $2, $2, 43690
6078	5D24  3C030000             lui $3, 0
6079	5D28  34630180             ori $3, $3, 384
6080	5D2C  00430019             multu $2, $3
6081	5D30  00009012             mflo $18
6082	5D34  AFB20000             sw $18, 0($29)
6083	5D38  00009010             mfhi $18
6084	5D3C  AFB20000             sw $18, 0($29)
6085	5D40  0C003102             jal increment_offset
6086	5D44  3C02D34D             lui $2, 54093
6087	5D48  34425555             ori $2, $2, 21845
6088	5D4C  3C030000             lui $3, 0
6089	5D50  34630180             ori $3, $3, 384
6090	5D54  00430019             multu $2, $3
6091	5D58  00009012             mflo $18
6092	5D5C  AFB20000             sw $18, 0($29)
6093	5D60  00009010             mfhi $18
6094	5D64  AFB20000             sw $18, 0($29)
6095	5D68  0C003102             jal increment_offset
6096	5D6C  3C021999             lui $2, 6553
6097	5D70  3442999A             ori $2, $2, 39322
6098	5D74  3C030000             lui $3, 0
6099	5D78  34630180             ori $3, $3, 384
6100	5D7C  00430019             multu $2, $3
6101	5D80  00009012             mflo $18
6102	5D84  AFB20000             sw $18, 0($29)
6103	5D88  00009010             mfhi $18
6104	5D8C  AFB20000             sw $18, 0($29)
6105	5D90  0C003102             jal increment_offset
6106	5D94  3C023536             lui $2, 13622
6107	5D98  34426666             ori $2, $2, 26214
6108	5D9C  3C030000             lui $3, 0
6109	5DA0  34630180             ori $3, $3, 384
6110	5DA4  00430019             multu $2, $3
6111	5DA8  00009012             mflo $18
6112	5DAC  AFB20000             sw $18, 0($29)
6113	5DB0  00009010             mfhi $18
6114	5DB4  AFB20000             sw $18, 0($29)
6115	5DB8  0C003102             jal increment_offset
6116	5DBC  3C024CD4             lui $2, 19668
6117	5DC0  3442CCCB             ori $2, $2, 52427
6118	5DC4  3C030000             lui $3, 0
6119	5DC8  34630180             ori $3, $3, 384
6120	5DCC  00430019             multu $2, $3
6121	5DD0  00009012             mflo $18
6122	5DD4  AFB20000             sw $18, 0($29)
6123	5DD8  00009010             mfhi $18
6124	5DDC  AFB20000             sw $18, 0($29)
6125	5DE0  0C003102             jal increment_offset
6126	5DE4  3C026773             lui $2, 26483
6127	5DE8  3442F337             ori $2, $2, 62263
6128	5DEC  3C030000             lui $3, 0
6129	5DF0  34630180             ori $3, $3, 384
6130	5DF4  00430019             multu $2, $3
6131	5DF8  00009012             mflo $18
6132	5DFC  AFB20000             sw $18, 0($29)
6133	5E00  00009010             mfhi $18
6134	5E04  AFB20000             sw $18, 0($29)
6135	5E08  0C003102             jal increment_offset
6136	5E0C  3C02FDDD             lui $2, 64989
6137	5E10  34425EDF             ori $2, $2, 24287
6138	5E14  3C030000             lui $3, 0
6139	5E18  34630180             ori $3, $3, 384
6140	5E1C  00430019             multu $2, $3
6141	5E20  00009012             mflo $18
6142	5E24  AFB20000             sw $18, 0($29)
6143	5E28  00009010             mfhi $18
6144	5E2C  AFB20000             sw $18, 0($29)
6145	5E30  0C003102             jal increment_offset
6146	5E34  3C025666             lui $2, 22118
6147	5E38  3442BB6C             ori $2, $2, 47980
6148	5E3C  3C030000             lui $3, 0
6149	5E40  34630180             ori $3, $3, 384
6150	5E44  00430019             multu $2, $3
6151	5E48  00009012             mflo $18
6152	5E4C  AFB20000             sw $18, 0($29)
6153	5E50  00009010             mfhi $18
6154	5E54  AFB20000             sw $18, 0($29)
6155	5E58  0C003102             jal increment_offset
6156	5E5C  3C02AAAB             lui $2, 43691
6157	5E60  344215B3             ori $2, $2, 5555
6158	5E64  3C030000             lui $3, 0
6159	5E68  34630180             ori $3, $3, 384
6160	5E6C  00430019             multu $2, $3
6161	5E70  00009012             mflo $18
6162	5E74  AFB20000             sw $18, 0($29)
6163	5E78  00009010             mfhi $18
6164	5E7C  AFB20000             sw $18, 0($29)
6165	5E80  0C003102             jal increment_offset
6166	5E84  3C020000             lui $2, 0
6167	5E88  34420000             ori $2, $2, 0
6168	5E8C  3C030000             lui $3, 0
6169	5E90  34630300             ori $3, $3, 768
6170	5E94  00430019             multu $2, $3
6171	5E98  00009012             mflo $18
6172	5E9C  AFB20000             sw $18, 0($29)
6173	5EA0  00009010             mfhi $18
6174	5EA4  AFB20000             sw $18, 0($29)
6175	5EA8  0C003102             jal increment_offset
6176	5EAC  3C02AAAA             lui $2, 43690
6177	5EB0  3442AAAA             ori $2, $2, 43690
6178	5EB4  3C030000             lui $3, 0
6179	5EB8  34630300             ori $3, $3, 768
6180	5EBC  00430019             multu $2, $3
6181	5EC0  00009012             mflo $18
6182	5EC4  AFB20000             sw $18, 0($29)
6183	5EC8  00009010             mfhi $18
6184	5ECC  AFB20000             sw $18, 0($29)
6185	5ED0  0C003102             jal increment_offset
6186	5ED4  3C02D34D             lui $2, 54093
6187	5ED8  34425555             ori $2, $2, 21845
6188	5EDC  3C030000             lui $3, 0
6189	5EE0  34630300             ori $3, $3, 768
6190	5EE4  00430019             multu $2, $3
6191	5EE8  00009012             mflo $18
6192	5EEC  AFB20000             sw $18, 0($29)
6193	5EF0  00009010             mfhi $18
6194	5EF4  AFB20000             sw $18, 0($29)
6195	5EF8  0C003102             jal increment_offset
6196	5EFC  3C021999             lui $2, 6553
6197	5F00  3442999A             ori $2, $2, 39322
6198	5F04  3C030000             lui $3, 0
6199	5F08  34630300             ori $3, $3, 768
6200	5F0C  00430019             multu $2, $3
6201	5F10  00009012             mflo $18
6202	5F14  AFB20000             sw $18, 0($29)
6203	5F18  00009010             mfhi $18
6204	5F1C  AFB20000             sw $18, 0($29)
6205	5F20  0C003102             jal increment_offset
6206	5F24  3C023536             lui $2, 13622
6207	5F28  34426666             ori $2, $2, 26214
6208	5F2C  3C030000             lui $3, 0
6209	5F30  34630300             ori $3, $3, 768
6210	5F34  00430019             multu $2, $3
6211	5F38  00009012             mflo $18
6212	5F3C  AFB20000             sw $18, 0($29)
6213	5F40  00009010             mfhi $18
6214	5F44  AFB20000             sw $18, 0($29)
6215	5F48  0C003102             jal increment_offset
6216	5F4C  3C024CD4             lui $2, 19668
6217	5F50  3442CCCB             ori $2, $2, 52427
6218	5F54  3C030000             lui $3, 0
6219	5F58  34630300             ori $3, $3, 768
6220	5F5C  00430019             multu $2, $3
6221	5F60  00009012             mflo $18
6222	5F64  AFB20000             sw $18, 0($29)
6223	5F68  00009010             mfhi $18
6224	5F6C  AFB20000             sw $18, 0($29)
6225	5F70  0C003102             jal increment_offset
6226	5F74  3C026773             lui $2, 26483
6227	5F78  3442F337             ori $2, $2, 62263
6228	5F7C  3C030000             lui $3, 0
6229	5F80  34630300             ori $3, $3, 768
6230	5F84  00430019             multu $2, $3
6231	5F88  00009012             mflo $18
6232	5F8C  AFB20000             sw $18, 0($29)
6233	5F90  00009010             mfhi $18
6234	5F94  AFB20000             sw $18, 0($29)
6235	5F98  0C003102             jal increment_offset
6236	5F9C  3C02FDDD             lui $2, 64989
6237	5FA0  34425EDF             ori $2, $2, 24287
6238	5FA4  3C030000             lui $3, 0
6239	5FA8  34630300             ori $3, $3, 768
6240	5FAC  00430019             multu $2, $3
6241	5FB0  00009012             mflo $18
6242	5FB4  AFB20000             sw $18, 0($29)
6243	5FB8  00009010             mfhi $18
6244	5FBC  AFB20000             sw $18, 0($29)
6245	5FC0  0C003102             jal increment_offset
6246	5FC4  3C025666             lui $2, 22118
6247	5FC8  3442BB6C             ori $2, $2, 47980
6248	5FCC  3C030000             lui $3, 0
6249	5FD0  34630300             ori $3, $3, 768
6250	5FD4  00430019             multu $2, $3
6251	5FD8  00009012             mflo $18
6252	5FDC  AFB20000             sw $18, 0($29)
6253	5FE0  00009010             mfhi $18
6254	5FE4  AFB20000             sw $18, 0($29)
6255	5FE8  0C003102             jal increment_offset
6256	5FEC  3C02AAAB             lui $2, 43691
6257	5FF0  344215B3             ori $2, $2, 5555
6258	5FF4  3C030000             lui $3, 0
6259	5FF8  34630300             ori $3, $3, 768
6260	5FFC  00430019             multu $2, $3
6261	6000  00009012             mflo $18
6262	6004  AFB20000             sw $18, 0($29)
6263	6008  00009010             mfhi $18
6264	600C  AFB20000             sw $18, 0($29)
6265	6010  0C003102             jal increment_offset
6266	6014  3C020000             lui $2, 0
6267	6018  34420000             ori $2, $2, 0
6268	601C  3C030000             lui $3, 0
6269	6020  34630600             ori $3, $3, 1536
6270	6024  00430019             multu $2, $3
6271	6028  00009012             mflo $18
6272	602C  AFB20000             sw $18, 0($29)
6273	6030  00009010             mfhi $18
6274	6034  AFB20000             sw $18, 0($29)
6275	6038  0C003102             jal increment_offset
6276	603C  3C02AAAA             lui $2, 43690
6277	6040  3442AAAA             ori $2, $2, 43690
6278	6044  3C030000             lui $3, 0
6279	6048  34630600             ori $3, $3, 1536
6280	604C  00430019             multu $2, $3
6281	6050  00009012             mflo $18
6282	6054  AFB20000             sw $18, 0($29)
6283	6058  00009010             mfhi $18
6284	605C  AFB20000             sw $18, 0($29)
6285	6060  0C003102             jal increment_offset
6286	6064  3C02D34D             lui $2, 54093
6287	6068  34425555             ori $2, $2, 21845
6288	606C  3C030000             lui $3, 0
6289	6070  34630600             ori $3, $3, 1536
6290	6074  00430019             multu $2, $3
6291	6078  00009012             mflo $18
6292	607C  AFB20000             sw $18, 0($29)
6293	6080  00009010             mfhi $18
6294	6084  AFB20000             sw $18, 0($29)
6295	6088  0C003102             jal increment_offset
6296	608C  3C021999             lui $2, 6553
6297	6090  3442999A             ori $2, $2, 39322
6298	6094  3C030000             lui $3, 0
6299	6098  34630600             ori $3, $3, 1536
6300	609C  00430019             multu $2, $3
6301	60A0  00009012             mflo $18
6302	60A4  AFB20000             sw $18, 0($29)
6303	60A8  00009010             mfhi $18
6304	60AC  AFB20000             sw $18, 0($29)
6305	60B0  0C003102             jal increment_offset
6306	60B4  3C023536             lui $2, 13622
6307	60B8  34426666             ori $2, $2, 26214
6308	60BC  3C030000             lui $3, 0
6309	60C0  34630600             ori $3, $3, 1536
6310	60C4  00430019             multu $2, $3
6311	60C8  00009012             mflo $18
6312	60CC  AFB20000             sw $18, 0($29)
6313	60D0  00009010             mfhi $18
6314	60D4  AFB20000             sw $18, 0($29)
6315	60D8  0C003102             jal increment_offset
6316	60DC  3C024CD4             lui $2, 19668
6317	60E0  3442CCCB             ori $2, $2, 52427
6318	60E4  3C030000             lui $3, 0
6319	60E8  34630600             ori $3, $3, 1536
6320	60EC  00430019             multu $2, $3
6321	60F0  00009012             mflo $18
6322	60F4  AFB20000             sw $18, 0($29)
6323	60F8  00009010             mfhi $18
6324	60FC  AFB20000             sw $18, 0($29)
6325	6100  0C003102             jal increment_offset
6326	6104  3C026773             lui $2, 26483
6327	6108  3442F337             ori $2, $2, 62263
6328	610C  3C030000             lui $3, 0
6329	6110  34630600             ori $3, $3, 1536
6330	6114  00430019             multu $2, $3
6331	6118  00009012             mflo $18
6332	611C  AFB20000             sw $18, 0($29)
6333	6120  00009010             mfhi $18
6334	6124  AFB20000             sw $18, 0($29)
6335	6128  0C003102             jal increment_offset
6336	612C  3C02FDDD             lui $2, 64989
6337	6130  34425EDF             ori $2, $2, 24287
6338	6134  3C030000             lui $3, 0
6339	6138  34630600             ori $3, $3, 1536
6340	613C  00430019             multu $2, $3
6341	6140  00009012             mflo $18
6342	6144  AFB20000             sw $18, 0($29)
6343	6148  00009010             mfhi $18
6344	614C  AFB20000             sw $18, 0($29)
6345	6150  0C003102             jal increment_offset
6346	6154  3C025666             lui $2, 22118
6347	6158  3442BB6C             ori $2, $2, 47980
6348	615C  3C030000             lui $3, 0
6349	6160  34630600             ori $3, $3, 1536
6350	6164  00430019             multu $2, $3
6351	6168  00009012             mflo $18
6352	616C  AFB20000             sw $18, 0($29)
6353	6170  00009010             mfhi $18
6354	6174  AFB20000             sw $18, 0($29)
6355	6178  0C003102             jal increment_offset
6356	617C  3C02AAAB             lui $2, 43691
6357	6180  344215B3             ori $2, $2, 5555
6358	6184  3C030000             lui $3, 0
6359	6188  34630600             ori $3, $3, 1536
6360	618C  00430019             multu $2, $3
6361	6190  00009012             mflo $18
6362	6194  AFB20000             sw $18, 0($29)
6363	6198  00009010             mfhi $18
6364	619C  AFB20000             sw $18, 0($29)
6365	61A0  0C003102             jal increment_offset
6366	61A4  3C020000             lui $2, 0
6367	61A8  34420000             ori $2, $2, 0
6368	61AC  3C030000             lui $3, 0
6369	61B0  34630C00             ori $3, $3, 3072
6370	61B4  00430019             multu $2, $3
6371	61B8  00009012             mflo $18
6372	61BC  AFB20000             sw $18, 0($29)
6373	61C0  00009010             mfhi $18
6374	61C4  AFB20000             sw $18, 0($29)
6375	61C8  0C003102             jal increment_offset
6376	61CC  3C02AAAA             lui $2, 43690
6377	61D0  3442AAAA             ori $2, $2, 43690
6378	61D4  3C030000             lui $3, 0
6379	61D8  34630C00             ori $3, $3, 3072
6380	61DC  00430019             multu $2, $3
6381	61E0  00009012             mflo $18
6382	61E4  AFB20000             sw $18, 0($29)
6383	61E8  00009010             mfhi $18
6384	61EC  AFB20000             sw $18, 0($29)
6385	61F0  0C003102             jal increment_offset
6386	61F4  3C02D34D             lui $2, 54093
6387	61F8  34425555             ori $2, $2, 21845
6388	61FC  3C030000             lui $3, 0
6389	6200  34630C00             ori $3, $3, 3072
6390	6204  00430019             multu $2, $3
6391	6208  00009012             mflo $18
6392	620C  AFB20000             sw $18, 0($29)
6393	6210  00009010             mfhi $18
6394	6214  AFB20000             sw $18, 0($29)
6395	6218  0C003102             jal increment_offset
6396	621C  3C021999             lui $2, 6553
6397	6220  3442999A             ori $2, $2, 39322
6398	6224  3C030000             lui $3, 0
6399	6228  34630C00             ori $3, $3, 3072
6400	622C  00430019             multu $2, $3
6401	6230  00009012             mflo $18
6402	6234  AFB20000             sw $18, 0($29)
6403	6238  00009010             mfhi $18
6404	623C  AFB20000             sw $18, 0($29)
6405	6240  0C003102             jal increment_offset
6406	6244  3C023536             lui $2, 13622
6407	6248  34426666             ori $2, $2, 26214
6408	624C  3C030000             lui $3, 0
6409	6250  34630C00             ori $3, $3, 3072
6410	6254  00430019             multu $2, $3
6411	6258  00009012             mflo $18
6412	625C  AFB20000             sw $18, 0($29)
6413	6260  00009010             mfhi $18
6414	6264  AFB20000             sw $18, 0($29)
6415	6268  0C003102             jal increment_offset
6416	626C  3C024CD4             lui $2, 19668
6417	6270  3442CCCB             ori $2, $2, 52427
6418	6274  3C030000             lui $3, 0
6419	6278  34630C00             ori $3, $3, 3072
6420	627C  00430019             multu $2, $3
6421	6280  00009012             mflo $18
6422	6284  AFB20000             sw $18, 0($29)
6423	6288  00009010             mfhi $18
6424	628C  AFB20000             sw $18, 0($29)
6425	6290  0C003102             jal increment_offset
6426	6294  3C026773             lui $2, 26483
6427	6298  3442F337             ori $2, $2, 62263
6428	629C  3C030000             lui $3, 0
6429	62A0  34630C00             ori $3, $3, 3072
6430	62A4  00430019             multu $2, $3
6431	62A8  00009012             mflo $18
6432	62AC  AFB20000             sw $18, 0($29)
6433	62B0  00009010             mfhi $18
6434	62B4  AFB20000             sw $18, 0($29)
6435	62B8  0C003102             jal increment_offset
6436	62BC  3C02FDDD             lui $2, 64989
6437	62C0  34425EDF             ori $2, $2, 24287
6438	62C4  3C030000             lui $3, 0
6439	62C8  34630C00             ori $3, $3, 3072
6440	62CC  00430019             multu $2, $3
6441	62D0  00009012             mflo $18
6442	62D4  AFB20000             sw $18, 0($29)
6443	62D8  00009010             mfhi $18
6444	62DC  AFB20000             sw $18, 0($29)
6445	62E0  0C003102             jal increment_offset
6446	62E4  3C025666             lui $2, 22118
6447	62E8  3442BB6C             ori $2, $2, 47980
6448	62EC  3C030000             lui $3, 0
6449	62F0  34630C00             ori $3, $3, 3072
6450	62F4  00430019             multu $2, $3
6451	62F8  00009012             mflo $18
6452	62FC  AFB20000             sw $18, 0($29)
6453	6300  00009010             mfhi $18
6454	6304  AFB20000             sw $18, 0($29)
6455	6308  0C003102             jal increment_offset
6456	630C  3C02AAAB             lui $2, 43691
6457	6310  344215B3             ori $2, $2, 5555
6458	6314  3C030000             lui $3, 0
6459	6318  34630C00             ori $3, $3, 3072
6460	631C  00430019             multu $2, $3
6461	6320  00009012             mflo $18
6462	6324  AFB20000             sw $18, 0($29)
6463	6328  00009010             mfhi $18
6464	632C  AFB20000             sw $18, 0($29)
6465	6330  0C003102             jal increment_offset
6466	6334  3C020000             lui $2, 0
6467	6338  34420000             ori $2, $2, 0
6468	633C  3C030000             lui $3, 0
6469	6340  34631800             ori $3, $3, 6144
6470	6344  00430019             multu $2, $3
6471	6348  00009012             mflo $18
6472	634C  AFB20000             sw $18, 0($29)
6473	6350  00009010             mfhi $18
6474	6354  AFB20000             sw $18, 0($29)
6475	6358  0C003102             jal increment_offset
6476	635C  3C02AAAA             lui $2, 43690
6477	6360  3442AAAA             ori $2, $2, 43690
6478	6364  3C030000             lui $3, 0
6479	6368  34631800             ori $3, $3, 6144
6480	636C  00430019             multu $2, $3
6481	6370  00009012             mflo $18
6482	6374  AFB20000             sw $18, 0($29)
6483	6378  00009010             mfhi $18
6484	637C  AFB20000             sw $18, 0($29)
6485	6380  0C003102             jal increment_offset
6486	6384  3C02D34D             lui $2, 54093
6487	6388  34425555             ori $2, $2, 21845
6488	638C  3C030000             lui $3, 0
6489	6390  34631800             ori $3, $3, 6144
6490	6394  00430019             multu $2, $3
6491	6398  00009012             mflo $18
6492	639C  AFB20000             sw $18, 0($29)
6493	63A0  00009010             mfhi $18
6494	63A4  AFB20000             sw $18, 0($29)
6495	63A8  0C003102             jal increment_offset
6496	63AC  3C021999             lui $2, 6553
6497	63B0  3442999A             ori $2, $2, 39322
6498	63B4  3C030000             lui $3, 0
6499	63B8  34631800             ori $3, $3, 6144
6500	63BC  00430019             multu $2, $3
6501	63C0  00009012             mflo $18
6502	63C4  AFB20000             sw $18, 0($29)
6503	63C8  00009010             mfhi $18
6504	63CC  AFB20000             sw $18, 0($29)
6505	63D0  0C003102             jal increment_offset
6506	63D4  3C023536             lui $2, 13622
6507	63D8  34426666             ori $2, $2, 26214
6508	63DC  3C030000             lui $3, 0
6509	63E0  34631800             ori $3, $3, 6144
6510	63E4  00430019             multu $2, $3
6511	63E8  00009012             mflo $18
6512	63EC  AFB20000             sw $18, 0($29)
6513	63F0  00009010             mfhi $18
6514	63F4  AFB20000             sw $18, 0($29)
6515	63F8  0C003102             jal increment_offset
6516	63FC  3C024CD4             lui $2, 19668
6517	6400  3442CCCB             ori $2, $2, 52427
6518	6404  3C030000             lui $3, 0
6519	6408  34631800             ori $3, $3, 6144
6520	640C  00430019             multu $2, $3
6521	6410  00009012             mflo $18
6522	6414  AFB20000             sw $18, 0($29)
6523	6418  00009010             mfhi $18
6524	641C  AFB20000             sw $18, 0($29)
6525	6420  0C003102             jal increment_offset
6526	6424  3C026773             lui $2, 26483
6527	6428  3442F337             ori $2, $2, 62263
6528	642C  3C030000             lui $3, 0
6529	6430  34631800             ori $3, $3, 6144
6530	6434  00430019             multu $2, $3
6531	6438  00009012             mflo $18
6532	643C  AFB20000             sw $18, 0($29)
6533	6440  00009010             mfhi $18
6534	6444  AFB20000             sw $18, 0($29)
6535	6448  0C003102             jal increment_offset
6536	644C  3C02FDDD             lui $2, 64989
6537	6450  34425EDF             ori $2, $2, 24287
6538	6454  3C030000             lui $3, 0
6539	6458  34631800             ori $3, $3, 6144
6540	645C  00430019             multu $2, $3
6541	6460  00009012             mflo $18
6542	6464  AFB20000             sw $18, 0($29)
6543	6468  00009010             mfhi $18
6544	646C  AFB20000             sw $18, 0($29)
6545	6470  0C003102             jal increment_offset
6546	6474  3C025666             lui $2, 22118
6547	6478  3442BB6C             ori $2, $2, 47980
6548	647C  3C030000             lui $3, 0
6549	6480  34631800             ori $3, $3, 6144
6550	6484  00430019             multu $2, $3
6551	6488  00009012             mflo $18
6552	648C  AFB20000             sw $18, 0($29)
6553	6490  00009010             mfhi $18
6554	6494  AFB20000             sw $18, 0($29)
6555	6498  0C003102             jal increment_offset
6556	649C  3C02AAAB             lui $2, 43691
6557	64A0  344215B3             ori $2, $2, 5555
6558	64A4  3C030000             lui $3, 0
6559	64A8  34631800             ori $3, $3, 6144
6560	64AC  00430019             multu $2, $3
6561	64B0  00009012             mflo $18
6562	64B4  AFB20000             sw $18, 0($29)
6563	64B8  00009010             mfhi $18
6564	64BC  AFB20000             sw $18, 0($29)
6565	64C0  0C003102             jal increment_offset
6566	64C4  3C020000             lui $2, 0
6567	64C8  34420000             ori $2, $2, 0
6568	64CC  3C030000             lui $3, 0
6569	64D0  34633000             ori $3, $3, 12288
6570	64D4  00430019             multu $2, $3
6571	64D8  00009012             mflo $18
6572	64DC  AFB20000             sw $18, 0($29)
6573	64E0  00009010             mfhi $18
6574	64E4  AFB20000             sw $18, 0($29)
6575	64E8  0C003102             jal increment_offset
6576	64EC  3C02AAAA             lui $2, 43690
6577	64F0  3442AAAA             ori $2, $2, 43690
6578	64F4  3C030000             lui $3, 0
6579	64F8  34633000             ori $3, $3, 12288
6580	64FC  00430019             multu $2, $3
6581	6500  00009012             mflo $18
6582	6504  AFB20000             sw $18, 0($29)
6583	6508  00009010             mfhi $18
6584	650C  AFB20000             sw $18, 0($29)
6585	6510  0C003102             jal increment_offset
6586	6514  3C02D34D             lui $2, 54093
6587	6518  34425555             ori $2, $2, 21845
6588	651C  3C030000             lui $3, 0
6589	6520  34633000             ori $3, $3, 12288
6590	6524  00430019             multu $2, $3
6591	6528  00009012             mflo $18
6592	652C  AFB20000             sw $18, 0($29)
6593	6530  00009010             mfhi $18
6594	6534  AFB20000             sw $18, 0($29)
6595	6538  0C003102             jal increment_offset
6596	653C  3C021999             lui $2, 6553
6597	6540  3442999A             ori $2, $2, 39322
6598	6544  3C030000             lui $3, 0
6599	6548  34633000             ori $3, $3, 12288
6600	654C  00430019             multu $2, $3
6601	6550  00009012             mflo $18
6602	6554  AFB20000             sw $18, 0($29)
6603	6558  00009010             mfhi $18
6604	655C  AFB20000             sw $18, 0($29)
6605	6560  0C003102             jal increment_offset
6606	6564  3C023536             lui $2, 13622
6607	6568  34426666             ori $2, $2, 26214
6608	656C  3C030000             lui $3, 0
6609	6570  34633000             ori $3, $3, 12288
6610	6574  00430019             multu $2, $3
6611	6578  00009012             mflo $18
6612	657C  AFB20000             sw $18, 0($29)
6613	6580  00009010             mfhi $18
6614	6584  AFB20000             sw $18, 0($29)
6615	6588  0C003102             jal increment_offset
6616	658C  3C024CD4             lui $2, 19668
6617	6590  3442CCCB             ori $2, $2, 52427
6618	6594  3C030000             lui $3, 0
6619	6598  34633000             ori $3, $3, 12288
6620	659C  00430019             multu $2, $3
6621	65A0  00009012             mflo $18
6622	65A4  AFB20000             sw $18, 0($29)
6623	65A8  00009010             mfhi $18
6624	65AC  AFB20000             sw $18, 0($29)
6625	65B0  0C003102             jal increment_offset
6626	65B4  3C026773             lui $2, 26483
6627	65B8  3442F337             ori $2, $2, 62263
6628	65BC  3C030000             lui $3, 0
6629	65C0  34633000             ori $3, $3, 12288
6630	65C4  00430019             multu $2, $3
6631	65C8  00009012             mflo $18
6632	65CC  AFB20000             sw $18, 0($29)
6633	65D0  00009010             mfhi $18
6634	65D4  AFB20000             sw $18, 0($29)
6635	65D8  0C003102             jal increment_offset
6636	65DC  3C02FDDD             lui $2, 64989
6637	65E0  34425EDF             ori $2, $2, 24287
6638	65E4  3C030000             lui $3, 0
6639	65E8  34633000             ori $3, $3, 12288
6640	65EC  00430019             multu $2, $3
6641	65F0  00009012             mflo $18
6642	65F4  AFB20000             sw $18, 0($29)
6643	65F8  00009010             mfhi $18
6644	65FC  AFB20000             sw $18, 0($29)
6645	6600  0C003102             jal increment_offset
6646	6604  3C025666             lui $2, 22118
6647	6608  3442BB6C             ori $2, $2, 47980
6648	660C  3C030000             lui $3, 0
6649	6610  34633000             ori $3, $3, 12288
6650	6614  00430019             multu $2, $3
6651	6618  00009012             mflo $18
6652	661C  AFB20000             sw $18, 0($29)
6653	6620  00009010             mfhi $18
6654	6624  AFB20000             sw $18, 0($29)
6655	6628  0C003102             jal increment_offset
6656	662C  3C02AAAB             lui $2, 43691
6657	6630  344215B3             ori $2, $2, 5555
6658	6634  3C030000             lui $3, 0
6659	6638  34633000             ori $3, $3, 12288
6660	663C  00430019             multu $2, $3
6661	6640  00009012             mflo $18
6662	6644  AFB20000             sw $18, 0($29)
6663	6648  00009010             mfhi $18
6664	664C  AFB20000             sw $18, 0($29)
6665	6650  0C003102             jal increment_offset
6666	6654  3C020000             lui $2, 0
6667	6658  34420000             ori $2, $2, 0
6668	665C  3C030000             lui $3, 0
6669	6660  34636000             ori $3, $3, 24576
6670	6664  00430019             multu $2, $3
6671	6668  00009012             mflo $18
6672	666C  AFB20000             sw $18, 0($29)
6673	6670  00009010             mfhi $18
6674	6674  AFB20000             sw $18, 0($29)
6675	6678  0C003102             jal increment_offset
6676	667C  3C02AAAA             lui $2, 43690
6677	6680  3442AAAA             ori $2, $2, 43690
6678	6684  3C030000             lui $3, 0
6679	6688  34636000             ori $3, $3, 24576
6680	668C  00430019             multu $2, $3
6681	6690  00009012             mflo $18
6682	6694  AFB20000             sw $18, 0($29)
6683	6698  00009010             mfhi $18
6684	669C  AFB20000             sw $18, 0($29)
6685	66A0  0C003102             jal increment_offset
6686	66A4  3C02D34D             lui $2, 54093
6687	66A8  34425555             ori $2, $2, 21845
6688	66AC  3C030000             lui $3, 0
6689	66B0  34636000             ori $3, $3, 24576
6690	66B4  00430019             multu $2, $3
6691	66B8  00009012             mflo $18
6692	66BC  AFB20000             sw $18, 0($29)
6693	66C0  00009010             mfhi $18
6694	66C4  AFB20000             sw $18, 0($29)
6695	66C8  0C003102             jal increment_offset
6696	66CC  3C021999             lui $2, 6553
6697	66D0  3442999A             ori $2, $2, 39322
6698	66D4  3C030000             lui $3, 0
6699	66D8  34636000             ori $3, $3, 24576
6700	66DC  00430019             multu $2, $3
6701	66E0  00009012             mflo $18
6702	66E4  AFB20000             sw $18, 0($29)
6703	66E8  00009010             mfhi $18
6704	66EC  AFB20000             sw $18, 0($29)
6705	66F0  0C003102             jal increment_offset
6706	66F4  3C023536             lui $2, 13622
6707	66F8  34426666             ori $2, $2, 26214
6708	66FC  3C030000             lui $3, 0
6709	6700  34636000             ori $3, $3, 24576
6710	6704  00430019             multu $2, $3
6711	6708  00009012             mflo $18
6712	670C  AFB20000             sw $18, 0($29)
6713	6710  00009010             mfhi $18
6714	6714  AFB20000             sw $18, 0($29)
6715	6718  0C003102             jal increment_offset
6716	671C  3C024CD4             lui $2, 19668
6717	6720  3442CCCB             ori $2, $2, 52427
6718	6724  3C030000             lui $3, 0
6719	6728  34636000             ori $3, $3, 24576
6720	672C  00430019             multu $2, $3
6721	6730  00009012             mflo $18
6722	6734  AFB20000             sw $18, 0($29)
6723	6738  00009010             mfhi $18
6724	673C  AFB20000             sw $18, 0($29)
6725	6740  0C003102             jal increment_offset
6726	6744  3C026773             lui $2, 26483
6727	6748  3442F337             ori $2, $2, 62263
6728	674C  3C030000             lui $3, 0
6729	6750  34636000             ori $3, $3, 24576
6730	6754  00430019             multu $2, $3
6731	6758  00009012             mflo $18
6732	675C  AFB20000             sw $18, 0($29)
6733	6760  00009010             mfhi $18
6734	6764  AFB20000             sw $18, 0($29)
6735	6768  0C003102             jal increment_offset
6736	676C  3C02FDDD             lui $2, 64989
6737	6770  34425EDF             ori $2, $2, 24287
6738	6774  3C030000             lui $3, 0
6739	6778  34636000             ori $3, $3, 24576
6740	677C  00430019             multu $2, $3
6741	6780  00009012             mflo $18
6742	6784  AFB20000             sw $18, 0($29)
6743	6788  00009010             mfhi $18
6744	678C  AFB20000             sw $18, 0($29)
6745	6790  0C003102             jal increment_offset
6746	6794  3C025666             lui $2, 22118
6747	6798  3442BB6C             ori $2, $2, 47980
6748	679C  3C030000             lui $3, 0
6749	67A0  34636000             ori $3, $3, 24576
6750	67A4  00430019             multu $2, $3
6751	67A8  00009012             mflo $18
6752	67AC  AFB20000             sw $18, 0($29)
6753	67B0  00009010             mfhi $18
6754	67B4  AFB20000             sw $18, 0($29)
6755	67B8  0C003102             jal increment_offset
6756	67BC  3C02AAAB             lui $2, 43691
6757	67C0  344215B3             ori $2, $2, 5555
6758	67C4  3C030000             lui $3, 0
6759	67C8  34636000             ori $3, $3, 24576
6760	67CC  00430019             multu $2, $3
6761	67D0  00009012             mflo $18
6762	67D4  AFB20000             sw $18, 0($29)
6763	67D8  00009010             mfhi $18
6764	67DC  AFB20000             sw $18, 0($29)
6765	67E0  0C003102             jal increment_offset
6766	67E4  3C020000             lui $2, 0
6767	67E8  34420000             ori $2, $2, 0
6768	67EC  3C030000             lui $3, 0
6769	67F0  3463C000             ori $3, $3, 49152
6770	67F4  00430019             multu $2, $3
6771	67F8  00009012             mflo $18
6772	67FC  AFB20000             sw $18, 0($29)
6773	6800  00009010             mfhi $18
6774	6804  AFB20000             sw $18, 0($29)
6775	6808  0C003102             jal increment_offset
6776	680C  3C02AAAA             lui $2, 43690
6777	6810  3442AAAA             ori $2, $2, 43690
6778	6814  3C030000             lui $3, 0
6779	6818  3463C000             ori $3, $3, 49152
6780	681C  00430019             multu $2, $3
6781	6820  00009012             mflo $18
6782	6824  AFB20000             sw $18, 0($29)
6783	6828  00009010             mfhi $18
6784	682C  AFB20000             sw $18, 0($29)
6785	6830  0C003102             jal increment_offset
6786	6834  3C02D34D             lui $2, 54093
6787	6838  34425555             ori $2, $2, 21845
6788	683C  3C030000             lui $3, 0
6789	6840  3463C000             ori $3, $3, 49152
6790	6844  00430019             multu $2, $3
6791	6848  00009012             mflo $18
6792	684C  AFB20000             sw $18, 0($29)
6793	6850  00009010             mfhi $18
6794	6854  AFB20000             sw $18, 0($29)
6795	6858  0C003102             jal increment_offset
6796	685C  3C021999             lui $2, 6553
6797	6860  3442999A             ori $2, $2, 39322
6798	6864  3C030000             lui $3, 0
6799	6868  3463C000             ori $3, $3, 49152
6800	686C  00430019             multu $2, $3
6801	6870  00009012             mflo $18
6802	6874  AFB20000             sw $18, 0($29)
6803	6878  00009010             mfhi $18
6804	687C  AFB20000             sw $18, 0($29)
6805	6880  0C003102             jal increment_offset
6806	6884  3C023536             lui $2, 13622
6807	6888  34426666             ori $2, $2, 26214
6808	688C  3C030000             lui $3, 0
6809	6890  3463C000             ori $3, $3, 49152
6810	6894  00430019             multu $2, $3
6811	6898  00009012             mflo $18
6812	689C  AFB20000             sw $18, 0($29)
6813	68A0  00009010             mfhi $18
6814	68A4  AFB20000             sw $18, 0($29)
6815	68A8  0C003102             jal increment_offset
6816	68AC  3C024CD4             lui $2, 19668
6817	68B0  3442CCCB             ori $2, $2, 52427
6818	68B4  3C030000             lui $3, 0
6819	68B8  3463C000             ori $3, $3, 49152
6820	68BC  00430019             multu $2, $3
6821	68C0  00009012             mflo $18
6822	68C4  AFB20000             sw $18, 0($29)
6823	68C8  00009010             mfhi $18
6824	68CC  AFB20000             sw $18, 0($29)
6825	68D0  0C003102             jal increment_offset
6826	68D4  3C026773             lui $2, 26483
6827	68D8  3442F337             ori $2, $2, 62263
6828	68DC  3C030000             lui $3, 0
6829	68E0  3463C000             ori $3, $3, 49152
6830	68E4  00430019             multu $2, $3
6831	68E8  00009012             mflo $18
6832	68EC  AFB20000             sw $18, 0($29)
6833	68F0  00009010             mfhi $18
6834	68F4  AFB20000             sw $18, 0($29)
6835	68F8  0C003102             jal increment_offset
6836	68FC  3C02FDDD             lui $2, 64989
6837	6900  34425EDF             ori $2, $2, 24287
6838	6904  3C030000             lui $3, 0
6839	6908  3463C000             ori $3, $3, 49152
6840	690C  00430019             multu $2, $3
6841	6910  00009012             mflo $18
6842	6914  AFB20000             sw $18, 0($29)
6843	6918  00009010             mfhi $18
6844	691C  AFB20000             sw $18, 0($29)
6845	6920  0C003102             jal increment_offset
6846	6924  3C025666             lui $2, 22118
6847	6928  3442BB6C             ori $2, $2, 47980
6848	692C  3C030000             lui $3, 0
6849	6930  3463C000             ori $3, $3, 49152
6850	6934  00430019             multu $2, $3
6851	6938  00009012             mflo $18
6852	693C  AFB20000             sw $18, 0($29)
6853	6940  00009010             mfhi $18
6854	6944  AFB20000             sw $18, 0($29)
6855	6948  0C003102             jal increment_offset
6856	694C  3C02AAAB             lui $2, 43691
6857	6950  344215B3             ori $2, $2, 5555
6858	6954  3C030000             lui $3, 0
6859	6958  3463C000             ori $3, $3, 49152
6860	695C  00430019             multu $2, $3
6861	6960  00009012             mflo $18
6862	6964  AFB20000             sw $18, 0($29)
6863	6968  00009010             mfhi $18
6864	696C  AFB20000             sw $18, 0($29)
6865	6970  0C003102             jal increment_offset
6866	6974  3C020000             lui $2, 0
6867	6978  34420000             ori $2, $2, 0
6868	697C  3C030001             lui $3, 1
6869	6980  34638000             ori $3, $3, 32768
6870	6984  00430019             multu $2, $3
6871	6988  00009012             mflo $18
6872	698C  AFB20000             sw $18, 0($29)
6873	6990  00009010             mfhi $18
6874	6994  AFB20000             sw $18, 0($29)
6875	6998  0C003102             jal increment_offset
6876	699C  3C02AAAA             lui $2, 43690
6877	69A0  3442AAAA             ori $2, $2, 43690
6878	69A4  3C030001             lui $3, 1
6879	69A8  34638000             ori $3, $3, 32768
6880	69AC  00430019             multu $2, $3
6881	69B0  00009012             mflo $18
6882	69B4  AFB20000             sw $18, 0($29)
6883	69B8  00009010             mfhi $18
6884	69BC  AFB20000             sw $18, 0($29)
6885	69C0  0C003102             jal increment_offset
6886	69C4  3C02D34D             lui $2, 54093
6887	69C8  34425555             ori $2, $2, 21845
6888	69CC  3C030001             lui $3, 1
6889	69D0  34638000             ori $3, $3, 32768
6890	69D4  00430019             multu $2, $3
6891	69D8  00009012             mflo $18
6892	69DC  AFB20000             sw $18, 0($29)
6893	69E0  00009010             mfhi $18
6894	69E4  AFB20000             sw $18, 0($29)
6895	69E8  0C003102             jal increment_offset
6896	69EC  3C021999             lui $2, 6553
6897	69F0  3442999A             ori $2, $2, 39322
6898	69F4  3C030001             lui $3, 1
6899	69F8  34638000             ori $3, $3, 32768
6900	69FC  00430019             multu $2, $3
6901	6A00  00009012             mflo $18
6902	6A04  AFB20000             sw $18, 0($29)
6903	6A08  00009010             mfhi $18
6904	6A0C  AFB20000             sw $18, 0($29)
6905	6A10  0C003102             jal increment_offset
6906	6A14  3C023536             lui $2, 13622
6907	6A18  34426666             ori $2, $2, 26214
6908	6A1C  3C030001             lui $3, 1
6909	6A20  34638000             ori $3, $3, 32768
6910	6A24  00430019             multu $2, $3
6911	6A28  00009012             mflo $18
6912	6A2C  AFB20000             sw $18, 0($29)
6913	6A30  00009010             mfhi $18
6914	6A34  AFB20000             sw $18, 0($29)
6915	6A38  0C003102             jal increment_offset
6916	6A3C  3C024CD4             lui $2, 19668
6917	6A40  3442CCCB             ori $2, $2, 52427
6918	6A44  3C030001             lui $3, 1
6919	6A48  34638000             ori $3, $3, 32768
6920	6A4C  00430019             multu $2, $3
6921	6A50  00009012             mflo $18
6922	6A54  AFB20000             sw $18, 0($29)
6923	6A58  00009010             mfhi $18
6924	6A5C  AFB20000             sw $18, 0($29)
6925	6A60  0C003102             jal increment_offset
6926	6A64  3C026773             lui $2, 26483
6927	6A68  3442F337             ori $2, $2, 62263
6928	6A6C  3C030001             lui $3, 1
6929	6A70  34638000             ori $3, $3, 32768
6930	6A74  00430019             multu $2, $3
6931	6A78  00009012             mflo $18
6932	6A7C  AFB20000             sw $18, 0($29)
6933	6A80  00009010             mfhi $18
6934	6A84  AFB20000             sw $18, 0($29)
6935	6A88  0C003102             jal increment_offset
6936	6A8C  3C02FDDD             lui $2, 64989
6937	6A90  34425EDF             ori $2, $2, 24287
6938	6A94  3C030001             lui $3, 1
6939	6A98  34638000             ori $3, $3, 32768
6940	6A9C  00430019             multu $2, $3
6941	6AA0  00009012             mflo $18
6942	6AA4  AFB20000             sw $18, 0($29)
6943	6AA8  00009010             mfhi $18
6944	6AAC  AFB20000             sw $18, 0($29)
6945	6AB0  0C003102             jal increment_offset
6946	6AB4  3C025666             lui $2, 22118
6947	6AB8  3442BB6C             ori $2, $2, 47980
6948	6ABC  3C030001             lui $3, 1
6949	6AC0  34638000             ori $3, $3, 32768
6950	6AC4  00430019             multu $2, $3
6951	6AC8  00009012             mflo $18
6952	6ACC  AFB20000             sw $18, 0($29)
6953	6AD0  00009010             mfhi $18
6954	6AD4  AFB20000             sw $18, 0($29)
6955	6AD8  0C003102             jal increment_offset
6956	6ADC  3C02AAAB             lui $2, 43691
6957	6AE0  344215B3             ori $2, $2, 5555
6958	6AE4  3C030001             lui $3, 1
6959	6AE8  34638000             ori $3, $3, 32768
6960	6AEC  00430019             multu $2, $3
6961	6AF0  00009012             mflo $18
6962	6AF4  AFB20000             sw $18, 0($29)
6963	6AF8  00009010             mfhi $18
6964	6AFC  AFB20000             sw $18, 0($29)
6965	6B00  0C003102             jal increment_offset
6966	6B04  3C020000             lui $2, 0
6967	6B08  34420000             ori $2, $2, 0
6968	6B0C  3C030003             lui $3, 3
6969	6B10  34630000             ori $3, $3, 0
6970	6B14  00430019             multu $2, $3
6971	6B18  00009012             mflo $18
6972	6B1C  AFB20000             sw $18, 0($29)
6973	6B20  00009010             mfhi $18
6974	6B24  AFB20000             sw $18, 0($29)
6975	6B28  0C003102             jal increment_offset
6976	6B2C  3C02AAAA             lui $2, 43690
6977	6B30  3442AAAA             ori $2, $2, 43690
6978	6B34  3C030003             lui $3, 3
6979	6B38  34630000             ori $3, $3, 0
6980	6B3C  00430019             multu $2, $3
6981	6B40  00009012             mflo $18
6982	6B44  AFB20000             sw $18, 0($29)
6983	6B48  00009010             mfhi $18
6984	6B4C  AFB20000             sw $18, 0($29)
6985	6B50  0C003102             jal increment_offset
6986	6B54  3C02D34D             lui $2, 54093
6987	6B58  34425555             ori $2, $2, 21845
6988	6B5C  3C030003             lui $3, 3
6989	6B60  34630000             ori $3, $3, 0
6990	6B64  00430019             multu $2, $3
6991	6B68  00009012             mflo $18
6992	6B6C  AFB20000             sw $18, 0($29)
6993	6B70  00009010             mfhi $18
6994	6B74  AFB20000             sw $18, 0($29)
6995	6B78  0C003102             jal increment_offset
6996	6B7C  3C021999             lui $2, 6553
6997	6B80  3442999A             ori $2, $2, 39322
6998	6B84  3C030003             lui $3, 3
6999	6B88  34630000             ori $3, $3, 0
7000	6B8C  00430019             multu $2, $3
7001	6B90  00009012             mflo $18
7002	6B94  AFB20000             sw $18, 0($29)
7003	6B98  00009010             mfhi $18
7004	6B9C  AFB20000             sw $18, 0($29)
7005	6BA0  0C003102             jal increment_offset
7006	6BA4  3C023536             lui $2, 13622
7007	6BA8  34426666             ori $2, $2, 26214
7008	6BAC  3C030003             lui $3, 3
7009	6BB0  34630000             ori $3, $3, 0
7010	6BB4  00430019             multu $2, $3
7011	6BB8  00009012             mflo $18
7012	6BBC  AFB20000             sw $18, 0($29)
7013	6BC0  00009010             mfhi $18
7014	6BC4  AFB20000             sw $18, 0($29)
7015	6BC8  0C003102             jal increment_offset
7016	6BCC  3C024CD4             lui $2, 19668
7017	6BD0  3442CCCB             ori $2, $2, 52427
7018	6BD4  3C030003             lui $3, 3
7019	6BD8  34630000             ori $3, $3, 0
7020	6BDC  00430019             multu $2, $3
7021	6BE0  00009012             mflo $18
7022	6BE4  AFB20000             sw $18, 0($29)
7023	6BE8  00009010             mfhi $18
7024	6BEC  AFB20000             sw $18, 0($29)
7025	6BF0  0C003102             jal increment_offset
7026	6BF4  3C026773             lui $2, 26483
7027	6BF8  3442F337             ori $2, $2, 62263
7028	6BFC  3C030003             lui $3, 3
7029	6C00  34630000             ori $3, $3, 0
7030	6C04  00430019             multu $2, $3
7031	6C08  00009012             mflo $18
7032	6C0C  AFB20000             sw $18, 0($29)
7033	6C10  00009010             mfhi $18
7034	6C14  AFB20000             sw $18, 0($29)
7035	6C18  0C003102             jal increment_offset
7036	6C1C  3C02FDDD             lui $2, 64989
7037	6C20  34425EDF             ori $2, $2, 24287
7038	6C24  3C030003             lui $3, 3
7039	6C28  34630000             ori $3, $3, 0
7040	6C2C  00430019             multu $2, $3
7041	6C30  00009012             mflo $18
7042	6C34  AFB20000             sw $18, 0($29)
7043	6C38  00009010             mfhi $18
7044	6C3C  AFB20000             sw $18, 0($29)
7045	6C40  0C003102             jal increment_offset
7046	6C44  3C025666             lui $2, 22118
7047	6C48  3442BB6C             ori $2, $2, 47980
7048	6C4C  3C030003             lui $3, 3
7049	6C50  34630000             ori $3, $3, 0
7050	6C54  00430019             multu $2, $3
7051	6C58  00009012             mflo $18
7052	6C5C  AFB20000             sw $18, 0($29)
7053	6C60  00009010             mfhi $18
7054	6C64  AFB20000             sw $18, 0($29)
7055	6C68  0C003102             jal increment_offset
7056	6C6C  3C02AAAB             lui $2, 43691
7057	6C70  344215B3             ori $2, $2, 5555
7058	6C74  3C030003             lui $3, 3
7059	6C78  34630000             ori $3, $3, 0
7060	6C7C  00430019             multu $2, $3
7061	6C80  00009012             mflo $18
7062	6C84  AFB20000             sw $18, 0($29)
7063	6C88  00009010             mfhi $18
7064	6C8C  AFB20000             sw $18, 0($29)
7065	6C90  0C003102             jal increment_offset
7066	6C94  3C020000             lui $2, 0
7067	6C98  34420000             ori $2, $2, 0
7068	6C9C  3C030006             lui $3, 6
7069	6CA0  34630000             ori $3, $3, 0
7070	6CA4  00430019             multu $2, $3
7071	6CA8  00009012             mflo $18
7072	6CAC  AFB20000             sw $18, 0($29)
7073	6CB0  00009010             mfhi $18
7074	6CB4  AFB20000             sw $18, 0($29)
7075	6CB8  0C003102             jal increment_offset
7076	6CBC  3C02AAAA             lui $2, 43690
7077	6CC0  3442AAAA             ori $2, $2, 43690
7078	6CC4  3C030006             lui $3, 6
7079	6CC8  34630000             ori $3, $3, 0
7080	6CCC  00430019             multu $2, $3
7081	6CD0  00009012             mflo $18
7082	6CD4  AFB20000             sw $18, 0($29)
7083	6CD8  00009010             mfhi $18
7084	6CDC  AFB20000             sw $18, 0($29)
7085	6CE0  0C003102             jal increment_offset
7086	6CE4  3C02D34D             lui $2, 54093
7087	6CE8  34425555             ori $2, $2, 21845
7088	6CEC  3C030006             lui $3, 6
7089	6CF0  34630000             ori $3, $3, 0
7090	6CF4  00430019             multu $2, $3
7091	6CF8  00009012             mflo $18
7092	6CFC  AFB20000             sw $18, 0($29)
7093	6D00  00009010             mfhi $18
7094	6D04  AFB20000             sw $18, 0($29)
7095	6D08  0C003102             jal increment_offset
7096	6D0C  3C021999             lui $2, 6553
7097	6D10  3442999A             ori $2, $2, 39322
7098	6D14  3C030006             lui $3, 6
7099	6D18  34630000             ori $3, $3, 0
7100	6D1C  00430019             multu $2, $3
7101	6D20  00009012             mflo $18
7102	6D24  AFB20000             sw $18, 0($29)
7103	6D28  00009010             mfhi $18
7104	6D2C  AFB20000             sw $18, 0($29)
7105	6D30  0C003102             jal increment_offset
7106	6D34  3C023536             lui $2, 13622
7107	6D38  34426666             ori $2, $2, 26214
7108	6D3C  3C030006             lui $3, 6
7109	6D40  34630000             ori $3, $3, 0
7110	6D44  00430019             multu $2, $3
7111	6D48  00009012             mflo $18
7112	6D4C  AFB20000             sw $18, 0($29)
7113	6D50  00009010             mfhi $18
7114	6D54  AFB20000             sw $18, 0($29)
7115	6D58  0C003102             jal increment_offset
7116	6D5C  3C024CD4             lui $2, 19668
7117	6D60  3442CCCB             ori $2, $2, 52427
7118	6D64  3C030006             lui $3, 6
7119	6D68  34630000             ori $3, $3, 0
7120	6D6C  00430019             multu $2, $3
7121	6D70  00009012             mflo $18
7122	6D74  AFB20000             sw $18, 0($29)
7123	6D78  00009010             mfhi $18
7124	6D7C  AFB20000             sw $18, 0($29)
7125	6D80  0C003102             jal increment_offset
7126	6D84  3C026773             lui $2, 26483
7127	6D88  3442F337             ori $2, $2, 62263
7128	6D8C  3C030006             lui $3, 6
7129	6D90  34630000             ori $3, $3, 0
7130	6D94  00430019             multu $2, $3
7131	6D98  00009012             mflo $18
7132	6D9C  AFB20000             sw $18, 0($29)
7133	6DA0  00009010             mfhi $18
7134	6DA4  AFB20000             sw $18, 0($29)
7135	6DA8  0C003102             jal increment_offset
7136	6DAC  3C02FDDD             lui $2, 64989
7137	6DB0  34425EDF             ori $2, $2, 24287
7138	6DB4  3C030006             lui $3, 6
7139	6DB8  34630000             ori $3, $3, 0
7140	6DBC  00430019             multu $2, $3
7141	6DC0  00009012             mflo $18
7142	6DC4  AFB20000             sw $18, 0($29)
7143	6DC8  00009010             mfhi $18
7144	6DCC  AFB20000             sw $18, 0($29)
7145	6DD0  0C003102             jal increment_offset
7146	6DD4  3C025666             lui $2, 22118
7147	6DD8  3442BB6C             ori $2, $2, 47980
7148	6DDC  3C030006             lui $3, 6
7149	6DE0  34630000             ori $3, $3, 0
7150	6DE4  00430019             multu $2, $3
7151	6DE8  00009012             mflo $18
7152	6DEC  AFB20000             sw $18, 0($29)
7153	6DF0  00009010             mfhi $18
7154	6DF4  AFB20000             sw $18, 0($29)
7155	6DF8  0C003102             jal increment_offset
7156	6DFC  3C02AAAB             lui $2, 43691
7157	6E00  344215B3             ori $2, $2, 5555
7158	6E04  3C030006             lui $3, 6
7159	6E08  34630000             ori $3, $3, 0
7160	6E0C  00430019             multu $2, $3
7161	6E10  00009012             mflo $18
7162	6E14  AFB20000             sw $18, 0($29)
7163	6E18  00009010             mfhi $18
7164	6E1C  AFB20000             sw $18, 0($29)
7165	6E20  0C003102             jal increment_offset
7166	6E24  3C020000             lui $2, 0
7167	6E28  34420000             ori $2, $2, 0
7168	6E2C  3C03000C             lui $3, 12
7169	6E30  34630000             ori $3, $3, 0
7170	6E34  00430019             multu $2, $3
7171	6E38  00009012             mflo $18
7172	6E3C  AFB20000             sw $18, 0($29)
7173	6E40  00009010             mfhi $18
7174	6E44  AFB20000             sw $18, 0($29)
7175	6E48  0C003102             jal increment_offset
7176	6E4C  3C02AAAA             lui $2, 43690
7177	6E50  3442AAAA             ori $2, $2, 43690
7178	6E54  3C03000C             lui $3, 12
7179	6E58  34630000             ori $3, $3, 0
7180	6E5C  00430019             multu $2, $3
7181	6E60  00009012             mflo $18
7182	6E64  AFB20000             sw $18, 0($29)
7183	6E68  00009010             mfhi $18
7184	6E6C  AFB20000             sw $18, 0($29)
7185	6E70  0C003102             jal increment_offset
7186	6E74  3C02D34D             lui $2, 54093
7187	6E78  34425555             ori $2, $2, 21845
7188	6E7C  3C03000C             lui $3, 12
7189	6E80  34630000             ori $3, $3, 0
7190	6E84  00430019             multu $2, $3
7191	6E88  00009012             mflo $18
7192	6E8C  AFB20000             sw $18, 0($29)
7193	6E90  00009010             mfhi $18
7194	6E94  AFB20000             sw $18, 0($29)
7195	6E98  0C003102             jal increment_offset
7196	6E9C  3C021999             lui $2, 6553
7197	6EA0  3442999A             ori $2, $2, 39322
7198	6EA4  3C03000C             lui $3, 12
7199	6EA8  34630000             ori $3, $3, 0
7200	6EAC  00430019             multu $2, $3
7201	6EB0  00009012             mflo $18
7202	6EB4  AFB20000             sw $18, 0($29)
7203	6EB8  00009010             mfhi $18
7204	6EBC  AFB20000             sw $18, 0($29)
7205	6EC0  0C003102             jal increment_offset
7206	6EC4  3C023536             lui $2, 13622
7207	6EC8  34426666             ori $2, $2, 26214
7208	6ECC  3C03000C             lui $3, 12
7209	6ED0  34630000             ori $3, $3, 0
7210	6ED4  00430019             multu $2, $3
7211	6ED8  00009012             mflo $18
7212	6EDC  AFB20000             sw $18, 0($29)
7213	6EE0  00009010             mfhi $18
7214	6EE4  AFB20000             sw $18, 0($29)
7215	6EE8  0C003102             jal increment_offset
7216	6EEC  3C024CD4             lui $2, 19668
7217	6EF0  3442CCCB             ori $2, $2, 52427
7218	6EF4  3C03000C             lui $3, 12
7219	6EF8  34630000             ori $3, $3, 0
7220	6EFC  00430019             multu $2, $3
7221	6F00  00009012             mflo $18
7222	6F04  AFB20000             sw $18, 0($29)
7223	6F08  00009010             mfhi $18
7224	6F0C  AFB20000             sw $18, 0($29)
7225	6F10  0C003102             jal increment_offset
7226	6F14  3C026773             lui $2, 26483
7227	6F18  3442F337             ori $2, $2, 62263
7228	6F1C  3C03000C             lui $3, 12
7229	6F20  34630000             ori $3, $3, 0
7230	6F24  00430019             multu $2, $3
7231	6F28  00009012             mflo $18
7232	6F2C  AFB20000             sw $18, 0($29)
7233	6F30  00009010             mfhi $18
7234	6F34  AFB20000             sw $18, 0($29)
7235	6F38  0C003102             jal increment_offset
7236	6F3C  3C02FDDD             lui $2, 64989
7237	6F40  34425EDF             ori $2, $2, 24287
7238	6F44  3C03000C             lui $3, 12
7239	6F48  34630000             ori $3, $3, 0
7240	6F4C  00430019             multu $2, $3
7241	6F50  00009012             mflo $18
7242	6F54  AFB20000             sw $18, 0($29)
7243	6F58  00009010             mfhi $18
7244	6F5C  AFB20000             sw $18, 0($29)
7245	6F60  0C003102             jal increment_offset
7246	6F64  3C025666             lui $2, 22118
7247	6F68  3442BB6C             ori $2, $2, 47980
7248	6F6C  3C03000C             lui $3, 12
7249	6F70  34630000             ori $3, $3, 0
7250	6F74  00430019             multu $2, $3
7251	6F78  00009012             mflo $18
7252	6F7C  AFB20000             sw $18, 0($29)
7253	6F80  00009010             mfhi $18
7254	6F84  AFB20000             sw $18, 0($29)
7255	6F88  0C003102             jal increment_offset
7256	6F8C  3C02AAAB             lui $2, 43691
7257	6F90  344215B3             ori $2, $2, 5555
7258	6F94  3C03000C             lui $3, 12
7259	6F98  34630000             ori $3, $3, 0
7260	6F9C  00430019             multu $2, $3
7261	6FA0  00009012             mflo $18
7262	6FA4  AFB20000             sw $18, 0($29)
7263	6FA8  00009010             mfhi $18
7264	6FAC  AFB20000             sw $18, 0($29)
7265	6FB0  0C003102             jal increment_offset
7266	6FB4  3C020000             lui $2, 0
7267	6FB8  34420000             ori $2, $2, 0
7268	6FBC  3C030018             lui $3, 24
7269	6FC0  34630000             ori $3, $3, 0
7270	6FC4  00430019             multu $2, $3
7271	6FC8  00009012             mflo $18
7272	6FCC  AFB20000             sw $18, 0($29)
7273	6FD0  00009010             mfhi $18
7274	6FD4  AFB20000             sw $18, 0($29)
7275	6FD8  0C003102             jal increment_offset
7276	6FDC  3C02AAAA             lui $2, 43690
7277	6FE0  3442AAAA             ori $2, $2, 43690
7278	6FE4  3C030018             lui $3, 24
7279	6FE8  34630000             ori $3, $3, 0
7280	6FEC  00430019             multu $2, $3
7281	6FF0  00009012             mflo $18
7282	6FF4  AFB20000             sw $18, 0($29)
7283	6FF8  00009010             mfhi $18
7284	6FFC  AFB20000             sw $18, 0($29)
7285	7000  0C003102             jal increment_offset
7286	7004  3C02D34D             lui $2, 54093
7287	7008  34425555             ori $2, $2, 21845
7288	700C  3C030018             lui $3, 24
7289	7010  34630000             ori $3, $3, 0
7290	7014  00430019             multu $2, $3
7291	7018  00009012             mflo $18
7292	701C  AFB20000             sw $18, 0($29)
7293	7020  00009010             mfhi $18
7294	7024  AFB20000             sw $18, 0($29)
7295	7028  0C003102             jal increment_offset
7296	702C  3C021999             lui $2, 6553
7297	7030  3442999A             ori $2, $2, 39322
7298	7034  3C030018             lui $3, 24
7299	7038  34630000             ori $3, $3, 0
7300	703C  00430019             multu $2, $3
7301	7040  00009012             mflo $18
7302	7044  AFB20000             sw $18, 0($29)
7303	7048  00009010             mfhi $18
7304	704C  AFB20000             sw $18, 0($29)
7305	7050  0C003102             jal increment_offset
7306	7054  3C023536             lui $2, 13622
7307	7058  34426666             ori $2, $2, 26214
7308	705C  3C030018             lui $3, 24
7309	7060  34630000             ori $3, $3, 0
7310	7064  00430019             multu $2, $3
7311	7068  00009012             mflo $18
7312	706C  AFB20000             sw $18, 0($29)
7313	7070  00009010             mfhi $18
7314	7074  AFB20000             sw $18, 0($29)
7315	7078  0C003102             jal increment_offset
7316	707C  3C024CD4             lui $2, 19668
7317	7080  3442CCCB             ori $2, $2, 52427
7318	7084  3C030018             lui $3, 24
7319	7088  34630000             ori $3, $3, 0
7320	708C  00430019             multu $2, $3
7321	7090  00009012             mflo $18
7322	7094  AFB20000             sw $18, 0($29)
7323	7098  00009010             mfhi $18
7324	709C  AFB20000             sw $18, 0($29)
7325	70A0  0C003102             jal increment_offset
7326	70A4  3C026773             lui $2, 26483
7327	70A8  3442F337             ori $2, $2, 62263
7328	70AC  3C030018             lui $3, 24
7329	70B0  34630000             ori $3, $3, 0
7330	70B4  00430019             multu $2, $3
7331	70B8  00009012             mflo $18
7332	70BC  AFB20000             sw $18, 0($29)
7333	70C0  00009010             mfhi $18
7334	70C4  AFB20000             sw $18, 0($29)
7335	70C8  0C003102             jal increment_offset
7336	70CC  3C02FDDD             lui $2, 64989
7337	70D0  34425EDF             ori $2, $2, 24287
7338	70D4  3C030018             lui $3, 24
7339	70D8  34630000             ori $3, $3, 0
7340	70DC  00430019             multu $2, $3
7341	70E0  00009012             mflo $18
7342	70E4  AFB20000             sw $18, 0($29)
7343	70E8  00009010             mfhi $18
7344	70EC  AFB20000             sw $18, 0($29)
7345	70F0  0C003102             jal increment_offset
7346	70F4  3C025666             lui $2, 22118
7347	70F8  3442BB6C             ori $2, $2, 47980
7348	70FC  3C030018             lui $3, 24
7349	7100  34630000             ori $3, $3, 0
7350	7104  00430019             multu $2, $3
7351	7108  00009012             mflo $18
7352	710C  AFB20000             sw $18, 0($29)
7353	7110  00009010             mfhi $18
7354	7114  AFB20000             sw $18, 0($29)
7355	7118  0C003102             jal increment_offset
7356	711C  3C02AAAB             lui $2, 43691
7357	7120  344215B3             ori $2, $2, 5555
7358	7124  3C030018             lui $3, 24
7359	7128  34630000             ori $3, $3, 0
7360	712C  00430019             multu $2, $3
7361	7130  00009012             mflo $18
7362	7134  AFB20000             sw $18, 0($29)
7363	7138  00009010             mfhi $18
7364	713C  AFB20000             sw $18, 0($29)
7365	7140  0C003102             jal increment_offset
7366	7144  3C020000             lui $2, 0
7367	7148  34420000             ori $2, $2, 0
7368	714C  3C030030             lui $3, 48
7369	7150  34630000             ori $3, $3, 0
7370	7154  00430019             multu $2, $3
7371	7158  00009012             mflo $18
7372	715C  AFB20000             sw $18, 0($29)
7373	7160  00009010             mfhi $18
7374	7164  AFB20000             sw $18, 0($29)
7375	7168  0C003102             jal increment_offset
7376	716C  3C02AAAA             lui $2, 43690
7377	7170  3442AAAA             ori $2, $2, 43690
7378	7174  3C030030             lui $3, 48
7379	7178  34630000             ori $3, $3, 0
7380	717C  00430019             multu $2, $3
7381	7180  00009012             mflo $18
7382	7184  AFB20000             sw $18, 0($29)
7383	7188  00009010             mfhi $18
7384	718C  AFB20000             sw $18, 0($29)
7385	7190  0C003102             jal increment_offset
7386	7194  3C02D34D             lui $2, 54093
7387	7198  34425555             ori $2, $2, 21845
7388	719C  3C030030             lui $3, 48
7389	71A0  34630000             ori $3, $3, 0
7390	71A4  00430019             multu $2, $3
7391	71A8  00009012             mflo $18
7392	71AC  AFB20000             sw $18, 0($29)
7393	71B0  00009010             mfhi $18
7394	71B4  AFB20000             sw $18, 0($29)
7395	71B8  0C003102             jal increment_offset
7396	71BC  3C021999             lui $2, 6553
7397	71C0  3442999A             ori $2, $2, 39322
7398	71C4  3C030030             lui $3, 48
7399	71C8  34630000             ori $3, $3, 0
7400	71CC  00430019             multu $2, $3
7401	71D0  00009012             mflo $18
7402	71D4  AFB20000             sw $18, 0($29)
7403	71D8  00009010             mfhi $18
7404	71DC  AFB20000             sw $18, 0($29)
7405	71E0  0C003102             jal increment_offset
7406	71E4  3C023536             lui $2, 13622
7407	71E8  34426666             ori $2, $2, 26214
7408	71EC  3C030030             lui $3, 48
7409	71F0  34630000             ori $3, $3, 0
7410	71F4  00430019             multu $2, $3
7411	71F8  00009012             mflo $18
7412	71FC  AFB20000             sw $18, 0($29)
7413	7200  00009010             mfhi $18
7414	7204  AFB20000             sw $18, 0($29)
7415	7208  0C003102             jal increment_offset
7416	720C  3C024CD4             lui $2, 19668
7417	7210  3442CCCB             ori $2, $2, 52427
7418	7214  3C030030             lui $3, 48
7419	7218  34630000             ori $3, $3, 0
7420	721C  00430019             multu $2, $3
7421	7220  00009012             mflo $18
7422	7224  AFB20000             sw $18, 0($29)
7423	7228  00009010             mfhi $18
7424	722C  AFB20000             sw $18, 0($29)
7425	7230  0C003102             jal increment_offset
7426	7234  3C026773             lui $2, 26483
7427	7238  3442F337             ori $2, $2, 62263
7428	723C  3C030030             lui $3, 48
7429	7240  34630000             ori $3, $3, 0
7430	7244  00430019             multu $2, $3
7431	7248  00009012             mflo $18
7432	724C  AFB20000             sw $18, 0($29)
7433	7250  00009010             mfhi $18
7434	7254  AFB20000             sw $18, 0($29)
7435	7258  0C003102             jal increment_offset
7436	725C  3C02FDDD             lui $2, 64989
7437	7260  34425EDF             ori $2, $2, 24287
7438	7264  3C030030             lui $3, 48
7439	7268  34630000             ori $3, $3, 0
7440	726C  00430019             multu $2, $3
7441	7270  00009012             mflo $18
7442	7274  AFB20000             sw $18, 0($29)
7443	7278  00009010             mfhi $18
7444	727C  AFB20000             sw $18, 0($29)
7445	7280  0C003102             jal increment_offset
7446	7284  3C025666             lui $2, 22118
7447	7288  3442BB6C             ori $2, $2, 47980
7448	728C  3C030030             lui $3, 48
7449	7290  34630000             ori $3, $3, 0
7450	7294  00430019             multu $2, $3
7451	7298  00009012             mflo $18
7452	729C  AFB20000             sw $18, 0($29)
7453	72A0  00009010             mfhi $18
7454	72A4  AFB20000             sw $18, 0($29)
7455	72A8  0C003102             jal increment_offset
7456	72AC  3C02AAAB             lui $2, 43691
7457	72B0  344215B3             ori $2, $2, 5555
7458	72B4  3C030030             lui $3, 48
7459	72B8  34630000             ori $3, $3, 0
7460	72BC  00430019             multu $2, $3
7461	72C0  00009012             mflo $18
7462	72C4  AFB20000             sw $18, 0($29)
7463	72C8  00009010             mfhi $18
7464	72CC  AFB20000             sw $18, 0($29)
7465	72D0  0C003102             jal increment_offset
7466	72D4  3C020000             lui $2, 0
7467	72D8  34420000             ori $2, $2, 0
7468	72DC  3C030060             lui $3, 96
7469	72E0  34630000             ori $3, $3, 0
7470	72E4  00430019             multu $2, $3
7471	72E8  00009012             mflo $18
7472	72EC  AFB20000             sw $18, 0($29)
7473	72F0  00009010             mfhi $18
7474	72F4  AFB20000             sw $18, 0($29)
7475	72F8  0C003102             jal increment_offset
7476	72FC  3C02AAAA             lui $2, 43690
7477	7300  3442AAAA             ori $2, $2, 43690
7478	7304  3C030060             lui $3, 96
7479	7308  34630000             ori $3, $3, 0
7480	730C  00430019             multu $2, $3
7481	7310  00009012             mflo $18
7482	7314  AFB20000             sw $18, 0($29)
7483	7318  00009010             mfhi $18
7484	731C  AFB20000             sw $18, 0($29)
7485	7320  0C003102             jal increment_offset
7486	7324  3C02D34D             lui $2, 54093
7487	7328  34425555             ori $2, $2, 21845
7488	732C  3C030060             lui $3, 96
7489	7330  34630000             ori $3, $3, 0
7490	7334  00430019             multu $2, $3
7491	7338  00009012             mflo $18
7492	733C  AFB20000             sw $18, 0($29)
7493	7340  00009010             mfhi $18
7494	7344  AFB20000             sw $18, 0($29)
7495	7348  0C003102             jal increment_offset
7496	734C  3C021999             lui $2, 6553
7497	7350  3442999A             ori $2, $2, 39322
7498	7354  3C030060             lui $3, 96
7499	7358  34630000             ori $3, $3, 0
7500	735C  00430019             multu $2, $3
7501	7360  00009012             mflo $18
7502	7364  AFB20000             sw $18, 0($29)
7503	7368  00009010             mfhi $18
7504	736C  AFB20000             sw $18, 0($29)
7505	7370  0C003102             jal increment_offset
7506	7374  3C023536             lui $2, 13622
7507	7378  34426666             ori $2, $2, 26214
7508	737C  3C030060             lui $3, 96
7509	7380  34630000             ori $3, $3, 0
7510	7384  00430019             multu $2, $3
7511	7388  00009012             mflo $18
7512	738C  AFB20000             sw $18, 0($29)
7513	7390  00009010             mfhi $18
7514	7394  AFB20000             sw $18, 0($29)
7515	7398  0C003102             jal increment_offset
7516	739C  3C024CD4             lui $2, 19668
7517	73A0  3442CCCB             ori $2, $2, 52427
7518	73A4  3C030060             lui $3, 96
7519	73A8  34630000             ori $3, $3, 0
7520	73AC  00430019             multu $2, $3
7521	73B0  00009012             mflo $18
7522	73B4  AFB20000             sw $18, 0($29)
7523	73B8  00009010             mfhi $18
7524	73BC  AFB20000             sw $18, 0($29)
7525	73C0  0C003102             jal increment_offset
7526	73C4  3C026773             lui $2, 26483
7527	73C8  3442F337             ori $2, $2, 62263
7528	73CC  3C030060             lui $3, 96
7529	73D0  34630000             ori $3, $3, 0
7530	73D4  00430019             multu $2, $3
7531	73D8  00009012             mflo $18
7532	73DC  AFB20000             sw $18, 0($29)
7533	73E0  00009010             mfhi $18
7534	73E4  AFB20000             sw $18, 0($29)
7535	73E8  0C003102             jal increment_offset
7536	73EC  3C02FDDD             lui $2, 64989
7537	73F0  34425EDF             ori $2, $2, 24287
7538	73F4  3C030060             lui $3, 96
7539	73F8  34630000             ori $3, $3, 0
7540	73FC  00430019             multu $2, $3
7541	7400  00009012             mflo $18
7542	7404  AFB20000             sw $18, 0($29)
7543	7408  00009010             mfhi $18
7544	740C  AFB20000             sw $18, 0($29)
7545	7410  0C003102             jal increment_offset
7546	7414  3C025666             lui $2, 22118
7547	7418  3442BB6C             ori $2, $2, 47980
7548	741C  3C030060             lui $3, 96
7549	7420  34630000             ori $3, $3, 0
7550	7424  00430019             multu $2, $3
7551	7428  00009012             mflo $18
7552	742C  AFB20000             sw $18, 0($29)
7553	7430  00009010             mfhi $18
7554	7434  AFB20000             sw $18, 0($29)
7555	7438  0C003102             jal increment_offset
7556	743C  3C02AAAB             lui $2, 43691
7557	7440  344215B3             ori $2, $2, 5555
7558	7444  3C030060             lui $3, 96
7559	7448  34630000             ori $3, $3, 0
7560	744C  00430019             multu $2, $3
7561	7450  00009012             mflo $18
7562	7454  AFB20000             sw $18, 0($29)
7563	7458  00009010             mfhi $18
7564	745C  AFB20000             sw $18, 0($29)
7565	7460  0C003102             jal increment_offset
7566	7464  3C020000             lui $2, 0
7567	7468  34420000             ori $2, $2, 0
7568	746C  3C0300C0             lui $3, 192
7569	7470  34630000             ori $3, $3, 0
7570	7474  00430019             multu $2, $3
7571	7478  00009012             mflo $18
7572	747C  AFB20000             sw $18, 0($29)
7573	7480  00009010             mfhi $18
7574	7484  AFB20000             sw $18, 0($29)
7575	7488  0C003102             jal increment_offset
7576	748C  3C02AAAA             lui $2, 43690
7577	7490  3442AAAA             ori $2, $2, 43690
7578	7494  3C0300C0             lui $3, 192
7579	7498  34630000             ori $3, $3, 0
7580	749C  00430019             multu $2, $3
7581	74A0  00009012             mflo $18
7582	74A4  AFB20000             sw $18, 0($29)
7583	74A8  00009010             mfhi $18
7584	74AC  AFB20000             sw $18, 0($29)
7585	74B0  0C003102             jal increment_offset
7586	74B4  3C02D34D             lui $2, 54093
7587	74B8  34425555             ori $2, $2, 21845
7588	74BC  3C0300C0             lui $3, 192
7589	74C0  34630000             ori $3, $3, 0
7590	74C4  00430019             multu $2, $3
7591	74C8  00009012             mflo $18
7592	74CC  AFB20000             sw $18, 0($29)
7593	74D0  00009010             mfhi $18
7594	74D4  AFB20000             sw $18, 0($29)
7595	74D8  0C003102             jal increment_offset
7596	74DC  3C021999             lui $2, 6553
7597	74E0  3442999A             ori $2, $2, 39322
7598	74E4  3C0300C0             lui $3, 192
7599	74E8  34630000             ori $3, $3, 0
7600	74EC  00430019             multu $2, $3
7601	74F0  00009012             mflo $18
7602	74F4  AFB20000             sw $18, 0($29)
7603	74F8  00009010             mfhi $18
7604	74FC  AFB20000             sw $18, 0($29)
7605	7500  0C003102             jal increment_offset
7606	7504  3C023536             lui $2, 13622
7607	7508  34426666             ori $2, $2, 26214
7608	750C  3C0300C0             lui $3, 192
7609	7510  34630000             ori $3, $3, 0
7610	7514  00430019             multu $2, $3
7611	7518  00009012             mflo $18
7612	751C  AFB20000             sw $18, 0($29)
7613	7520  00009010             mfhi $18
7614	7524  AFB20000             sw $18, 0($29)
7615	7528  0C003102             jal increment_offset
7616	752C  3C024CD4             lui $2, 19668
7617	7530  3442CCCB             ori $2, $2, 52427
7618	7534  3C0300C0             lui $3, 192
7619	7538  34630000             ori $3, $3, 0
7620	753C  00430019             multu $2, $3
7621	7540  00009012             mflo $18
7622	7544  AFB20000             sw $18, 0($29)
7623	7548  00009010             mfhi $18
7624	754C  AFB20000             sw $18, 0($29)
7625	7550  0C003102             jal increment_offset
7626	7554  3C026773             lui $2, 26483
7627	7558  3442F337             ori $2, $2, 62263
7628	755C  3C0300C0             lui $3, 192
7629	7560  34630000             ori $3, $3, 0
7630	7564  00430019             multu $2, $3
7631	7568  00009012             mflo $18
7632	756C  AFB20000             sw $18, 0($29)
7633	7570  00009010             mfhi $18
7634	7574  AFB20000             sw $18, 0($29)
7635	7578  0C003102             jal increment_offset
7636	757C  3C02FDDD             lui $2, 64989
7637	7580  34425EDF             ori $2, $2, 24287
7638	7584  3C0300C0             lui $3, 192
7639	7588  34630000             ori $3, $3, 0
7640	758C  00430019             multu $2, $3
7641	7590  00009012             mflo $18
7642	7594  AFB20000             sw $18, 0($29)
7643	7598  00009010             mfhi $18
7644	759C  AFB20000             sw $18, 0($29)
7645	75A0  0C003102             jal increment_offset
7646	75A4  3C025666             lui $2, 22118
7647	75A8  3442BB6C             ori $2, $2, 47980
7648	75AC  3C0300C0             lui $3, 192
7649	75B0  34630000             ori $3, $3, 0
7650	75B4  00430019             multu $2, $3
7651	75B8  00009012             mflo $18
7652	75BC  AFB20000             sw $18, 0($29)
7653	75C0  00009010             mfhi $18
7654	75C4  AFB20000             sw $18, 0($29)
7655	75C8  0C003102             jal increment_offset
7656	75CC  3C02AAAB             lui $2, 43691
7657	75D0  344215B3             ori $2, $2, 5555
7658	75D4  3C0300C0             lui $3, 192
7659	75D8  34630000             ori $3, $3, 0
7660	75DC  00430019             multu $2, $3
7661	75E0  00009012             mflo $18
7662	75E4  AFB20000             sw $18, 0($29)
7663	75E8  00009010             mfhi $18
7664	75EC  AFB20000             sw $18, 0($29)
7665	75F0  0C003102             jal increment_offset
7666	75F4  3C020000             lui $2, 0
7667	75F8  34420000             ori $2, $2, 0
7668	75FC  3C030180             lui $3, 384
7669	7600  34630000             ori $3, $3, 0
7670	7604  00430019             multu $2, $3
7671	7608  00009012             mflo $18
7672	760C  AFB20000             sw $18, 0($29)
7673	7610  00009010             mfhi $18
7674	7614  AFB20000             sw $18, 0($29)
7675	7618  0C003102             jal increment_offset
7676	761C  3C02AAAA             lui $2, 43690
7677	7620  3442AAAA             ori $2, $2, 43690
7678	7624  3C030180             lui $3, 384
7679	7628  34630000             ori $3, $3, 0
7680	762C  00430019             multu $2, $3
7681	7630  00009012             mflo $18
7682	7634  AFB20000             sw $18, 0($29)
7683	7638  00009010             mfhi $18
7684	763C  AFB20000             sw $18, 0($29)
7685	7640  0C003102             jal increment_offset
7686	7644  3C02D34D             lui $2, 54093
7687	7648  34425555             ori $2, $2, 21845
7688	764C  3C030180             lui $3, 384
7689	7650  34630000             ori $3, $3, 0
7690	7654  00430019             multu $2, $3
7691	7658  00009012             mflo $18
7692	765C  AFB20000             sw $18, 0($29)
7693	7660  00009010             mfhi $18
7694	7664  AFB20000             sw $18, 0($29)
7695	7668  0C003102             jal increment_offset
7696	766C  3C021999             lui $2, 6553
7697	7670  3442999A             ori $2, $2, 39322
7698	7674  3C030180             lui $3, 384
7699	7678  34630000             ori $3, $3, 0
7700	767C  00430019             multu $2, $3
7701	7680  00009012             mflo $18
7702	7684  AFB20000             sw $18, 0($29)
7703	7688  00009010             mfhi $18
7704	768C  AFB20000             sw $18, 0($29)
7705	7690  0C003102             jal increment_offset
7706	7694  3C023536             lui $2, 13622
7707	7698  34426666             ori $2, $2, 26214
7708	769C  3C030180             lui $3, 384
7709	76A0  34630000             ori $3, $3, 0
7710	76A4  00430019             multu $2, $3
7711	76A8  00009012             mflo $18
7712	76AC  AFB20000             sw $18, 0($29)
7713	76B0  00009010             mfhi $18
7714	76B4  AFB20000             sw $18, 0($29)
7715	76B8  0C003102             jal increment_offset
7716	76BC  3C024CD4             lui $2, 19668
7717	76C0  3442CCCB             ori $2, $2, 52427
7718	76C4  3C030180             lui $3, 384
7719	76C8  34630000             ori $3, $3, 0
7720	76CC  00430019             multu $2, $3
7721	76D0  00009012             mflo $18
7722	76D4  AFB20000             sw $18, 0($29)
7723	76D8  00009010             mfhi $18
7724	76DC  AFB20000             sw $18, 0($29)
7725	76E0  0C003102             jal increment_offset
7726	76E4  3C026773             lui $2, 26483
7727	76E8  3442F337             ori $2, $2, 62263
7728	76EC  3C030180             lui $3, 384
7729	76F0  34630000             ori $3, $3, 0
7730	76F4  00430019             multu $2, $3
7731	76F8  00009012             mflo $18
7732	76FC  AFB20000             sw $18, 0($29)
7733	7700  00009010             mfhi $18
7734	7704  AFB20000             sw $18, 0($29)
7735	7708  0C003102             jal increment_offset
7736	770C  3C02FDDD             lui $2, 64989
7737	7710  34425EDF             ori $2, $2, 24287
7738	7714  3C030180             lui $3, 384
7739	7718  34630000             ori $3, $3, 0
7740	771C  00430019             multu $2, $3
7741	7720  00009012             mflo $18
7742	7724  AFB20000             sw $18, 0($29)
7743	7728  00009010             mfhi $18
7744	772C  AFB20000             sw $18, 0($29)
7745	7730  0C003102             jal increment_offset
7746	7734  3C025666             lui $2, 22118
7747	7738  3442BB6C             ori $2, $2, 47980
7748	773C  3C030180             lui $3, 384
7749	7740  34630000             ori $3, $3, 0
7750	7744  00430019             multu $2, $3
7751	7748  00009012             mflo $18
7752	774C  AFB20000             sw $18, 0($29)
7753	7750  00009010             mfhi $18
7754	7754  AFB20000             sw $18, 0($29)
7755	7758  0C003102             jal increment_offset
7756	775C  3C02AAAB             lui $2, 43691
7757	7760  344215B3             ori $2, $2, 5555
7758	7764  3C030180             lui $3, 384
7759	7768  34630000             ori $3, $3, 0
7760	776C  00430019             multu $2, $3
7761	7770  00009012             mflo $18
7762	7774  AFB20000             sw $18, 0($29)
7763	7778  00009010             mfhi $18
7764	777C  AFB20000             sw $18, 0($29)
7765	7780  0C003102             jal increment_offset
7766	7784  3C020000             lui $2, 0
7767	7788  34420000             ori $2, $2, 0
7768	778C  3C030300             lui $3, 768
7769	7790  34630000             ori $3, $3, 0
7770	7794  00430019             multu $2, $3
7771	7798  00009012             mflo $18
7772	779C  AFB20000             sw $18, 0($29)
7773	77A0  00009010             mfhi $18
7774	77A4  AFB20000             sw $18, 0($29)
7775	77A8  0C003102             jal increment_offset
7776	77AC  3C02AAAA             lui $2, 43690
7777	77B0  3442AAAA             ori $2, $2, 43690
7778	77B4  3C030300             lui $3, 768
7779	77B8  34630000             ori $3, $3, 0
7780	77BC  00430019             multu $2, $3
7781	77C0  00009012             mflo $18
7782	77C4  AFB20000             sw $18, 0($29)
7783	77C8  00009010             mfhi $18
7784	77CC  AFB20000             sw $18, 0($29)
7785	77D0  0C003102             jal increment_offset
7786	77D4  3C02D34D             lui $2, 54093
7787	77D8  34425555             ori $2, $2, 21845
7788	77DC  3C030300             lui $3, 768
7789	77E0  34630000             ori $3, $3, 0
7790	77E4  00430019             multu $2, $3
7791	77E8  00009012             mflo $18
7792	77EC  AFB20000             sw $18, 0($29)
7793	77F0  00009010             mfhi $18
7794	77F4  AFB20000             sw $18, 0($29)
7795	77F8  0C003102             jal increment_offset
7796	77FC  3C021999             lui $2, 6553
7797	7800  3442999A             ori $2, $2, 39322
7798	7804  3C030300             lui $3, 768
7799	7808  34630000             ori $3, $3, 0
7800	780C  00430019             multu $2, $3
7801	7810  00009012             mflo $18
7802	7814  AFB20000             sw $18, 0($29)
7803	7818  00009010             mfhi $18
7804	781C  AFB20000             sw $18, 0($29)
7805	7820  0C003102             jal increment_offset
7806	7824  3C023536             lui $2, 13622
7807	7828  34426666             ori $2, $2, 26214
7808	782C  3C030300             lui $3, 768
7809	7830  34630000             ori $3, $3, 0
7810	7834  00430019             multu $2, $3
7811	7838  00009012             mflo $18
7812	783C  AFB20000             sw $18, 0($29)
7813	7840  00009010             mfhi $18
7814	7844  AFB20000             sw $18, 0($29)
7815	7848  0C003102             jal increment_offset
7816	784C  3C024CD4             lui $2, 19668
7817	7850  3442CCCB             ori $2, $2, 52427
7818	7854  3C030300             lui $3, 768
7819	7858  34630000             ori $3, $3, 0
7820	785C  00430019             multu $2, $3
7821	7860  00009012             mflo $18
7822	7864  AFB20000             sw $18, 0($29)
7823	7868  00009010             mfhi $18
7824	786C  AFB20000             sw $18, 0($29)
7825	7870  0C003102             jal increment_offset
7826	7874  3C026773             lui $2, 26483
7827	7878  3442F337             ori $2, $2, 62263
7828	787C  3C030300             lui $3, 768
7829	7880  34630000             ori $3, $3, 0
7830	7884  00430019             multu $2, $3
7831	7888  00009012             mflo $18
7832	788C  AFB20000             sw $18, 0($29)
7833	7890  00009010             mfhi $18
7834	7894  AFB20000             sw $18, 0($29)
7835	7898  0C003102             jal increment_offset
7836	789C  3C02FDDD             lui $2, 64989
7837	78A0  34425EDF             ori $2, $2, 24287
7838	78A4  3C030300             lui $3, 768
7839	78A8  34630000             ori $3, $3, 0
7840	78AC  00430019             multu $2, $3
7841	78B0  00009012             mflo $18
7842	78B4  AFB20000             sw $18, 0($29)
7843	78B8  00009010             mfhi $18
7844	78BC  AFB20000             sw $18, 0($29)
7845	78C0  0C003102             jal increment_offset
7846	78C4  3C025666             lui $2, 22118
7847	78C8  3442BB6C             ori $2, $2, 47980
7848	78CC  3C030300             lui $3, 768
7849	78D0  34630000             ori $3, $3, 0
7850	78D4  00430019             multu $2, $3
7851	78D8  00009012             mflo $18
7852	78DC  AFB20000             sw $18, 0($29)
7853	78E0  00009010             mfhi $18
7854	78E4  AFB20000             sw $18, 0($29)
7855	78E8  0C003102             jal increment_offset
7856	78EC  3C02AAAB             lui $2, 43691
7857	78F0  344215B3             ori $2, $2, 5555
7858	78F4  3C030300             lui $3, 768
7859	78F8  34630000             ori $3, $3, 0
7860	78FC  00430019             multu $2, $3
7861	7900  00009012             mflo $18
7862	7904  AFB20000             sw $18, 0($29)
7863	7908  00009010             mfhi $18
7864	790C  AFB20000             sw $18, 0($29)
7865	7910  0C003102             jal increment_offset
7866	7914  3C020000             lui $2, 0
7867	7918  34420000             ori $2, $2, 0
7868	791C  3C030600             lui $3, 1536
7869	7920  34630000             ori $3, $3, 0
7870	7924  00430019             multu $2, $3
7871	7928  00009012             mflo $18
7872	792C  AFB20000             sw $18, 0($29)
7873	7930  00009010             mfhi $18
7874	7934  AFB20000             sw $18, 0($29)
7875	7938  0C003102             jal increment_offset
7876	793C  3C02AAAA             lui $2, 43690
7877	7940  3442AAAA             ori $2, $2, 43690
7878	7944  3C030600             lui $3, 1536
7879	7948  34630000             ori $3, $3, 0
7880	794C  00430019             multu $2, $3
7881	7950  00009012             mflo $18
7882	7954  AFB20000             sw $18, 0($29)
7883	7958  00009010             mfhi $18
7884	795C  AFB20000             sw $18, 0($29)
7885	7960  0C003102             jal increment_offset
7886	7964  3C02D34D             lui $2, 54093
7887	7968  34425555             ori $2, $2, 21845
7888	796C  3C030600             lui $3, 1536
7889	7970  34630000             ori $3, $3, 0
7890	7974  00430019             multu $2, $3
7891	7978  00009012             mflo $18
7892	797C  AFB20000             sw $18, 0($29)
7893	7980  00009010             mfhi $18
7894	7984  AFB20000             sw $18, 0($29)
7895	7988  0C003102             jal increment_offset
7896	798C  3C021999             lui $2, 6553
7897	7990  3442999A             ori $2, $2, 39322
7898	7994  3C030600             lui $3, 1536
7899	7998  34630000             ori $3, $3, 0
7900	799C  00430019             multu $2, $3
7901	79A0  00009012             mflo $18
7902	79A4  AFB20000             sw $18, 0($29)
7903	79A8  00009010             mfhi $18
7904	79AC  AFB20000             sw $18, 0($29)
7905	79B0  0C003102             jal increment_offset
7906	79B4  3C023536             lui $2, 13622
7907	79B8  34426666             ori $2, $2, 26214
7908	79BC  3C030600             lui $3, 1536
7909	79C0  34630000             ori $3, $3, 0
7910	79C4  00430019             multu $2, $3
7911	79C8  00009012             mflo $18
7912	79CC  AFB20000             sw $18, 0($29)
7913	79D0  00009010             mfhi $18
7914	79D4  AFB20000             sw $18, 0($29)
7915	79D8  0C003102             jal increment_offset
7916	79DC  3C024CD4             lui $2, 19668
7917	79E0  3442CCCB             ori $2, $2, 52427
7918	79E4  3C030600             lui $3, 1536
7919	79E8  34630000             ori $3, $3, 0
7920	79EC  00430019             multu $2, $3
7921	79F0  00009012             mflo $18
7922	79F4  AFB20000             sw $18, 0($29)
7923	79F8  00009010             mfhi $18
7924	79FC  AFB20000             sw $18, 0($29)
7925	7A00  0C003102             jal increment_offset
7926	7A04  3C026773             lui $2, 26483
7927	7A08  3442F337             ori $2, $2, 62263
7928	7A0C  3C030600             lui $3, 1536
7929	7A10  34630000             ori $3, $3, 0
7930	7A14  00430019             multu $2, $3
7931	7A18  00009012             mflo $18
7932	7A1C  AFB20000             sw $18, 0($29)
7933	7A20  00009010             mfhi $18
7934	7A24  AFB20000             sw $18, 0($29)
7935	7A28  0C003102             jal increment_offset
7936	7A2C  3C02FDDD             lui $2, 64989
7937	7A30  34425EDF             ori $2, $2, 24287
7938	7A34  3C030600             lui $3, 1536
7939	7A38  34630000             ori $3, $3, 0
7940	7A3C  00430019             multu $2, $3
7941	7A40  00009012             mflo $18
7942	7A44  AFB20000             sw $18, 0($29)
7943	7A48  00009010             mfhi $18
7944	7A4C  AFB20000             sw $18, 0($29)
7945	7A50  0C003102             jal increment_offset
7946	7A54  3C025666             lui $2, 22118
7947	7A58  3442BB6C             ori $2, $2, 47980
7948	7A5C  3C030600             lui $3, 1536
7949	7A60  34630000             ori $3, $3, 0
7950	7A64  00430019             multu $2, $3
7951	7A68  00009012             mflo $18
7952	7A6C  AFB20000             sw $18, 0($29)
7953	7A70  00009010             mfhi $18
7954	7A74  AFB20000             sw $18, 0($29)
7955	7A78  0C003102             jal increment_offset
7956	7A7C  3C02AAAB             lui $2, 43691
7957	7A80  344215B3             ori $2, $2, 5555
7958	7A84  3C030600             lui $3, 1536
7959	7A88  34630000             ori $3, $3, 0
7960	7A8C  00430019             multu $2, $3
7961	7A90  00009012             mflo $18
7962	7A94  AFB20000             sw $18, 0($29)
7963	7A98  00009010             mfhi $18
7964	7A9C  AFB20000             sw $18, 0($29)
7965	7AA0  0C003102             jal increment_offset
7966	7AA4  3C020000             lui $2, 0
7967	7AA8  34420000             ori $2, $2, 0
7968	7AAC  3C030C00             lui $3, 3072
7969	7AB0  34630000             ori $3, $3, 0
7970	7AB4  00430019             multu $2, $3
7971	7AB8  00009012             mflo $18
7972	7ABC  AFB20000             sw $18, 0($29)
7973	7AC0  00009010             mfhi $18
7974	7AC4  AFB20000             sw $18, 0($29)
7975	7AC8  0C003102             jal increment_offset
7976	7ACC  3C02AAAA             lui $2, 43690
7977	7AD0  3442AAAA             ori $2, $2, 43690
7978	7AD4  3C030C00             lui $3, 3072
7979	7AD8  34630000             ori $3, $3, 0
7980	7ADC  00430019             multu $2, $3
7981	7AE0  00009012             mflo $18
7982	7AE4  AFB20000             sw $18, 0($29)
7983	7AE8  00009010             mfhi $18
7984	7AEC  AFB20000             sw $18, 0($29)
7985	7AF0  0C003102             jal increment_offset
7986	7AF4  3C02D34D             lui $2, 54093
7987	7AF8  34425555             ori $2, $2, 21845
7988	7AFC  3C030C00             lui $3, 3072
7989	7B00  34630000             ori $3, $3, 0
7990	7B04  00430019             multu $2, $3
7991	7B08  00009012             mflo $18
7992	7B0C  AFB20000             sw $18, 0($29)
7993	7B10  00009010             mfhi $18
7994	7B14  AFB20000             sw $18, 0($29)
7995	7B18  0C003102             jal increment_offset
7996	7B1C  3C021999             lui $2, 6553
7997	7B20  3442999A             ori $2, $2, 39322
7998	7B24  3C030C00             lui $3, 3072
7999	7B28  34630000             ori $3, $3, 0
8000	7B2C  00430019             multu $2, $3
8001	7B30  00009012             mflo $18
8002	7B34  AFB20000             sw $18, 0($29)
8003	7B38  00009010             mfhi $18
8004	7B3C  AFB20000             sw $18, 0($29)
8005	7B40  0C003102             jal increment_offset
8006	7B44  3C023536             lui $2, 13622
8007	7B48  34426666             ori $2, $2, 26214
8008	7B4C  3C030C00             lui $3, 3072
8009	7B50  34630000             ori $3, $3, 0
8010	7B54  00430019             multu $2, $3
8011	7B58  00009012             mflo $18
8012	7B5C  AFB20000             sw $18, 0($29)
8013	7B60  00009010             mfhi $18
8014	7B64  AFB20000             sw $18, 0($29)
8015	7B68  0C003102             jal increment_offset
8016	7B6C  3C024CD4             lui $2, 19668
8017	7B70  3442CCCB             ori $2, $2, 52427
8018	7B74  3C030C00             lui $3, 3072
8019	7B78  34630000             ori $3, $3, 0
8020	7B7C  00430019             multu $2, $3
8021	7B80  00009012             mflo $18
8022	7B84  AFB20000             sw $18, 0($29)
8023	7B88  00009010             mfhi $18
8024	7B8C  AFB20000             sw $18, 0($29)
8025	7B90  0C003102             jal increment_offset
8026	7B94  3C026773             lui $2, 26483
8027	7B98  3442F337             ori $2, $2, 62263
8028	7B9C  3C030C00             lui $3, 3072
8029	7BA0  34630000             ori $3, $3, 0
8030	7BA4  00430019             multu $2, $3
8031	7BA8  00009012             mflo $18
8032	7BAC  AFB20000             sw $18, 0($29)
8033	7BB0  00009010             mfhi $18
8034	7BB4  AFB20000             sw $18, 0($29)
8035	7BB8  0C003102             jal increment_offset
8036	7BBC  3C02FDDD             lui $2, 64989
8037	7BC0  34425EDF             ori $2, $2, 24287
8038	7BC4  3C030C00             lui $3, 3072
8039	7BC8  34630000             ori $3, $3, 0
8040	7BCC  00430019             multu $2, $3
8041	7BD0  00009012             mflo $18
8042	7BD4  AFB20000             sw $18, 0($29)
8043	7BD8  00009010             mfhi $18
8044	7BDC  AFB20000             sw $18, 0($29)
8045	7BE0  0C003102             jal increment_offset
8046	7BE4  3C025666             lui $2, 22118
8047	7BE8  3442BB6C             ori $2, $2, 47980
8048	7BEC  3C030C00             lui $3, 3072
8049	7BF0  34630000             ori $3, $3, 0
8050	7BF4  00430019             multu $2, $3
8051	7BF8  00009012             mflo $18
8052	7BFC  AFB20000             sw $18, 0($29)
8053	7C00  00009010             mfhi $18
8054	7C04  AFB20000             sw $18, 0($29)
8055	7C08  0C003102             jal increment_offset
8056	7C0C  3C02AAAB             lui $2, 43691
8057	7C10  344215B3             ori $2, $2, 5555
8058	7C14  3C030C00             lui $3, 3072
8059	7C18  34630000             ori $3, $3, 0
8060	7C1C  00430019             multu $2, $3
8061	7C20  00009012             mflo $18
8062	7C24  AFB20000             sw $18, 0($29)
8063	7C28  00009010             mfhi $18
8064	7C2C  AFB20000             sw $18, 0($29)
8065	7C30  0C003102             jal increment_offset
8066	7C34  3C020000             lui $2, 0
8067	7C38  34420000             ori $2, $2, 0
8068	7C3C  3C031800             lui $3, 6144
8069	7C40  34630000             ori $3, $3, 0
8070	7C44  00430019             multu $2, $3
8071	7C48  00009012             mflo $18
8072	7C4C  AFB20000             sw $18, 0($29)
8073	7C50  00009010             mfhi $18
8074	7C54  AFB20000             sw $18, 0($29)
8075	7C58  0C003102             jal increment_offset
8076	7C5C  3C02AAAA             lui $2, 43690
8077	7C60  3442AAAA             ori $2, $2, 43690
8078	7C64  3C031800             lui $3, 6144
8079	7C68  34630000             ori $3, $3, 0
8080	7C6C  00430019             multu $2, $3
8081	7C70  00009012             mflo $18
8082	7C74  AFB20000             sw $18, 0($29)
8083	7C78  00009010             mfhi $18
8084	7C7C  AFB20000             sw $18, 0($29)
8085	7C80  0C003102             jal increment_offset
8086	7C84  3C02D34D             lui $2, 54093
8087	7C88  34425555             ori $2, $2, 21845
8088	7C8C  3C031800             lui $3, 6144
8089	7C90  34630000             ori $3, $3, 0
8090	7C94  00430019             multu $2, $3
8091	7C98  00009012             mflo $18
8092	7C9C  AFB20000             sw $18, 0($29)
8093	7CA0  00009010             mfhi $18
8094	7CA4  AFB20000             sw $18, 0($29)
8095	7CA8  0C003102             jal increment_offset
8096	7CAC  3C021999             lui $2, 6553
8097	7CB0  3442999A             ori $2, $2, 39322
8098	7CB4  3C031800             lui $3, 6144
8099	7CB8  34630000             ori $3, $3, 0
8100	7CBC  00430019             multu $2, $3
8101	7CC0  00009012             mflo $18
8102	7CC4  AFB20000             sw $18, 0($29)
8103	7CC8  00009010             mfhi $18
8104	7CCC  AFB20000             sw $18, 0($29)
8105	7CD0  0C003102             jal increment_offset
8106	7CD4  3C023536             lui $2, 13622
8107	7CD8  34426666             ori $2, $2, 26214
8108	7CDC  3C031800             lui $3, 6144
8109	7CE0  34630000             ori $3, $3, 0
8110	7CE4  00430019             multu $2, $3
8111	7CE8  00009012             mflo $18
8112	7CEC  AFB20000             sw $18, 0($29)
8113	7CF0  00009010             mfhi $18
8114	7CF4  AFB20000             sw $18, 0($29)
8115	7CF8  0C003102             jal increment_offset
8116	7CFC  3C024CD4             lui $2, 19668
8117	7D00  3442CCCB             ori $2, $2, 52427
8118	7D04  3C031800             lui $3, 6144
8119	7D08  34630000             ori $3, $3, 0
8120	7D0C  00430019             multu $2, $3
8121	7D10  00009012             mflo $18
8122	7D14  AFB20000             sw $18, 0($29)
8123	7D18  00009010             mfhi $18
8124	7D1C  AFB20000             sw $18, 0($29)
8125	7D20  0C003102             jal increment_offset
8126	7D24  3C026773             lui $2, 26483
8127	7D28  3442F337             ori $2, $2, 62263
8128	7D2C  3C031800             lui $3, 6144
8129	7D30  34630000             ori $3, $3, 0
8130	7D34  00430019             multu $2, $3
8131	7D38  00009012             mflo $18
8132	7D3C  AFB20000             sw $18, 0($29)
8133	7D40  00009010             mfhi $18
8134	7D44  AFB20000             sw $18, 0($29)
8135	7D48  0C003102             jal increment_offset
8136	7D4C  3C02FDDD             lui $2, 64989
8137	7D50  34425EDF             ori $2, $2, 24287
8138	7D54  3C031800             lui $3, 6144
8139	7D58  34630000             ori $3, $3, 0
8140	7D5C  00430019             multu $2, $3
8141	7D60  00009012             mflo $18
8142	7D64  AFB20000             sw $18, 0($29)
8143	7D68  00009010             mfhi $18
8144	7D6C  AFB20000             sw $18, 0($29)
8145	7D70  0C003102             jal increment_offset
8146	7D74  3C025666             lui $2, 22118
8147	7D78  3442BB6C             ori $2, $2, 47980
8148	7D7C  3C031800             lui $3, 6144
8149	7D80  34630000             ori $3, $3, 0
8150	7D84  00430019             multu $2, $3
8151	7D88  00009012             mflo $18
8152	7D8C  AFB20000             sw $18, 0($29)
8153	7D90  00009010             mfhi $18
8154	7D94  AFB20000             sw $18, 0($29)
8155	7D98  0C003102             jal increment_offset
8156	7D9C  3C02AAAB             lui $2, 43691
8157	7DA0  344215B3             ori $2, $2, 5555
8158	7DA4  3C031800             lui $3, 6144
8159	7DA8  34630000             ori $3, $3, 0
8160	7DAC  00430019             multu $2, $3
8161	7DB0  00009012             mflo $18
8162	7DB4  AFB20000             sw $18, 0($29)
8163	7DB8  00009010             mfhi $18
8164	7DBC  AFB20000             sw $18, 0($29)
8165	7DC0  0C003102             jal increment_offset
8166	7DC4  3C020000             lui $2, 0
8167	7DC8  34420000             ori $2, $2, 0
8168	7DCC  3C033000             lui $3, 12288
8169	7DD0  34630000             ori $3, $3, 0
8170	7DD4  00430019             multu $2, $3
8171	7DD8  00009012             mflo $18
8172	7DDC  AFB20000             sw $18, 0($29)
8173	7DE0  00009010             mfhi $18
8174	7DE4  AFB20000             sw $18, 0($29)
8175	7DE8  0C003102             jal increment_offset
8176	7DEC  3C02AAAA             lui $2, 43690
8177	7DF0  3442AAAA             ori $2, $2, 43690
8178	7DF4  3C033000             lui $3, 12288
8179	7DF8  34630000             ori $3, $3, 0
8180	7DFC  00430019             multu $2, $3
8181	7E00  00009012             mflo $18
8182	7E04  AFB20000             sw $18, 0($29)
8183	7E08  00009010             mfhi $18
8184	7E0C  AFB20000             sw $18, 0($29)
8185	7E10  0C003102             jal increment_offset
8186	7E14  3C02D34D             lui $2, 54093
8187	7E18  34425555             ori $2, $2, 21845
8188	7E1C  3C033000             lui $3, 12288
8189	7E20  34630000             ori $3, $3, 0
8190	7E24  00430019             multu $2, $3
8191	7E28  00009012             mflo $18
8192	7E2C  AFB20000             sw $18, 0($29)
8193	7E30  00009010             mfhi $18
8194	7E34  AFB20000             sw $18, 0($29)
8195	7E38  0C003102             jal increment_offset
8196	7E3C  3C021999             lui $2, 6553
8197	7E40  3442999A             ori $2, $2, 39322
8198	7E44  3C033000             lui $3, 12288
8199	7E48  34630000             ori $3, $3, 0
8200	7E4C  00430019             multu $2, $3
8201	7E50  00009012             mflo $18
8202	7E54  AFB20000             sw $18, 0($29)
8203	7E58  00009010             mfhi $18
8204	7E5C  AFB20000             sw $18, 0($29)
8205	7E60  0C003102             jal increment_offset
8206	7E64  3C023536             lui $2, 13622
8207	7E68  34426666             ori $2, $2, 26214
8208	7E6C  3C033000             lui $3, 12288
8209	7E70  34630000             ori $3, $3, 0
8210	7E74  00430019             multu $2, $3
8211	7E78  00009012             mflo $18
8212	7E7C  AFB20000             sw $18, 0($29)
8213	7E80  00009010             mfhi $18
8214	7E84  AFB20000             sw $18, 0($29)
8215	7E88  0C003102             jal increment_offset
8216	7E8C  3C024CD4             lui $2, 19668
8217	7E90  3442CCCB             ori $2, $2, 52427
8218	7E94  3C033000             lui $3, 12288
8219	7E98  34630000             ori $3, $3, 0
8220	7E9C  00430019             multu $2, $3
8221	7EA0  00009012             mflo $18
8222	7EA4  AFB20000             sw $18, 0($29)
8223	7EA8  00009010             mfhi $18
8224	7EAC  AFB20000             sw $18, 0($29)
8225	7EB0  0C003102             jal increment_offset
8226	7EB4  3C026773             lui $2, 26483
8227	7EB8  3442F337             ori $2, $2, 62263
8228	7EBC  3C033000             lui $3, 12288
8229	7EC0  34630000             ori $3, $3, 0
8230	7EC4  00430019             multu $2, $3
8231	7EC8  00009012             mflo $18
8232	7ECC  AFB20000             sw $18, 0($29)
8233	7ED0  00009010             mfhi $18
8234	7ED4  AFB20000             sw $18, 0($29)
8235	7ED8  0C003102             jal increment_offset
8236	7EDC  3C02FDDD             lui $2, 64989
8237	7EE0  34425EDF             ori $2, $2, 24287
8238	7EE4  3C033000             lui $3, 12288
8239	7EE8  34630000             ori $3, $3, 0
8240	7EEC  00430019             multu $2, $3
8241	7EF0  00009012             mflo $18
8242	7EF4  AFB20000             sw $18, 0($29)
8243	7EF8  00009010             mfhi $18
8244	7EFC  AFB20000             sw $18, 0($29)
8245	7F00  0C003102             jal increment_offset
8246	7F04  3C025666             lui $2, 22118
8247	7F08  3442BB6C             ori $2, $2, 47980
8248	7F0C  3C033000             lui $3, 12288
8249	7F10  34630000             ori $3, $3, 0
8250	7F14  00430019             multu $2, $3
8251	7F18  00009012             mflo $18
8252	7F1C  AFB20000             sw $18, 0($29)
8253	7F20  00009010             mfhi $18
8254	7F24  AFB20000             sw $18, 0($29)
8255	7F28  0C003102             jal increment_offset
8256	7F2C  3C02AAAB             lui $2, 43691
8257	7F30  344215B3             ori $2, $2, 5555
8258	7F34  3C033000             lui $3, 12288
8259	7F38  34630000             ori $3, $3, 0
8260	7F3C  00430019             multu $2, $3
8261	7F40  00009012             mflo $18
8262	7F44  AFB20000             sw $18, 0($29)
8263	7F48  00009010             mfhi $18
8264	7F4C  AFB20000             sw $18, 0($29)
8265	7F50  0C003102             jal increment_offset
8266	7F54  3C020000             lui $2, 0
8267	7F58  34420000             ori $2, $2, 0
8268	7F5C  3C036000             lui $3, 24576
8269	7F60  34630000             ori $3, $3, 0
8270	7F64  00430019             multu $2, $3
8271	7F68  00009012             mflo $18
8272	7F6C  AFB20000             sw $18, 0($29)
8273	7F70  00009010             mfhi $18
8274	7F74  AFB20000             sw $18, 0($29)
8275	7F78  0C003102             jal increment_offset
8276	7F7C  3C02AAAA             lui $2, 43690
8277	7F80  3442AAAA             ori $2, $2, 43690
8278	7F84  3C036000             lui $3, 24576
8279	7F88  34630000             ori $3, $3, 0
8280	7F8C  00430019             multu $2, $3
8281	7F90  00009012             mflo $18
8282	7F94  AFB20000             sw $18, 0($29)
8283	7F98  00009010             mfhi $18
8284	7F9C  AFB20000             sw $18, 0($29)
8285	7FA0  0C003102             jal increment_offset
8286	7FA4  3C02D34D             lui $2, 54093
8287	7FA8  34425555             ori $2, $2, 21845
8288	7FAC  3C036000             lui $3, 24576
8289	7FB0  34630000             ori $3, $3, 0
8290	7FB4  00430019             multu $2, $3
8291	7FB8  00009012             mflo $18
8292	7FBC  AFB20000             sw $18, 0($29)
8293	7FC0  00009010             mfhi $18
8294	7FC4  AFB20000             sw $18, 0($29)
8295	7FC8  0C003102             jal increment_offset
8296	7FCC  3C021999             lui $2, 6553
8297	7FD0  3442999A             ori $2, $2, 39322
8298	7FD4  3C036000             lui $3, 24576
8299	7FD8  34630000             ori $3, $3, 0
8300	7FDC  00430019             multu $2, $3
8301	7FE0  00009012             mflo $18
8302	7FE4  AFB20000             sw $18, 0($29)
8303	7FE8  00009010             mfhi $18
8304	7FEC  AFB20000             sw $18, 0($29)
8305	7FF0  0C003102             jal increment_offset
8306	7FF4  3C023536             lui $2, 13622
8307	7FF8  34426666             ori $2, $2, 26214
8308	7FFC  3C036000             lui $3, 24576
8309	8000  34630000             ori $3, $3, 0
8310	8004  00430019             multu $2, $3
8311	8008  00009012             mflo $18
8312	800C  AFB20000             sw $18, 0($29)
8313	8010  00009010             mfhi $18
8314	8014  AFB20000             sw $18, 0($29)
8315	8018  0C003102             jal increment_offset
8316	801C  3C024CD4             lui $2, 19668
8317	8020  3442CCCB             ori $2, $2, 52427
8318	8024  3C036000             lui $3, 24576
8319	8028  34630000             ori $3, $3, 0
8320	802C  00430019             multu $2, $3
8321	8030  00009012             mflo $18
8322	8034  AFB20000             sw $18, 0($29)
8323	8038  00009010             mfhi $18
8324	803C  AFB20000             sw $18, 0($29)
8325	8040  0C003102             jal increment_offset
8326	8044  3C026773             lui $2, 26483
8327	8048  3442F337             ori $2, $2, 62263
8328	804C  3C036000             lui $3, 24576
8329	8050  34630000             ori $3, $3, 0
8330	8054  00430019             multu $2, $3
8331	8058  00009012             mflo $18
8332	805C  AFB20000             sw $18, 0($29)
8333	8060  00009010             mfhi $18
8334	8064  AFB20000             sw $18, 0($29)
8335	8068  0C003102             jal increment_offset
8336	806C  3C02FDDD             lui $2, 64989
8337	8070  34425EDF             ori $2, $2, 24287
8338	8074  3C036000             lui $3, 24576
8339	8078  34630000             ori $3, $3, 0
8340	807C  00430019             multu $2, $3
8341	8080  00009012             mflo $18
8342	8084  AFB20000             sw $18, 0($29)
8343	8088  00009010             mfhi $18
8344	808C  AFB20000             sw $18, 0($29)
8345	8090  0C003102             jal increment_offset
8346	8094  3C025666             lui $2, 22118
8347	8098  3442BB6C             ori $2, $2, 47980
8348	809C  3C036000             lui $3, 24576
8349	80A0  34630000             ori $3, $3, 0
8350	80A4  00430019             multu $2, $3
8351	80A8  00009012             mflo $18
8352	80AC  AFB20000             sw $18, 0($29)
8353	80B0  00009010             mfhi $18
8354	80B4  AFB20000             sw $18, 0($29)
8355	80B8  0C003102             jal increment_offset
8356	80BC  3C02AAAB             lui $2, 43691
8357	80C0  344215B3             ori $2, $2, 5555
8358	80C4  3C036000             lui $3, 24576
8359	80C8  34630000             ori $3, $3, 0
8360	80CC  00430019             multu $2, $3
8361	80D0  00009012             mflo $18
8362	80D4  AFB20000             sw $18, 0($29)
8363	80D8  00009010             mfhi $18
8364	80DC  AFB20000             sw $18, 0($29)
8365	80E0  0C003102             jal increment_offset
8366	80E4  3C020000             lui $2, 0
8367	80E8  34420000             ori $2, $2, 0
8368	80EC  3C03C000             lui $3, 49152
8369	80F0  34630000             ori $3, $3, 0
8370	80F4  00430019             multu $2, $3
8371	80F8  00009012             mflo $18
8372	80FC  AFB20000             sw $18, 0($29)
8373	8100  00009010             mfhi $18
8374	8104  AFB20000             sw $18, 0($29)
8375	8108  0C003102             jal increment_offset
8376	810C  3C02AAAA             lui $2, 43690
8377	8110  3442AAAA             ori $2, $2, 43690
8378	8114  3C03C000             lui $3, 49152
8379	8118  34630000             ori $3, $3, 0
8380	811C  00430019             multu $2, $3
8381	8120  00009012             mflo $18
8382	8124  AFB20000             sw $18, 0($29)
8383	8128  00009010             mfhi $18
8384	812C  AFB20000             sw $18, 0($29)
8385	8130  0C003102             jal increment_offset
8386	8134  3C02D34D             lui $2, 54093
8387	8138  34425555             ori $2, $2, 21845
8388	813C  3C03C000             lui $3, 49152
8389	8140  34630000             ori $3, $3, 0
8390	8144  00430019             multu $2, $3
8391	8148  00009012             mflo $18
8392	814C  AFB20000             sw $18, 0($29)
8393	8150  00009010             mfhi $18
8394	8154  AFB20000             sw $18, 0($29)
8395	8158  0C003102             jal increment_offset
8396	815C  3C021999             lui $2, 6553
8397	8160  3442999A             ori $2, $2, 39322
8398	8164  3C03C000             lui $3, 49152
8399	8168  34630000             ori $3, $3, 0
8400	816C  00430019             multu $2, $3
8401	8170  00009012             mflo $18
8402	8174  AFB20000             sw $18, 0($29)
8403	8178  00009010             mfhi $18
8404	817C  AFB20000             sw $18, 0($29)
8405	8180  0C003102             jal increment_offset
8406	8184  3C023536             lui $2, 13622
8407	8188  34426666             ori $2, $2, 26214
8408	818C  3C03C000             lui $3, 49152
8409	8190  34630000             ori $3, $3, 0
8410	8194  00430019             multu $2, $3
8411	8198  00009012             mflo $18
8412	819C  AFB20000             sw $18, 0($29)
8413	81A0  00009010             mfhi $18
8414	81A4  AFB20000             sw $18, 0($29)
8415	81A8  0C003102             jal increment_offset
8416	81AC  3C024CD4             lui $2, 19668
8417	81B0  3442CCCB             ori $2, $2, 52427
8418	81B4  3C03C000             lui $3, 49152
8419	81B8  34630000             ori $3, $3, 0
8420	81BC  00430019             multu $2, $3
8421	81C0  00009012             mflo $18
8422	81C4  AFB20000             sw $18, 0($29)
8423	81C8  00009010             mfhi $18
8424	81CC  AFB20000             sw $18, 0($29)
8425	81D0  0C003102             jal increment_offset
8426	81D4  3C026773             lui $2, 26483
8427	81D8  3442F337             ori $2, $2, 62263
8428	81DC  3C03C000             lui $3, 49152
8429	81E0  34630000             ori $3, $3, 0
8430	81E4  00430019             multu $2, $3
8431	81E8  00009012             mflo $18
8432	81EC  AFB20000             sw $18, 0($29)
8433	81F0  00009010             mfhi $18
8434	81F4  AFB20000             sw $18, 0($29)
8435	81F8  0C003102             jal increment_offset
8436	81FC  3C02FDDD             lui $2, 64989
8437	8200  34425EDF             ori $2, $2, 24287
8438	8204  3C03C000             lui $3, 49152
8439	8208  34630000             ori $3, $3, 0
8440	820C  00430019             multu $2, $3
8441	8210  00009012             mflo $18
8442	8214  AFB20000             sw $18, 0($29)
8443	8218  00009010             mfhi $18
8444	821C  AFB20000             sw $18, 0($29)
8445	8220  0C003102             jal increment_offset
8446	8224  3C025666             lui $2, 22118
8447	8228  3442BB6C             ori $2, $2, 47980
8448	822C  3C03C000             lui $3, 49152
8449	8230  34630000             ori $3, $3, 0
8450	8234  00430019             multu $2, $3
8451	8238  00009012             mflo $18
8452	823C  AFB20000             sw $18, 0($29)
8453	8240  00009010             mfhi $18
8454	8244  AFB20000             sw $18, 0($29)
8455	8248  0C003102             jal increment_offset
8456	824C  3C02AAAB             lui $2, 43691
8457	8250  344215B3             ori $2, $2, 5555
8458	8254  3C03C000             lui $3, 49152
8459	8258  34630000             ori $3, $3, 0
8460	825C  00430019             multu $2, $3
8461	8260  00009012             mflo $18
8462	8264  AFB20000             sw $18, 0($29)
8463	8268  00009010             mfhi $18
8464	826C  AFB20000             sw $18, 0($29)
8465	8270  0C003102             jal increment_offset
8466	                          
8467	8274  0C0030F8            jal reset_offsets
8468	                          operation_addiu:
8469	8278  0C0030F5             jal load_patterns
8470	827C  24525882             addiu $18, $2, 22658
8471	8280  AFB20000             sw $18, 0($29)
8472	8284  0C003102             jal increment_offset
8473	8288  0C0030F5             jal load_patterns
8474	828C  24528ACC             addiu $18, $2, 35532
8475	8290  AFB20000             sw $18, 0($29)
8476	8294  0C003102             jal increment_offset
8477	8298  0C0030F5             jal load_patterns
8478	829C  2452B085             addiu $18, $2, 45189
8479	82A0  AFB20000             sw $18, 0($29)
8480	82A4  0C003102             jal increment_offset
8481	82A8  0C0030F5             jal load_patterns
8482	82AC  2452D17E             addiu $18, $2, 53630
8483	82B0  AFB20000             sw $18, 0($29)
8484	82B4  0C003102             jal increment_offset
8485	82B8  0C0030F5             jal load_patterns
8486	82BC  2452C2E1             addiu $18, $2, 49889
8487	82C0  AFB20000             sw $18, 0($29)
8488	82C4  0C003102             jal increment_offset
8489	82C8  0C0030F5             jal load_patterns
8490	82CC  2452FC93             addiu $18, $2, 64659
8491	82D0  AFB20000             sw $18, 0($29)
8492	82D4  0C003102             jal increment_offset
8493	82D8  0C0030F5             jal load_patterns
8494	82DC  2452716A             addiu $18, $2, 29034
8495	82E0  AFB20000             sw $18, 0($29)
8496	82E4  0C003102             jal increment_offset
8497	82E8  0C0030F5             jal load_patterns
8498	82EC  24520238             addiu $18, $2, 568
8499	82F0  AFB20000             sw $18, 0($29)
8500	82F4  0C003102             jal increment_offset
8501	82F8  0C0030F5             jal load_patterns
8502	82FC  24522A22             addiu $18, $2, 10786
8503	8300  AFB20000             sw $18, 0($29)
8504	8304  0C003102             jal increment_offset
8505	8308  0C0030F5             jal load_patterns
8506	830C  2452C4E8             addiu $18, $2, 50408
8507	8310  AFB20000             sw $18, 0($29)
8508	8314  0C003102             jal increment_offset
8509	8318  0C0030F5             jal load_patterns
8510	831C  2452B14E             addiu $18, $2, 45390
8511	8320  AFB20000             sw $18, 0($29)
8512	8324  0C003102             jal increment_offset
8513	8328  0C0030F5             jal load_patterns
8514	832C  2452BB05             addiu $18, $2, 47877
8515	8330  AFB20000             sw $18, 0($29)
8516	8334  0C003102             jal increment_offset
8517	8338  0C0030F5             jal load_patterns
8518	833C  2452C7E4             addiu $18, $2, 51172
8519	8340  AFB20000             sw $18, 0($29)
8520	8344  0C003102             jal increment_offset
8521	8348  0C0030F5             jal load_patterns
8522	834C  24528748             addiu $18, $2, 34632
8523	8350  AFB20000             sw $18, 0($29)
8524	8354  0C003102             jal increment_offset
8525	8358  0C0030F5             jal load_patterns
8526	835C  2452BD11             addiu $18, $2, 48401
8527	8360  AFB20000             sw $18, 0($29)
8528	8364  0C003102             jal increment_offset
8529	8368  0C0030F5             jal load_patterns
8530	836C  24525773             addiu $18, $2, 22387
8531	8370  AFB20000             sw $18, 0($29)
8532	8374  0C003102             jal increment_offset
8533	8378  0C0030F5             jal load_patterns
8534	837C  24525CE1             addiu $18, $2, 23777
8535	8380  AFB20000             sw $18, 0($29)
8536	8384  0C003102             jal increment_offset
8537	8388  0C0030F5             jal load_patterns
8538	838C  2452A2BB             addiu $18, $2, 41659
8539	8390  AFB20000             sw $18, 0($29)
8540	8394  0C003102             jal increment_offset
8541	8398  0C0030F5             jal load_patterns
8542	839C  24528A40             addiu $18, $2, 35392
8543	83A0  AFB20000             sw $18, 0($29)
8544	83A4  0C003102             jal increment_offset
8545	83A8  0C0030F5             jal load_patterns
8546	83AC  2452BECB             addiu $18, $2, 48843
8547	83B0  AFB20000             sw $18, 0($29)
8548	83B4  0C003102             jal increment_offset
8549	83B8  0C0030F5             jal load_patterns
8550	83BC  2452295F             addiu $18, $2, 10591
8551	83C0  AFB20000             sw $18, 0($29)
8552	83C4  0C003102             jal increment_offset
8553	83C8  0C0030F5             jal load_patterns
8554	83CC  2452E5EC             addiu $18, $2, 58860
8555	83D0  AFB20000             sw $18, 0($29)
8556	83D4  0C003102             jal increment_offset
8557	83D8  0C0030F5             jal load_patterns
8558	83DC  2452AF25             addiu $18, $2, 44837
8559	83E0  AFB20000             sw $18, 0($29)
8560	83E4  0C003102             jal increment_offset
8561	83E8  0C0030F5             jal load_patterns
8562	83EC  245231D0             addiu $18, $2, 12752
8563	83F0  AFB20000             sw $18, 0($29)
8564	83F4  0C003102             jal increment_offset
8565	83F8  0C0030F5             jal load_patterns
8566	83FC  2452496F             addiu $18, $2, 18799
8567	8400  AFB20000             sw $18, 0($29)
8568	8404  0C003102             jal increment_offset
8569	8408  0C0030F5             jal load_patterns
8570	840C  24525592             addiu $18, $2, 21906
8571	8410  AFB20000             sw $18, 0($29)
8572	8414  0C003102             jal increment_offset
8573	8418  0C0030F5             jal load_patterns
8574	841C  24521900             addiu $18, $2, 6400
8575	8420  AFB20000             sw $18, 0($29)
8576	8424  0C003102             jal increment_offset
8577	8428  0C0030F5             jal load_patterns
8578	842C  245226DA             addiu $18, $2, 9946
8579	8430  AFB20000             sw $18, 0($29)
8580	8434  0C003102             jal increment_offset
8581	8438  0C0030F5             jal load_patterns
8582	843C  2452408A             addiu $18, $2, 16522
8583	8440  AFB20000             sw $18, 0($29)
8584	8444  0C003102             jal increment_offset
8585	8448  0C0030F5             jal load_patterns
8586	844C  2452297E             addiu $18, $2, 10622
8587	8450  AFB20000             sw $18, 0($29)
8588	8454  0C003102             jal increment_offset
8589	8458  0C0030F5             jal load_patterns
8590	845C  24522961             addiu $18, $2, 10593
8591	8460  AFB20000             sw $18, 0($29)
8592	8464  0C003102             jal increment_offset
8593	8468  0C0030F5             jal load_patterns
8594	846C  2452E80E             addiu $18, $2, 59406
8595	8470  AFB20000             sw $18, 0($29)
8596	8474  0C003102             jal increment_offset
8597	8478  0C0030F5             jal load_patterns
8598	847C  2452B202             addiu $18, $2, 45570
8599	8480  AFB20000             sw $18, 0($29)
8600	8484  0C003102             jal increment_offset
8601	8488  0C0030F5             jal load_patterns
8602	848C  24523388             addiu $18, $2, 13192
8603	8490  AFB20000             sw $18, 0($29)
8604	8494  0C003102             jal increment_offset
8605	8498  0C0030F5             jal load_patterns
8606	849C  245208DC             addiu $18, $2, 2268
8607	84A0  AFB20000             sw $18, 0($29)
8608	84A4  0C003102             jal increment_offset
8609	84A8  0C0030F5             jal load_patterns
8610	84AC  2452363B             addiu $18, $2, 13883
8611	84B0  AFB20000             sw $18, 0($29)
8612	84B4  0C003102             jal increment_offset
8613	84B8  0C0030F5             jal load_patterns
8614	84BC  2452CFF9             addiu $18, $2, 53241
8615	84C0  AFB20000             sw $18, 0($29)
8616	84C4  0C003102             jal increment_offset
8617	84C8  0C0030F5             jal load_patterns
8618	84CC  24524B2C             addiu $18, $2, 19244
8619	84D0  AFB20000             sw $18, 0($29)
8620	84D4  0C003102             jal increment_offset
8621	84D8  0C0030F5             jal load_patterns
8622	84DC  2452BE61             addiu $18, $2, 48737
8623	84E0  AFB20000             sw $18, 0($29)
8624	84E4  0C003102             jal increment_offset
8625	84E8  0C0030F5             jal load_patterns
8626	84EC  245209C4             addiu $18, $2, 2500
8627	84F0  AFB20000             sw $18, 0($29)
8628	84F4  0C003102             jal increment_offset
8629	84F8  0C0030F5             jal load_patterns
8630	84FC  245297A3             addiu $18, $2, 38819
8631	8500  AFB20000             sw $18, 0($29)
8632	8504  0C003102             jal increment_offset
8633	8508  0C0030F5             jal load_patterns
8634	850C  2452718A             addiu $18, $2, 29066
8635	8510  AFB20000             sw $18, 0($29)
8636	8514  0C003102             jal increment_offset
8637	8518  0C0030F5             jal load_patterns
8638	851C  2452E80D             addiu $18, $2, 59405
8639	8520  AFB20000             sw $18, 0($29)
8640	8524  0C003102             jal increment_offset
8641	8528  0C0030F5             jal load_patterns
8642	852C  2452514B             addiu $18, $2, 20811
8643	8530  AFB20000             sw $18, 0($29)
8644	8534  0C003102             jal increment_offset
8645	8538  0C0030F5             jal load_patterns
8646	853C  2452A44B             addiu $18, $2, 42059
8647	8540  AFB20000             sw $18, 0($29)
8648	8544  0C003102             jal increment_offset
8649	8548  0C0030F5             jal load_patterns
8650	854C  2452E758             addiu $18, $2, 59224
8651	8550  AFB20000             sw $18, 0($29)
8652	8554  0C003102             jal increment_offset
8653	8558  0C0030F5             jal load_patterns
8654	855C  24520FB8             addiu $18, $2, 4024
8655	8560  AFB20000             sw $18, 0($29)
8656	8564  0C003102             jal increment_offset
8657	8568  0C0030F5             jal load_patterns
8658	856C  24525C1B             addiu $18, $2, 23579
8659	8570  AFB20000             sw $18, 0($29)
8660	8574  0C003102             jal increment_offset
8661	8578  0C0030F5             jal load_patterns
8662	857C  24524474             addiu $18, $2, 17524
8663	8580  AFB20000             sw $18, 0($29)
8664	8584  0C003102             jal increment_offset
8665	8588  0C0030F5             jal load_patterns
8666	858C  2452EF1E             addiu $18, $2, 61214
8667	8590  AFB20000             sw $18, 0($29)
8668	8594  0C003102             jal increment_offset
8669	8598  0C0030F5             jal load_patterns
8670	859C  24523BC4             addiu $18, $2, 15300
8671	85A0  AFB20000             sw $18, 0($29)
8672	85A4  0C003102             jal increment_offset
8673	85A8  0C0030F5             jal load_patterns
8674	85AC  2452FD41             addiu $18, $2, 64833
8675	85B0  AFB20000             sw $18, 0($29)
8676	85B4  0C003102             jal increment_offset
8677	85B8  0C0030F5             jal load_patterns
8678	85BC  2452D65A             addiu $18, $2, 54874
8679	85C0  AFB20000             sw $18, 0($29)
8680	85C4  0C003102             jal increment_offset
8681	85C8  0C0030F5             jal load_patterns
8682	85CC  24520487             addiu $18, $2, 1159
8683	85D0  AFB20000             sw $18, 0($29)
8684	85D4  0C003102             jal increment_offset
8685	85D8  0C0030F5             jal load_patterns
8686	85DC  2452EF65             addiu $18, $2, 61285
8687	85E0  AFB20000             sw $18, 0($29)
8688	85E4  0C003102             jal increment_offset
8689	85E8  0C0030F5             jal load_patterns
8690	85EC  2452F2C3             addiu $18, $2, 62147
8691	85F0  AFB20000             sw $18, 0($29)
8692	85F4  0C003102             jal increment_offset
8693	85F8  0C0030F5             jal load_patterns
8694	85FC  24526076             addiu $18, $2, 24694
8695	8600  AFB20000             sw $18, 0($29)
8696	8604  0C003102             jal increment_offset
8697	8608  0C0030F5             jal load_patterns
8698	860C  2452214A             addiu $18, $2, 8522
8699	8610  AFB20000             sw $18, 0($29)
8700	8614  0C003102             jal increment_offset
8701	8618  0C0030F5             jal load_patterns
8702	861C  245268D6             addiu $18, $2, 26838
8703	8620  AFB20000             sw $18, 0($29)
8704	8624  0C003102             jal increment_offset
8705	8628  0C0030F5             jal load_patterns
8706	862C  2452E735             addiu $18, $2, 59189
8707	8630  AFB20000             sw $18, 0($29)
8708	8634  0C003102             jal increment_offset
8709	8638  0C0030F5             jal load_patterns
8710	863C  2452F756             addiu $18, $2, 63318
8711	8640  AFB20000             sw $18, 0($29)
8712	8644  0C003102             jal increment_offset
8713	8648  0C0030F5             jal load_patterns
8714	864C  2452E52D             addiu $18, $2, 58669
8715	8650  AFB20000             sw $18, 0($29)
8716	8654  0C003102             jal increment_offset
8717	8658  0C0030F5             jal load_patterns
8718	865C  24522369             addiu $18, $2, 9065
8719	8660  AFB20000             sw $18, 0($29)
8720	8664  0C003102             jal increment_offset
8721	8668  0C0030F5             jal load_patterns
8722	866C  2452DD91             addiu $18, $2, 56721
8723	8670  AFB20000             sw $18, 0($29)
8724	8674  0C003102             jal increment_offset
8725	8678  0C0030F5             jal load_patterns
8726	867C  2452D796             addiu $18, $2, 55190
8727	8680  AFB20000             sw $18, 0($29)
8728	8684  0C003102             jal increment_offset
8729	8688  0C0030F5             jal load_patterns
8730	868C  2452243B             addiu $18, $2, 9275
8731	8690  AFB20000             sw $18, 0($29)
8732	8694  0C003102             jal increment_offset
8733	8698  0C0030F5             jal load_patterns
8734	869C  2452EE83             addiu $18, $2, 61059
8735	86A0  AFB20000             sw $18, 0($29)
8736	86A4  0C003102             jal increment_offset
8737	86A8  0C0030F5             jal load_patterns
8738	86AC  24522678             addiu $18, $2, 9848
8739	86B0  AFB20000             sw $18, 0($29)
8740	86B4  0C003102             jal increment_offset
8741	86B8  0C0030F5             jal load_patterns
8742	86BC  2452F1A4             addiu $18, $2, 61860
8743	86C0  AFB20000             sw $18, 0($29)
8744	86C4  0C003102             jal increment_offset
8745	86C8  0C0030F5             jal load_patterns
8746	86CC  24520C78             addiu $18, $2, 3192
8747	86D0  AFB20000             sw $18, 0($29)
8748	86D4  0C003102             jal increment_offset
8749	86D8  0C0030F5             jal load_patterns
8750	86DC  245216A0             addiu $18, $2, 5792
8751	86E0  AFB20000             sw $18, 0($29)
8752	86E4  0C003102             jal increment_offset
8753	86E8  0C0030F5             jal load_patterns
8754	86EC  245247AE             addiu $18, $2, 18350
8755	86F0  AFB20000             sw $18, 0($29)
8756	86F4  0C003102             jal increment_offset
8757	86F8  0C0030F5             jal load_patterns
8758	86FC  24527FCF             addiu $18, $2, 32719
8759	8700  AFB20000             sw $18, 0($29)
8760	8704  0C003102             jal increment_offset
8761	8708  0C0030F5             jal load_patterns
8762	870C  2452B2CA             addiu $18, $2, 45770
8763	8710  AFB20000             sw $18, 0($29)
8764	8714  0C003102             jal increment_offset
8765	8718  0C0030F5             jal load_patterns
8766	871C  2452D7C2             addiu $18, $2, 55234
8767	8720  AFB20000             sw $18, 0($29)
8768	8724  0C003102             jal increment_offset
8769	8728  0C0030F5             jal load_patterns
8770	872C  2452AB79             addiu $18, $2, 43897
8771	8730  AFB20000             sw $18, 0($29)
8772	8734  0C003102             jal increment_offset
8773	8738  0C0030F5             jal load_patterns
8774	873C  24521694             addiu $18, $2, 5780
8775	8740  AFB20000             sw $18, 0($29)
8776	8744  0C003102             jal increment_offset
8777	8748  0C0030F5             jal load_patterns
8778	874C  24522705             addiu $18, $2, 9989
8779	8750  AFB20000             sw $18, 0($29)
8780	8754  0C003102             jal increment_offset
8781	8758  0C0030F5             jal load_patterns
8782	875C  24525A79             addiu $18, $2, 23161
8783	8760  AFB20000             sw $18, 0($29)
8784	8764  0C003102             jal increment_offset
8785	8768  0C0030F5             jal load_patterns
8786	876C  24520CA2             addiu $18, $2, 3234
8787	8770  AFB20000             sw $18, 0($29)
8788	8774  0C003102             jal increment_offset
8789	8778  0C0030F5             jal load_patterns
8790	877C  24525B63             addiu $18, $2, 23395
8791	8780  AFB20000             sw $18, 0($29)
8792	8784  0C003102             jal increment_offset
8793	8788  0C0030F5             jal load_patterns
8794	878C  24521960             addiu $18, $2, 6496
8795	8790  AFB20000             sw $18, 0($29)
8796	8794  0C003102             jal increment_offset
8797	8798  0C0030F5             jal load_patterns
8798	879C  245242B3             addiu $18, $2, 17075
8799	87A0  AFB20000             sw $18, 0($29)
8800	87A4  0C003102             jal increment_offset
8801	87A8  0C0030F5             jal load_patterns
8802	87AC  245209AE             addiu $18, $2, 2478
8803	87B0  AFB20000             sw $18, 0($29)
8804	87B4  0C003102             jal increment_offset
8805	87B8  0C0030F5             jal load_patterns
8806	87BC  24520AD1             addiu $18, $2, 2769
8807	87C0  AFB20000             sw $18, 0($29)
8808	87C4  0C003102             jal increment_offset
8809	87C8  0C0030F5             jal load_patterns
8810	87CC  2452862C             addiu $18, $2, 34348
8811	87D0  AFB20000             sw $18, 0($29)
8812	87D4  0C003102             jal increment_offset
8813	87D8  0C0030F5             jal load_patterns
8814	87DC  2452BC7A             addiu $18, $2, 48250
8815	87E0  AFB20000             sw $18, 0($29)
8816	87E4  0C003102             jal increment_offset
8817	87E8  0C0030F5             jal load_patterns
8818	87EC  24520A38             addiu $18, $2, 2616
8819	87F0  AFB20000             sw $18, 0($29)
8820	87F4  0C003102             jal increment_offset
8821	87F8  0C0030F5             jal load_patterns
8822	87FC  24526C0C             addiu $18, $2, 27660
8823	8800  AFB20000             sw $18, 0($29)
8824	8804  0C003102             jal increment_offset
8825	8808  0C0030F5             jal load_patterns
8826	880C  24523752             addiu $18, $2, 14162
8827	8810  AFB20000             sw $18, 0($29)
8828	8814  0C003102             jal increment_offset
8829	8818  0C0030F5             jal load_patterns
8830	881C  24520B96             addiu $18, $2, 2966
8831	8820  AFB20000             sw $18, 0($29)
8832	8824  0C003102             jal increment_offset
8833	8828  0C0030F5             jal load_patterns
8834	882C  2452FF35             addiu $18, $2, 65333
8835	8830  AFB20000             sw $18, 0($29)
8836	8834  0C003102             jal increment_offset
8837	8838  0C0030F5             jal load_patterns
8838	883C  2452C583             addiu $18, $2, 50563
8839	8840  AFB20000             sw $18, 0($29)
8840	8844  0C003102             jal increment_offset
8841	8848  0C0030F5             jal load_patterns
8842	884C  24528FC7             addiu $18, $2, 36807
8843	8850  AFB20000             sw $18, 0($29)
8844	8854  0C003102             jal increment_offset
8845	8858  0C0030F5             jal load_patterns
8846	885C  2452AF83             addiu $18, $2, 44931
8847	8860  AFB20000             sw $18, 0($29)
8848	8864  0C003102             jal increment_offset
8849	8868  0C0030F5             jal load_patterns
8850	886C  24520979             addiu $18, $2, 2425
8851	8870  AFB20000             sw $18, 0($29)
8852	8874  0C003102             jal increment_offset
8853	8878  0C0030F5             jal load_patterns
8854	887C  245283DF             addiu $18, $2, 33759
8855	8880  AFB20000             sw $18, 0($29)
8856	8884  0C003102             jal increment_offset
8857	8888  0C0030F5             jal load_patterns
8858	888C  245220AB             addiu $18, $2, 8363
8859	8890  AFB20000             sw $18, 0($29)
8860	8894  0C003102             jal increment_offset
8861	8898  0C0030F5             jal load_patterns
8862	889C  245241D2             addiu $18, $2, 16850
8863	88A0  AFB20000             sw $18, 0($29)
8864	88A4  0C003102             jal increment_offset
8865	88A8  0C0030F5             jal load_patterns
8866	88AC  2452136F             addiu $18, $2, 4975
8867	88B0  AFB20000             sw $18, 0($29)
8868	88B4  0C003102             jal increment_offset
8869	88B8  0C0030F5             jal load_patterns
8870	88BC  2452C45C             addiu $18, $2, 50268
8871	88C0  AFB20000             sw $18, 0($29)
8872	88C4  0C003102             jal increment_offset
8873	88C8  0C0030F5             jal load_patterns
8874	88CC  2452F089             addiu $18, $2, 61577
8875	88D0  AFB20000             sw $18, 0($29)
8876	88D4  0C003102             jal increment_offset
8877	88D8  0C0030F5             jal load_patterns
8878	88DC  245221EF             addiu $18, $2, 8687
8879	88E0  AFB20000             sw $18, 0($29)
8880	88E4  0C003102             jal increment_offset
8881	88E8  0C0030F5             jal load_patterns
8882	88EC  245289F7             addiu $18, $2, 35319
8883	88F0  AFB20000             sw $18, 0($29)
8884	88F4  0C003102             jal increment_offset
8885	88F8  0C0030F5             jal load_patterns
8886	88FC  2452E4A8             addiu $18, $2, 58536
8887	8900  AFB20000             sw $18, 0($29)
8888	8904  0C003102             jal increment_offset
8889	8908  0C0030F5             jal load_patterns
8890	890C  245204C3             addiu $18, $2, 1219
8891	8910  AFB20000             sw $18, 0($29)
8892	8914  0C003102             jal increment_offset
8893	8918  0C0030F5             jal load_patterns
8894	891C  2452F64F             addiu $18, $2, 63055
8895	8920  AFB20000             sw $18, 0($29)
8896	8924  0C003102             jal increment_offset
8897	8928  0C0030F5             jal load_patterns
8898	892C  2452BF22             addiu $18, $2, 48930
8899	8930  AFB20000             sw $18, 0($29)
8900	8934  0C003102             jal increment_offset
8901	8938  0C0030F5             jal load_patterns
8902	893C  24520E40             addiu $18, $2, 3648
8903	8940  AFB20000             sw $18, 0($29)
8904	8944  0C003102             jal increment_offset
8905	8948  0C0030F5             jal load_patterns
8906	894C  2452FC4C             addiu $18, $2, 64588
8907	8950  AFB20000             sw $18, 0($29)
8908	8954  0C003102             jal increment_offset
8909	8958  0C0030F5             jal load_patterns
8910	895C  2452DFD6             addiu $18, $2, 57302
8911	8960  AFB20000             sw $18, 0($29)
8912	8964  0C003102             jal increment_offset
8913	8968  0C0030F5             jal load_patterns
8914	896C  245213F3             addiu $18, $2, 5107
8915	8970  AFB20000             sw $18, 0($29)
8916	8974  0C003102             jal increment_offset
8917	8978  0C0030F5             jal load_patterns
8918	897C  2452178C             addiu $18, $2, 6028
8919	8980  AFB20000             sw $18, 0($29)
8920	8984  0C003102             jal increment_offset
8921	8988  0C0030F5             jal load_patterns
8922	898C  24522820             addiu $18, $2, 10272
8923	8990  AFB20000             sw $18, 0($29)
8924	8994  0C003102             jal increment_offset
8925	8998  0C0030F5             jal load_patterns
8926	899C  245231BA             addiu $18, $2, 12730
8927	89A0  AFB20000             sw $18, 0($29)
8928	89A4  0C003102             jal increment_offset
8929	89A8  0C0030F5             jal load_patterns
8930	89AC  245235D9             addiu $18, $2, 13785
8931	89B0  AFB20000             sw $18, 0($29)
8932	89B4  0C003102             jal increment_offset
8933	89B8  0C0030F5             jal load_patterns
8934	89BC  24526840             addiu $18, $2, 26688
8935	89C0  AFB20000             sw $18, 0($29)
8936	89C4  0C003102             jal increment_offset
8937	89C8  0C0030F5             jal load_patterns
8938	89CC  245241A4             addiu $18, $2, 16804
8939	89D0  AFB20000             sw $18, 0($29)
8940	89D4  0C003102             jal increment_offset
8941	89D8  0C0030F5             jal load_patterns
8942	89DC  245209D8             addiu $18, $2, 2520
8943	89E0  AFB20000             sw $18, 0($29)
8944	89E4  0C003102             jal increment_offset
8945	89E8  0C0030F5             jal load_patterns
8946	89EC  2452689A             addiu $18, $2, 26778
8947	89F0  AFB20000             sw $18, 0($29)
8948	89F4  0C003102             jal increment_offset
8949	89F8  0C0030F5             jal load_patterns
8950	89FC  24523D60             addiu $18, $2, 15712
8951	8A00  AFB20000             sw $18, 0($29)
8952	8A04  0C003102             jal increment_offset
8953	8A08  0C0030F5             jal load_patterns
8954	8A0C  24523C13             addiu $18, $2, 15379
8955	8A10  AFB20000             sw $18, 0($29)
8956	8A14  0C003102             jal increment_offset
8957	8A18  0C0030F5             jal load_patterns
8958	8A1C  2452327E             addiu $18, $2, 12926
8959	8A20  AFB20000             sw $18, 0($29)
8960	8A24  0C003102             jal increment_offset
8961	8A28  0C0030F5             jal load_patterns
8962	8A2C  2452AC2A             addiu $18, $2, 44074
8963	8A30  AFB20000             sw $18, 0($29)
8964	8A34  0C003102             jal increment_offset
8965	8A38  0C0030F5             jal load_patterns
8966	8A3C  24528AB0             addiu $18, $2, 35504
8967	8A40  AFB20000             sw $18, 0($29)
8968	8A44  0C003102             jal increment_offset
8969	8A48  0C0030F5             jal load_patterns
8970	8A4C  245267F0             addiu $18, $2, 26608
8971	8A50  AFB20000             sw $18, 0($29)
8972	8A54  0C003102             jal increment_offset
8973	8A58  0C0030F5             jal load_patterns
8974	8A5C  2452E0BC             addiu $18, $2, 57532
8975	8A60  AFB20000             sw $18, 0($29)
8976	8A64  0C003102             jal increment_offset
8977	8A68  0C0030F5             jal load_patterns
8978	8A6C  2452F069             addiu $18, $2, 61545
8979	8A70  AFB20000             sw $18, 0($29)
8980	8A74  0C003102             jal increment_offset
8981	8A78  0C0030F5             jal load_patterns
8982	8A7C  2452A7C4             addiu $18, $2, 42948
8983	8A80  AFB20000             sw $18, 0($29)
8984	8A84  0C003102             jal increment_offset
8985	8A88  0C0030F5             jal load_patterns
8986	8A8C  2452962D             addiu $18, $2, 38445
8987	8A90  AFB20000             sw $18, 0($29)
8988	8A94  0C003102             jal increment_offset
8989	8A98  0C0030F5             jal load_patterns
8990	8A9C  24525F66             addiu $18, $2, 24422
8991	8AA0  AFB20000             sw $18, 0($29)
8992	8AA4  0C003102             jal increment_offset
8993	8AA8  0C0030F5             jal load_patterns
8994	8AAC  24527D0A             addiu $18, $2, 32010
8995	8AB0  AFB20000             sw $18, 0($29)
8996	8AB4  0C003102             jal increment_offset
8997	8AB8  0C0030F5             jal load_patterns
8998	8ABC  24526877             addiu $18, $2, 26743
8999	8AC0  AFB20000             sw $18, 0($29)
9000	8AC4  0C003102             jal increment_offset
9001	8AC8  0C0030F5             jal load_patterns
9002	8ACC  24520F02             addiu $18, $2, 3842
9003	8AD0  AFB20000             sw $18, 0($29)
9004	8AD4  0C003102             jal increment_offset
9005	8AD8  0C0030F5             jal load_patterns
9006	8ADC  2452C9FF             addiu $18, $2, 51711
9007	8AE0  AFB20000             sw $18, 0($29)
9008	8AE4  0C003102             jal increment_offset
9009	8AE8  0C0030F5             jal load_patterns
9010	8AEC  2452CCC9             addiu $18, $2, 52425
9011	8AF0  AFB20000             sw $18, 0($29)
9012	8AF4  0C003102             jal increment_offset
9013	8AF8  0C0030F5             jal load_patterns
9014	8AFC  245276A5             addiu $18, $2, 30373
9015	8B00  AFB20000             sw $18, 0($29)
9016	8B04  0C003102             jal increment_offset
9017	8B08  0C0030F5             jal load_patterns
9018	8B0C  2452481D             addiu $18, $2, 18461
9019	8B10  AFB20000             sw $18, 0($29)
9020	8B14  0C003102             jal increment_offset
9021	8B18  0C0030F5             jal load_patterns
9022	8B1C  24527869             addiu $18, $2, 30825
9023	8B20  AFB20000             sw $18, 0($29)
9024	8B24  0C003102             jal increment_offset
9025	8B28  0C0030F5             jal load_patterns
9026	8B2C  2452B7FC             addiu $18, $2, 47100
9027	8B30  AFB20000             sw $18, 0($29)
9028	8B34  0C003102             jal increment_offset
9029	8B38  0C0030F5             jal load_patterns
9030	8B3C  245222E0             addiu $18, $2, 8928
9031	8B40  AFB20000             sw $18, 0($29)
9032	8B44  0C003102             jal increment_offset
9033	8B48  0C0030F5             jal load_patterns
9034	8B4C  24524F3B             addiu $18, $2, 20283
9035	8B50  AFB20000             sw $18, 0($29)
9036	8B54  0C003102             jal increment_offset
9037	8B58  0C0030F5             jal load_patterns
9038	8B5C  245207A7             addiu $18, $2, 1959
9039	8B60  AFB20000             sw $18, 0($29)
9040	8B64  0C003102             jal increment_offset
9041	8B68  0C0030F5             jal load_patterns
9042	8B6C  2452C18E             addiu $18, $2, 49550
9043	8B70  AFB20000             sw $18, 0($29)
9044	8B74  0C003102             jal increment_offset
9045	8B78  0C0030F5             jal load_patterns
9046	8B7C  2452EDEF             addiu $18, $2, 60911
9047	8B80  AFB20000             sw $18, 0($29)
9048	8B84  0C003102             jal increment_offset
9049	8B88  0C0030F5             jal load_patterns
9050	8B8C  2452143C             addiu $18, $2, 5180
9051	8B90  AFB20000             sw $18, 0($29)
9052	8B94  0C003102             jal increment_offset
9053	8B98  0C0030F5             jal load_patterns
9054	8B9C  24524F69             addiu $18, $2, 20329
9055	8BA0  AFB20000             sw $18, 0($29)
9056	8BA4  0C003102             jal increment_offset
9057	8BA8  0C0030F5             jal load_patterns
9058	8BAC  245257D7             addiu $18, $2, 22487
9059	8BB0  AFB20000             sw $18, 0($29)
9060	8BB4  0C003102             jal increment_offset
9061	8BB8  0C0030F5             jal load_patterns
9062	8BBC  2452ED98             addiu $18, $2, 60824
9063	8BC0  AFB20000             sw $18, 0($29)
9064	8BC4  0C003102             jal increment_offset
9065	8BC8  0C0030F5             jal load_patterns
9066	8BCC  2452E7A5             addiu $18, $2, 59301
9067	8BD0  AFB20000             sw $18, 0($29)
9068	8BD4  0C003102             jal increment_offset
9069	8BD8  0C0030F5             jal load_patterns
9070	8BDC  24527B4F             addiu $18, $2, 31567
9071	8BE0  AFB20000             sw $18, 0($29)
9072	8BE4  0C003102             jal increment_offset
9073	8BE8  0C0030F5             jal load_patterns
9074	8BEC  24522E95             addiu $18, $2, 11925
9075	8BF0  AFB20000             sw $18, 0($29)
9076	8BF4  0C003102             jal increment_offset
9077	8BF8  0C0030F5             jal load_patterns
9078	8BFC  245273CF             addiu $18, $2, 29647
9079	8C00  AFB20000             sw $18, 0($29)
9080	8C04  0C003102             jal increment_offset
9081	8C08  0C0030F5             jal load_patterns
9082	8C0C  24526E7C             addiu $18, $2, 28284
9083	8C10  AFB20000             sw $18, 0($29)
9084	8C14  0C003102             jal increment_offset
9085	8C18  0C0030F5             jal load_patterns
9086	8C1C  2452DAE7             addiu $18, $2, 56039
9087	8C20  AFB20000             sw $18, 0($29)
9088	8C24  0C003102             jal increment_offset
9089	8C28  0C0030F5             jal load_patterns
9090	8C2C  24524CC2             addiu $18, $2, 19650
9091	8C30  AFB20000             sw $18, 0($29)
9092	8C34  0C003102             jal increment_offset
9093	8C38  0C0030F5             jal load_patterns
9094	8C3C  24524112             addiu $18, $2, 16658
9095	8C40  AFB20000             sw $18, 0($29)
9096	8C44  0C003102             jal increment_offset
9097	8C48  0C0030F5             jal load_patterns
9098	8C4C  2452CDD5             addiu $18, $2, 52693
9099	8C50  AFB20000             sw $18, 0($29)
9100	8C54  0C003102             jal increment_offset
9101	8C58  0C0030F5             jal load_patterns
9102	8C5C  24529EA8             addiu $18, $2, 40616
9103	8C60  AFB20000             sw $18, 0($29)
9104	8C64  0C003102             jal increment_offset
9105	8C68  0C0030F5             jal load_patterns
9106	8C6C  24528FD0             addiu $18, $2, 36816
9107	8C70  AFB20000             sw $18, 0($29)
9108	8C74  0C003102             jal increment_offset
9109	8C78  0C0030F5             jal load_patterns
9110	8C7C  24523149             addiu $18, $2, 12617
9111	8C80  AFB20000             sw $18, 0($29)
9112	8C84  0C003102             jal increment_offset
9113	8C88  0C0030F5             jal load_patterns
9114	8C8C  2452B261             addiu $18, $2, 45665
9115	8C90  AFB20000             sw $18, 0($29)
9116	8C94  0C003102             jal increment_offset
9117	8C98  0C0030F5             jal load_patterns
9118	8C9C  2452E219             addiu $18, $2, 57881
9119	8CA0  AFB20000             sw $18, 0($29)
9120	8CA4  0C003102             jal increment_offset
9121	8CA8  0C0030F5             jal load_patterns
9122	8CAC  2452A337             addiu $18, $2, 41783
9123	8CB0  AFB20000             sw $18, 0($29)
9124	8CB4  0C003102             jal increment_offset
9125	8CB8  0C0030F5             jal load_patterns
9126	8CBC  2452B60E             addiu $18, $2, 46606
9127	8CC0  AFB20000             sw $18, 0($29)
9128	8CC4  0C003102             jal increment_offset
9129	8CC8  0C0030F5             jal load_patterns
9130	8CCC  24527FBD             addiu $18, $2, 32701
9131	8CD0  AFB20000             sw $18, 0($29)
9132	8CD4  0C003102             jal increment_offset
9133	                          
9134	8CD8  0C0030F8            jal reset_offsets
9135	                          operation_andi:
9136	8CDC  0C0030F5             jal load_patterns
9137	8CE0  30525882             andi $18, $2, 22658
9138	8CE4  AFB20000             sw $18, 0($29)
9139	8CE8  0C003102             jal increment_offset
9140	8CEC  0C0030F5             jal load_patterns
9141	8CF0  30528ACC             andi $18, $2, 35532
9142	8CF4  AFB20000             sw $18, 0($29)
9143	8CF8  0C003102             jal increment_offset
9144	8CFC  0C0030F5             jal load_patterns
9145	8D00  3052B085             andi $18, $2, 45189
9146	8D04  AFB20000             sw $18, 0($29)
9147	8D08  0C003102             jal increment_offset
9148	8D0C  0C0030F5             jal load_patterns
9149	8D10  3052D17E             andi $18, $2, 53630
9150	8D14  AFB20000             sw $18, 0($29)
9151	8D18  0C003102             jal increment_offset
9152	8D1C  0C0030F5             jal load_patterns
9153	8D20  3052C2E1             andi $18, $2, 49889
9154	8D24  AFB20000             sw $18, 0($29)
9155	8D28  0C003102             jal increment_offset
9156	8D2C  0C0030F5             jal load_patterns
9157	8D30  3052FC93             andi $18, $2, 64659
9158	8D34  AFB20000             sw $18, 0($29)
9159	8D38  0C003102             jal increment_offset
9160	8D3C  0C0030F5             jal load_patterns
9161	8D40  3052716A             andi $18, $2, 29034
9162	8D44  AFB20000             sw $18, 0($29)
9163	8D48  0C003102             jal increment_offset
9164	8D4C  0C0030F5             jal load_patterns
9165	8D50  30520238             andi $18, $2, 568
9166	8D54  AFB20000             sw $18, 0($29)
9167	8D58  0C003102             jal increment_offset
9168	8D5C  0C0030F5             jal load_patterns
9169	8D60  30522A22             andi $18, $2, 10786
9170	8D64  AFB20000             sw $18, 0($29)
9171	8D68  0C003102             jal increment_offset
9172	8D6C  0C0030F5             jal load_patterns
9173	8D70  3052C4E8             andi $18, $2, 50408
9174	8D74  AFB20000             sw $18, 0($29)
9175	8D78  0C003102             jal increment_offset
9176	8D7C  0C0030F5             jal load_patterns
9177	8D80  3052B14E             andi $18, $2, 45390
9178	8D84  AFB20000             sw $18, 0($29)
9179	8D88  0C003102             jal increment_offset
9180	8D8C  0C0030F5             jal load_patterns
9181	8D90  3052BB05             andi $18, $2, 47877
9182	8D94  AFB20000             sw $18, 0($29)
9183	8D98  0C003102             jal increment_offset
9184	8D9C  0C0030F5             jal load_patterns
9185	8DA0  3052C7E4             andi $18, $2, 51172
9186	8DA4  AFB20000             sw $18, 0($29)
9187	8DA8  0C003102             jal increment_offset
9188	8DAC  0C0030F5             jal load_patterns
9189	8DB0  30528748             andi $18, $2, 34632
9190	8DB4  AFB20000             sw $18, 0($29)
9191	8DB8  0C003102             jal increment_offset
9192	8DBC  0C0030F5             jal load_patterns
9193	8DC0  3052BD11             andi $18, $2, 48401
9194	8DC4  AFB20000             sw $18, 0($29)
9195	8DC8  0C003102             jal increment_offset
9196	8DCC  0C0030F5             jal load_patterns
9197	8DD0  30525773             andi $18, $2, 22387
9198	8DD4  AFB20000             sw $18, 0($29)
9199	8DD8  0C003102             jal increment_offset
9200	8DDC  0C0030F5             jal load_patterns
9201	8DE0  30525CE1             andi $18, $2, 23777
9202	8DE4  AFB20000             sw $18, 0($29)
9203	8DE8  0C003102             jal increment_offset
9204	8DEC  0C0030F5             jal load_patterns
9205	8DF0  3052A2BB             andi $18, $2, 41659
9206	8DF4  AFB20000             sw $18, 0($29)
9207	8DF8  0C003102             jal increment_offset
9208	8DFC  0C0030F5             jal load_patterns
9209	8E00  30528A40             andi $18, $2, 35392
9210	8E04  AFB20000             sw $18, 0($29)
9211	8E08  0C003102             jal increment_offset
9212	8E0C  0C0030F5             jal load_patterns
9213	8E10  3052BECB             andi $18, $2, 48843
9214	8E14  AFB20000             sw $18, 0($29)
9215	8E18  0C003102             jal increment_offset
9216	8E1C  0C0030F5             jal load_patterns
9217	8E20  3052295F             andi $18, $2, 10591
9218	8E24  AFB20000             sw $18, 0($29)
9219	8E28  0C003102             jal increment_offset
9220	8E2C  0C0030F5             jal load_patterns
9221	8E30  3052E5EC             andi $18, $2, 58860
9222	8E34  AFB20000             sw $18, 0($29)
9223	8E38  0C003102             jal increment_offset
9224	8E3C  0C0030F5             jal load_patterns
9225	8E40  3052AF25             andi $18, $2, 44837
9226	8E44  AFB20000             sw $18, 0($29)
9227	8E48  0C003102             jal increment_offset
9228	8E4C  0C0030F5             jal load_patterns
9229	8E50  305231D0             andi $18, $2, 12752
9230	8E54  AFB20000             sw $18, 0($29)
9231	8E58  0C003102             jal increment_offset
9232	8E5C  0C0030F5             jal load_patterns
9233	8E60  3052496F             andi $18, $2, 18799
9234	8E64  AFB20000             sw $18, 0($29)
9235	8E68  0C003102             jal increment_offset
9236	8E6C  0C0030F5             jal load_patterns
9237	8E70  30525592             andi $18, $2, 21906
9238	8E74  AFB20000             sw $18, 0($29)
9239	8E78  0C003102             jal increment_offset
9240	8E7C  0C0030F5             jal load_patterns
9241	8E80  30521900             andi $18, $2, 6400
9242	8E84  AFB20000             sw $18, 0($29)
9243	8E88  0C003102             jal increment_offset
9244	8E8C  0C0030F5             jal load_patterns
9245	8E90  305226DA             andi $18, $2, 9946
9246	8E94  AFB20000             sw $18, 0($29)
9247	8E98  0C003102             jal increment_offset
9248	8E9C  0C0030F5             jal load_patterns
9249	8EA0  3052408A             andi $18, $2, 16522
9250	8EA4  AFB20000             sw $18, 0($29)
9251	8EA8  0C003102             jal increment_offset
9252	8EAC  0C0030F5             jal load_patterns
9253	8EB0  3052297E             andi $18, $2, 10622
9254	8EB4  AFB20000             sw $18, 0($29)
9255	8EB8  0C003102             jal increment_offset
9256	8EBC  0C0030F5             jal load_patterns
9257	8EC0  30522961             andi $18, $2, 10593
9258	8EC4  AFB20000             sw $18, 0($29)
9259	8EC8  0C003102             jal increment_offset
9260	8ECC  0C0030F5             jal load_patterns
9261	8ED0  3052E80E             andi $18, $2, 59406
9262	8ED4  AFB20000             sw $18, 0($29)
9263	8ED8  0C003102             jal increment_offset
9264	8EDC  0C0030F5             jal load_patterns
9265	8EE0  3052B202             andi $18, $2, 45570
9266	8EE4  AFB20000             sw $18, 0($29)
9267	8EE8  0C003102             jal increment_offset
9268	8EEC  0C0030F5             jal load_patterns
9269	8EF0  30523388             andi $18, $2, 13192
9270	8EF4  AFB20000             sw $18, 0($29)
9271	8EF8  0C003102             jal increment_offset
9272	8EFC  0C0030F5             jal load_patterns
9273	8F00  305208DC             andi $18, $2, 2268
9274	8F04  AFB20000             sw $18, 0($29)
9275	8F08  0C003102             jal increment_offset
9276	8F0C  0C0030F5             jal load_patterns
9277	8F10  3052363B             andi $18, $2, 13883
9278	8F14  AFB20000             sw $18, 0($29)
9279	8F18  0C003102             jal increment_offset
9280	8F1C  0C0030F5             jal load_patterns
9281	8F20  3052CFF9             andi $18, $2, 53241
9282	8F24  AFB20000             sw $18, 0($29)
9283	8F28  0C003102             jal increment_offset
9284	8F2C  0C0030F5             jal load_patterns
9285	8F30  30524B2C             andi $18, $2, 19244
9286	8F34  AFB20000             sw $18, 0($29)
9287	8F38  0C003102             jal increment_offset
9288	8F3C  0C0030F5             jal load_patterns
9289	8F40  3052BE61             andi $18, $2, 48737
9290	8F44  AFB20000             sw $18, 0($29)
9291	8F48  0C003102             jal increment_offset
9292	8F4C  0C0030F5             jal load_patterns
9293	8F50  305209C4             andi $18, $2, 2500
9294	8F54  AFB20000             sw $18, 0($29)
9295	8F58  0C003102             jal increment_offset
9296	8F5C  0C0030F5             jal load_patterns
9297	8F60  305297A3             andi $18, $2, 38819
9298	8F64  AFB20000             sw $18, 0($29)
9299	8F68  0C003102             jal increment_offset
9300	8F6C  0C0030F5             jal load_patterns
9301	8F70  3052718A             andi $18, $2, 29066
9302	8F74  AFB20000             sw $18, 0($29)
9303	8F78  0C003102             jal increment_offset
9304	8F7C  0C0030F5             jal load_patterns
9305	8F80  3052E80D             andi $18, $2, 59405
9306	8F84  AFB20000             sw $18, 0($29)
9307	8F88  0C003102             jal increment_offset
9308	8F8C  0C0030F5             jal load_patterns
9309	8F90  3052514B             andi $18, $2, 20811
9310	8F94  AFB20000             sw $18, 0($29)
9311	8F98  0C003102             jal increment_offset
9312	8F9C  0C0030F5             jal load_patterns
9313	8FA0  3052A44B             andi $18, $2, 42059
9314	8FA4  AFB20000             sw $18, 0($29)
9315	8FA8  0C003102             jal increment_offset
9316	8FAC  0C0030F5             jal load_patterns
9317	8FB0  3052E758             andi $18, $2, 59224
9318	8FB4  AFB20000             sw $18, 0($29)
9319	8FB8  0C003102             jal increment_offset
9320	8FBC  0C0030F5             jal load_patterns
9321	8FC0  30520FB8             andi $18, $2, 4024
9322	8FC4  AFB20000             sw $18, 0($29)
9323	8FC8  0C003102             jal increment_offset
9324	8FCC  0C0030F5             jal load_patterns
9325	8FD0  30525C1B             andi $18, $2, 23579
9326	8FD4  AFB20000             sw $18, 0($29)
9327	8FD8  0C003102             jal increment_offset
9328	8FDC  0C0030F5             jal load_patterns
9329	8FE0  30524474             andi $18, $2, 17524
9330	8FE4  AFB20000             sw $18, 0($29)
9331	8FE8  0C003102             jal increment_offset
9332	8FEC  0C0030F5             jal load_patterns
9333	8FF0  3052EF1E             andi $18, $2, 61214
9334	8FF4  AFB20000             sw $18, 0($29)
9335	8FF8  0C003102             jal increment_offset
9336	8FFC  0C0030F5             jal load_patterns
9337	9000  30523BC4             andi $18, $2, 15300
9338	9004  AFB20000             sw $18, 0($29)
9339	9008  0C003102             jal increment_offset
9340	900C  0C0030F5             jal load_patterns
9341	9010  3052FD41             andi $18, $2, 64833
9342	9014  AFB20000             sw $18, 0($29)
9343	9018  0C003102             jal increment_offset
9344	901C  0C0030F5             jal load_patterns
9345	9020  3052D65A             andi $18, $2, 54874
9346	9024  AFB20000             sw $18, 0($29)
9347	9028  0C003102             jal increment_offset
9348	902C  0C0030F5             jal load_patterns
9349	9030  30520487             andi $18, $2, 1159
9350	9034  AFB20000             sw $18, 0($29)
9351	9038  0C003102             jal increment_offset
9352	903C  0C0030F5             jal load_patterns
9353	9040  3052EF65             andi $18, $2, 61285
9354	9044  AFB20000             sw $18, 0($29)
9355	9048  0C003102             jal increment_offset
9356	904C  0C0030F5             jal load_patterns
9357	9050  3052F2C3             andi $18, $2, 62147
9358	9054  AFB20000             sw $18, 0($29)
9359	9058  0C003102             jal increment_offset
9360	905C  0C0030F5             jal load_patterns
9361	9060  30526076             andi $18, $2, 24694
9362	9064  AFB20000             sw $18, 0($29)
9363	9068  0C003102             jal increment_offset
9364	906C  0C0030F5             jal load_patterns
9365	9070  3052214A             andi $18, $2, 8522
9366	9074  AFB20000             sw $18, 0($29)
9367	9078  0C003102             jal increment_offset
9368	907C  0C0030F5             jal load_patterns
9369	9080  305268D6             andi $18, $2, 26838
9370	9084  AFB20000             sw $18, 0($29)
9371	9088  0C003102             jal increment_offset
9372	908C  0C0030F5             jal load_patterns
9373	9090  3052E735             andi $18, $2, 59189
9374	9094  AFB20000             sw $18, 0($29)
9375	9098  0C003102             jal increment_offset
9376	909C  0C0030F5             jal load_patterns
9377	90A0  3052F756             andi $18, $2, 63318
9378	90A4  AFB20000             sw $18, 0($29)
9379	90A8  0C003102             jal increment_offset
9380	90AC  0C0030F5             jal load_patterns
9381	90B0  3052E52D             andi $18, $2, 58669
9382	90B4  AFB20000             sw $18, 0($29)
9383	90B8  0C003102             jal increment_offset
9384	90BC  0C0030F5             jal load_patterns
9385	90C0  30522369             andi $18, $2, 9065
9386	90C4  AFB20000             sw $18, 0($29)
9387	90C8  0C003102             jal increment_offset
9388	90CC  0C0030F5             jal load_patterns
9389	90D0  3052DD91             andi $18, $2, 56721
9390	90D4  AFB20000             sw $18, 0($29)
9391	90D8  0C003102             jal increment_offset
9392	90DC  0C0030F5             jal load_patterns
9393	90E0  3052D796             andi $18, $2, 55190
9394	90E4  AFB20000             sw $18, 0($29)
9395	90E8  0C003102             jal increment_offset
9396	90EC  0C0030F5             jal load_patterns
9397	90F0  3052243B             andi $18, $2, 9275
9398	90F4  AFB20000             sw $18, 0($29)
9399	90F8  0C003102             jal increment_offset
9400	90FC  0C0030F5             jal load_patterns
9401	9100  3052EE83             andi $18, $2, 61059
9402	9104  AFB20000             sw $18, 0($29)
9403	9108  0C003102             jal increment_offset
9404	910C  0C0030F5             jal load_patterns
9405	9110  30522678             andi $18, $2, 9848
9406	9114  AFB20000             sw $18, 0($29)
9407	9118  0C003102             jal increment_offset
9408	911C  0C0030F5             jal load_patterns
9409	9120  3052F1A4             andi $18, $2, 61860
9410	9124  AFB20000             sw $18, 0($29)
9411	9128  0C003102             jal increment_offset
9412	912C  0C0030F5             jal load_patterns
9413	9130  30520C78             andi $18, $2, 3192
9414	9134  AFB20000             sw $18, 0($29)
9415	9138  0C003102             jal increment_offset
9416	913C  0C0030F5             jal load_patterns
9417	9140  305216A0             andi $18, $2, 5792
9418	9144  AFB20000             sw $18, 0($29)
9419	9148  0C003102             jal increment_offset
9420	914C  0C0030F5             jal load_patterns
9421	9150  305247AE             andi $18, $2, 18350
9422	9154  AFB20000             sw $18, 0($29)
9423	9158  0C003102             jal increment_offset
9424	915C  0C0030F5             jal load_patterns
9425	9160  30527FCF             andi $18, $2, 32719
9426	9164  AFB20000             sw $18, 0($29)
9427	9168  0C003102             jal increment_offset
9428	916C  0C0030F5             jal load_patterns
9429	9170  3052B2CA             andi $18, $2, 45770
9430	9174  AFB20000             sw $18, 0($29)
9431	9178  0C003102             jal increment_offset
9432	917C  0C0030F5             jal load_patterns
9433	9180  3052D7C2             andi $18, $2, 55234
9434	9184  AFB20000             sw $18, 0($29)
9435	9188  0C003102             jal increment_offset
9436	918C  0C0030F5             jal load_patterns
9437	9190  3052AB79             andi $18, $2, 43897
9438	9194  AFB20000             sw $18, 0($29)
9439	9198  0C003102             jal increment_offset
9440	919C  0C0030F5             jal load_patterns
9441	91A0  30521694             andi $18, $2, 5780
9442	91A4  AFB20000             sw $18, 0($29)
9443	91A8  0C003102             jal increment_offset
9444	91AC  0C0030F5             jal load_patterns
9445	91B0  30522705             andi $18, $2, 9989
9446	91B4  AFB20000             sw $18, 0($29)
9447	91B8  0C003102             jal increment_offset
9448	91BC  0C0030F5             jal load_patterns
9449	91C0  30525A79             andi $18, $2, 23161
9450	91C4  AFB20000             sw $18, 0($29)
9451	91C8  0C003102             jal increment_offset
9452	91CC  0C0030F5             jal load_patterns
9453	91D0  30520CA2             andi $18, $2, 3234
9454	91D4  AFB20000             sw $18, 0($29)
9455	91D8  0C003102             jal increment_offset
9456	91DC  0C0030F5             jal load_patterns
9457	91E0  30525B63             andi $18, $2, 23395
9458	91E4  AFB20000             sw $18, 0($29)
9459	91E8  0C003102             jal increment_offset
9460	91EC  0C0030F5             jal load_patterns
9461	91F0  30521960             andi $18, $2, 6496
9462	91F4  AFB20000             sw $18, 0($29)
9463	91F8  0C003102             jal increment_offset
9464	91FC  0C0030F5             jal load_patterns
9465	9200  305242B3             andi $18, $2, 17075
9466	9204  AFB20000             sw $18, 0($29)
9467	9208  0C003102             jal increment_offset
9468	920C  0C0030F5             jal load_patterns
9469	9210  305209AE             andi $18, $2, 2478
9470	9214  AFB20000             sw $18, 0($29)
9471	9218  0C003102             jal increment_offset
9472	921C  0C0030F5             jal load_patterns
9473	9220  30520AD1             andi $18, $2, 2769
9474	9224  AFB20000             sw $18, 0($29)
9475	9228  0C003102             jal increment_offset
9476	922C  0C0030F5             jal load_patterns
9477	9230  3052862C             andi $18, $2, 34348
9478	9234  AFB20000             sw $18, 0($29)
9479	9238  0C003102             jal increment_offset
9480	923C  0C0030F5             jal load_patterns
9481	9240  3052BC7A             andi $18, $2, 48250
9482	9244  AFB20000             sw $18, 0($29)
9483	9248  0C003102             jal increment_offset
9484	924C  0C0030F5             jal load_patterns
9485	9250  30520A38             andi $18, $2, 2616
9486	9254  AFB20000             sw $18, 0($29)
9487	9258  0C003102             jal increment_offset
9488	925C  0C0030F5             jal load_patterns
9489	9260  30526C0C             andi $18, $2, 27660
9490	9264  AFB20000             sw $18, 0($29)
9491	9268  0C003102             jal increment_offset
9492	926C  0C0030F5             jal load_patterns
9493	9270  30523752             andi $18, $2, 14162
9494	9274  AFB20000             sw $18, 0($29)
9495	9278  0C003102             jal increment_offset
9496	927C  0C0030F5             jal load_patterns
9497	9280  30520B96             andi $18, $2, 2966
9498	9284  AFB20000             sw $18, 0($29)
9499	9288  0C003102             jal increment_offset
9500	928C  0C0030F5             jal load_patterns
9501	9290  3052FF35             andi $18, $2, 65333
9502	9294  AFB20000             sw $18, 0($29)
9503	9298  0C003102             jal increment_offset
9504	929C  0C0030F5             jal load_patterns
9505	92A0  3052C583             andi $18, $2, 50563
9506	92A4  AFB20000             sw $18, 0($29)
9507	92A8  0C003102             jal increment_offset
9508	92AC  0C0030F5             jal load_patterns
9509	92B0  30528FC7             andi $18, $2, 36807
9510	92B4  AFB20000             sw $18, 0($29)
9511	92B8  0C003102             jal increment_offset
9512	92BC  0C0030F5             jal load_patterns
9513	92C0  3052AF83             andi $18, $2, 44931
9514	92C4  AFB20000             sw $18, 0($29)
9515	92C8  0C003102             jal increment_offset
9516	92CC  0C0030F5             jal load_patterns
9517	92D0  30520979             andi $18, $2, 2425
9518	92D4  AFB20000             sw $18, 0($29)
9519	92D8  0C003102             jal increment_offset
9520	92DC  0C0030F5             jal load_patterns
9521	92E0  305283DF             andi $18, $2, 33759
9522	92E4  AFB20000             sw $18, 0($29)
9523	92E8  0C003102             jal increment_offset
9524	92EC  0C0030F5             jal load_patterns
9525	92F0  305220AB             andi $18, $2, 8363
9526	92F4  AFB20000             sw $18, 0($29)
9527	92F8  0C003102             jal increment_offset
9528	92FC  0C0030F5             jal load_patterns
9529	9300  305241D2             andi $18, $2, 16850
9530	9304  AFB20000             sw $18, 0($29)
9531	9308  0C003102             jal increment_offset
9532	930C  0C0030F5             jal load_patterns
9533	9310  3052136F             andi $18, $2, 4975
9534	9314  AFB20000             sw $18, 0($29)
9535	9318  0C003102             jal increment_offset
9536	931C  0C0030F5             jal load_patterns
9537	9320  3052C45C             andi $18, $2, 50268
9538	9324  AFB20000             sw $18, 0($29)
9539	9328  0C003102             jal increment_offset
9540	932C  0C0030F5             jal load_patterns
9541	9330  3052F089             andi $18, $2, 61577
9542	9334  AFB20000             sw $18, 0($29)
9543	9338  0C003102             jal increment_offset
9544	933C  0C0030F5             jal load_patterns
9545	9340  305221EF             andi $18, $2, 8687
9546	9344  AFB20000             sw $18, 0($29)
9547	9348  0C003102             jal increment_offset
9548	934C  0C0030F5             jal load_patterns
9549	9350  305289F7             andi $18, $2, 35319
9550	9354  AFB20000             sw $18, 0($29)
9551	9358  0C003102             jal increment_offset
9552	935C  0C0030F5             jal load_patterns
9553	9360  3052E4A8             andi $18, $2, 58536
9554	9364  AFB20000             sw $18, 0($29)
9555	9368  0C003102             jal increment_offset
9556	936C  0C0030F5             jal load_patterns
9557	9370  305204C3             andi $18, $2, 1219
9558	9374  AFB20000             sw $18, 0($29)
9559	9378  0C003102             jal increment_offset
9560	937C  0C0030F5             jal load_patterns
9561	9380  3052F64F             andi $18, $2, 63055
9562	9384  AFB20000             sw $18, 0($29)
9563	9388  0C003102             jal increment_offset
9564	938C  0C0030F5             jal load_patterns
9565	9390  3052BF22             andi $18, $2, 48930
9566	9394  AFB20000             sw $18, 0($29)
9567	9398  0C003102             jal increment_offset
9568	939C  0C0030F5             jal load_patterns
9569	93A0  30520E40             andi $18, $2, 3648
9570	93A4  AFB20000             sw $18, 0($29)
9571	93A8  0C003102             jal increment_offset
9572	93AC  0C0030F5             jal load_patterns
9573	93B0  3052FC4C             andi $18, $2, 64588
9574	93B4  AFB20000             sw $18, 0($29)
9575	93B8  0C003102             jal increment_offset
9576	93BC  0C0030F5             jal load_patterns
9577	93C0  3052DFD6             andi $18, $2, 57302
9578	93C4  AFB20000             sw $18, 0($29)
9579	93C8  0C003102             jal increment_offset
9580	93CC  0C0030F5             jal load_patterns
9581	93D0  305213F3             andi $18, $2, 5107
9582	93D4  AFB20000             sw $18, 0($29)
9583	93D8  0C003102             jal increment_offset
9584	93DC  0C0030F5             jal load_patterns
9585	93E0  3052178C             andi $18, $2, 6028
9586	93E4  AFB20000             sw $18, 0($29)
9587	93E8  0C003102             jal increment_offset
9588	93EC  0C0030F5             jal load_patterns
9589	93F0  30522820             andi $18, $2, 10272
9590	93F4  AFB20000             sw $18, 0($29)
9591	93F8  0C003102             jal increment_offset
9592	93FC  0C0030F5             jal load_patterns
9593	9400  305231BA             andi $18, $2, 12730
9594	9404  AFB20000             sw $18, 0($29)
9595	9408  0C003102             jal increment_offset
9596	940C  0C0030F5             jal load_patterns
9597	9410  305235D9             andi $18, $2, 13785
9598	9414  AFB20000             sw $18, 0($29)
9599	9418  0C003102             jal increment_offset
9600	941C  0C0030F5             jal load_patterns
9601	9420  30526840             andi $18, $2, 26688
9602	9424  AFB20000             sw $18, 0($29)
9603	9428  0C003102             jal increment_offset
9604	942C  0C0030F5             jal load_patterns
9605	9430  305241A4             andi $18, $2, 16804
9606	9434  AFB20000             sw $18, 0($29)
9607	9438  0C003102             jal increment_offset
9608	943C  0C0030F5             jal load_patterns
9609	9440  305209D8             andi $18, $2, 2520
9610	9444  AFB20000             sw $18, 0($29)
9611	9448  0C003102             jal increment_offset
9612	944C  0C0030F5             jal load_patterns
9613	9450  3052689A             andi $18, $2, 26778
9614	9454  AFB20000             sw $18, 0($29)
9615	9458  0C003102             jal increment_offset
9616	945C  0C0030F5             jal load_patterns
9617	9460  30523D60             andi $18, $2, 15712
9618	9464  AFB20000             sw $18, 0($29)
9619	9468  0C003102             jal increment_offset
9620	946C  0C0030F5             jal load_patterns
9621	9470  30523C13             andi $18, $2, 15379
9622	9474  AFB20000             sw $18, 0($29)
9623	9478  0C003102             jal increment_offset
9624	947C  0C0030F5             jal load_patterns
9625	9480  3052327E             andi $18, $2, 12926
9626	9484  AFB20000             sw $18, 0($29)
9627	9488  0C003102             jal increment_offset
9628	948C  0C0030F5             jal load_patterns
9629	9490  3052AC2A             andi $18, $2, 44074
9630	9494  AFB20000             sw $18, 0($29)
9631	9498  0C003102             jal increment_offset
9632	949C  0C0030F5             jal load_patterns
9633	94A0  30528AB0             andi $18, $2, 35504
9634	94A4  AFB20000             sw $18, 0($29)
9635	94A8  0C003102             jal increment_offset
9636	94AC  0C0030F5             jal load_patterns
9637	94B0  305267F0             andi $18, $2, 26608
9638	94B4  AFB20000             sw $18, 0($29)
9639	94B8  0C003102             jal increment_offset
9640	94BC  0C0030F5             jal load_patterns
9641	94C0  3052E0BC             andi $18, $2, 57532
9642	94C4  AFB20000             sw $18, 0($29)
9643	94C8  0C003102             jal increment_offset
9644	94CC  0C0030F5             jal load_patterns
9645	94D0  3052F069             andi $18, $2, 61545
9646	94D4  AFB20000             sw $18, 0($29)
9647	94D8  0C003102             jal increment_offset
9648	94DC  0C0030F5             jal load_patterns
9649	94E0  3052A7C4             andi $18, $2, 42948
9650	94E4  AFB20000             sw $18, 0($29)
9651	94E8  0C003102             jal increment_offset
9652	94EC  0C0030F5             jal load_patterns
9653	94F0  3052962D             andi $18, $2, 38445
9654	94F4  AFB20000             sw $18, 0($29)
9655	94F8  0C003102             jal increment_offset
9656	94FC  0C0030F5             jal load_patterns
9657	9500  30525F66             andi $18, $2, 24422
9658	9504  AFB20000             sw $18, 0($29)
9659	9508  0C003102             jal increment_offset
9660	950C  0C0030F5             jal load_patterns
9661	9510  30527D0A             andi $18, $2, 32010
9662	9514  AFB20000             sw $18, 0($29)
9663	9518  0C003102             jal increment_offset
9664	951C  0C0030F5             jal load_patterns
9665	9520  30526877             andi $18, $2, 26743
9666	9524  AFB20000             sw $18, 0($29)
9667	9528  0C003102             jal increment_offset
9668	952C  0C0030F5             jal load_patterns
9669	9530  30520F02             andi $18, $2, 3842
9670	9534  AFB20000             sw $18, 0($29)
9671	9538  0C003102             jal increment_offset
9672	953C  0C0030F5             jal load_patterns
9673	9540  3052C9FF             andi $18, $2, 51711
9674	9544  AFB20000             sw $18, 0($29)
9675	9548  0C003102             jal increment_offset
9676	954C  0C0030F5             jal load_patterns
9677	9550  3052CCC9             andi $18, $2, 52425
9678	9554  AFB20000             sw $18, 0($29)
9679	9558  0C003102             jal increment_offset
9680	955C  0C0030F5             jal load_patterns
9681	9560  305276A5             andi $18, $2, 30373
9682	9564  AFB20000             sw $18, 0($29)
9683	9568  0C003102             jal increment_offset
9684	956C  0C0030F5             jal load_patterns
9685	9570  3052481D             andi $18, $2, 18461
9686	9574  AFB20000             sw $18, 0($29)
9687	9578  0C003102             jal increment_offset
9688	957C  0C0030F5             jal load_patterns
9689	9580  30527869             andi $18, $2, 30825
9690	9584  AFB20000             sw $18, 0($29)
9691	9588  0C003102             jal increment_offset
9692	958C  0C0030F5             jal load_patterns
9693	9590  3052B7FC             andi $18, $2, 47100
9694	9594  AFB20000             sw $18, 0($29)
9695	9598  0C003102             jal increment_offset
9696	959C  0C0030F5             jal load_patterns
9697	95A0  305222E0             andi $18, $2, 8928
9698	95A4  AFB20000             sw $18, 0($29)
9699	95A8  0C003102             jal increment_offset
9700	95AC  0C0030F5             jal load_patterns
9701	95B0  30524F3B             andi $18, $2, 20283
9702	95B4  AFB20000             sw $18, 0($29)
9703	95B8  0C003102             jal increment_offset
9704	95BC  0C0030F5             jal load_patterns
9705	95C0  305207A7             andi $18, $2, 1959
9706	95C4  AFB20000             sw $18, 0($29)
9707	95C8  0C003102             jal increment_offset
9708	95CC  0C0030F5             jal load_patterns
9709	95D0  3052C18E             andi $18, $2, 49550
9710	95D4  AFB20000             sw $18, 0($29)
9711	95D8  0C003102             jal increment_offset
9712	95DC  0C0030F5             jal load_patterns
9713	95E0  3052EDEF             andi $18, $2, 60911
9714	95E4  AFB20000             sw $18, 0($29)
9715	95E8  0C003102             jal increment_offset
9716	95EC  0C0030F5             jal load_patterns
9717	95F0  3052143C             andi $18, $2, 5180
9718	95F4  AFB20000             sw $18, 0($29)
9719	95F8  0C003102             jal increment_offset
9720	95FC  0C0030F5             jal load_patterns
9721	9600  30524F69             andi $18, $2, 20329
9722	9604  AFB20000             sw $18, 0($29)
9723	9608  0C003102             jal increment_offset
9724	960C  0C0030F5             jal load_patterns
9725	9610  305257D7             andi $18, $2, 22487
9726	9614  AFB20000             sw $18, 0($29)
9727	9618  0C003102             jal increment_offset
9728	961C  0C0030F5             jal load_patterns
9729	9620  3052ED98             andi $18, $2, 60824
9730	9624  AFB20000             sw $18, 0($29)
9731	9628  0C003102             jal increment_offset
9732	962C  0C0030F5             jal load_patterns
9733	9630  3052E7A5             andi $18, $2, 59301
9734	9634  AFB20000             sw $18, 0($29)
9735	9638  0C003102             jal increment_offset
9736	963C  0C0030F5             jal load_patterns
9737	9640  30527B4F             andi $18, $2, 31567
9738	9644  AFB20000             sw $18, 0($29)
9739	9648  0C003102             jal increment_offset
9740	964C  0C0030F5             jal load_patterns
9741	9650  30522E95             andi $18, $2, 11925
9742	9654  AFB20000             sw $18, 0($29)
9743	9658  0C003102             jal increment_offset
9744	965C  0C0030F5             jal load_patterns
9745	9660  305273CF             andi $18, $2, 29647
9746	9664  AFB20000             sw $18, 0($29)
9747	9668  0C003102             jal increment_offset
9748	966C  0C0030F5             jal load_patterns
9749	9670  30526E7C             andi $18, $2, 28284
9750	9674  AFB20000             sw $18, 0($29)
9751	9678  0C003102             jal increment_offset
9752	967C  0C0030F5             jal load_patterns
9753	9680  3052DAE7             andi $18, $2, 56039
9754	9684  AFB20000             sw $18, 0($29)
9755	9688  0C003102             jal increment_offset
9756	968C  0C0030F5             jal load_patterns
9757	9690  30524CC2             andi $18, $2, 19650
9758	9694  AFB20000             sw $18, 0($29)
9759	9698  0C003102             jal increment_offset
9760	969C  0C0030F5             jal load_patterns
9761	96A0  30524112             andi $18, $2, 16658
9762	96A4  AFB20000             sw $18, 0($29)
9763	96A8  0C003102             jal increment_offset
9764	96AC  0C0030F5             jal load_patterns
9765	96B0  3052CDD5             andi $18, $2, 52693
9766	96B4  AFB20000             sw $18, 0($29)
9767	96B8  0C003102             jal increment_offset
9768	96BC  0C0030F5             jal load_patterns
9769	96C0  30529EA8             andi $18, $2, 40616
9770	96C4  AFB20000             sw $18, 0($29)
9771	96C8  0C003102             jal increment_offset
9772	96CC  0C0030F5             jal load_patterns
9773	96D0  30528FD0             andi $18, $2, 36816
9774	96D4  AFB20000             sw $18, 0($29)
9775	96D8  0C003102             jal increment_offset
9776	96DC  0C0030F5             jal load_patterns
9777	96E0  30523149             andi $18, $2, 12617
9778	96E4  AFB20000             sw $18, 0($29)
9779	96E8  0C003102             jal increment_offset
9780	96EC  0C0030F5             jal load_patterns
9781	96F0  3052B261             andi $18, $2, 45665
9782	96F4  AFB20000             sw $18, 0($29)
9783	96F8  0C003102             jal increment_offset
9784	96FC  0C0030F5             jal load_patterns
9785	9700  3052E219             andi $18, $2, 57881
9786	9704  AFB20000             sw $18, 0($29)
9787	9708  0C003102             jal increment_offset
9788	970C  0C0030F5             jal load_patterns
9789	9710  3052A337             andi $18, $2, 41783
9790	9714  AFB20000             sw $18, 0($29)
9791	9718  0C003102             jal increment_offset
9792	971C  0C0030F5             jal load_patterns
9793	9720  3052B60E             andi $18, $2, 46606
9794	9724  AFB20000             sw $18, 0($29)
9795	9728  0C003102             jal increment_offset
9796	972C  0C0030F5             jal load_patterns
9797	9730  30527FBD             andi $18, $2, 32701
9798	9734  AFB20000             sw $18, 0($29)
9799	9738  0C003102             jal increment_offset
9800	                          
9801	973C  0C0030F8            jal reset_offsets
9802	                          operation_ori:
9803	9740  0C0030F5             jal load_patterns
9804	9744  34525882             ori $18, $2, 22658
9805	9748  AFB20000             sw $18, 0($29)
9806	974C  0C003102             jal increment_offset
9807	9750  0C0030F5             jal load_patterns
9808	9754  34528ACC             ori $18, $2, 35532
9809	9758  AFB20000             sw $18, 0($29)
9810	975C  0C003102             jal increment_offset
9811	9760  0C0030F5             jal load_patterns
9812	9764  3452B085             ori $18, $2, 45189
9813	9768  AFB20000             sw $18, 0($29)
9814	976C  0C003102             jal increment_offset
9815	9770  0C0030F5             jal load_patterns
9816	9774  3452D17E             ori $18, $2, 53630
9817	9778  AFB20000             sw $18, 0($29)
9818	977C  0C003102             jal increment_offset
9819	9780  0C0030F5             jal load_patterns
9820	9784  3452C2E1             ori $18, $2, 49889
9821	9788  AFB20000             sw $18, 0($29)
9822	978C  0C003102             jal increment_offset
9823	9790  0C0030F5             jal load_patterns
9824	9794  3452FC93             ori $18, $2, 64659
9825	9798  AFB20000             sw $18, 0($29)
9826	979C  0C003102             jal increment_offset
9827	97A0  0C0030F5             jal load_patterns
9828	97A4  3452716A             ori $18, $2, 29034
9829	97A8  AFB20000             sw $18, 0($29)
9830	97AC  0C003102             jal increment_offset
9831	97B0  0C0030F5             jal load_patterns
9832	97B4  34520238             ori $18, $2, 568
9833	97B8  AFB20000             sw $18, 0($29)
9834	97BC  0C003102             jal increment_offset
9835	97C0  0C0030F5             jal load_patterns
9836	97C4  34522A22             ori $18, $2, 10786
9837	97C8  AFB20000             sw $18, 0($29)
9838	97CC  0C003102             jal increment_offset
9839	97D0  0C0030F5             jal load_patterns
9840	97D4  3452C4E8             ori $18, $2, 50408
9841	97D8  AFB20000             sw $18, 0($29)
9842	97DC  0C003102             jal increment_offset
9843	97E0  0C0030F5             jal load_patterns
9844	97E4  3452B14E             ori $18, $2, 45390
9845	97E8  AFB20000             sw $18, 0($29)
9846	97EC  0C003102             jal increment_offset
9847	97F0  0C0030F5             jal load_patterns
9848	97F4  3452BB05             ori $18, $2, 47877
9849	97F8  AFB20000             sw $18, 0($29)
9850	97FC  0C003102             jal increment_offset
9851	9800  0C0030F5             jal load_patterns
9852	9804  3452C7E4             ori $18, $2, 51172
9853	9808  AFB20000             sw $18, 0($29)
9854	980C  0C003102             jal increment_offset
9855	9810  0C0030F5             jal load_patterns
9856	9814  34528748             ori $18, $2, 34632
9857	9818  AFB20000             sw $18, 0($29)
9858	981C  0C003102             jal increment_offset
9859	9820  0C0030F5             jal load_patterns
9860	9824  3452BD11             ori $18, $2, 48401
9861	9828  AFB20000             sw $18, 0($29)
9862	982C  0C003102             jal increment_offset
9863	9830  0C0030F5             jal load_patterns
9864	9834  34525773             ori $18, $2, 22387
9865	9838  AFB20000             sw $18, 0($29)
9866	983C  0C003102             jal increment_offset
9867	9840  0C0030F5             jal load_patterns
9868	9844  34525CE1             ori $18, $2, 23777
9869	9848  AFB20000             sw $18, 0($29)
9870	984C  0C003102             jal increment_offset
9871	9850  0C0030F5             jal load_patterns
9872	9854  3452A2BB             ori $18, $2, 41659
9873	9858  AFB20000             sw $18, 0($29)
9874	985C  0C003102             jal increment_offset
9875	9860  0C0030F5             jal load_patterns
9876	9864  34528A40             ori $18, $2, 35392
9877	9868  AFB20000             sw $18, 0($29)
9878	986C  0C003102             jal increment_offset
9879	9870  0C0030F5             jal load_patterns
9880	9874  3452BECB             ori $18, $2, 48843
9881	9878  AFB20000             sw $18, 0($29)
9882	987C  0C003102             jal increment_offset
9883	9880  0C0030F5             jal load_patterns
9884	9884  3452295F             ori $18, $2, 10591
9885	9888  AFB20000             sw $18, 0($29)
9886	988C  0C003102             jal increment_offset
9887	9890  0C0030F5             jal load_patterns
9888	9894  3452E5EC             ori $18, $2, 58860
9889	9898  AFB20000             sw $18, 0($29)
9890	989C  0C003102             jal increment_offset
9891	98A0  0C0030F5             jal load_patterns
9892	98A4  3452AF25             ori $18, $2, 44837
9893	98A8  AFB20000             sw $18, 0($29)
9894	98AC  0C003102             jal increment_offset
9895	98B0  0C0030F5             jal load_patterns
9896	98B4  345231D0             ori $18, $2, 12752
9897	98B8  AFB20000             sw $18, 0($29)
9898	98BC  0C003102             jal increment_offset
9899	98C0  0C0030F5             jal load_patterns
9900	98C4  3452496F             ori $18, $2, 18799
9901	98C8  AFB20000             sw $18, 0($29)
9902	98CC  0C003102             jal increment_offset
9903	98D0  0C0030F5             jal load_patterns
9904	98D4  34525592             ori $18, $2, 21906
9905	98D8  AFB20000             sw $18, 0($29)
9906	98DC  0C003102             jal increment_offset
9907	98E0  0C0030F5             jal load_patterns
9908	98E4  34521900             ori $18, $2, 6400
9909	98E8  AFB20000             sw $18, 0($29)
9910	98EC  0C003102             jal increment_offset
9911	98F0  0C0030F5             jal load_patterns
9912	98F4  345226DA             ori $18, $2, 9946
9913	98F8  AFB20000             sw $18, 0($29)
9914	98FC  0C003102             jal increment_offset
9915	9900  0C0030F5             jal load_patterns
9916	9904  3452408A             ori $18, $2, 16522
9917	9908  AFB20000             sw $18, 0($29)
9918	990C  0C003102             jal increment_offset
9919	9910  0C0030F5             jal load_patterns
9920	9914  3452297E             ori $18, $2, 10622
9921	9918  AFB20000             sw $18, 0($29)
9922	991C  0C003102             jal increment_offset
9923	9920  0C0030F5             jal load_patterns
9924	9924  34522961             ori $18, $2, 10593
9925	9928  AFB20000             sw $18, 0($29)
9926	992C  0C003102             jal increment_offset
9927	9930  0C0030F5             jal load_patterns
9928	9934  3452E80E             ori $18, $2, 59406
9929	9938  AFB20000             sw $18, 0($29)
9930	993C  0C003102             jal increment_offset
9931	9940  0C0030F5             jal load_patterns
9932	9944  3452B202             ori $18, $2, 45570
9933	9948  AFB20000             sw $18, 0($29)
9934	994C  0C003102             jal increment_offset
9935	9950  0C0030F5             jal load_patterns
9936	9954  34523388             ori $18, $2, 13192
9937	9958  AFB20000             sw $18, 0($29)
9938	995C  0C003102             jal increment_offset
9939	9960  0C0030F5             jal load_patterns
9940	9964  345208DC             ori $18, $2, 2268
9941	9968  AFB20000             sw $18, 0($29)
9942	996C  0C003102             jal increment_offset
9943	9970  0C0030F5             jal load_patterns
9944	9974  3452363B             ori $18, $2, 13883
9945	9978  AFB20000             sw $18, 0($29)
9946	997C  0C003102             jal increment_offset
9947	9980  0C0030F5             jal load_patterns
9948	9984  3452CFF9             ori $18, $2, 53241
9949	9988  AFB20000             sw $18, 0($29)
9950	998C  0C003102             jal increment_offset
9951	9990  0C0030F5             jal load_patterns
9952	9994  34524B2C             ori $18, $2, 19244
9953	9998  AFB20000             sw $18, 0($29)
9954	999C  0C003102             jal increment_offset
9955	99A0  0C0030F5             jal load_patterns
9956	99A4  3452BE61             ori $18, $2, 48737
9957	99A8  AFB20000             sw $18, 0($29)
9958	99AC  0C003102             jal increment_offset
9959	99B0  0C0030F5             jal load_patterns
9960	99B4  345209C4             ori $18, $2, 2500
9961	99B8  AFB20000             sw $18, 0($29)
9962	99BC  0C003102             jal increment_offset
9963	99C0  0C0030F5             jal load_patterns
9964	99C4  345297A3             ori $18, $2, 38819
9965	99C8  AFB20000             sw $18, 0($29)
9966	99CC  0C003102             jal increment_offset
9967	99D0  0C0030F5             jal load_patterns
9968	99D4  3452718A             ori $18, $2, 29066
9969	99D8  AFB20000             sw $18, 0($29)
9970	99DC  0C003102             jal increment_offset
9971	99E0  0C0030F5             jal load_patterns
9972	99E4  3452E80D             ori $18, $2, 59405
9973	99E8  AFB20000             sw $18, 0($29)
9974	99EC  0C003102             jal increment_offset
9975	99F0  0C0030F5             jal load_patterns
9976	99F4  3452514B             ori $18, $2, 20811
9977	99F8  AFB20000             sw $18, 0($29)
9978	99FC  0C003102             jal increment_offset
9979	9A00  0C0030F5             jal load_patterns
9980	9A04  3452A44B             ori $18, $2, 42059
9981	9A08  AFB20000             sw $18, 0($29)
9982	9A0C  0C003102             jal increment_offset
9983	9A10  0C0030F5             jal load_patterns
9984	9A14  3452E758             ori $18, $2, 59224
9985	9A18  AFB20000             sw $18, 0($29)
9986	9A1C  0C003102             jal increment_offset
9987	9A20  0C0030F5             jal load_patterns
9988	9A24  34520FB8             ori $18, $2, 4024
9989	9A28  AFB20000             sw $18, 0($29)
9990	9A2C  0C003102             jal increment_offset
9991	9A30  0C0030F5             jal load_patterns
9992	9A34  34525C1B             ori $18, $2, 23579
9993	9A38  AFB20000             sw $18, 0($29)
9994	9A3C  0C003102             jal increment_offset
9995	9A40  0C0030F5             jal load_patterns
9996	9A44  34524474             ori $18, $2, 17524
9997	9A48  AFB20000             sw $18, 0($29)
9998	9A4C  0C003102             jal increment_offset
9999	9A50  0C0030F5             jal load_patterns
10000	9A54  3452EF1E             ori $18, $2, 61214
10001	9A58  AFB20000             sw $18, 0($29)
10002	9A5C  0C003102             jal increment_offset
10003	9A60  0C0030F5             jal load_patterns
10004	9A64  34523BC4             ori $18, $2, 15300
10005	9A68  AFB20000             sw $18, 0($29)
10006	9A6C  0C003102             jal increment_offset
10007	9A70  0C0030F5             jal load_patterns
10008	9A74  3452FD41             ori $18, $2, 64833
10009	9A78  AFB20000             sw $18, 0($29)
10010	9A7C  0C003102             jal increment_offset
10011	9A80  0C0030F5             jal load_patterns
10012	9A84  3452D65A             ori $18, $2, 54874
10013	9A88  AFB20000             sw $18, 0($29)
10014	9A8C  0C003102             jal increment_offset
10015	9A90  0C0030F5             jal load_patterns
10016	9A94  34520487             ori $18, $2, 1159
10017	9A98  AFB20000             sw $18, 0($29)
10018	9A9C  0C003102             jal increment_offset
10019	9AA0  0C0030F5             jal load_patterns
10020	9AA4  3452EF65             ori $18, $2, 61285
10021	9AA8  AFB20000             sw $18, 0($29)
10022	9AAC  0C003102             jal increment_offset
10023	9AB0  0C0030F5             jal load_patterns
10024	9AB4  3452F2C3             ori $18, $2, 62147
10025	9AB8  AFB20000             sw $18, 0($29)
10026	9ABC  0C003102             jal increment_offset
10027	9AC0  0C0030F5             jal load_patterns
10028	9AC4  34526076             ori $18, $2, 24694
10029	9AC8  AFB20000             sw $18, 0($29)
10030	9ACC  0C003102             jal increment_offset
10031	9AD0  0C0030F5             jal load_patterns
10032	9AD4  3452214A             ori $18, $2, 8522
10033	9AD8  AFB20000             sw $18, 0($29)
10034	9ADC  0C003102             jal increment_offset
10035	9AE0  0C0030F5             jal load_patterns
10036	9AE4  345268D6             ori $18, $2, 26838
10037	9AE8  AFB20000             sw $18, 0($29)
10038	9AEC  0C003102             jal increment_offset
10039	9AF0  0C0030F5             jal load_patterns
10040	9AF4  3452E735             ori $18, $2, 59189
10041	9AF8  AFB20000             sw $18, 0($29)
10042	9AFC  0C003102             jal increment_offset
10043	9B00  0C0030F5             jal load_patterns
10044	9B04  3452F756             ori $18, $2, 63318
10045	9B08  AFB20000             sw $18, 0($29)
10046	9B0C  0C003102             jal increment_offset
10047	9B10  0C0030F5             jal load_patterns
10048	9B14  3452E52D             ori $18, $2, 58669
10049	9B18  AFB20000             sw $18, 0($29)
10050	9B1C  0C003102             jal increment_offset
10051	9B20  0C0030F5             jal load_patterns
10052	9B24  34522369             ori $18, $2, 9065
10053	9B28  AFB20000             sw $18, 0($29)
10054	9B2C  0C003102             jal increment_offset
10055	9B30  0C0030F5             jal load_patterns
10056	9B34  3452DD91             ori $18, $2, 56721
10057	9B38  AFB20000             sw $18, 0($29)
10058	9B3C  0C003102             jal increment_offset
10059	9B40  0C0030F5             jal load_patterns
10060	9B44  3452D796             ori $18, $2, 55190
10061	9B48  AFB20000             sw $18, 0($29)
10062	9B4C  0C003102             jal increment_offset
10063	9B50  0C0030F5             jal load_patterns
10064	9B54  3452243B             ori $18, $2, 9275
10065	9B58  AFB20000             sw $18, 0($29)
10066	9B5C  0C003102             jal increment_offset
10067	9B60  0C0030F5             jal load_patterns
10068	9B64  3452EE83             ori $18, $2, 61059
10069	9B68  AFB20000             sw $18, 0($29)
10070	9B6C  0C003102             jal increment_offset
10071	9B70  0C0030F5             jal load_patterns
10072	9B74  34522678             ori $18, $2, 9848
10073	9B78  AFB20000             sw $18, 0($29)
10074	9B7C  0C003102             jal increment_offset
10075	9B80  0C0030F5             jal load_patterns
10076	9B84  3452F1A4             ori $18, $2, 61860
10077	9B88  AFB20000             sw $18, 0($29)
10078	9B8C  0C003102             jal increment_offset
10079	9B90  0C0030F5             jal load_patterns
10080	9B94  34520C78             ori $18, $2, 3192
10081	9B98  AFB20000             sw $18, 0($29)
10082	9B9C  0C003102             jal increment_offset
10083	9BA0  0C0030F5             jal load_patterns
10084	9BA4  345216A0             ori $18, $2, 5792
10085	9BA8  AFB20000             sw $18, 0($29)
10086	9BAC  0C003102             jal increment_offset
10087	9BB0  0C0030F5             jal load_patterns
10088	9BB4  345247AE             ori $18, $2, 18350
10089	9BB8  AFB20000             sw $18, 0($29)
10090	9BBC  0C003102             jal increment_offset
10091	9BC0  0C0030F5             jal load_patterns
10092	9BC4  34527FCF             ori $18, $2, 32719
10093	9BC8  AFB20000             sw $18, 0($29)
10094	9BCC  0C003102             jal increment_offset
10095	9BD0  0C0030F5             jal load_patterns
10096	9BD4  3452B2CA             ori $18, $2, 45770
10097	9BD8  AFB20000             sw $18, 0($29)
10098	9BDC  0C003102             jal increment_offset
10099	9BE0  0C0030F5             jal load_patterns
10100	9BE4  3452D7C2             ori $18, $2, 55234
10101	9BE8  AFB20000             sw $18, 0($29)
10102	9BEC  0C003102             jal increment_offset
10103	9BF0  0C0030F5             jal load_patterns
10104	9BF4  3452AB79             ori $18, $2, 43897
10105	9BF8  AFB20000             sw $18, 0($29)
10106	9BFC  0C003102             jal increment_offset
10107	9C00  0C0030F5             jal load_patterns
10108	9C04  34521694             ori $18, $2, 5780
10109	9C08  AFB20000             sw $18, 0($29)
10110	9C0C  0C003102             jal increment_offset
10111	9C10  0C0030F5             jal load_patterns
10112	9C14  34522705             ori $18, $2, 9989
10113	9C18  AFB20000             sw $18, 0($29)
10114	9C1C  0C003102             jal increment_offset
10115	9C20  0C0030F5             jal load_patterns
10116	9C24  34525A79             ori $18, $2, 23161
10117	9C28  AFB20000             sw $18, 0($29)
10118	9C2C  0C003102             jal increment_offset
10119	9C30  0C0030F5             jal load_patterns
10120	9C34  34520CA2             ori $18, $2, 3234
10121	9C38  AFB20000             sw $18, 0($29)
10122	9C3C  0C003102             jal increment_offset
10123	9C40  0C0030F5             jal load_patterns
10124	9C44  34525B63             ori $18, $2, 23395
10125	9C48  AFB20000             sw $18, 0($29)
10126	9C4C  0C003102             jal increment_offset
10127	9C50  0C0030F5             jal load_patterns
10128	9C54  34521960             ori $18, $2, 6496
10129	9C58  AFB20000             sw $18, 0($29)
10130	9C5C  0C003102             jal increment_offset
10131	9C60  0C0030F5             jal load_patterns
10132	9C64  345242B3             ori $18, $2, 17075
10133	9C68  AFB20000             sw $18, 0($29)
10134	9C6C  0C003102             jal increment_offset
10135	9C70  0C0030F5             jal load_patterns
10136	9C74  345209AE             ori $18, $2, 2478
10137	9C78  AFB20000             sw $18, 0($29)
10138	9C7C  0C003102             jal increment_offset
10139	9C80  0C0030F5             jal load_patterns
10140	9C84  34520AD1             ori $18, $2, 2769
10141	9C88  AFB20000             sw $18, 0($29)
10142	9C8C  0C003102             jal increment_offset
10143	9C90  0C0030F5             jal load_patterns
10144	9C94  3452862C             ori $18, $2, 34348
10145	9C98  AFB20000             sw $18, 0($29)
10146	9C9C  0C003102             jal increment_offset
10147	9CA0  0C0030F5             jal load_patterns
10148	9CA4  3452BC7A             ori $18, $2, 48250
10149	9CA8  AFB20000             sw $18, 0($29)
10150	9CAC  0C003102             jal increment_offset
10151	9CB0  0C0030F5             jal load_patterns
10152	9CB4  34520A38             ori $18, $2, 2616
10153	9CB8  AFB20000             sw $18, 0($29)
10154	9CBC  0C003102             jal increment_offset
10155	9CC0  0C0030F5             jal load_patterns
10156	9CC4  34526C0C             ori $18, $2, 27660
10157	9CC8  AFB20000             sw $18, 0($29)
10158	9CCC  0C003102             jal increment_offset
10159	9CD0  0C0030F5             jal load_patterns
10160	9CD4  34523752             ori $18, $2, 14162
10161	9CD8  AFB20000             sw $18, 0($29)
10162	9CDC  0C003102             jal increment_offset
10163	9CE0  0C0030F5             jal load_patterns
10164	9CE4  34520B96             ori $18, $2, 2966
10165	9CE8  AFB20000             sw $18, 0($29)
10166	9CEC  0C003102             jal increment_offset
10167	9CF0  0C0030F5             jal load_patterns
10168	9CF4  3452FF35             ori $18, $2, 65333
10169	9CF8  AFB20000             sw $18, 0($29)
10170	9CFC  0C003102             jal increment_offset
10171	9D00  0C0030F5             jal load_patterns
10172	9D04  3452C583             ori $18, $2, 50563
10173	9D08  AFB20000             sw $18, 0($29)
10174	9D0C  0C003102             jal increment_offset
10175	9D10  0C0030F5             jal load_patterns
10176	9D14  34528FC7             ori $18, $2, 36807
10177	9D18  AFB20000             sw $18, 0($29)
10178	9D1C  0C003102             jal increment_offset
10179	9D20  0C0030F5             jal load_patterns
10180	9D24  3452AF83             ori $18, $2, 44931
10181	9D28  AFB20000             sw $18, 0($29)
10182	9D2C  0C003102             jal increment_offset
10183	9D30  0C0030F5             jal load_patterns
10184	9D34  34520979             ori $18, $2, 2425
10185	9D38  AFB20000             sw $18, 0($29)
10186	9D3C  0C003102             jal increment_offset
10187	9D40  0C0030F5             jal load_patterns
10188	9D44  345283DF             ori $18, $2, 33759
10189	9D48  AFB20000             sw $18, 0($29)
10190	9D4C  0C003102             jal increment_offset
10191	9D50  0C0030F5             jal load_patterns
10192	9D54  345220AB             ori $18, $2, 8363
10193	9D58  AFB20000             sw $18, 0($29)
10194	9D5C  0C003102             jal increment_offset
10195	9D60  0C0030F5             jal load_patterns
10196	9D64  345241D2             ori $18, $2, 16850
10197	9D68  AFB20000             sw $18, 0($29)
10198	9D6C  0C003102             jal increment_offset
10199	9D70  0C0030F5             jal load_patterns
10200	9D74  3452136F             ori $18, $2, 4975
10201	9D78  AFB20000             sw $18, 0($29)
10202	9D7C  0C003102             jal increment_offset
10203	9D80  0C0030F5             jal load_patterns
10204	9D84  3452C45C             ori $18, $2, 50268
10205	9D88  AFB20000             sw $18, 0($29)
10206	9D8C  0C003102             jal increment_offset
10207	9D90  0C0030F5             jal load_patterns
10208	9D94  3452F089             ori $18, $2, 61577
10209	9D98  AFB20000             sw $18, 0($29)
10210	9D9C  0C003102             jal increment_offset
10211	9DA0  0C0030F5             jal load_patterns
10212	9DA4  345221EF             ori $18, $2, 8687
10213	9DA8  AFB20000             sw $18, 0($29)
10214	9DAC  0C003102             jal increment_offset
10215	9DB0  0C0030F5             jal load_patterns
10216	9DB4  345289F7             ori $18, $2, 35319
10217	9DB8  AFB20000             sw $18, 0($29)
10218	9DBC  0C003102             jal increment_offset
10219	9DC0  0C0030F5             jal load_patterns
10220	9DC4  3452E4A8             ori $18, $2, 58536
10221	9DC8  AFB20000             sw $18, 0($29)
10222	9DCC  0C003102             jal increment_offset
10223	9DD0  0C0030F5             jal load_patterns
10224	9DD4  345204C3             ori $18, $2, 1219
10225	9DD8  AFB20000             sw $18, 0($29)
10226	9DDC  0C003102             jal increment_offset
10227	9DE0  0C0030F5             jal load_patterns
10228	9DE4  3452F64F             ori $18, $2, 63055
10229	9DE8  AFB20000             sw $18, 0($29)
10230	9DEC  0C003102             jal increment_offset
10231	9DF0  0C0030F5             jal load_patterns
10232	9DF4  3452BF22             ori $18, $2, 48930
10233	9DF8  AFB20000             sw $18, 0($29)
10234	9DFC  0C003102             jal increment_offset
10235	9E00  0C0030F5             jal load_patterns
10236	9E04  34520E40             ori $18, $2, 3648
10237	9E08  AFB20000             sw $18, 0($29)
10238	9E0C  0C003102             jal increment_offset
10239	9E10  0C0030F5             jal load_patterns
10240	9E14  3452FC4C             ori $18, $2, 64588
10241	9E18  AFB20000             sw $18, 0($29)
10242	9E1C  0C003102             jal increment_offset
10243	9E20  0C0030F5             jal load_patterns
10244	9E24  3452DFD6             ori $18, $2, 57302
10245	9E28  AFB20000             sw $18, 0($29)
10246	9E2C  0C003102             jal increment_offset
10247	9E30  0C0030F5             jal load_patterns
10248	9E34  345213F3             ori $18, $2, 5107
10249	9E38  AFB20000             sw $18, 0($29)
10250	9E3C  0C003102             jal increment_offset
10251	9E40  0C0030F5             jal load_patterns
10252	9E44  3452178C             ori $18, $2, 6028
10253	9E48  AFB20000             sw $18, 0($29)
10254	9E4C  0C003102             jal increment_offset
10255	9E50  0C0030F5             jal load_patterns
10256	9E54  34522820             ori $18, $2, 10272
10257	9E58  AFB20000             sw $18, 0($29)
10258	9E5C  0C003102             jal increment_offset
10259	9E60  0C0030F5             jal load_patterns
10260	9E64  345231BA             ori $18, $2, 12730
10261	9E68  AFB20000             sw $18, 0($29)
10262	9E6C  0C003102             jal increment_offset
10263	9E70  0C0030F5             jal load_patterns
10264	9E74  345235D9             ori $18, $2, 13785
10265	9E78  AFB20000             sw $18, 0($29)
10266	9E7C  0C003102             jal increment_offset
10267	9E80  0C0030F5             jal load_patterns
10268	9E84  34526840             ori $18, $2, 26688
10269	9E88  AFB20000             sw $18, 0($29)
10270	9E8C  0C003102             jal increment_offset
10271	9E90  0C0030F5             jal load_patterns
10272	9E94  345241A4             ori $18, $2, 16804
10273	9E98  AFB20000             sw $18, 0($29)
10274	9E9C  0C003102             jal increment_offset
10275	9EA0  0C0030F5             jal load_patterns
10276	9EA4  345209D8             ori $18, $2, 2520
10277	9EA8  AFB20000             sw $18, 0($29)
10278	9EAC  0C003102             jal increment_offset
10279	9EB0  0C0030F5             jal load_patterns
10280	9EB4  3452689A             ori $18, $2, 26778
10281	9EB8  AFB20000             sw $18, 0($29)
10282	9EBC  0C003102             jal increment_offset
10283	9EC0  0C0030F5             jal load_patterns
10284	9EC4  34523D60             ori $18, $2, 15712
10285	9EC8  AFB20000             sw $18, 0($29)
10286	9ECC  0C003102             jal increment_offset
10287	9ED0  0C0030F5             jal load_patterns
10288	9ED4  34523C13             ori $18, $2, 15379
10289	9ED8  AFB20000             sw $18, 0($29)
10290	9EDC  0C003102             jal increment_offset
10291	9EE0  0C0030F5             jal load_patterns
10292	9EE4  3452327E             ori $18, $2, 12926
10293	9EE8  AFB20000             sw $18, 0($29)
10294	9EEC  0C003102             jal increment_offset
10295	9EF0  0C0030F5             jal load_patterns
10296	9EF4  3452AC2A             ori $18, $2, 44074
10297	9EF8  AFB20000             sw $18, 0($29)
10298	9EFC  0C003102             jal increment_offset
10299	9F00  0C0030F5             jal load_patterns
10300	9F04  34528AB0             ori $18, $2, 35504
10301	9F08  AFB20000             sw $18, 0($29)
10302	9F0C  0C003102             jal increment_offset
10303	9F10  0C0030F5             jal load_patterns
10304	9F14  345267F0             ori $18, $2, 26608
10305	9F18  AFB20000             sw $18, 0($29)
10306	9F1C  0C003102             jal increment_offset
10307	9F20  0C0030F5             jal load_patterns
10308	9F24  3452E0BC             ori $18, $2, 57532
10309	9F28  AFB20000             sw $18, 0($29)
10310	9F2C  0C003102             jal increment_offset
10311	9F30  0C0030F5             jal load_patterns
10312	9F34  3452F069             ori $18, $2, 61545
10313	9F38  AFB20000             sw $18, 0($29)
10314	9F3C  0C003102             jal increment_offset
10315	9F40  0C0030F5             jal load_patterns
10316	9F44  3452A7C4             ori $18, $2, 42948
10317	9F48  AFB20000             sw $18, 0($29)
10318	9F4C  0C003102             jal increment_offset
10319	9F50  0C0030F5             jal load_patterns
10320	9F54  3452962D             ori $18, $2, 38445
10321	9F58  AFB20000             sw $18, 0($29)
10322	9F5C  0C003102             jal increment_offset
10323	9F60  0C0030F5             jal load_patterns
10324	9F64  34525F66             ori $18, $2, 24422
10325	9F68  AFB20000             sw $18, 0($29)
10326	9F6C  0C003102             jal increment_offset
10327	9F70  0C0030F5             jal load_patterns
10328	9F74  34527D0A             ori $18, $2, 32010
10329	9F78  AFB20000             sw $18, 0($29)
10330	9F7C  0C003102             jal increment_offset
10331	9F80  0C0030F5             jal load_patterns
10332	9F84  34526877             ori $18, $2, 26743
10333	9F88  AFB20000             sw $18, 0($29)
10334	9F8C  0C003102             jal increment_offset
10335	9F90  0C0030F5             jal load_patterns
10336	9F94  34520F02             ori $18, $2, 3842
10337	9F98  AFB20000             sw $18, 0($29)
10338	9F9C  0C003102             jal increment_offset
10339	9FA0  0C0030F5             jal load_patterns
10340	9FA4  3452C9FF             ori $18, $2, 51711
10341	9FA8  AFB20000             sw $18, 0($29)
10342	9FAC  0C003102             jal increment_offset
10343	9FB0  0C0030F5             jal load_patterns
10344	9FB4  3452CCC9             ori $18, $2, 52425
10345	9FB8  AFB20000             sw $18, 0($29)
10346	9FBC  0C003102             jal increment_offset
10347	9FC0  0C0030F5             jal load_patterns
10348	9FC4  345276A5             ori $18, $2, 30373
10349	9FC8  AFB20000             sw $18, 0($29)
10350	9FCC  0C003102             jal increment_offset
10351	9FD0  0C0030F5             jal load_patterns
10352	9FD4  3452481D             ori $18, $2, 18461
10353	9FD8  AFB20000             sw $18, 0($29)
10354	9FDC  0C003102             jal increment_offset
10355	9FE0  0C0030F5             jal load_patterns
10356	9FE4  34527869             ori $18, $2, 30825
10357	9FE8  AFB20000             sw $18, 0($29)
10358	9FEC  0C003102             jal increment_offset
10359	9FF0  0C0030F5             jal load_patterns
10360	9FF4  3452B7FC             ori $18, $2, 47100
10361	9FF8  AFB20000             sw $18, 0($29)
10362	9FFC  0C003102             jal increment_offset
10363	A000  0C0030F5             jal load_patterns
10364	A004  345222E0             ori $18, $2, 8928
10365	A008  AFB20000             sw $18, 0($29)
10366	A00C  0C003102             jal increment_offset
10367	A010  0C0030F5             jal load_patterns
10368	A014  34524F3B             ori $18, $2, 20283
10369	A018  AFB20000             sw $18, 0($29)
10370	A01C  0C003102             jal increment_offset
10371	A020  0C0030F5             jal load_patterns
10372	A024  345207A7             ori $18, $2, 1959
10373	A028  AFB20000             sw $18, 0($29)
10374	A02C  0C003102             jal increment_offset
10375	A030  0C0030F5             jal load_patterns
10376	A034  3452C18E             ori $18, $2, 49550
10377	A038  AFB20000             sw $18, 0($29)
10378	A03C  0C003102             jal increment_offset
10379	A040  0C0030F5             jal load_patterns
10380	A044  3452EDEF             ori $18, $2, 60911
10381	A048  AFB20000             sw $18, 0($29)
10382	A04C  0C003102             jal increment_offset
10383	A050  0C0030F5             jal load_patterns
10384	A054  3452143C             ori $18, $2, 5180
10385	A058  AFB20000             sw $18, 0($29)
10386	A05C  0C003102             jal increment_offset
10387	A060  0C0030F5             jal load_patterns
10388	A064  34524F69             ori $18, $2, 20329
10389	A068  AFB20000             sw $18, 0($29)
10390	A06C  0C003102             jal increment_offset
10391	A070  0C0030F5             jal load_patterns
10392	A074  345257D7             ori $18, $2, 22487
10393	A078  AFB20000             sw $18, 0($29)
10394	A07C  0C003102             jal increment_offset
10395	A080  0C0030F5             jal load_patterns
10396	A084  3452ED98             ori $18, $2, 60824
10397	A088  AFB20000             sw $18, 0($29)
10398	A08C  0C003102             jal increment_offset
10399	A090  0C0030F5             jal load_patterns
10400	A094  3452E7A5             ori $18, $2, 59301
10401	A098  AFB20000             sw $18, 0($29)
10402	A09C  0C003102             jal increment_offset
10403	A0A0  0C0030F5             jal load_patterns
10404	A0A4  34527B4F             ori $18, $2, 31567
10405	A0A8  AFB20000             sw $18, 0($29)
10406	A0AC  0C003102             jal increment_offset
10407	A0B0  0C0030F5             jal load_patterns
10408	A0B4  34522E95             ori $18, $2, 11925
10409	A0B8  AFB20000             sw $18, 0($29)
10410	A0BC  0C003102             jal increment_offset
10411	A0C0  0C0030F5             jal load_patterns
10412	A0C4  345273CF             ori $18, $2, 29647
10413	A0C8  AFB20000             sw $18, 0($29)
10414	A0CC  0C003102             jal increment_offset
10415	A0D0  0C0030F5             jal load_patterns
10416	A0D4  34526E7C             ori $18, $2, 28284
10417	A0D8  AFB20000             sw $18, 0($29)
10418	A0DC  0C003102             jal increment_offset
10419	A0E0  0C0030F5             jal load_patterns
10420	A0E4  3452DAE7             ori $18, $2, 56039
10421	A0E8  AFB20000             sw $18, 0($29)
10422	A0EC  0C003102             jal increment_offset
10423	A0F0  0C0030F5             jal load_patterns
10424	A0F4  34524CC2             ori $18, $2, 19650
10425	A0F8  AFB20000             sw $18, 0($29)
10426	A0FC  0C003102             jal increment_offset
10427	A100  0C0030F5             jal load_patterns
10428	A104  34524112             ori $18, $2, 16658
10429	A108  AFB20000             sw $18, 0($29)
10430	A10C  0C003102             jal increment_offset
10431	A110  0C0030F5             jal load_patterns
10432	A114  3452CDD5             ori $18, $2, 52693
10433	A118  AFB20000             sw $18, 0($29)
10434	A11C  0C003102             jal increment_offset
10435	A120  0C0030F5             jal load_patterns
10436	A124  34529EA8             ori $18, $2, 40616
10437	A128  AFB20000             sw $18, 0($29)
10438	A12C  0C003102             jal increment_offset
10439	A130  0C0030F5             jal load_patterns
10440	A134  34528FD0             ori $18, $2, 36816
10441	A138  AFB20000             sw $18, 0($29)
10442	A13C  0C003102             jal increment_offset
10443	A140  0C0030F5             jal load_patterns
10444	A144  34523149             ori $18, $2, 12617
10445	A148  AFB20000             sw $18, 0($29)
10446	A14C  0C003102             jal increment_offset
10447	A150  0C0030F5             jal load_patterns
10448	A154  3452B261             ori $18, $2, 45665
10449	A158  AFB20000             sw $18, 0($29)
10450	A15C  0C003102             jal increment_offset
10451	A160  0C0030F5             jal load_patterns
10452	A164  3452E219             ori $18, $2, 57881
10453	A168  AFB20000             sw $18, 0($29)
10454	A16C  0C003102             jal increment_offset
10455	A170  0C0030F5             jal load_patterns
10456	A174  3452A337             ori $18, $2, 41783
10457	A178  AFB20000             sw $18, 0($29)
10458	A17C  0C003102             jal increment_offset
10459	A180  0C0030F5             jal load_patterns
10460	A184  3452B60E             ori $18, $2, 46606
10461	A188  AFB20000             sw $18, 0($29)
10462	A18C  0C003102             jal increment_offset
10463	A190  0C0030F5             jal load_patterns
10464	A194  34527FBD             ori $18, $2, 32701
10465	A198  AFB20000             sw $18, 0($29)
10466	A19C  0C003102             jal increment_offset
10467	                          
10468	A1A0  0C0030F8            jal reset_offsets
10469	                          operation_slti:
10470	A1A4  0C0030F5             jal load_patterns
10471	A1A8  28525882             slti $18, $2, 22658
10472	A1AC  AFB20000             sw $18, 0($29)
10473	A1B0  0C003102             jal increment_offset
10474	A1B4  0C0030F5             jal load_patterns
10475	A1B8  28528ACC             slti $18, $2, 35532
10476	A1BC  AFB20000             sw $18, 0($29)
10477	A1C0  0C003102             jal increment_offset
10478	A1C4  0C0030F5             jal load_patterns
10479	A1C8  2852B085             slti $18, $2, 45189
10480	A1CC  AFB20000             sw $18, 0($29)
10481	A1D0  0C003102             jal increment_offset
10482	A1D4  0C0030F5             jal load_patterns
10483	A1D8  2852D17E             slti $18, $2, 53630
10484	A1DC  AFB20000             sw $18, 0($29)
10485	A1E0  0C003102             jal increment_offset
10486	A1E4  0C0030F5             jal load_patterns
10487	A1E8  2852C2E1             slti $18, $2, 49889
10488	A1EC  AFB20000             sw $18, 0($29)
10489	A1F0  0C003102             jal increment_offset
10490	A1F4  0C0030F5             jal load_patterns
10491	A1F8  2852FC93             slti $18, $2, 64659
10492	A1FC  AFB20000             sw $18, 0($29)
10493	A200  0C003102             jal increment_offset
10494	A204  0C0030F5             jal load_patterns
10495	A208  2852716A             slti $18, $2, 29034
10496	A20C  AFB20000             sw $18, 0($29)
10497	A210  0C003102             jal increment_offset
10498	A214  0C0030F5             jal load_patterns
10499	A218  28520238             slti $18, $2, 568
10500	A21C  AFB20000             sw $18, 0($29)
10501	A220  0C003102             jal increment_offset
10502	A224  0C0030F5             jal load_patterns
10503	A228  28522A22             slti $18, $2, 10786
10504	A22C  AFB20000             sw $18, 0($29)
10505	A230  0C003102             jal increment_offset
10506	A234  0C0030F5             jal load_patterns
10507	A238  2852C4E8             slti $18, $2, 50408
10508	A23C  AFB20000             sw $18, 0($29)
10509	A240  0C003102             jal increment_offset
10510	A244  0C0030F5             jal load_patterns
10511	A248  2852B14E             slti $18, $2, 45390
10512	A24C  AFB20000             sw $18, 0($29)
10513	A250  0C003102             jal increment_offset
10514	A254  0C0030F5             jal load_patterns
10515	A258  2852BB05             slti $18, $2, 47877
10516	A25C  AFB20000             sw $18, 0($29)
10517	A260  0C003102             jal increment_offset
10518	A264  0C0030F5             jal load_patterns
10519	A268  2852C7E4             slti $18, $2, 51172
10520	A26C  AFB20000             sw $18, 0($29)
10521	A270  0C003102             jal increment_offset
10522	A274  0C0030F5             jal load_patterns
10523	A278  28528748             slti $18, $2, 34632
10524	A27C  AFB20000             sw $18, 0($29)
10525	A280  0C003102             jal increment_offset
10526	A284  0C0030F5             jal load_patterns
10527	A288  2852BD11             slti $18, $2, 48401
10528	A28C  AFB20000             sw $18, 0($29)
10529	A290  0C003102             jal increment_offset
10530	A294  0C0030F5             jal load_patterns
10531	A298  28525773             slti $18, $2, 22387
10532	A29C  AFB20000             sw $18, 0($29)
10533	A2A0  0C003102             jal increment_offset
10534	A2A4  0C0030F5             jal load_patterns
10535	A2A8  28525CE1             slti $18, $2, 23777
10536	A2AC  AFB20000             sw $18, 0($29)
10537	A2B0  0C003102             jal increment_offset
10538	A2B4  0C0030F5             jal load_patterns
10539	A2B8  2852A2BB             slti $18, $2, 41659
10540	A2BC  AFB20000             sw $18, 0($29)
10541	A2C0  0C003102             jal increment_offset
10542	A2C4  0C0030F5             jal load_patterns
10543	A2C8  28528A40             slti $18, $2, 35392
10544	A2CC  AFB20000             sw $18, 0($29)
10545	A2D0  0C003102             jal increment_offset
10546	A2D4  0C0030F5             jal load_patterns
10547	A2D8  2852BECB             slti $18, $2, 48843
10548	A2DC  AFB20000             sw $18, 0($29)
10549	A2E0  0C003102             jal increment_offset
10550	A2E4  0C0030F5             jal load_patterns
10551	A2E8  2852295F             slti $18, $2, 10591
10552	A2EC  AFB20000             sw $18, 0($29)
10553	A2F0  0C003102             jal increment_offset
10554	A2F4  0C0030F5             jal load_patterns
10555	A2F8  2852E5EC             slti $18, $2, 58860
10556	A2FC  AFB20000             sw $18, 0($29)
10557	A300  0C003102             jal increment_offset
10558	A304  0C0030F5             jal load_patterns
10559	A308  2852AF25             slti $18, $2, 44837
10560	A30C  AFB20000             sw $18, 0($29)
10561	A310  0C003102             jal increment_offset
10562	A314  0C0030F5             jal load_patterns
10563	A318  285231D0             slti $18, $2, 12752
10564	A31C  AFB20000             sw $18, 0($29)
10565	A320  0C003102             jal increment_offset
10566	A324  0C0030F5             jal load_patterns
10567	A328  2852496F             slti $18, $2, 18799
10568	A32C  AFB20000             sw $18, 0($29)
10569	A330  0C003102             jal increment_offset
10570	A334  0C0030F5             jal load_patterns
10571	A338  28525592             slti $18, $2, 21906
10572	A33C  AFB20000             sw $18, 0($29)
10573	A340  0C003102             jal increment_offset
10574	A344  0C0030F5             jal load_patterns
10575	A348  28521900             slti $18, $2, 6400
10576	A34C  AFB20000             sw $18, 0($29)
10577	A350  0C003102             jal increment_offset
10578	A354  0C0030F5             jal load_patterns
10579	A358  285226DA             slti $18, $2, 9946
10580	A35C  AFB20000             sw $18, 0($29)
10581	A360  0C003102             jal increment_offset
10582	A364  0C0030F5             jal load_patterns
10583	A368  2852408A             slti $18, $2, 16522
10584	A36C  AFB20000             sw $18, 0($29)
10585	A370  0C003102             jal increment_offset
10586	A374  0C0030F5             jal load_patterns
10587	A378  2852297E             slti $18, $2, 10622
10588	A37C  AFB20000             sw $18, 0($29)
10589	A380  0C003102             jal increment_offset
10590	A384  0C0030F5             jal load_patterns
10591	A388  28522961             slti $18, $2, 10593
10592	A38C  AFB20000             sw $18, 0($29)
10593	A390  0C003102             jal increment_offset
10594	A394  0C0030F5             jal load_patterns
10595	A398  2852E80E             slti $18, $2, 59406
10596	A39C  AFB20000             sw $18, 0($29)
10597	A3A0  0C003102             jal increment_offset
10598	A3A4  0C0030F5             jal load_patterns
10599	A3A8  2852B202             slti $18, $2, 45570
10600	A3AC  AFB20000             sw $18, 0($29)
10601	A3B0  0C003102             jal increment_offset
10602	A3B4  0C0030F5             jal load_patterns
10603	A3B8  28523388             slti $18, $2, 13192
10604	A3BC  AFB20000             sw $18, 0($29)
10605	A3C0  0C003102             jal increment_offset
10606	A3C4  0C0030F5             jal load_patterns
10607	A3C8  285208DC             slti $18, $2, 2268
10608	A3CC  AFB20000             sw $18, 0($29)
10609	A3D0  0C003102             jal increment_offset
10610	A3D4  0C0030F5             jal load_patterns
10611	A3D8  2852363B             slti $18, $2, 13883
10612	A3DC  AFB20000             sw $18, 0($29)
10613	A3E0  0C003102             jal increment_offset
10614	A3E4  0C0030F5             jal load_patterns
10615	A3E8  2852CFF9             slti $18, $2, 53241
10616	A3EC  AFB20000             sw $18, 0($29)
10617	A3F0  0C003102             jal increment_offset
10618	A3F4  0C0030F5             jal load_patterns
10619	A3F8  28524B2C             slti $18, $2, 19244
10620	A3FC  AFB20000             sw $18, 0($29)
10621	A400  0C003102             jal increment_offset
10622	A404  0C0030F5             jal load_patterns
10623	A408  2852BE61             slti $18, $2, 48737
10624	A40C  AFB20000             sw $18, 0($29)
10625	A410  0C003102             jal increment_offset
10626	A414  0C0030F5             jal load_patterns
10627	A418  285209C4             slti $18, $2, 2500
10628	A41C  AFB20000             sw $18, 0($29)
10629	A420  0C003102             jal increment_offset
10630	A424  0C0030F5             jal load_patterns
10631	A428  285297A3             slti $18, $2, 38819
10632	A42C  AFB20000             sw $18, 0($29)
10633	A430  0C003102             jal increment_offset
10634	A434  0C0030F5             jal load_patterns
10635	A438  2852718A             slti $18, $2, 29066
10636	A43C  AFB20000             sw $18, 0($29)
10637	A440  0C003102             jal increment_offset
10638	A444  0C0030F5             jal load_patterns
10639	A448  2852E80D             slti $18, $2, 59405
10640	A44C  AFB20000             sw $18, 0($29)
10641	A450  0C003102             jal increment_offset
10642	A454  0C0030F5             jal load_patterns
10643	A458  2852514B             slti $18, $2, 20811
10644	A45C  AFB20000             sw $18, 0($29)
10645	A460  0C003102             jal increment_offset
10646	A464  0C0030F5             jal load_patterns
10647	A468  2852A44B             slti $18, $2, 42059
10648	A46C  AFB20000             sw $18, 0($29)
10649	A470  0C003102             jal increment_offset
10650	A474  0C0030F5             jal load_patterns
10651	A478  2852E758             slti $18, $2, 59224
10652	A47C  AFB20000             sw $18, 0($29)
10653	A480  0C003102             jal increment_offset
10654	A484  0C0030F5             jal load_patterns
10655	A488  28520FB8             slti $18, $2, 4024
10656	A48C  AFB20000             sw $18, 0($29)
10657	A490  0C003102             jal increment_offset
10658	A494  0C0030F5             jal load_patterns
10659	A498  28525C1B             slti $18, $2, 23579
10660	A49C  AFB20000             sw $18, 0($29)
10661	A4A0  0C003102             jal increment_offset
10662	A4A4  0C0030F5             jal load_patterns
10663	A4A8  28524474             slti $18, $2, 17524
10664	A4AC  AFB20000             sw $18, 0($29)
10665	A4B0  0C003102             jal increment_offset
10666	A4B4  0C0030F5             jal load_patterns
10667	A4B8  2852EF1E             slti $18, $2, 61214
10668	A4BC  AFB20000             sw $18, 0($29)
10669	A4C0  0C003102             jal increment_offset
10670	A4C4  0C0030F5             jal load_patterns
10671	A4C8  28523BC4             slti $18, $2, 15300
10672	A4CC  AFB20000             sw $18, 0($29)
10673	A4D0  0C003102             jal increment_offset
10674	A4D4  0C0030F5             jal load_patterns
10675	A4D8  2852FD41             slti $18, $2, 64833
10676	A4DC  AFB20000             sw $18, 0($29)
10677	A4E0  0C003102             jal increment_offset
10678	A4E4  0C0030F5             jal load_patterns
10679	A4E8  2852D65A             slti $18, $2, 54874
10680	A4EC  AFB20000             sw $18, 0($29)
10681	A4F0  0C003102             jal increment_offset
10682	A4F4  0C0030F5             jal load_patterns
10683	A4F8  28520487             slti $18, $2, 1159
10684	A4FC  AFB20000             sw $18, 0($29)
10685	A500  0C003102             jal increment_offset
10686	A504  0C0030F5             jal load_patterns
10687	A508  2852EF65             slti $18, $2, 61285
10688	A50C  AFB20000             sw $18, 0($29)
10689	A510  0C003102             jal increment_offset
10690	A514  0C0030F5             jal load_patterns
10691	A518  2852F2C3             slti $18, $2, 62147
10692	A51C  AFB20000             sw $18, 0($29)
10693	A520  0C003102             jal increment_offset
10694	A524  0C0030F5             jal load_patterns
10695	A528  28526076             slti $18, $2, 24694
10696	A52C  AFB20000             sw $18, 0($29)
10697	A530  0C003102             jal increment_offset
10698	A534  0C0030F5             jal load_patterns
10699	A538  2852214A             slti $18, $2, 8522
10700	A53C  AFB20000             sw $18, 0($29)
10701	A540  0C003102             jal increment_offset
10702	A544  0C0030F5             jal load_patterns
10703	A548  285268D6             slti $18, $2, 26838
10704	A54C  AFB20000             sw $18, 0($29)
10705	A550  0C003102             jal increment_offset
10706	A554  0C0030F5             jal load_patterns
10707	A558  2852E735             slti $18, $2, 59189
10708	A55C  AFB20000             sw $18, 0($29)
10709	A560  0C003102             jal increment_offset
10710	A564  0C0030F5             jal load_patterns
10711	A568  2852F756             slti $18, $2, 63318
10712	A56C  AFB20000             sw $18, 0($29)
10713	A570  0C003102             jal increment_offset
10714	A574  0C0030F5             jal load_patterns
10715	A578  2852E52D             slti $18, $2, 58669
10716	A57C  AFB20000             sw $18, 0($29)
10717	A580  0C003102             jal increment_offset
10718	A584  0C0030F5             jal load_patterns
10719	A588  28522369             slti $18, $2, 9065
10720	A58C  AFB20000             sw $18, 0($29)
10721	A590  0C003102             jal increment_offset
10722	A594  0C0030F5             jal load_patterns
10723	A598  2852DD91             slti $18, $2, 56721
10724	A59C  AFB20000             sw $18, 0($29)
10725	A5A0  0C003102             jal increment_offset
10726	A5A4  0C0030F5             jal load_patterns
10727	A5A8  2852D796             slti $18, $2, 55190
10728	A5AC  AFB20000             sw $18, 0($29)
10729	A5B0  0C003102             jal increment_offset
10730	A5B4  0C0030F5             jal load_patterns
10731	A5B8  2852243B             slti $18, $2, 9275
10732	A5BC  AFB20000             sw $18, 0($29)
10733	A5C0  0C003102             jal increment_offset
10734	A5C4  0C0030F5             jal load_patterns
10735	A5C8  2852EE83             slti $18, $2, 61059
10736	A5CC  AFB20000             sw $18, 0($29)
10737	A5D0  0C003102             jal increment_offset
10738	A5D4  0C0030F5             jal load_patterns
10739	A5D8  28522678             slti $18, $2, 9848
10740	A5DC  AFB20000             sw $18, 0($29)
10741	A5E0  0C003102             jal increment_offset
10742	A5E4  0C0030F5             jal load_patterns
10743	A5E8  2852F1A4             slti $18, $2, 61860
10744	A5EC  AFB20000             sw $18, 0($29)
10745	A5F0  0C003102             jal increment_offset
10746	A5F4  0C0030F5             jal load_patterns
10747	A5F8  28520C78             slti $18, $2, 3192
10748	A5FC  AFB20000             sw $18, 0($29)
10749	A600  0C003102             jal increment_offset
10750	A604  0C0030F5             jal load_patterns
10751	A608  285216A0             slti $18, $2, 5792
10752	A60C  AFB20000             sw $18, 0($29)
10753	A610  0C003102             jal increment_offset
10754	A614  0C0030F5             jal load_patterns
10755	A618  285247AE             slti $18, $2, 18350
10756	A61C  AFB20000             sw $18, 0($29)
10757	A620  0C003102             jal increment_offset
10758	A624  0C0030F5             jal load_patterns
10759	A628  28527FCF             slti $18, $2, 32719
10760	A62C  AFB20000             sw $18, 0($29)
10761	A630  0C003102             jal increment_offset
10762	A634  0C0030F5             jal load_patterns
10763	A638  2852B2CA             slti $18, $2, 45770
10764	A63C  AFB20000             sw $18, 0($29)
10765	A640  0C003102             jal increment_offset
10766	A644  0C0030F5             jal load_patterns
10767	A648  2852D7C2             slti $18, $2, 55234
10768	A64C  AFB20000             sw $18, 0($29)
10769	A650  0C003102             jal increment_offset
10770	A654  0C0030F5             jal load_patterns
10771	A658  2852AB79             slti $18, $2, 43897
10772	A65C  AFB20000             sw $18, 0($29)
10773	A660  0C003102             jal increment_offset
10774	A664  0C0030F5             jal load_patterns
10775	A668  28521694             slti $18, $2, 5780
10776	A66C  AFB20000             sw $18, 0($29)
10777	A670  0C003102             jal increment_offset
10778	A674  0C0030F5             jal load_patterns
10779	A678  28522705             slti $18, $2, 9989
10780	A67C  AFB20000             sw $18, 0($29)
10781	A680  0C003102             jal increment_offset
10782	A684  0C0030F5             jal load_patterns
10783	A688  28525A79             slti $18, $2, 23161
10784	A68C  AFB20000             sw $18, 0($29)
10785	A690  0C003102             jal increment_offset
10786	A694  0C0030F5             jal load_patterns
10787	A698  28520CA2             slti $18, $2, 3234
10788	A69C  AFB20000             sw $18, 0($29)
10789	A6A0  0C003102             jal increment_offset
10790	A6A4  0C0030F5             jal load_patterns
10791	A6A8  28525B63             slti $18, $2, 23395
10792	A6AC  AFB20000             sw $18, 0($29)
10793	A6B0  0C003102             jal increment_offset
10794	A6B4  0C0030F5             jal load_patterns
10795	A6B8  28521960             slti $18, $2, 6496
10796	A6BC  AFB20000             sw $18, 0($29)
10797	A6C0  0C003102             jal increment_offset
10798	A6C4  0C0030F5             jal load_patterns
10799	A6C8  285242B3             slti $18, $2, 17075
10800	A6CC  AFB20000             sw $18, 0($29)
10801	A6D0  0C003102             jal increment_offset
10802	A6D4  0C0030F5             jal load_patterns
10803	A6D8  285209AE             slti $18, $2, 2478
10804	A6DC  AFB20000             sw $18, 0($29)
10805	A6E0  0C003102             jal increment_offset
10806	A6E4  0C0030F5             jal load_patterns
10807	A6E8  28520AD1             slti $18, $2, 2769
10808	A6EC  AFB20000             sw $18, 0($29)
10809	A6F0  0C003102             jal increment_offset
10810	A6F4  0C0030F5             jal load_patterns
10811	A6F8  2852862C             slti $18, $2, 34348
10812	A6FC  AFB20000             sw $18, 0($29)
10813	A700  0C003102             jal increment_offset
10814	A704  0C0030F5             jal load_patterns
10815	A708  2852BC7A             slti $18, $2, 48250
10816	A70C  AFB20000             sw $18, 0($29)
10817	A710  0C003102             jal increment_offset
10818	A714  0C0030F5             jal load_patterns
10819	A718  28520A38             slti $18, $2, 2616
10820	A71C  AFB20000             sw $18, 0($29)
10821	A720  0C003102             jal increment_offset
10822	A724  0C0030F5             jal load_patterns
10823	A728  28526C0C             slti $18, $2, 27660
10824	A72C  AFB20000             sw $18, 0($29)
10825	A730  0C003102             jal increment_offset
10826	A734  0C0030F5             jal load_patterns
10827	A738  28523752             slti $18, $2, 14162
10828	A73C  AFB20000             sw $18, 0($29)
10829	A740  0C003102             jal increment_offset
10830	A744  0C0030F5             jal load_patterns
10831	A748  28520B96             slti $18, $2, 2966
10832	A74C  AFB20000             sw $18, 0($29)
10833	A750  0C003102             jal increment_offset
10834	A754  0C0030F5             jal load_patterns
10835	A758  2852FF35             slti $18, $2, 65333
10836	A75C  AFB20000             sw $18, 0($29)
10837	A760  0C003102             jal increment_offset
10838	A764  0C0030F5             jal load_patterns
10839	A768  2852C583             slti $18, $2, 50563
10840	A76C  AFB20000             sw $18, 0($29)
10841	A770  0C003102             jal increment_offset
10842	A774  0C0030F5             jal load_patterns
10843	A778  28528FC7             slti $18, $2, 36807
10844	A77C  AFB20000             sw $18, 0($29)
10845	A780  0C003102             jal increment_offset
10846	A784  0C0030F5             jal load_patterns
10847	A788  2852AF83             slti $18, $2, 44931
10848	A78C  AFB20000             sw $18, 0($29)
10849	A790  0C003102             jal increment_offset
10850	A794  0C0030F5             jal load_patterns
10851	A798  28520979             slti $18, $2, 2425
10852	A79C  AFB20000             sw $18, 0($29)
10853	A7A0  0C003102             jal increment_offset
10854	A7A4  0C0030F5             jal load_patterns
10855	A7A8  285283DF             slti $18, $2, 33759
10856	A7AC  AFB20000             sw $18, 0($29)
10857	A7B0  0C003102             jal increment_offset
10858	A7B4  0C0030F5             jal load_patterns
10859	A7B8  285220AB             slti $18, $2, 8363
10860	A7BC  AFB20000             sw $18, 0($29)
10861	A7C0  0C003102             jal increment_offset
10862	A7C4  0C0030F5             jal load_patterns
10863	A7C8  285241D2             slti $18, $2, 16850
10864	A7CC  AFB20000             sw $18, 0($29)
10865	A7D0  0C003102             jal increment_offset
10866	A7D4  0C0030F5             jal load_patterns
10867	A7D8  2852136F             slti $18, $2, 4975
10868	A7DC  AFB20000             sw $18, 0($29)
10869	A7E0  0C003102             jal increment_offset
10870	A7E4  0C0030F5             jal load_patterns
10871	A7E8  2852C45C             slti $18, $2, 50268
10872	A7EC  AFB20000             sw $18, 0($29)
10873	A7F0  0C003102             jal increment_offset
10874	A7F4  0C0030F5             jal load_patterns
10875	A7F8  2852F089             slti $18, $2, 61577
10876	A7FC  AFB20000             sw $18, 0($29)
10877	A800  0C003102             jal increment_offset
10878	A804  0C0030F5             jal load_patterns
10879	A808  285221EF             slti $18, $2, 8687
10880	A80C  AFB20000             sw $18, 0($29)
10881	A810  0C003102             jal increment_offset
10882	A814  0C0030F5             jal load_patterns
10883	A818  285289F7             slti $18, $2, 35319
10884	A81C  AFB20000             sw $18, 0($29)
10885	A820  0C003102             jal increment_offset
10886	A824  0C0030F5             jal load_patterns
10887	A828  2852E4A8             slti $18, $2, 58536
10888	A82C  AFB20000             sw $18, 0($29)
10889	A830  0C003102             jal increment_offset
10890	A834  0C0030F5             jal load_patterns
10891	A838  285204C3             slti $18, $2, 1219
10892	A83C  AFB20000             sw $18, 0($29)
10893	A840  0C003102             jal increment_offset
10894	A844  0C0030F5             jal load_patterns
10895	A848  2852F64F             slti $18, $2, 63055
10896	A84C  AFB20000             sw $18, 0($29)
10897	A850  0C003102             jal increment_offset
10898	A854  0C0030F5             jal load_patterns
10899	A858  2852BF22             slti $18, $2, 48930
10900	A85C  AFB20000             sw $18, 0($29)
10901	A860  0C003102             jal increment_offset
10902	A864  0C0030F5             jal load_patterns
10903	A868  28520E40             slti $18, $2, 3648
10904	A86C  AFB20000             sw $18, 0($29)
10905	A870  0C003102             jal increment_offset
10906	A874  0C0030F5             jal load_patterns
10907	A878  2852FC4C             slti $18, $2, 64588
10908	A87C  AFB20000             sw $18, 0($29)
10909	A880  0C003102             jal increment_offset
10910	A884  0C0030F5             jal load_patterns
10911	A888  2852DFD6             slti $18, $2, 57302
10912	A88C  AFB20000             sw $18, 0($29)
10913	A890  0C003102             jal increment_offset
10914	A894  0C0030F5             jal load_patterns
10915	A898  285213F3             slti $18, $2, 5107
10916	A89C  AFB20000             sw $18, 0($29)
10917	A8A0  0C003102             jal increment_offset
10918	A8A4  0C0030F5             jal load_patterns
10919	A8A8  2852178C             slti $18, $2, 6028
10920	A8AC  AFB20000             sw $18, 0($29)
10921	A8B0  0C003102             jal increment_offset
10922	A8B4  0C0030F5             jal load_patterns
10923	A8B8  28522820             slti $18, $2, 10272
10924	A8BC  AFB20000             sw $18, 0($29)
10925	A8C0  0C003102             jal increment_offset
10926	A8C4  0C0030F5             jal load_patterns
10927	A8C8  285231BA             slti $18, $2, 12730
10928	A8CC  AFB20000             sw $18, 0($29)
10929	A8D0  0C003102             jal increment_offset
10930	A8D4  0C0030F5             jal load_patterns
10931	A8D8  285235D9             slti $18, $2, 13785
10932	A8DC  AFB20000             sw $18, 0($29)
10933	A8E0  0C003102             jal increment_offset
10934	A8E4  0C0030F5             jal load_patterns
10935	A8E8  28526840             slti $18, $2, 26688
10936	A8EC  AFB20000             sw $18, 0($29)
10937	A8F0  0C003102             jal increment_offset
10938	A8F4  0C0030F5             jal load_patterns
10939	A8F8  285241A4             slti $18, $2, 16804
10940	A8FC  AFB20000             sw $18, 0($29)
10941	A900  0C003102             jal increment_offset
10942	A904  0C0030F5             jal load_patterns
10943	A908  285209D8             slti $18, $2, 2520
10944	A90C  AFB20000             sw $18, 0($29)
10945	A910  0C003102             jal increment_offset
10946	A914  0C0030F5             jal load_patterns
10947	A918  2852689A             slti $18, $2, 26778
10948	A91C  AFB20000             sw $18, 0($29)
10949	A920  0C003102             jal increment_offset
10950	A924  0C0030F5             jal load_patterns
10951	A928  28523D60             slti $18, $2, 15712
10952	A92C  AFB20000             sw $18, 0($29)
10953	A930  0C003102             jal increment_offset
10954	A934  0C0030F5             jal load_patterns
10955	A938  28523C13             slti $18, $2, 15379
10956	A93C  AFB20000             sw $18, 0($29)
10957	A940  0C003102             jal increment_offset
10958	A944  0C0030F5             jal load_patterns
10959	A948  2852327E             slti $18, $2, 12926
10960	A94C  AFB20000             sw $18, 0($29)
10961	A950  0C003102             jal increment_offset
10962	A954  0C0030F5             jal load_patterns
10963	A958  2852AC2A             slti $18, $2, 44074
10964	A95C  AFB20000             sw $18, 0($29)
10965	A960  0C003102             jal increment_offset
10966	A964  0C0030F5             jal load_patterns
10967	A968  28528AB0             slti $18, $2, 35504
10968	A96C  AFB20000             sw $18, 0($29)
10969	A970  0C003102             jal increment_offset
10970	A974  0C0030F5             jal load_patterns
10971	A978  285267F0             slti $18, $2, 26608
10972	A97C  AFB20000             sw $18, 0($29)
10973	A980  0C003102             jal increment_offset
10974	A984  0C0030F5             jal load_patterns
10975	A988  2852E0BC             slti $18, $2, 57532
10976	A98C  AFB20000             sw $18, 0($29)
10977	A990  0C003102             jal increment_offset
10978	A994  0C0030F5             jal load_patterns
10979	A998  2852F069             slti $18, $2, 61545
10980	A99C  AFB20000             sw $18, 0($29)
10981	A9A0  0C003102             jal increment_offset
10982	A9A4  0C0030F5             jal load_patterns
10983	A9A8  2852A7C4             slti $18, $2, 42948
10984	A9AC  AFB20000             sw $18, 0($29)
10985	A9B0  0C003102             jal increment_offset
10986	A9B4  0C0030F5             jal load_patterns
10987	A9B8  2852962D             slti $18, $2, 38445
10988	A9BC  AFB20000             sw $18, 0($29)
10989	A9C0  0C003102             jal increment_offset
10990	A9C4  0C0030F5             jal load_patterns
10991	A9C8  28525F66             slti $18, $2, 24422
10992	A9CC  AFB20000             sw $18, 0($29)
10993	A9D0  0C003102             jal increment_offset
10994	A9D4  0C0030F5             jal load_patterns
10995	A9D8  28527D0A             slti $18, $2, 32010
10996	A9DC  AFB20000             sw $18, 0($29)
10997	A9E0  0C003102             jal increment_offset
10998	A9E4  0C0030F5             jal load_patterns
10999	A9E8  28526877             slti $18, $2, 26743
11000	A9EC  AFB20000             sw $18, 0($29)
11001	A9F0  0C003102             jal increment_offset
11002	A9F4  0C0030F5             jal load_patterns
11003	A9F8  28520F02             slti $18, $2, 3842
11004	A9FC  AFB20000             sw $18, 0($29)
11005	AA00  0C003102             jal increment_offset
11006	AA04  0C0030F5             jal load_patterns
11007	AA08  2852C9FF             slti $18, $2, 51711
11008	AA0C  AFB20000             sw $18, 0($29)
11009	AA10  0C003102             jal increment_offset
11010	AA14  0C0030F5             jal load_patterns
11011	AA18  2852CCC9             slti $18, $2, 52425
11012	AA1C  AFB20000             sw $18, 0($29)
11013	AA20  0C003102             jal increment_offset
11014	AA24  0C0030F5             jal load_patterns
11015	AA28  285276A5             slti $18, $2, 30373
11016	AA2C  AFB20000             sw $18, 0($29)
11017	AA30  0C003102             jal increment_offset
11018	AA34  0C0030F5             jal load_patterns
11019	AA38  2852481D             slti $18, $2, 18461
11020	AA3C  AFB20000             sw $18, 0($29)
11021	AA40  0C003102             jal increment_offset
11022	AA44  0C0030F5             jal load_patterns
11023	AA48  28527869             slti $18, $2, 30825
11024	AA4C  AFB20000             sw $18, 0($29)
11025	AA50  0C003102             jal increment_offset
11026	AA54  0C0030F5             jal load_patterns
11027	AA58  2852B7FC             slti $18, $2, 47100
11028	AA5C  AFB20000             sw $18, 0($29)
11029	AA60  0C003102             jal increment_offset
11030	AA64  0C0030F5             jal load_patterns
11031	AA68  285222E0             slti $18, $2, 8928
11032	AA6C  AFB20000             sw $18, 0($29)
11033	AA70  0C003102             jal increment_offset
11034	AA74  0C0030F5             jal load_patterns
11035	AA78  28524F3B             slti $18, $2, 20283
11036	AA7C  AFB20000             sw $18, 0($29)
11037	AA80  0C003102             jal increment_offset
11038	AA84  0C0030F5             jal load_patterns
11039	AA88  285207A7             slti $18, $2, 1959
11040	AA8C  AFB20000             sw $18, 0($29)
11041	AA90  0C003102             jal increment_offset
11042	AA94  0C0030F5             jal load_patterns
11043	AA98  2852C18E             slti $18, $2, 49550
11044	AA9C  AFB20000             sw $18, 0($29)
11045	AAA0  0C003102             jal increment_offset
11046	AAA4  0C0030F5             jal load_patterns
11047	AAA8  2852EDEF             slti $18, $2, 60911
11048	AAAC  AFB20000             sw $18, 0($29)
11049	AAB0  0C003102             jal increment_offset
11050	AAB4  0C0030F5             jal load_patterns
11051	AAB8  2852143C             slti $18, $2, 5180
11052	AABC  AFB20000             sw $18, 0($29)
11053	AAC0  0C003102             jal increment_offset
11054	AAC4  0C0030F5             jal load_patterns
11055	AAC8  28524F69             slti $18, $2, 20329
11056	AACC  AFB20000             sw $18, 0($29)
11057	AAD0  0C003102             jal increment_offset
11058	AAD4  0C0030F5             jal load_patterns
11059	AAD8  285257D7             slti $18, $2, 22487
11060	AADC  AFB20000             sw $18, 0($29)
11061	AAE0  0C003102             jal increment_offset
11062	AAE4  0C0030F5             jal load_patterns
11063	AAE8  2852ED98             slti $18, $2, 60824
11064	AAEC  AFB20000             sw $18, 0($29)
11065	AAF0  0C003102             jal increment_offset
11066	AAF4  0C0030F5             jal load_patterns
11067	AAF8  2852E7A5             slti $18, $2, 59301
11068	AAFC  AFB20000             sw $18, 0($29)
11069	AB00  0C003102             jal increment_offset
11070	AB04  0C0030F5             jal load_patterns
11071	AB08  28527B4F             slti $18, $2, 31567
11072	AB0C  AFB20000             sw $18, 0($29)
11073	AB10  0C003102             jal increment_offset
11074	AB14  0C0030F5             jal load_patterns
11075	AB18  28522E95             slti $18, $2, 11925
11076	AB1C  AFB20000             sw $18, 0($29)
11077	AB20  0C003102             jal increment_offset
11078	AB24  0C0030F5             jal load_patterns
11079	AB28  285273CF             slti $18, $2, 29647
11080	AB2C  AFB20000             sw $18, 0($29)
11081	AB30  0C003102             jal increment_offset
11082	AB34  0C0030F5             jal load_patterns
11083	AB38  28526E7C             slti $18, $2, 28284
11084	AB3C  AFB20000             sw $18, 0($29)
11085	AB40  0C003102             jal increment_offset
11086	AB44  0C0030F5             jal load_patterns
11087	AB48  2852DAE7             slti $18, $2, 56039
11088	AB4C  AFB20000             sw $18, 0($29)
11089	AB50  0C003102             jal increment_offset
11090	AB54  0C0030F5             jal load_patterns
11091	AB58  28524CC2             slti $18, $2, 19650
11092	AB5C  AFB20000             sw $18, 0($29)
11093	AB60  0C003102             jal increment_offset
11094	AB64  0C0030F5             jal load_patterns
11095	AB68  28524112             slti $18, $2, 16658
11096	AB6C  AFB20000             sw $18, 0($29)
11097	AB70  0C003102             jal increment_offset
11098	AB74  0C0030F5             jal load_patterns
11099	AB78  2852CDD5             slti $18, $2, 52693
11100	AB7C  AFB20000             sw $18, 0($29)
11101	AB80  0C003102             jal increment_offset
11102	AB84  0C0030F5             jal load_patterns
11103	AB88  28529EA8             slti $18, $2, 40616
11104	AB8C  AFB20000             sw $18, 0($29)
11105	AB90  0C003102             jal increment_offset
11106	AB94  0C0030F5             jal load_patterns
11107	AB98  28528FD0             slti $18, $2, 36816
11108	AB9C  AFB20000             sw $18, 0($29)
11109	ABA0  0C003102             jal increment_offset
11110	ABA4  0C0030F5             jal load_patterns
11111	ABA8  28523149             slti $18, $2, 12617
11112	ABAC  AFB20000             sw $18, 0($29)
11113	ABB0  0C003102             jal increment_offset
11114	ABB4  0C0030F5             jal load_patterns
11115	ABB8  2852B261             slti $18, $2, 45665
11116	ABBC  AFB20000             sw $18, 0($29)
11117	ABC0  0C003102             jal increment_offset
11118	ABC4  0C0030F5             jal load_patterns
11119	ABC8  2852E219             slti $18, $2, 57881
11120	ABCC  AFB20000             sw $18, 0($29)
11121	ABD0  0C003102             jal increment_offset
11122	ABD4  0C0030F5             jal load_patterns
11123	ABD8  2852A337             slti $18, $2, 41783
11124	ABDC  AFB20000             sw $18, 0($29)
11125	ABE0  0C003102             jal increment_offset
11126	ABE4  0C0030F5             jal load_patterns
11127	ABE8  2852B60E             slti $18, $2, 46606
11128	ABEC  AFB20000             sw $18, 0($29)
11129	ABF0  0C003102             jal increment_offset
11130	ABF4  0C0030F5             jal load_patterns
11131	ABF8  28527FBD             slti $18, $2, 32701
11132	ABFC  AFB20000             sw $18, 0($29)
11133	AC00  0C003102             jal increment_offset
11134	                          
11135	AC04  0C0030F8            jal reset_offsets
11136	                          operation_sltiu:
11137	AC08  0C0030F5             jal load_patterns
11138	AC0C  28525882             sltiu $18, $2, 22658
11139	AC10  AFB20000             sw $18, 0($29)
11140	AC14  0C003102             jal increment_offset
11141	AC18  0C0030F5             jal load_patterns
11142	AC1C  28528ACC             sltiu $18, $2, 35532
11143	AC20  AFB20000             sw $18, 0($29)
11144	AC24  0C003102             jal increment_offset
11145	AC28  0C0030F5             jal load_patterns
11146	AC2C  2852B085             sltiu $18, $2, 45189
11147	AC30  AFB20000             sw $18, 0($29)
11148	AC34  0C003102             jal increment_offset
11149	AC38  0C0030F5             jal load_patterns
11150	AC3C  2852D17E             sltiu $18, $2, 53630
11151	AC40  AFB20000             sw $18, 0($29)
11152	AC44  0C003102             jal increment_offset
11153	AC48  0C0030F5             jal load_patterns
11154	AC4C  2852C2E1             sltiu $18, $2, 49889
11155	AC50  AFB20000             sw $18, 0($29)
11156	AC54  0C003102             jal increment_offset
11157	AC58  0C0030F5             jal load_patterns
11158	AC5C  2852FC93             sltiu $18, $2, 64659
11159	AC60  AFB20000             sw $18, 0($29)
11160	AC64  0C003102             jal increment_offset
11161	AC68  0C0030F5             jal load_patterns
11162	AC6C  2852716A             sltiu $18, $2, 29034
11163	AC70  AFB20000             sw $18, 0($29)
11164	AC74  0C003102             jal increment_offset
11165	AC78  0C0030F5             jal load_patterns
11166	AC7C  28520238             sltiu $18, $2, 568
11167	AC80  AFB20000             sw $18, 0($29)
11168	AC84  0C003102             jal increment_offset
11169	AC88  0C0030F5             jal load_patterns
11170	AC8C  28522A22             sltiu $18, $2, 10786
11171	AC90  AFB20000             sw $18, 0($29)
11172	AC94  0C003102             jal increment_offset
11173	AC98  0C0030F5             jal load_patterns
11174	AC9C  2852C4E8             sltiu $18, $2, 50408
11175	ACA0  AFB20000             sw $18, 0($29)
11176	ACA4  0C003102             jal increment_offset
11177	ACA8  0C0030F5             jal load_patterns
11178	ACAC  2852B14E             sltiu $18, $2, 45390
11179	ACB0  AFB20000             sw $18, 0($29)
11180	ACB4  0C003102             jal increment_offset
11181	ACB8  0C0030F5             jal load_patterns
11182	ACBC  2852BB05             sltiu $18, $2, 47877
11183	ACC0  AFB20000             sw $18, 0($29)
11184	ACC4  0C003102             jal increment_offset
11185	ACC8  0C0030F5             jal load_patterns
11186	ACCC  2852C7E4             sltiu $18, $2, 51172
11187	ACD0  AFB20000             sw $18, 0($29)
11188	ACD4  0C003102             jal increment_offset
11189	ACD8  0C0030F5             jal load_patterns
11190	ACDC  28528748             sltiu $18, $2, 34632
11191	ACE0  AFB20000             sw $18, 0($29)
11192	ACE4  0C003102             jal increment_offset
11193	ACE8  0C0030F5             jal load_patterns
11194	ACEC  2852BD11             sltiu $18, $2, 48401
11195	ACF0  AFB20000             sw $18, 0($29)
11196	ACF4  0C003102             jal increment_offset
11197	ACF8  0C0030F5             jal load_patterns
11198	ACFC  28525773             sltiu $18, $2, 22387
11199	AD00  AFB20000             sw $18, 0($29)
11200	AD04  0C003102             jal increment_offset
11201	AD08  0C0030F5             jal load_patterns
11202	AD0C  28525CE1             sltiu $18, $2, 23777
11203	AD10  AFB20000             sw $18, 0($29)
11204	AD14  0C003102             jal increment_offset
11205	AD18  0C0030F5             jal load_patterns
11206	AD1C  2852A2BB             sltiu $18, $2, 41659
11207	AD20  AFB20000             sw $18, 0($29)
11208	AD24  0C003102             jal increment_offset
11209	AD28  0C0030F5             jal load_patterns
11210	AD2C  28528A40             sltiu $18, $2, 35392
11211	AD30  AFB20000             sw $18, 0($29)
11212	AD34  0C003102             jal increment_offset
11213	AD38  0C0030F5             jal load_patterns
11214	AD3C  2852BECB             sltiu $18, $2, 48843
11215	AD40  AFB20000             sw $18, 0($29)
11216	AD44  0C003102             jal increment_offset
11217	AD48  0C0030F5             jal load_patterns
11218	AD4C  2852295F             sltiu $18, $2, 10591
11219	AD50  AFB20000             sw $18, 0($29)
11220	AD54  0C003102             jal increment_offset
11221	AD58  0C0030F5             jal load_patterns
11222	AD5C  2852E5EC             sltiu $18, $2, 58860
11223	AD60  AFB20000             sw $18, 0($29)
11224	AD64  0C003102             jal increment_offset
11225	AD68  0C0030F5             jal load_patterns
11226	AD6C  2852AF25             sltiu $18, $2, 44837
11227	AD70  AFB20000             sw $18, 0($29)
11228	AD74  0C003102             jal increment_offset
11229	AD78  0C0030F5             jal load_patterns
11230	AD7C  285231D0             sltiu $18, $2, 12752
11231	AD80  AFB20000             sw $18, 0($29)
11232	AD84  0C003102             jal increment_offset
11233	AD88  0C0030F5             jal load_patterns
11234	AD8C  2852496F             sltiu $18, $2, 18799
11235	AD90  AFB20000             sw $18, 0($29)
11236	AD94  0C003102             jal increment_offset
11237	AD98  0C0030F5             jal load_patterns
11238	AD9C  28525592             sltiu $18, $2, 21906
11239	ADA0  AFB20000             sw $18, 0($29)
11240	ADA4  0C003102             jal increment_offset
11241	ADA8  0C0030F5             jal load_patterns
11242	ADAC  28521900             sltiu $18, $2, 6400
11243	ADB0  AFB20000             sw $18, 0($29)
11244	ADB4  0C003102             jal increment_offset
11245	ADB8  0C0030F5             jal load_patterns
11246	ADBC  285226DA             sltiu $18, $2, 9946
11247	ADC0  AFB20000             sw $18, 0($29)
11248	ADC4  0C003102             jal increment_offset
11249	ADC8  0C0030F5             jal load_patterns
11250	ADCC  2852408A             sltiu $18, $2, 16522
11251	ADD0  AFB20000             sw $18, 0($29)
11252	ADD4  0C003102             jal increment_offset
11253	ADD8  0C0030F5             jal load_patterns
11254	ADDC  2852297E             sltiu $18, $2, 10622
11255	ADE0  AFB20000             sw $18, 0($29)
11256	ADE4  0C003102             jal increment_offset
11257	ADE8  0C0030F5             jal load_patterns
11258	ADEC  28522961             sltiu $18, $2, 10593
11259	ADF0  AFB20000             sw $18, 0($29)
11260	ADF4  0C003102             jal increment_offset
11261	ADF8  0C0030F5             jal load_patterns
11262	ADFC  2852E80E             sltiu $18, $2, 59406
11263	AE00  AFB20000             sw $18, 0($29)
11264	AE04  0C003102             jal increment_offset
11265	AE08  0C0030F5             jal load_patterns
11266	AE0C  2852B202             sltiu $18, $2, 45570
11267	AE10  AFB20000             sw $18, 0($29)
11268	AE14  0C003102             jal increment_offset
11269	AE18  0C0030F5             jal load_patterns
11270	AE1C  28523388             sltiu $18, $2, 13192
11271	AE20  AFB20000             sw $18, 0($29)
11272	AE24  0C003102             jal increment_offset
11273	AE28  0C0030F5             jal load_patterns
11274	AE2C  285208DC             sltiu $18, $2, 2268
11275	AE30  AFB20000             sw $18, 0($29)
11276	AE34  0C003102             jal increment_offset
11277	AE38  0C0030F5             jal load_patterns
11278	AE3C  2852363B             sltiu $18, $2, 13883
11279	AE40  AFB20000             sw $18, 0($29)
11280	AE44  0C003102             jal increment_offset
11281	AE48  0C0030F5             jal load_patterns
11282	AE4C  2852CFF9             sltiu $18, $2, 53241
11283	AE50  AFB20000             sw $18, 0($29)
11284	AE54  0C003102             jal increment_offset
11285	AE58  0C0030F5             jal load_patterns
11286	AE5C  28524B2C             sltiu $18, $2, 19244
11287	AE60  AFB20000             sw $18, 0($29)
11288	AE64  0C003102             jal increment_offset
11289	AE68  0C0030F5             jal load_patterns
11290	AE6C  2852BE61             sltiu $18, $2, 48737
11291	AE70  AFB20000             sw $18, 0($29)
11292	AE74  0C003102             jal increment_offset
11293	AE78  0C0030F5             jal load_patterns
11294	AE7C  285209C4             sltiu $18, $2, 2500
11295	AE80  AFB20000             sw $18, 0($29)
11296	AE84  0C003102             jal increment_offset
11297	AE88  0C0030F5             jal load_patterns
11298	AE8C  285297A3             sltiu $18, $2, 38819
11299	AE90  AFB20000             sw $18, 0($29)
11300	AE94  0C003102             jal increment_offset
11301	AE98  0C0030F5             jal load_patterns
11302	AE9C  2852718A             sltiu $18, $2, 29066
11303	AEA0  AFB20000             sw $18, 0($29)
11304	AEA4  0C003102             jal increment_offset
11305	AEA8  0C0030F5             jal load_patterns
11306	AEAC  2852E80D             sltiu $18, $2, 59405
11307	AEB0  AFB20000             sw $18, 0($29)
11308	AEB4  0C003102             jal increment_offset
11309	AEB8  0C0030F5             jal load_patterns
11310	AEBC  2852514B             sltiu $18, $2, 20811
11311	AEC0  AFB20000             sw $18, 0($29)
11312	AEC4  0C003102             jal increment_offset
11313	AEC8  0C0030F5             jal load_patterns
11314	AECC  2852A44B             sltiu $18, $2, 42059
11315	AED0  AFB20000             sw $18, 0($29)
11316	AED4  0C003102             jal increment_offset
11317	AED8  0C0030F5             jal load_patterns
11318	AEDC  2852E758             sltiu $18, $2, 59224
11319	AEE0  AFB20000             sw $18, 0($29)
11320	AEE4  0C003102             jal increment_offset
11321	AEE8  0C0030F5             jal load_patterns
11322	AEEC  28520FB8             sltiu $18, $2, 4024
11323	AEF0  AFB20000             sw $18, 0($29)
11324	AEF4  0C003102             jal increment_offset
11325	AEF8  0C0030F5             jal load_patterns
11326	AEFC  28525C1B             sltiu $18, $2, 23579
11327	AF00  AFB20000             sw $18, 0($29)
11328	AF04  0C003102             jal increment_offset
11329	AF08  0C0030F5             jal load_patterns
11330	AF0C  28524474             sltiu $18, $2, 17524
11331	AF10  AFB20000             sw $18, 0($29)
11332	AF14  0C003102             jal increment_offset
11333	AF18  0C0030F5             jal load_patterns
11334	AF1C  2852EF1E             sltiu $18, $2, 61214
11335	AF20  AFB20000             sw $18, 0($29)
11336	AF24  0C003102             jal increment_offset
11337	AF28  0C0030F5             jal load_patterns
11338	AF2C  28523BC4             sltiu $18, $2, 15300
11339	AF30  AFB20000             sw $18, 0($29)
11340	AF34  0C003102             jal increment_offset
11341	AF38  0C0030F5             jal load_patterns
11342	AF3C  2852FD41             sltiu $18, $2, 64833
11343	AF40  AFB20000             sw $18, 0($29)
11344	AF44  0C003102             jal increment_offset
11345	AF48  0C0030F5             jal load_patterns
11346	AF4C  2852D65A             sltiu $18, $2, 54874
11347	AF50  AFB20000             sw $18, 0($29)
11348	AF54  0C003102             jal increment_offset
11349	AF58  0C0030F5             jal load_patterns
11350	AF5C  28520487             sltiu $18, $2, 1159
11351	AF60  AFB20000             sw $18, 0($29)
11352	AF64  0C003102             jal increment_offset
11353	AF68  0C0030F5             jal load_patterns
11354	AF6C  2852EF65             sltiu $18, $2, 61285
11355	AF70  AFB20000             sw $18, 0($29)
11356	AF74  0C003102             jal increment_offset
11357	AF78  0C0030F5             jal load_patterns
11358	AF7C  2852F2C3             sltiu $18, $2, 62147
11359	AF80  AFB20000             sw $18, 0($29)
11360	AF84  0C003102             jal increment_offset
11361	AF88  0C0030F5             jal load_patterns
11362	AF8C  28526076             sltiu $18, $2, 24694
11363	AF90  AFB20000             sw $18, 0($29)
11364	AF94  0C003102             jal increment_offset
11365	AF98  0C0030F5             jal load_patterns
11366	AF9C  2852214A             sltiu $18, $2, 8522
11367	AFA0  AFB20000             sw $18, 0($29)
11368	AFA4  0C003102             jal increment_offset
11369	AFA8  0C0030F5             jal load_patterns
11370	AFAC  285268D6             sltiu $18, $2, 26838
11371	AFB0  AFB20000             sw $18, 0($29)
11372	AFB4  0C003102             jal increment_offset
11373	AFB8  0C0030F5             jal load_patterns
11374	AFBC  2852E735             sltiu $18, $2, 59189
11375	AFC0  AFB20000             sw $18, 0($29)
11376	AFC4  0C003102             jal increment_offset
11377	AFC8  0C0030F5             jal load_patterns
11378	AFCC  2852F756             sltiu $18, $2, 63318
11379	AFD0  AFB20000             sw $18, 0($29)
11380	AFD4  0C003102             jal increment_offset
11381	AFD8  0C0030F5             jal load_patterns
11382	AFDC  2852E52D             sltiu $18, $2, 58669
11383	AFE0  AFB20000             sw $18, 0($29)
11384	AFE4  0C003102             jal increment_offset
11385	AFE8  0C0030F5             jal load_patterns
11386	AFEC  28522369             sltiu $18, $2, 9065
11387	AFF0  AFB20000             sw $18, 0($29)
11388	AFF4  0C003102             jal increment_offset
11389	AFF8  0C0030F5             jal load_patterns
11390	AFFC  2852DD91             sltiu $18, $2, 56721
11391	B000  AFB20000             sw $18, 0($29)
11392	B004  0C003102             jal increment_offset
11393	B008  0C0030F5             jal load_patterns
11394	B00C  2852D796             sltiu $18, $2, 55190
11395	B010  AFB20000             sw $18, 0($29)
11396	B014  0C003102             jal increment_offset
11397	B018  0C0030F5             jal load_patterns
11398	B01C  2852243B             sltiu $18, $2, 9275
11399	B020  AFB20000             sw $18, 0($29)
11400	B024  0C003102             jal increment_offset
11401	B028  0C0030F5             jal load_patterns
11402	B02C  2852EE83             sltiu $18, $2, 61059
11403	B030  AFB20000             sw $18, 0($29)
11404	B034  0C003102             jal increment_offset
11405	B038  0C0030F5             jal load_patterns
11406	B03C  28522678             sltiu $18, $2, 9848
11407	B040  AFB20000             sw $18, 0($29)
11408	B044  0C003102             jal increment_offset
11409	B048  0C0030F5             jal load_patterns
11410	B04C  2852F1A4             sltiu $18, $2, 61860
11411	B050  AFB20000             sw $18, 0($29)
11412	B054  0C003102             jal increment_offset
11413	B058  0C0030F5             jal load_patterns
11414	B05C  28520C78             sltiu $18, $2, 3192
11415	B060  AFB20000             sw $18, 0($29)
11416	B064  0C003102             jal increment_offset
11417	B068  0C0030F5             jal load_patterns
11418	B06C  285216A0             sltiu $18, $2, 5792
11419	B070  AFB20000             sw $18, 0($29)
11420	B074  0C003102             jal increment_offset
11421	B078  0C0030F5             jal load_patterns
11422	B07C  285247AE             sltiu $18, $2, 18350
11423	B080  AFB20000             sw $18, 0($29)
11424	B084  0C003102             jal increment_offset
11425	B088  0C0030F5             jal load_patterns
11426	B08C  28527FCF             sltiu $18, $2, 32719
11427	B090  AFB20000             sw $18, 0($29)
11428	B094  0C003102             jal increment_offset
11429	B098  0C0030F5             jal load_patterns
11430	B09C  2852B2CA             sltiu $18, $2, 45770
11431	B0A0  AFB20000             sw $18, 0($29)
11432	B0A4  0C003102             jal increment_offset
11433	B0A8  0C0030F5             jal load_patterns
11434	B0AC  2852D7C2             sltiu $18, $2, 55234
11435	B0B0  AFB20000             sw $18, 0($29)
11436	B0B4  0C003102             jal increment_offset
11437	B0B8  0C0030F5             jal load_patterns
11438	B0BC  2852AB79             sltiu $18, $2, 43897
11439	B0C0  AFB20000             sw $18, 0($29)
11440	B0C4  0C003102             jal increment_offset
11441	B0C8  0C0030F5             jal load_patterns
11442	B0CC  28521694             sltiu $18, $2, 5780
11443	B0D0  AFB20000             sw $18, 0($29)
11444	B0D4  0C003102             jal increment_offset
11445	B0D8  0C0030F5             jal load_patterns
11446	B0DC  28522705             sltiu $18, $2, 9989
11447	B0E0  AFB20000             sw $18, 0($29)
11448	B0E4  0C003102             jal increment_offset
11449	B0E8  0C0030F5             jal load_patterns
11450	B0EC  28525A79             sltiu $18, $2, 23161
11451	B0F0  AFB20000             sw $18, 0($29)
11452	B0F4  0C003102             jal increment_offset
11453	B0F8  0C0030F5             jal load_patterns
11454	B0FC  28520CA2             sltiu $18, $2, 3234
11455	B100  AFB20000             sw $18, 0($29)
11456	B104  0C003102             jal increment_offset
11457	B108  0C0030F5             jal load_patterns
11458	B10C  28525B63             sltiu $18, $2, 23395
11459	B110  AFB20000             sw $18, 0($29)
11460	B114  0C003102             jal increment_offset
11461	B118  0C0030F5             jal load_patterns
11462	B11C  28521960             sltiu $18, $2, 6496
11463	B120  AFB20000             sw $18, 0($29)
11464	B124  0C003102             jal increment_offset
11465	B128  0C0030F5             jal load_patterns
11466	B12C  285242B3             sltiu $18, $2, 17075
11467	B130  AFB20000             sw $18, 0($29)
11468	B134  0C003102             jal increment_offset
11469	B138  0C0030F5             jal load_patterns
11470	B13C  285209AE             sltiu $18, $2, 2478
11471	B140  AFB20000             sw $18, 0($29)
11472	B144  0C003102             jal increment_offset
11473	B148  0C0030F5             jal load_patterns
11474	B14C  28520AD1             sltiu $18, $2, 2769
11475	B150  AFB20000             sw $18, 0($29)
11476	B154  0C003102             jal increment_offset
11477	B158  0C0030F5             jal load_patterns
11478	B15C  2852862C             sltiu $18, $2, 34348
11479	B160  AFB20000             sw $18, 0($29)
11480	B164  0C003102             jal increment_offset
11481	B168  0C0030F5             jal load_patterns
11482	B16C  2852BC7A             sltiu $18, $2, 48250
11483	B170  AFB20000             sw $18, 0($29)
11484	B174  0C003102             jal increment_offset
11485	B178  0C0030F5             jal load_patterns
11486	B17C  28520A38             sltiu $18, $2, 2616
11487	B180  AFB20000             sw $18, 0($29)
11488	B184  0C003102             jal increment_offset
11489	B188  0C0030F5             jal load_patterns
11490	B18C  28526C0C             sltiu $18, $2, 27660
11491	B190  AFB20000             sw $18, 0($29)
11492	B194  0C003102             jal increment_offset
11493	B198  0C0030F5             jal load_patterns
11494	B19C  28523752             sltiu $18, $2, 14162
11495	B1A0  AFB20000             sw $18, 0($29)
11496	B1A4  0C003102             jal increment_offset
11497	B1A8  0C0030F5             jal load_patterns
11498	B1AC  28520B96             sltiu $18, $2, 2966
11499	B1B0  AFB20000             sw $18, 0($29)
11500	B1B4  0C003102             jal increment_offset
11501	B1B8  0C0030F5             jal load_patterns
11502	B1BC  2852FF35             sltiu $18, $2, 65333
11503	B1C0  AFB20000             sw $18, 0($29)
11504	B1C4  0C003102             jal increment_offset
11505	B1C8  0C0030F5             jal load_patterns
11506	B1CC  2852C583             sltiu $18, $2, 50563
11507	B1D0  AFB20000             sw $18, 0($29)
11508	B1D4  0C003102             jal increment_offset
11509	B1D8  0C0030F5             jal load_patterns
11510	B1DC  28528FC7             sltiu $18, $2, 36807
11511	B1E0  AFB20000             sw $18, 0($29)
11512	B1E4  0C003102             jal increment_offset
11513	B1E8  0C0030F5             jal load_patterns
11514	B1EC  2852AF83             sltiu $18, $2, 44931
11515	B1F0  AFB20000             sw $18, 0($29)
11516	B1F4  0C003102             jal increment_offset
11517	B1F8  0C0030F5             jal load_patterns
11518	B1FC  28520979             sltiu $18, $2, 2425
11519	B200  AFB20000             sw $18, 0($29)
11520	B204  0C003102             jal increment_offset
11521	B208  0C0030F5             jal load_patterns
11522	B20C  285283DF             sltiu $18, $2, 33759
11523	B210  AFB20000             sw $18, 0($29)
11524	B214  0C003102             jal increment_offset
11525	B218  0C0030F5             jal load_patterns
11526	B21C  285220AB             sltiu $18, $2, 8363
11527	B220  AFB20000             sw $18, 0($29)
11528	B224  0C003102             jal increment_offset
11529	B228  0C0030F5             jal load_patterns
11530	B22C  285241D2             sltiu $18, $2, 16850
11531	B230  AFB20000             sw $18, 0($29)
11532	B234  0C003102             jal increment_offset
11533	B238  0C0030F5             jal load_patterns
11534	B23C  2852136F             sltiu $18, $2, 4975
11535	B240  AFB20000             sw $18, 0($29)
11536	B244  0C003102             jal increment_offset
11537	B248  0C0030F5             jal load_patterns
11538	B24C  2852C45C             sltiu $18, $2, 50268
11539	B250  AFB20000             sw $18, 0($29)
11540	B254  0C003102             jal increment_offset
11541	B258  0C0030F5             jal load_patterns
11542	B25C  2852F089             sltiu $18, $2, 61577
11543	B260  AFB20000             sw $18, 0($29)
11544	B264  0C003102             jal increment_offset
11545	B268  0C0030F5             jal load_patterns
11546	B26C  285221EF             sltiu $18, $2, 8687
11547	B270  AFB20000             sw $18, 0($29)
11548	B274  0C003102             jal increment_offset
11549	B278  0C0030F5             jal load_patterns
11550	B27C  285289F7             sltiu $18, $2, 35319
11551	B280  AFB20000             sw $18, 0($29)
11552	B284  0C003102             jal increment_offset
11553	B288  0C0030F5             jal load_patterns
11554	B28C  2852E4A8             sltiu $18, $2, 58536
11555	B290  AFB20000             sw $18, 0($29)
11556	B294  0C003102             jal increment_offset
11557	B298  0C0030F5             jal load_patterns
11558	B29C  285204C3             sltiu $18, $2, 1219
11559	B2A0  AFB20000             sw $18, 0($29)
11560	B2A4  0C003102             jal increment_offset
11561	B2A8  0C0030F5             jal load_patterns
11562	B2AC  2852F64F             sltiu $18, $2, 63055
11563	B2B0  AFB20000             sw $18, 0($29)
11564	B2B4  0C003102             jal increment_offset
11565	B2B8  0C0030F5             jal load_patterns
11566	B2BC  2852BF22             sltiu $18, $2, 48930
11567	B2C0  AFB20000             sw $18, 0($29)
11568	B2C4  0C003102             jal increment_offset
11569	B2C8  0C0030F5             jal load_patterns
11570	B2CC  28520E40             sltiu $18, $2, 3648
11571	B2D0  AFB20000             sw $18, 0($29)
11572	B2D4  0C003102             jal increment_offset
11573	B2D8  0C0030F5             jal load_patterns
11574	B2DC  2852FC4C             sltiu $18, $2, 64588
11575	B2E0  AFB20000             sw $18, 0($29)
11576	B2E4  0C003102             jal increment_offset
11577	B2E8  0C0030F5             jal load_patterns
11578	B2EC  2852DFD6             sltiu $18, $2, 57302
11579	B2F0  AFB20000             sw $18, 0($29)
11580	B2F4  0C003102             jal increment_offset
11581	B2F8  0C0030F5             jal load_patterns
11582	B2FC  285213F3             sltiu $18, $2, 5107
11583	B300  AFB20000             sw $18, 0($29)
11584	B304  0C003102             jal increment_offset
11585	B308  0C0030F5             jal load_patterns
11586	B30C  2852178C             sltiu $18, $2, 6028
11587	B310  AFB20000             sw $18, 0($29)
11588	B314  0C003102             jal increment_offset
11589	B318  0C0030F5             jal load_patterns
11590	B31C  28522820             sltiu $18, $2, 10272
11591	B320  AFB20000             sw $18, 0($29)
11592	B324  0C003102             jal increment_offset
11593	B328  0C0030F5             jal load_patterns
11594	B32C  285231BA             sltiu $18, $2, 12730
11595	B330  AFB20000             sw $18, 0($29)
11596	B334  0C003102             jal increment_offset
11597	B338  0C0030F5             jal load_patterns
11598	B33C  285235D9             sltiu $18, $2, 13785
11599	B340  AFB20000             sw $18, 0($29)
11600	B344  0C003102             jal increment_offset
11601	B348  0C0030F5             jal load_patterns
11602	B34C  28526840             sltiu $18, $2, 26688
11603	B350  AFB20000             sw $18, 0($29)
11604	B354  0C003102             jal increment_offset
11605	B358  0C0030F5             jal load_patterns
11606	B35C  285241A4             sltiu $18, $2, 16804
11607	B360  AFB20000             sw $18, 0($29)
11608	B364  0C003102             jal increment_offset
11609	B368  0C0030F5             jal load_patterns
11610	B36C  285209D8             sltiu $18, $2, 2520
11611	B370  AFB20000             sw $18, 0($29)
11612	B374  0C003102             jal increment_offset
11613	B378  0C0030F5             jal load_patterns
11614	B37C  2852689A             sltiu $18, $2, 26778
11615	B380  AFB20000             sw $18, 0($29)
11616	B384  0C003102             jal increment_offset
11617	B388  0C0030F5             jal load_patterns
11618	B38C  28523D60             sltiu $18, $2, 15712
11619	B390  AFB20000             sw $18, 0($29)
11620	B394  0C003102             jal increment_offset
11621	B398  0C0030F5             jal load_patterns
11622	B39C  28523C13             sltiu $18, $2, 15379
11623	B3A0  AFB20000             sw $18, 0($29)
11624	B3A4  0C003102             jal increment_offset
11625	B3A8  0C0030F5             jal load_patterns
11626	B3AC  2852327E             sltiu $18, $2, 12926
11627	B3B0  AFB20000             sw $18, 0($29)
11628	B3B4  0C003102             jal increment_offset
11629	B3B8  0C0030F5             jal load_patterns
11630	B3BC  2852AC2A             sltiu $18, $2, 44074
11631	B3C0  AFB20000             sw $18, 0($29)
11632	B3C4  0C003102             jal increment_offset
11633	B3C8  0C0030F5             jal load_patterns
11634	B3CC  28528AB0             sltiu $18, $2, 35504
11635	B3D0  AFB20000             sw $18, 0($29)
11636	B3D4  0C003102             jal increment_offset
11637	B3D8  0C0030F5             jal load_patterns
11638	B3DC  285267F0             sltiu $18, $2, 26608
11639	B3E0  AFB20000             sw $18, 0($29)
11640	B3E4  0C003102             jal increment_offset
11641	B3E8  0C0030F5             jal load_patterns
11642	B3EC  2852E0BC             sltiu $18, $2, 57532
11643	B3F0  AFB20000             sw $18, 0($29)
11644	B3F4  0C003102             jal increment_offset
11645	B3F8  0C0030F5             jal load_patterns
11646	B3FC  2852F069             sltiu $18, $2, 61545
11647	B400  AFB20000             sw $18, 0($29)
11648	B404  0C003102             jal increment_offset
11649	B408  0C0030F5             jal load_patterns
11650	B40C  2852A7C4             sltiu $18, $2, 42948
11651	B410  AFB20000             sw $18, 0($29)
11652	B414  0C003102             jal increment_offset
11653	B418  0C0030F5             jal load_patterns
11654	B41C  2852962D             sltiu $18, $2, 38445
11655	B420  AFB20000             sw $18, 0($29)
11656	B424  0C003102             jal increment_offset
11657	B428  0C0030F5             jal load_patterns
11658	B42C  28525F66             sltiu $18, $2, 24422
11659	B430  AFB20000             sw $18, 0($29)
11660	B434  0C003102             jal increment_offset
11661	B438  0C0030F5             jal load_patterns
11662	B43C  28527D0A             sltiu $18, $2, 32010
11663	B440  AFB20000             sw $18, 0($29)
11664	B444  0C003102             jal increment_offset
11665	B448  0C0030F5             jal load_patterns
11666	B44C  28526877             sltiu $18, $2, 26743
11667	B450  AFB20000             sw $18, 0($29)
11668	B454  0C003102             jal increment_offset
11669	B458  0C0030F5             jal load_patterns
11670	B45C  28520F02             sltiu $18, $2, 3842
11671	B460  AFB20000             sw $18, 0($29)
11672	B464  0C003102             jal increment_offset
11673	B468  0C0030F5             jal load_patterns
11674	B46C  2852C9FF             sltiu $18, $2, 51711
11675	B470  AFB20000             sw $18, 0($29)
11676	B474  0C003102             jal increment_offset
11677	B478  0C0030F5             jal load_patterns
11678	B47C  2852CCC9             sltiu $18, $2, 52425
11679	B480  AFB20000             sw $18, 0($29)
11680	B484  0C003102             jal increment_offset
11681	B488  0C0030F5             jal load_patterns
11682	B48C  285276A5             sltiu $18, $2, 30373
11683	B490  AFB20000             sw $18, 0($29)
11684	B494  0C003102             jal increment_offset
11685	B498  0C0030F5             jal load_patterns
11686	B49C  2852481D             sltiu $18, $2, 18461
11687	B4A0  AFB20000             sw $18, 0($29)
11688	B4A4  0C003102             jal increment_offset
11689	B4A8  0C0030F5             jal load_patterns
11690	B4AC  28527869             sltiu $18, $2, 30825
11691	B4B0  AFB20000             sw $18, 0($29)
11692	B4B4  0C003102             jal increment_offset
11693	B4B8  0C0030F5             jal load_patterns
11694	B4BC  2852B7FC             sltiu $18, $2, 47100
11695	B4C0  AFB20000             sw $18, 0($29)
11696	B4C4  0C003102             jal increment_offset
11697	B4C8  0C0030F5             jal load_patterns
11698	B4CC  285222E0             sltiu $18, $2, 8928
11699	B4D0  AFB20000             sw $18, 0($29)
11700	B4D4  0C003102             jal increment_offset
11701	B4D8  0C0030F5             jal load_patterns
11702	B4DC  28524F3B             sltiu $18, $2, 20283
11703	B4E0  AFB20000             sw $18, 0($29)
11704	B4E4  0C003102             jal increment_offset
11705	B4E8  0C0030F5             jal load_patterns
11706	B4EC  285207A7             sltiu $18, $2, 1959
11707	B4F0  AFB20000             sw $18, 0($29)
11708	B4F4  0C003102             jal increment_offset
11709	B4F8  0C0030F5             jal load_patterns
11710	B4FC  2852C18E             sltiu $18, $2, 49550
11711	B500  AFB20000             sw $18, 0($29)
11712	B504  0C003102             jal increment_offset
11713	B508  0C0030F5             jal load_patterns
11714	B50C  2852EDEF             sltiu $18, $2, 60911
11715	B510  AFB20000             sw $18, 0($29)
11716	B514  0C003102             jal increment_offset
11717	B518  0C0030F5             jal load_patterns
11718	B51C  2852143C             sltiu $18, $2, 5180
11719	B520  AFB20000             sw $18, 0($29)
11720	B524  0C003102             jal increment_offset
11721	B528  0C0030F5             jal load_patterns
11722	B52C  28524F69             sltiu $18, $2, 20329
11723	B530  AFB20000             sw $18, 0($29)
11724	B534  0C003102             jal increment_offset
11725	B538  0C0030F5             jal load_patterns
11726	B53C  285257D7             sltiu $18, $2, 22487
11727	B540  AFB20000             sw $18, 0($29)
11728	B544  0C003102             jal increment_offset
11729	B548  0C0030F5             jal load_patterns
11730	B54C  2852ED98             sltiu $18, $2, 60824
11731	B550  AFB20000             sw $18, 0($29)
11732	B554  0C003102             jal increment_offset
11733	B558  0C0030F5             jal load_patterns
11734	B55C  2852E7A5             sltiu $18, $2, 59301
11735	B560  AFB20000             sw $18, 0($29)
11736	B564  0C003102             jal increment_offset
11737	B568  0C0030F5             jal load_patterns
11738	B56C  28527B4F             sltiu $18, $2, 31567
11739	B570  AFB20000             sw $18, 0($29)
11740	B574  0C003102             jal increment_offset
11741	B578  0C0030F5             jal load_patterns
11742	B57C  28522E95             sltiu $18, $2, 11925
11743	B580  AFB20000             sw $18, 0($29)
11744	B584  0C003102             jal increment_offset
11745	B588  0C0030F5             jal load_patterns
11746	B58C  285273CF             sltiu $18, $2, 29647
11747	B590  AFB20000             sw $18, 0($29)
11748	B594  0C003102             jal increment_offset
11749	B598  0C0030F5             jal load_patterns
11750	B59C  28526E7C             sltiu $18, $2, 28284
11751	B5A0  AFB20000             sw $18, 0($29)
11752	B5A4  0C003102             jal increment_offset
11753	B5A8  0C0030F5             jal load_patterns
11754	B5AC  2852DAE7             sltiu $18, $2, 56039
11755	B5B0  AFB20000             sw $18, 0($29)
11756	B5B4  0C003102             jal increment_offset
11757	B5B8  0C0030F5             jal load_patterns
11758	B5BC  28524CC2             sltiu $18, $2, 19650
11759	B5C0  AFB20000             sw $18, 0($29)
11760	B5C4  0C003102             jal increment_offset
11761	B5C8  0C0030F5             jal load_patterns
11762	B5CC  28524112             sltiu $18, $2, 16658
11763	B5D0  AFB20000             sw $18, 0($29)
11764	B5D4  0C003102             jal increment_offset
11765	B5D8  0C0030F5             jal load_patterns
11766	B5DC  2852CDD5             sltiu $18, $2, 52693
11767	B5E0  AFB20000             sw $18, 0($29)
11768	B5E4  0C003102             jal increment_offset
11769	B5E8  0C0030F5             jal load_patterns
11770	B5EC  28529EA8             sltiu $18, $2, 40616
11771	B5F0  AFB20000             sw $18, 0($29)
11772	B5F4  0C003102             jal increment_offset
11773	B5F8  0C0030F5             jal load_patterns
11774	B5FC  28528FD0             sltiu $18, $2, 36816
11775	B600  AFB20000             sw $18, 0($29)
11776	B604  0C003102             jal increment_offset
11777	B608  0C0030F5             jal load_patterns
11778	B60C  28523149             sltiu $18, $2, 12617
11779	B610  AFB20000             sw $18, 0($29)
11780	B614  0C003102             jal increment_offset
11781	B618  0C0030F5             jal load_patterns
11782	B61C  2852B261             sltiu $18, $2, 45665
11783	B620  AFB20000             sw $18, 0($29)
11784	B624  0C003102             jal increment_offset
11785	B628  0C0030F5             jal load_patterns
11786	B62C  2852E219             sltiu $18, $2, 57881
11787	B630  AFB20000             sw $18, 0($29)
11788	B634  0C003102             jal increment_offset
11789	B638  0C0030F5             jal load_patterns
11790	B63C  2852A337             sltiu $18, $2, 41783
11791	B640  AFB20000             sw $18, 0($29)
11792	B644  0C003102             jal increment_offset
11793	B648  0C0030F5             jal load_patterns
11794	B64C  2852B60E             sltiu $18, $2, 46606
11795	B650  AFB20000             sw $18, 0($29)
11796	B654  0C003102             jal increment_offset
11797	B658  0C0030F5             jal load_patterns
11798	B65C  28527FBD             sltiu $18, $2, 32701
11799	B660  AFB20000             sw $18, 0($29)
11800	B664  0C003102             jal increment_offset
11801	                          
11802	B668  0C0030F8            jal reset_offsets
11803	                          operation_xori:
11804	B66C  0C0030F5             jal load_patterns
11805	B670  38525882             xori $18, $2, 22658
11806	B674  AFB20000             sw $18, 0($29)
11807	B678  0C003102             jal increment_offset
11808	B67C  0C0030F5             jal load_patterns
11809	B680  38528ACC             xori $18, $2, 35532
11810	B684  AFB20000             sw $18, 0($29)
11811	B688  0C003102             jal increment_offset
11812	B68C  0C0030F5             jal load_patterns
11813	B690  3852B085             xori $18, $2, 45189
11814	B694  AFB20000             sw $18, 0($29)
11815	B698  0C003102             jal increment_offset
11816	B69C  0C0030F5             jal load_patterns
11817	B6A0  3852D17E             xori $18, $2, 53630
11818	B6A4  AFB20000             sw $18, 0($29)
11819	B6A8  0C003102             jal increment_offset
11820	B6AC  0C0030F5             jal load_patterns
11821	B6B0  3852C2E1             xori $18, $2, 49889
11822	B6B4  AFB20000             sw $18, 0($29)
11823	B6B8  0C003102             jal increment_offset
11824	B6BC  0C0030F5             jal load_patterns
11825	B6C0  3852FC93             xori $18, $2, 64659
11826	B6C4  AFB20000             sw $18, 0($29)
11827	B6C8  0C003102             jal increment_offset
11828	B6CC  0C0030F5             jal load_patterns
11829	B6D0  3852716A             xori $18, $2, 29034
11830	B6D4  AFB20000             sw $18, 0($29)
11831	B6D8  0C003102             jal increment_offset
11832	B6DC  0C0030F5             jal load_patterns
11833	B6E0  38520238             xori $18, $2, 568
11834	B6E4  AFB20000             sw $18, 0($29)
11835	B6E8  0C003102             jal increment_offset
11836	B6EC  0C0030F5             jal load_patterns
11837	B6F0  38522A22             xori $18, $2, 10786
11838	B6F4  AFB20000             sw $18, 0($29)
11839	B6F8  0C003102             jal increment_offset
11840	B6FC  0C0030F5             jal load_patterns
11841	B700  3852C4E8             xori $18, $2, 50408
11842	B704  AFB20000             sw $18, 0($29)
11843	B708  0C003102             jal increment_offset
11844	B70C  0C0030F5             jal load_patterns
11845	B710  3852B14E             xori $18, $2, 45390
11846	B714  AFB20000             sw $18, 0($29)
11847	B718  0C003102             jal increment_offset
11848	B71C  0C0030F5             jal load_patterns
11849	B720  3852BB05             xori $18, $2, 47877
11850	B724  AFB20000             sw $18, 0($29)
11851	B728  0C003102             jal increment_offset
11852	B72C  0C0030F5             jal load_patterns
11853	B730  3852C7E4             xori $18, $2, 51172
11854	B734  AFB20000             sw $18, 0($29)
11855	B738  0C003102             jal increment_offset
11856	B73C  0C0030F5             jal load_patterns
11857	B740  38528748             xori $18, $2, 34632
11858	B744  AFB20000             sw $18, 0($29)
11859	B748  0C003102             jal increment_offset
11860	B74C  0C0030F5             jal load_patterns
11861	B750  3852BD11             xori $18, $2, 48401
11862	B754  AFB20000             sw $18, 0($29)
11863	B758  0C003102             jal increment_offset
11864	B75C  0C0030F5             jal load_patterns
11865	B760  38525773             xori $18, $2, 22387
11866	B764  AFB20000             sw $18, 0($29)
11867	B768  0C003102             jal increment_offset
11868	B76C  0C0030F5             jal load_patterns
11869	B770  38525CE1             xori $18, $2, 23777
11870	B774  AFB20000             sw $18, 0($29)
11871	B778  0C003102             jal increment_offset
11872	B77C  0C0030F5             jal load_patterns
11873	B780  3852A2BB             xori $18, $2, 41659
11874	B784  AFB20000             sw $18, 0($29)
11875	B788  0C003102             jal increment_offset
11876	B78C  0C0030F5             jal load_patterns
11877	B790  38528A40             xori $18, $2, 35392
11878	B794  AFB20000             sw $18, 0($29)
11879	B798  0C003102             jal increment_offset
11880	B79C  0C0030F5             jal load_patterns
11881	B7A0  3852BECB             xori $18, $2, 48843
11882	B7A4  AFB20000             sw $18, 0($29)
11883	B7A8  0C003102             jal increment_offset
11884	B7AC  0C0030F5             jal load_patterns
11885	B7B0  3852295F             xori $18, $2, 10591
11886	B7B4  AFB20000             sw $18, 0($29)
11887	B7B8  0C003102             jal increment_offset
11888	B7BC  0C0030F5             jal load_patterns
11889	B7C0  3852E5EC             xori $18, $2, 58860
11890	B7C4  AFB20000             sw $18, 0($29)
11891	B7C8  0C003102             jal increment_offset
11892	B7CC  0C0030F5             jal load_patterns
11893	B7D0  3852AF25             xori $18, $2, 44837
11894	B7D4  AFB20000             sw $18, 0($29)
11895	B7D8  0C003102             jal increment_offset
11896	B7DC  0C0030F5             jal load_patterns
11897	B7E0  385231D0             xori $18, $2, 12752
11898	B7E4  AFB20000             sw $18, 0($29)
11899	B7E8  0C003102             jal increment_offset
11900	B7EC  0C0030F5             jal load_patterns
11901	B7F0  3852496F             xori $18, $2, 18799
11902	B7F4  AFB20000             sw $18, 0($29)
11903	B7F8  0C003102             jal increment_offset
11904	B7FC  0C0030F5             jal load_patterns
11905	B800  38525592             xori $18, $2, 21906
11906	B804  AFB20000             sw $18, 0($29)
11907	B808  0C003102             jal increment_offset
11908	B80C  0C0030F5             jal load_patterns
11909	B810  38521900             xori $18, $2, 6400
11910	B814  AFB20000             sw $18, 0($29)
11911	B818  0C003102             jal increment_offset
11912	B81C  0C0030F5             jal load_patterns
11913	B820  385226DA             xori $18, $2, 9946
11914	B824  AFB20000             sw $18, 0($29)
11915	B828  0C003102             jal increment_offset
11916	B82C  0C0030F5             jal load_patterns
11917	B830  3852408A             xori $18, $2, 16522
11918	B834  AFB20000             sw $18, 0($29)
11919	B838  0C003102             jal increment_offset
11920	B83C  0C0030F5             jal load_patterns
11921	B840  3852297E             xori $18, $2, 10622
11922	B844  AFB20000             sw $18, 0($29)
11923	B848  0C003102             jal increment_offset
11924	B84C  0C0030F5             jal load_patterns
11925	B850  38522961             xori $18, $2, 10593
11926	B854  AFB20000             sw $18, 0($29)
11927	B858  0C003102             jal increment_offset
11928	B85C  0C0030F5             jal load_patterns
11929	B860  3852E80E             xori $18, $2, 59406
11930	B864  AFB20000             sw $18, 0($29)
11931	B868  0C003102             jal increment_offset
11932	B86C  0C0030F5             jal load_patterns
11933	B870  3852B202             xori $18, $2, 45570
11934	B874  AFB20000             sw $18, 0($29)
11935	B878  0C003102             jal increment_offset
11936	B87C  0C0030F5             jal load_patterns
11937	B880  38523388             xori $18, $2, 13192
11938	B884  AFB20000             sw $18, 0($29)
11939	B888  0C003102             jal increment_offset
11940	B88C  0C0030F5             jal load_patterns
11941	B890  385208DC             xori $18, $2, 2268
11942	B894  AFB20000             sw $18, 0($29)
11943	B898  0C003102             jal increment_offset
11944	B89C  0C0030F5             jal load_patterns
11945	B8A0  3852363B             xori $18, $2, 13883
11946	B8A4  AFB20000             sw $18, 0($29)
11947	B8A8  0C003102             jal increment_offset
11948	B8AC  0C0030F5             jal load_patterns
11949	B8B0  3852CFF9             xori $18, $2, 53241
11950	B8B4  AFB20000             sw $18, 0($29)
11951	B8B8  0C003102             jal increment_offset
11952	B8BC  0C0030F5             jal load_patterns
11953	B8C0  38524B2C             xori $18, $2, 19244
11954	B8C4  AFB20000             sw $18, 0($29)
11955	B8C8  0C003102             jal increment_offset
11956	B8CC  0C0030F5             jal load_patterns
11957	B8D0  3852BE61             xori $18, $2, 48737
11958	B8D4  AFB20000             sw $18, 0($29)
11959	B8D8  0C003102             jal increment_offset
11960	B8DC  0C0030F5             jal load_patterns
11961	B8E0  385209C4             xori $18, $2, 2500
11962	B8E4  AFB20000             sw $18, 0($29)
11963	B8E8  0C003102             jal increment_offset
11964	B8EC  0C0030F5             jal load_patterns
11965	B8F0  385297A3             xori $18, $2, 38819
11966	B8F4  AFB20000             sw $18, 0($29)
11967	B8F8  0C003102             jal increment_offset
11968	B8FC  0C0030F5             jal load_patterns
11969	B900  3852718A             xori $18, $2, 29066
11970	B904  AFB20000             sw $18, 0($29)
11971	B908  0C003102             jal increment_offset
11972	B90C  0C0030F5             jal load_patterns
11973	B910  3852E80D             xori $18, $2, 59405
11974	B914  AFB20000             sw $18, 0($29)
11975	B918  0C003102             jal increment_offset
11976	B91C  0C0030F5             jal load_patterns
11977	B920  3852514B             xori $18, $2, 20811
11978	B924  AFB20000             sw $18, 0($29)
11979	B928  0C003102             jal increment_offset
11980	B92C  0C0030F5             jal load_patterns
11981	B930  3852A44B             xori $18, $2, 42059
11982	B934  AFB20000             sw $18, 0($29)
11983	B938  0C003102             jal increment_offset
11984	B93C  0C0030F5             jal load_patterns
11985	B940  3852E758             xori $18, $2, 59224
11986	B944  AFB20000             sw $18, 0($29)
11987	B948  0C003102             jal increment_offset
11988	B94C  0C0030F5             jal load_patterns
11989	B950  38520FB8             xori $18, $2, 4024
11990	B954  AFB20000             sw $18, 0($29)
11991	B958  0C003102             jal increment_offset
11992	B95C  0C0030F5             jal load_patterns
11993	B960  38525C1B             xori $18, $2, 23579
11994	B964  AFB20000             sw $18, 0($29)
11995	B968  0C003102             jal increment_offset
11996	B96C  0C0030F5             jal load_patterns
11997	B970  38524474             xori $18, $2, 17524
11998	B974  AFB20000             sw $18, 0($29)
11999	B978  0C003102             jal increment_offset
12000	B97C  0C0030F5             jal load_patterns
12001	B980  3852EF1E             xori $18, $2, 61214
12002	B984  AFB20000             sw $18, 0($29)
12003	B988  0C003102             jal increment_offset
12004	B98C  0C0030F5             jal load_patterns
12005	B990  38523BC4             xori $18, $2, 15300
12006	B994  AFB20000             sw $18, 0($29)
12007	B998  0C003102             jal increment_offset
12008	B99C  0C0030F5             jal load_patterns
12009	B9A0  3852FD41             xori $18, $2, 64833
12010	B9A4  AFB20000             sw $18, 0($29)
12011	B9A8  0C003102             jal increment_offset
12012	B9AC  0C0030F5             jal load_patterns
12013	B9B0  3852D65A             xori $18, $2, 54874
12014	B9B4  AFB20000             sw $18, 0($29)
12015	B9B8  0C003102             jal increment_offset
12016	B9BC  0C0030F5             jal load_patterns
12017	B9C0  38520487             xori $18, $2, 1159
12018	B9C4  AFB20000             sw $18, 0($29)
12019	B9C8  0C003102             jal increment_offset
12020	B9CC  0C0030F5             jal load_patterns
12021	B9D0  3852EF65             xori $18, $2, 61285
12022	B9D4  AFB20000             sw $18, 0($29)
12023	B9D8  0C003102             jal increment_offset
12024	B9DC  0C0030F5             jal load_patterns
12025	B9E0  3852F2C3             xori $18, $2, 62147
12026	B9E4  AFB20000             sw $18, 0($29)
12027	B9E8  0C003102             jal increment_offset
12028	B9EC  0C0030F5             jal load_patterns
12029	B9F0  38526076             xori $18, $2, 24694
12030	B9F4  AFB20000             sw $18, 0($29)
12031	B9F8  0C003102             jal increment_offset
12032	B9FC  0C0030F5             jal load_patterns
12033	BA00  3852214A             xori $18, $2, 8522
12034	BA04  AFB20000             sw $18, 0($29)
12035	BA08  0C003102             jal increment_offset
12036	BA0C  0C0030F5             jal load_patterns
12037	BA10  385268D6             xori $18, $2, 26838
12038	BA14  AFB20000             sw $18, 0($29)
12039	BA18  0C003102             jal increment_offset
12040	BA1C  0C0030F5             jal load_patterns
12041	BA20  3852E735             xori $18, $2, 59189
12042	BA24  AFB20000             sw $18, 0($29)
12043	BA28  0C003102             jal increment_offset
12044	BA2C  0C0030F5             jal load_patterns
12045	BA30  3852F756             xori $18, $2, 63318
12046	BA34  AFB20000             sw $18, 0($29)
12047	BA38  0C003102             jal increment_offset
12048	BA3C  0C0030F5             jal load_patterns
12049	BA40  3852E52D             xori $18, $2, 58669
12050	BA44  AFB20000             sw $18, 0($29)
12051	BA48  0C003102             jal increment_offset
12052	BA4C  0C0030F5             jal load_patterns
12053	BA50  38522369             xori $18, $2, 9065
12054	BA54  AFB20000             sw $18, 0($29)
12055	BA58  0C003102             jal increment_offset
12056	BA5C  0C0030F5             jal load_patterns
12057	BA60  3852DD91             xori $18, $2, 56721
12058	BA64  AFB20000             sw $18, 0($29)
12059	BA68  0C003102             jal increment_offset
12060	BA6C  0C0030F5             jal load_patterns
12061	BA70  3852D796             xori $18, $2, 55190
12062	BA74  AFB20000             sw $18, 0($29)
12063	BA78  0C003102             jal increment_offset
12064	BA7C  0C0030F5             jal load_patterns
12065	BA80  3852243B             xori $18, $2, 9275
12066	BA84  AFB20000             sw $18, 0($29)
12067	BA88  0C003102             jal increment_offset
12068	BA8C  0C0030F5             jal load_patterns
12069	BA90  3852EE83             xori $18, $2, 61059
12070	BA94  AFB20000             sw $18, 0($29)
12071	BA98  0C003102             jal increment_offset
12072	BA9C  0C0030F5             jal load_patterns
12073	BAA0  38522678             xori $18, $2, 9848
12074	BAA4  AFB20000             sw $18, 0($29)
12075	BAA8  0C003102             jal increment_offset
12076	BAAC  0C0030F5             jal load_patterns
12077	BAB0  3852F1A4             xori $18, $2, 61860
12078	BAB4  AFB20000             sw $18, 0($29)
12079	BAB8  0C003102             jal increment_offset
12080	BABC  0C0030F5             jal load_patterns
12081	BAC0  38520C78             xori $18, $2, 3192
12082	BAC4  AFB20000             sw $18, 0($29)
12083	BAC8  0C003102             jal increment_offset
12084	BACC  0C0030F5             jal load_patterns
12085	BAD0  385216A0             xori $18, $2, 5792
12086	BAD4  AFB20000             sw $18, 0($29)
12087	BAD8  0C003102             jal increment_offset
12088	BADC  0C0030F5             jal load_patterns
12089	BAE0  385247AE             xori $18, $2, 18350
12090	BAE4  AFB20000             sw $18, 0($29)
12091	BAE8  0C003102             jal increment_offset
12092	BAEC  0C0030F5             jal load_patterns
12093	BAF0  38527FCF             xori $18, $2, 32719
12094	BAF4  AFB20000             sw $18, 0($29)
12095	BAF8  0C003102             jal increment_offset
12096	BAFC  0C0030F5             jal load_patterns
12097	BB00  3852B2CA             xori $18, $2, 45770
12098	BB04  AFB20000             sw $18, 0($29)
12099	BB08  0C003102             jal increment_offset
12100	BB0C  0C0030F5             jal load_patterns
12101	BB10  3852D7C2             xori $18, $2, 55234
12102	BB14  AFB20000             sw $18, 0($29)
12103	BB18  0C003102             jal increment_offset
12104	BB1C  0C0030F5             jal load_patterns
12105	BB20  3852AB79             xori $18, $2, 43897
12106	BB24  AFB20000             sw $18, 0($29)
12107	BB28  0C003102             jal increment_offset
12108	BB2C  0C0030F5             jal load_patterns
12109	BB30  38521694             xori $18, $2, 5780
12110	BB34  AFB20000             sw $18, 0($29)
12111	BB38  0C003102             jal increment_offset
12112	BB3C  0C0030F5             jal load_patterns
12113	BB40  38522705             xori $18, $2, 9989
12114	BB44  AFB20000             sw $18, 0($29)
12115	BB48  0C003102             jal increment_offset
12116	BB4C  0C0030F5             jal load_patterns
12117	BB50  38525A79             xori $18, $2, 23161
12118	BB54  AFB20000             sw $18, 0($29)
12119	BB58  0C003102             jal increment_offset
12120	BB5C  0C0030F5             jal load_patterns
12121	BB60  38520CA2             xori $18, $2, 3234
12122	BB64  AFB20000             sw $18, 0($29)
12123	BB68  0C003102             jal increment_offset
12124	BB6C  0C0030F5             jal load_patterns
12125	BB70  38525B63             xori $18, $2, 23395
12126	BB74  AFB20000             sw $18, 0($29)
12127	BB78  0C003102             jal increment_offset
12128	BB7C  0C0030F5             jal load_patterns
12129	BB80  38521960             xori $18, $2, 6496
12130	BB84  AFB20000             sw $18, 0($29)
12131	BB88  0C003102             jal increment_offset
12132	BB8C  0C0030F5             jal load_patterns
12133	BB90  385242B3             xori $18, $2, 17075
12134	BB94  AFB20000             sw $18, 0($29)
12135	BB98  0C003102             jal increment_offset
12136	BB9C  0C0030F5             jal load_patterns
12137	BBA0  385209AE             xori $18, $2, 2478
12138	BBA4  AFB20000             sw $18, 0($29)
12139	BBA8  0C003102             jal increment_offset
12140	BBAC  0C0030F5             jal load_patterns
12141	BBB0  38520AD1             xori $18, $2, 2769
12142	BBB4  AFB20000             sw $18, 0($29)
12143	BBB8  0C003102             jal increment_offset
12144	BBBC  0C0030F5             jal load_patterns
12145	BBC0  3852862C             xori $18, $2, 34348
12146	BBC4  AFB20000             sw $18, 0($29)
12147	BBC8  0C003102             jal increment_offset
12148	BBCC  0C0030F5             jal load_patterns
12149	BBD0  3852BC7A             xori $18, $2, 48250
12150	BBD4  AFB20000             sw $18, 0($29)
12151	BBD8  0C003102             jal increment_offset
12152	BBDC  0C0030F5             jal load_patterns
12153	BBE0  38520A38             xori $18, $2, 2616
12154	BBE4  AFB20000             sw $18, 0($29)
12155	BBE8  0C003102             jal increment_offset
12156	BBEC  0C0030F5             jal load_patterns
12157	BBF0  38526C0C             xori $18, $2, 27660
12158	BBF4  AFB20000             sw $18, 0($29)
12159	BBF8  0C003102             jal increment_offset
12160	BBFC  0C0030F5             jal load_patterns
12161	BC00  38523752             xori $18, $2, 14162
12162	BC04  AFB20000             sw $18, 0($29)
12163	BC08  0C003102             jal increment_offset
12164	BC0C  0C0030F5             jal load_patterns
12165	BC10  38520B96             xori $18, $2, 2966
12166	BC14  AFB20000             sw $18, 0($29)
12167	BC18  0C003102             jal increment_offset
12168	BC1C  0C0030F5             jal load_patterns
12169	BC20  3852FF35             xori $18, $2, 65333
12170	BC24  AFB20000             sw $18, 0($29)
12171	BC28  0C003102             jal increment_offset
12172	BC2C  0C0030F5             jal load_patterns
12173	BC30  3852C583             xori $18, $2, 50563
12174	BC34  AFB20000             sw $18, 0($29)
12175	BC38  0C003102             jal increment_offset
12176	BC3C  0C0030F5             jal load_patterns
12177	BC40  38528FC7             xori $18, $2, 36807
12178	BC44  AFB20000             sw $18, 0($29)
12179	BC48  0C003102             jal increment_offset
12180	BC4C  0C0030F5             jal load_patterns
12181	BC50  3852AF83             xori $18, $2, 44931
12182	BC54  AFB20000             sw $18, 0($29)
12183	BC58  0C003102             jal increment_offset
12184	BC5C  0C0030F5             jal load_patterns
12185	BC60  38520979             xori $18, $2, 2425
12186	BC64  AFB20000             sw $18, 0($29)
12187	BC68  0C003102             jal increment_offset
12188	BC6C  0C0030F5             jal load_patterns
12189	BC70  385283DF             xori $18, $2, 33759
12190	BC74  AFB20000             sw $18, 0($29)
12191	BC78  0C003102             jal increment_offset
12192	BC7C  0C0030F5             jal load_patterns
12193	BC80  385220AB             xori $18, $2, 8363
12194	BC84  AFB20000             sw $18, 0($29)
12195	BC88  0C003102             jal increment_offset
12196	BC8C  0C0030F5             jal load_patterns
12197	BC90  385241D2             xori $18, $2, 16850
12198	BC94  AFB20000             sw $18, 0($29)
12199	BC98  0C003102             jal increment_offset
12200	BC9C  0C0030F5             jal load_patterns
12201	BCA0  3852136F             xori $18, $2, 4975
12202	BCA4  AFB20000             sw $18, 0($29)
12203	BCA8  0C003102             jal increment_offset
12204	BCAC  0C0030F5             jal load_patterns
12205	BCB0  3852C45C             xori $18, $2, 50268
12206	BCB4  AFB20000             sw $18, 0($29)
12207	BCB8  0C003102             jal increment_offset
12208	BCBC  0C0030F5             jal load_patterns
12209	BCC0  3852F089             xori $18, $2, 61577
12210	BCC4  AFB20000             sw $18, 0($29)
12211	BCC8  0C003102             jal increment_offset
12212	BCCC  0C0030F5             jal load_patterns
12213	BCD0  385221EF             xori $18, $2, 8687
12214	BCD4  AFB20000             sw $18, 0($29)
12215	BCD8  0C003102             jal increment_offset
12216	BCDC  0C0030F5             jal load_patterns
12217	BCE0  385289F7             xori $18, $2, 35319
12218	BCE4  AFB20000             sw $18, 0($29)
12219	BCE8  0C003102             jal increment_offset
12220	BCEC  0C0030F5             jal load_patterns
12221	BCF0  3852E4A8             xori $18, $2, 58536
12222	BCF4  AFB20000             sw $18, 0($29)
12223	BCF8  0C003102             jal increment_offset
12224	BCFC  0C0030F5             jal load_patterns
12225	BD00  385204C3             xori $18, $2, 1219
12226	BD04  AFB20000             sw $18, 0($29)
12227	BD08  0C003102             jal increment_offset
12228	BD0C  0C0030F5             jal load_patterns
12229	BD10  3852F64F             xori $18, $2, 63055
12230	BD14  AFB20000             sw $18, 0($29)
12231	BD18  0C003102             jal increment_offset
12232	BD1C  0C0030F5             jal load_patterns
12233	BD20  3852BF22             xori $18, $2, 48930
12234	BD24  AFB20000             sw $18, 0($29)
12235	BD28  0C003102             jal increment_offset
12236	BD2C  0C0030F5             jal load_patterns
12237	BD30  38520E40             xori $18, $2, 3648
12238	BD34  AFB20000             sw $18, 0($29)
12239	BD38  0C003102             jal increment_offset
12240	BD3C  0C0030F5             jal load_patterns
12241	BD40  3852FC4C             xori $18, $2, 64588
12242	BD44  AFB20000             sw $18, 0($29)
12243	BD48  0C003102             jal increment_offset
12244	BD4C  0C0030F5             jal load_patterns
12245	BD50  3852DFD6             xori $18, $2, 57302
12246	BD54  AFB20000             sw $18, 0($29)
12247	BD58  0C003102             jal increment_offset
12248	BD5C  0C0030F5             jal load_patterns
12249	BD60  385213F3             xori $18, $2, 5107
12250	BD64  AFB20000             sw $18, 0($29)
12251	BD68  0C003102             jal increment_offset
12252	BD6C  0C0030F5             jal load_patterns
12253	BD70  3852178C             xori $18, $2, 6028
12254	BD74  AFB20000             sw $18, 0($29)
12255	BD78  0C003102             jal increment_offset
12256	BD7C  0C0030F5             jal load_patterns
12257	BD80  38522820             xori $18, $2, 10272
12258	BD84  AFB20000             sw $18, 0($29)
12259	BD88  0C003102             jal increment_offset
12260	BD8C  0C0030F5             jal load_patterns
12261	BD90  385231BA             xori $18, $2, 12730
12262	BD94  AFB20000             sw $18, 0($29)
12263	BD98  0C003102             jal increment_offset
12264	BD9C  0C0030F5             jal load_patterns
12265	BDA0  385235D9             xori $18, $2, 13785
12266	BDA4  AFB20000             sw $18, 0($29)
12267	BDA8  0C003102             jal increment_offset
12268	BDAC  0C0030F5             jal load_patterns
12269	BDB0  38526840             xori $18, $2, 26688
12270	BDB4  AFB20000             sw $18, 0($29)
12271	BDB8  0C003102             jal increment_offset
12272	BDBC  0C0030F5             jal load_patterns
12273	BDC0  385241A4             xori $18, $2, 16804
12274	BDC4  AFB20000             sw $18, 0($29)
12275	BDC8  0C003102             jal increment_offset
12276	BDCC  0C0030F5             jal load_patterns
12277	BDD0  385209D8             xori $18, $2, 2520
12278	BDD4  AFB20000             sw $18, 0($29)
12279	BDD8  0C003102             jal increment_offset
12280	BDDC  0C0030F5             jal load_patterns
12281	BDE0  3852689A             xori $18, $2, 26778
12282	BDE4  AFB20000             sw $18, 0($29)
12283	BDE8  0C003102             jal increment_offset
12284	BDEC  0C0030F5             jal load_patterns
12285	BDF0  38523D60             xori $18, $2, 15712
12286	BDF4  AFB20000             sw $18, 0($29)
12287	BDF8  0C003102             jal increment_offset
12288	BDFC  0C0030F5             jal load_patterns
12289	BE00  38523C13             xori $18, $2, 15379
12290	BE04  AFB20000             sw $18, 0($29)
12291	BE08  0C003102             jal increment_offset
12292	BE0C  0C0030F5             jal load_patterns
12293	BE10  3852327E             xori $18, $2, 12926
12294	BE14  AFB20000             sw $18, 0($29)
12295	BE18  0C003102             jal increment_offset
12296	BE1C  0C0030F5             jal load_patterns
12297	BE20  3852AC2A             xori $18, $2, 44074
12298	BE24  AFB20000             sw $18, 0($29)
12299	BE28  0C003102             jal increment_offset
12300	BE2C  0C0030F5             jal load_patterns
12301	BE30  38528AB0             xori $18, $2, 35504
12302	BE34  AFB20000             sw $18, 0($29)
12303	BE38  0C003102             jal increment_offset
12304	BE3C  0C0030F5             jal load_patterns
12305	BE40  385267F0             xori $18, $2, 26608
12306	BE44  AFB20000             sw $18, 0($29)
12307	BE48  0C003102             jal increment_offset
12308	BE4C  0C0030F5             jal load_patterns
12309	BE50  3852E0BC             xori $18, $2, 57532
12310	BE54  AFB20000             sw $18, 0($29)
12311	BE58  0C003102             jal increment_offset
12312	BE5C  0C0030F5             jal load_patterns
12313	BE60  3852F069             xori $18, $2, 61545
12314	BE64  AFB20000             sw $18, 0($29)
12315	BE68  0C003102             jal increment_offset
12316	BE6C  0C0030F5             jal load_patterns
12317	BE70  3852A7C4             xori $18, $2, 42948
12318	BE74  AFB20000             sw $18, 0($29)
12319	BE78  0C003102             jal increment_offset
12320	BE7C  0C0030F5             jal load_patterns
12321	BE80  3852962D             xori $18, $2, 38445
12322	BE84  AFB20000             sw $18, 0($29)
12323	BE88  0C003102             jal increment_offset
12324	BE8C  0C0030F5             jal load_patterns
12325	BE90  38525F66             xori $18, $2, 24422
12326	BE94  AFB20000             sw $18, 0($29)
12327	BE98  0C003102             jal increment_offset
12328	BE9C  0C0030F5             jal load_patterns
12329	BEA0  38527D0A             xori $18, $2, 32010
12330	BEA4  AFB20000             sw $18, 0($29)
12331	BEA8  0C003102             jal increment_offset
12332	BEAC  0C0030F5             jal load_patterns
12333	BEB0  38526877             xori $18, $2, 26743
12334	BEB4  AFB20000             sw $18, 0($29)
12335	BEB8  0C003102             jal increment_offset
12336	BEBC  0C0030F5             jal load_patterns
12337	BEC0  38520F02             xori $18, $2, 3842
12338	BEC4  AFB20000             sw $18, 0($29)
12339	BEC8  0C003102             jal increment_offset
12340	BECC  0C0030F5             jal load_patterns
12341	BED0  3852C9FF             xori $18, $2, 51711
12342	BED4  AFB20000             sw $18, 0($29)
12343	BED8  0C003102             jal increment_offset
12344	BEDC  0C0030F5             jal load_patterns
12345	BEE0  3852CCC9             xori $18, $2, 52425
12346	BEE4  AFB20000             sw $18, 0($29)
12347	BEE8  0C003102             jal increment_offset
12348	BEEC  0C0030F5             jal load_patterns
12349	BEF0  385276A5             xori $18, $2, 30373
12350	BEF4  AFB20000             sw $18, 0($29)
12351	BEF8  0C003102             jal increment_offset
12352	BEFC  0C0030F5             jal load_patterns
12353	BF00  3852481D             xori $18, $2, 18461
12354	BF04  AFB20000             sw $18, 0($29)
12355	BF08  0C003102             jal increment_offset
12356	BF0C  0C0030F5             jal load_patterns
12357	BF10  38527869             xori $18, $2, 30825
12358	BF14  AFB20000             sw $18, 0($29)
12359	BF18  0C003102             jal increment_offset
12360	BF1C  0C0030F5             jal load_patterns
12361	BF20  3852B7FC             xori $18, $2, 47100
12362	BF24  AFB20000             sw $18, 0($29)
12363	BF28  0C003102             jal increment_offset
12364	BF2C  0C0030F5             jal load_patterns
12365	BF30  385222E0             xori $18, $2, 8928
12366	BF34  AFB20000             sw $18, 0($29)
12367	BF38  0C003102             jal increment_offset
12368	BF3C  0C0030F5             jal load_patterns
12369	BF40  38524F3B             xori $18, $2, 20283
12370	BF44  AFB20000             sw $18, 0($29)
12371	BF48  0C003102             jal increment_offset
12372	BF4C  0C0030F5             jal load_patterns
12373	BF50  385207A7             xori $18, $2, 1959
12374	BF54  AFB20000             sw $18, 0($29)
12375	BF58  0C003102             jal increment_offset
12376	BF5C  0C0030F5             jal load_patterns
12377	BF60  3852C18E             xori $18, $2, 49550
12378	BF64  AFB20000             sw $18, 0($29)
12379	BF68  0C003102             jal increment_offset
12380	BF6C  0C0030F5             jal load_patterns
12381	BF70  3852EDEF             xori $18, $2, 60911
12382	BF74  AFB20000             sw $18, 0($29)
12383	BF78  0C003102             jal increment_offset
12384	BF7C  0C0030F5             jal load_patterns
12385	BF80  3852143C             xori $18, $2, 5180
12386	BF84  AFB20000             sw $18, 0($29)
12387	BF88  0C003102             jal increment_offset
12388	BF8C  0C0030F5             jal load_patterns
12389	BF90  38524F69             xori $18, $2, 20329
12390	BF94  AFB20000             sw $18, 0($29)
12391	BF98  0C003102             jal increment_offset
12392	BF9C  0C0030F5             jal load_patterns
12393	BFA0  385257D7             xori $18, $2, 22487
12394	BFA4  AFB20000             sw $18, 0($29)
12395	BFA8  0C003102             jal increment_offset
12396	BFAC  0C0030F5             jal load_patterns
12397	BFB0  3852ED98             xori $18, $2, 60824
12398	BFB4  AFB20000             sw $18, 0($29)
12399	BFB8  0C003102             jal increment_offset
12400	BFBC  0C0030F5             jal load_patterns
12401	BFC0  3852E7A5             xori $18, $2, 59301
12402	BFC4  AFB20000             sw $18, 0($29)
12403	BFC8  0C003102             jal increment_offset
12404	BFCC  0C0030F5             jal load_patterns
12405	BFD0  38527B4F             xori $18, $2, 31567
12406	BFD4  AFB20000             sw $18, 0($29)
12407	BFD8  0C003102             jal increment_offset
12408	BFDC  0C0030F5             jal load_patterns
12409	BFE0  38522E95             xori $18, $2, 11925
12410	BFE4  AFB20000             sw $18, 0($29)
12411	BFE8  0C003102             jal increment_offset
12412	BFEC  0C0030F5             jal load_patterns
12413	BFF0  385273CF             xori $18, $2, 29647
12414	BFF4  AFB20000             sw $18, 0($29)
12415	BFF8  0C003102             jal increment_offset
12416	BFFC  0C0030F5             jal load_patterns
12417	C000  38526E7C             xori $18, $2, 28284
12418	C004  AFB20000             sw $18, 0($29)
12419	C008  0C003102             jal increment_offset
12420	C00C  0C0030F5             jal load_patterns
12421	C010  3852DAE7             xori $18, $2, 56039
12422	C014  AFB20000             sw $18, 0($29)
12423	C018  0C003102             jal increment_offset
12424	C01C  0C0030F5             jal load_patterns
12425	C020  38524CC2             xori $18, $2, 19650
12426	C024  AFB20000             sw $18, 0($29)
12427	C028  0C003102             jal increment_offset
12428	C02C  0C0030F5             jal load_patterns
12429	C030  38524112             xori $18, $2, 16658
12430	C034  AFB20000             sw $18, 0($29)
12431	C038  0C003102             jal increment_offset
12432	C03C  0C0030F5             jal load_patterns
12433	C040  3852CDD5             xori $18, $2, 52693
12434	C044  AFB20000             sw $18, 0($29)
12435	C048  0C003102             jal increment_offset
12436	C04C  0C0030F5             jal load_patterns
12437	C050  38529EA8             xori $18, $2, 40616
12438	C054  AFB20000             sw $18, 0($29)
12439	C058  0C003102             jal increment_offset
12440	C05C  0C0030F5             jal load_patterns
12441	C060  38528FD0             xori $18, $2, 36816
12442	C064  AFB20000             sw $18, 0($29)
12443	C068  0C003102             jal increment_offset
12444	C06C  0C0030F5             jal load_patterns
12445	C070  38523149             xori $18, $2, 12617
12446	C074  AFB20000             sw $18, 0($29)
12447	C078  0C003102             jal increment_offset
12448	C07C  0C0030F5             jal load_patterns
12449	C080  3852B261             xori $18, $2, 45665
12450	C084  AFB20000             sw $18, 0($29)
12451	C088  0C003102             jal increment_offset
12452	C08C  0C0030F5             jal load_patterns
12453	C090  3852E219             xori $18, $2, 57881
12454	C094  AFB20000             sw $18, 0($29)
12455	C098  0C003102             jal increment_offset
12456	C09C  0C0030F5             jal load_patterns
12457	C0A0  3852A337             xori $18, $2, 41783
12458	C0A4  AFB20000             sw $18, 0($29)
12459	C0A8  0C003102             jal increment_offset
12460	C0AC  0C0030F5             jal load_patterns
12461	C0B0  3852B60E             xori $18, $2, 46606
12462	C0B4  AFB20000             sw $18, 0($29)
12463	C0B8  0C003102             jal increment_offset
12464	C0BC  0C0030F5             jal load_patterns
12465	C0C0  38527FBD             xori $18, $2, 32701
12466	C0C4  AFB20000             sw $18, 0($29)
12467	C0C8  0C003102             jal increment_offset
12468	                          
12469	C0CC  0C0030F8            jal reset_offsets
12470	                          operation_mtc0_mfc0:
12471	C0D0  0C0030F5             jal load_patterns
12472	C0D4  40822000             mtc0 $2, $4
12473	C0D8  40049000             mfc0 $18, $4
12474	C0DC  AFB20000             sw $18, 0($29)
12475	C0E0  0C003102             jal increment_offset
12476	C0E4  177CFFFB             bne $27, $28, operation_mtc0_mfc0
12477	                          
12478	C0E8  0C0030F8            jal reset_offsets
12479	                          operation_lw_sw:
12480	C0EC  8FD20000             lw $18, 0($30)
12481	C0F0  AFB20000             sw $18, 0($29)
12482	C0F4  0C003102             jal increment_offset
12483	C0F8  177CFFFD             bne $27, $28, operation_lw_sw
12484	                          
12485	C0FC  0C0030F8            jal reset_offsets
12486	                          operation_lw0_sw0:
12487	C100  C3D20000             lwc0 $18, 0($30)
12488	C104  E3B20000             swc0 $18, 0($29)
12489	C108  0C003102             jal increment_offset
12490	C10C  177CFFFD             bne $27, $28, operation_lw0_sw0
12491	                          
12492	C110  0C0030F8            jal reset_offsets
12493	                          operation_bgezal:
12494	C114  0C0030F5             jal load_patterns
12495	C118  045100C0             bgezal $2, store_branch
12496	C11C  0C003102             jal increment_offset
12497	C120  177CFFFD             bne $27, $28, operation_bgezal
12498	                          
12499	C124  0C0030F8            jal reset_offsets
12500	                          operation_bltzal:
12501	C128  0C0030F5             jal load_patterns
12502	C12C  045000BB             bltzal $2, store_branch
12503	C130  0C003102             jal increment_offset
12504	C134  177CFFFD             bne $27, $28, operation_bltzal
12505	                          
12506	                          ;..........hilo test..........;
12507	C138  0C0030F8            jal reset_offsets
12508	                          hilo_register_operation:
12509	C13C  0C003109            jal init_upward_1
12510	C140  0C0033C7            jal hi_upward_0
12511	C144  0C003459            jal hi_downward_1
12512	C148  0C003542            jal lo_upward_0
12513	C14C  0C0035D4            jal lo_downward_1
12514	C150  0C003268            jal init_upward_0
12515	C154  0C0036BD            jal hi_upward_1
12516	C158  0C00374F            jal hi_downward_0
12517	C15C  0C003838            jal lo_upward_1
12518	C160  0C0038CA            jal lo_downward_0
12519	                          
12520	                          ;..........pipeline test..........;
12521	C164  0C0030F8            jal reset_offsets
12522	                          pipeline_operation_0:
12523	C168  3C010000            lui $1, 0
12524	C16C  34210000            ori $1, $1, 0
12525	C170  3C02FFFF            lui $2, 65535
12526	C174  3442FFFF            ori $2, $2, 65535
12527	C178  3C03FFFF            lui $3, 65535
12528	C17C  3463FFFF            ori $3, $3, 65535
12529	C180  3C04FFFF            lui $4, 65535
12530	C184  3484FFFF            ori $4, $4, 65535
12531	C188  00220824            and $1, $1, $2
12532	C18C  00231825            or $3, $1, $3
12533	C190  00242025            or $4, $1, $4
12534	C194  AFA40000            sw $4, 0($29)
12535	C198  0C003102            jal increment_offset
12536	C19C  3C010000            lui $1, 0
12537	C1A0  34210000            ori $1, $1, 0
12538	C1A4  3C02FFFF            lui $2, 65535
12539	C1A8  3442FFFF            ori $2, $2, 65535
12540	C1AC  3C03FFFF            lui $3, 65535
12541	C1B0  3463FFFF            ori $3, $3, 65535
12542	C1B4  3C04FFFF            lui $4, 65535
12543	C1B8  3484FFFF            ori $4, $4, 65535
12544	C1BC  00220825            or $1, $1, $2
12545	C1C0  00231824            and $3, $1, $3
12546	C1C4  00242024            and $4, $1, $4
12547	C1C8  AFA40000            sw $4, 0($29)
12548	C1CC  0C003102            jal increment_offset
12549	C1D0  3C010000            lui $1, 0
12550	C1D4  34210000            ori $1, $1, 0
12551	C1D8  3C02FFFF            lui $2, 65535
12552	C1DC  3442FFFF            ori $2, $2, 65535
12553	C1E0  3C03FFFF            lui $3, 65535
12554	C1E4  3463FFFF            ori $3, $3, 65535
12555	C1E8  3C04FFFF            lui $4, 65535
12556	C1EC  3484FFFF            ori $4, $4, 65535
12557	C1F0  00410824            and $1, $2, $1
12558	C1F4  00611825            or $3, $3, $1
12559	C1F8  00812025            or $4, $4, $1
12560	C1FC  AFA40000            sw $4, 0($29)
12561	C200  0C003102            jal increment_offset
12562	C204  3C010000            lui $1, 0
12563	C208  34210000            ori $1, $1, 0
12564	C20C  3C02FFFF            lui $2, 65535
12565	C210  3442FFFF            ori $2, $2, 65535
12566	C214  3C03FFFF            lui $3, 65535
12567	C218  3463FFFF            ori $3, $3, 65535
12568	C21C  3C04FFFF            lui $4, 65535
12569	C220  3484FFFF            ori $4, $4, 65535
12570	C224  00410825            or $1, $2, $1
12571	C228  00611824            and $3, $3, $1
12572	C22C  00812024            and $4, $4, $1
12573	C230  AFA40000            sw $4, 0($29)
12574	                          
12575	C234  0C0030F8            jal reset_offsets
12576	                          pipeline_operation_1:
12577	C238  3C010000            lui $1, 0
12578	C23C  34210000            ori $1, $1, 0
12579	C240  3C02FFFF            lui $2, 65535
12580	C244  3442FFFF            ori $2, $2, 65535
12581	C248  3C03FFFF            lui $3, 65535
12582	C24C  3463FFFF            ori $3, $3, 65535
12583	C250  3C04FFFF            lui $4, 65535
12584	C254  3484FFFF            ori $4, $4, 65535
12585	C258  00220824            and $1, $1, $2
12586	C25C  00231825            or $3, $1, $3
12587	C260  00242025            or $4, $1, $4
12588	C264  AFA40000            sw $4, 0($29)
12589	C268  0C003102            jal increment_offset
12590	C26C  3C010000            lui $1, 0
12591	C270  34210000            ori $1, $1, 0
12592	C274  3C02FFFF            lui $2, 65535
12593	C278  3442FFFF            ori $2, $2, 65535
12594	C27C  3C03FFFF            lui $3, 65535
12595	C280  3463FFFF            ori $3, $3, 65535
12596	C284  3C04FFFF            lui $4, 65535
12597	C288  3484FFFF            ori $4, $4, 65535
12598	C28C  00220825            or $1, $1, $2
12599	C290  00231824            and $3, $1, $3
12600	C294  00242024            and $4, $1, $4
12601	C298  AFA40000            sw $4, 0($29)
12602	C29C  0C003102            jal increment_offset
12603	C2A0  3C010000            lui $1, 0
12604	C2A4  34210000            ori $1, $1, 0
12605	C2A8  3C02FFFF            lui $2, 65535
12606	C2AC  3442FFFF            ori $2, $2, 65535
12607	C2B0  3C03FFFF            lui $3, 65535
12608	C2B4  3463FFFF            ori $3, $3, 65535
12609	C2B8  3C04FFFF            lui $4, 65535
12610	C2BC  3484FFFF            ori $4, $4, 65535
12611	C2C0  00410824            and $1, $2, $1
12612	C2C4  00611825            or $3, $3, $1
12613	C2C8  00812025            or $4, $4, $1
12614	C2CC  AFA40000            sw $4, 0($29)
12615	C2D0  0C003102            jal increment_offset
12616	C2D4  3C010000            lui $1, 0
12617	C2D8  34210000            ori $1, $1, 0
12618	C2DC  3C02FFFF            lui $2, 65535
12619	C2E0  3442FFFF            ori $2, $2, 65535
12620	C2E4  3C03FFFF            lui $3, 65535
12621	C2E8  3463FFFF            ori $3, $3, 65535
12622	C2EC  3C04FFFF            lui $4, 65535
12623	C2F0  3484FFFF            ori $4, $4, 65535
12624	C2F4  00410825            or $1, $2, $1
12625	C2F8  00611824            and $3, $3, $1
12626	C2FC  00812024            and $4, $4, $1
12627	C300  AFA40000            sw $4, 0($29)
12628	                          
12629	C304  0C0030F8            jal reset_offsets
12630	                          pipeline_operation_2:
12631	C308  3C010000            lui $1, 0
12632	C30C  34210000            ori $1, $1, 0
12633	C310  3C02FFFF            lui $2, 65535
12634	C314  3442FFFF            ori $2, $2, 65535
12635	C318  3C03FFFF            lui $3, 65535
12636	C31C  3463FFFF            ori $3, $3, 65535
12637	C320  3C040000            lui $4, 0
12638	C324  34840000            ori $4, $4, 0
12639	C328  00220824            and $1, $1, $2
12640	C32C  00231825            or $3, $1, $3
12641	C330  00242025            or $4, $1, $4
12642	C334  AFA40000            sw $4, 0($29)
12643	C338  0C003102            jal increment_offset
12644	C33C  3C010000            lui $1, 0
12645	C340  34210000            ori $1, $1, 0
12646	C344  3C02FFFF            lui $2, 65535
12647	C348  3442FFFF            ori $2, $2, 65535
12648	C34C  3C03FFFF            lui $3, 65535
12649	C350  3463FFFF            ori $3, $3, 65535
12650	C354  3C040000            lui $4, 0
12651	C358  34840000            ori $4, $4, 0
12652	C35C  00220825            or $1, $1, $2
12653	C360  00231824            and $3, $1, $3
12654	C364  00242024            and $4, $1, $4
12655	C368  AFA40000            sw $4, 0($29)
12656	C36C  0C003102            jal increment_offset
12657	C370  3C010000            lui $1, 0
12658	C374  34210000            ori $1, $1, 0
12659	C378  3C02FFFF            lui $2, 65535
12660	C37C  3442FFFF            ori $2, $2, 65535
12661	C380  3C03FFFF            lui $3, 65535
12662	C384  3463FFFF            ori $3, $3, 65535
12663	C388  3C040000            lui $4, 0
12664	C38C  34840000            ori $4, $4, 0
12665	C390  00410824            and $1, $2, $1
12666	C394  00611825            or $3, $3, $1
12667	C398  00812025            or $4, $4, $1
12668	C39C  AFA40000            sw $4, 0($29)
12669	C3A0  0C003102            jal increment_offset
12670	C3A4  3C010000            lui $1, 0
12671	C3A8  34210000            ori $1, $1, 0
12672	C3AC  3C02FFFF            lui $2, 65535
12673	C3B0  3442FFFF            ori $2, $2, 65535
12674	C3B4  3C03FFFF            lui $3, 65535
12675	C3B8  3463FFFF            ori $3, $3, 65535
12676	C3BC  3C040000            lui $4, 0
12677	C3C0  34840000            ori $4, $4, 0
12678	C3C4  00410825            or $1, $2, $1
12679	C3C8  00611824            and $3, $3, $1
12680	C3CC  00812024            and $4, $4, $1
12681	C3D0  AFA40000            sw $4, 0($29)
12682	                          
12683	                          load_patterns:
12684	C3D4  8FC20000             lw $2, 0($30)
12685	C3D8  8FC30004             lw $3, 4($30)
12686	C3DC  03E00008             jr $31
12687	                          
12688	                          reset_offsets:
12689	C3E0  3C1E0001             lui $30, 1
12690	C3E4  37DE0008             ori $30, $30, 8
12691	C3E8  037BD826             xor $27, $27, $27
12692	C3EC  02529026             xor $18, $18, $18
12693	C3F0  03E00008             jr $31
12694	                          
12695	                          reset_hi_lo:
12696	C3F4  3C010000             lui $1, 0
12697	C3F8  34210000             ori $1, $1, 0
12698	C3FC  00200011             mthi $1
12699	C400  00200013             mtlo $1
12700	C404  03E00008             jr $31
12701	                          
12702	                          increment_offset:
12703	C408  23DE0008             addi $30, $30, 8
12704	C40C  237B0002             addi $27, $27, 2
12705	C410  23BD0004             addi $29, $29, 4
12706	C414  03E00008             jr $31
12707	                          
12708	                          store_branch:
12709	C418  AFA20000             sw $2, 0($29)
12710	C41C  AFA30004             sw $3, 4($29)
12711	C420  03E00008             jr $31
12712	                          
12713	                          ;..........register_initialization..........;
12714	                          init_upward_1:
12715	C424  3C01FFFF            lui $1, 65535
12716	C428  3421FFFF            ori $1, $1, 65535
12717	C42C  3C02FFFF            lui $2, 65535
12718	C430  3442FFFF            ori $2, $2, 65535
12719	C434  3C03FFFF            lui $3, 65535
12720	C438  3463FFFF            ori $3, $3, 65535
12721	C43C  3C04FFFF            lui $4, 65535
12722	C440  3484FFFF            ori $4, $4, 65535
12723	C444  3C05FFFF            lui $5, 65535
12724	C448  34A5FFFF            ori $5, $5, 65535
12725	C44C  3C06FFFF            lui $6, 65535
12726	C450  34C6FFFF            ori $6, $6, 65535
12727	C454  3C07FFFF            lui $7, 65535
12728	C458  34E7FFFF            ori $7, $7, 65535
12729	C45C  3C08FFFF            lui $8, 65535
12730	C460  3508FFFF            ori $8, $8, 65535
12731	C464  3C09FFFF            lui $9, 65535
12732	C468  3529FFFF            ori $9, $9, 65535
12733	C46C  3C0AFFFF            lui $10, 65535
12734	C470  354AFFFF            ori $10, $10, 65535
12735	C474  3C0BFFFF            lui $11, 65535
12736	C478  356BFFFF            ori $11, $11, 65535
12737	C47C  3C0CFFFF            lui $12, 65535
12738	C480  358CFFFF            ori $12, $12, 65535
12739	C484  3C0DFFFF            lui $13, 65535
12740	C488  35ADFFFF            ori $13, $13, 65535
12741	C48C  3C0EFFFF            lui $14, 65535
12742	C490  35CEFFFF            ori $14, $14, 65535
12743	C494  3C0FFFFF            lui $15, 65535
12744	C498  35EFFFFF            ori $15, $15, 65535
12745	C49C  3C10FFFF            lui $16, 65535
12746	C4A0  3610FFFF            ori $16, $16, 65535
12747	C4A4  3C11FFFF            lui $17, 65535
12748	C4A8  3631FFFF            ori $17, $17, 65535
12749	C4AC  3C12FFFF            lui $18, 65535
12750	C4B0  3652FFFF            ori $18, $18, 65535
12751	C4B4  3C13FFFF            lui $19, 65535
12752	C4B8  3673FFFF            ori $19, $19, 65535
12753	C4BC  3C14FFFF            lui $20, 65535
12754	C4C0  3694FFFF            ori $20, $20, 65535
12755	C4C4  3C15FFFF            lui $21, 65535
12756	C4C8  36B5FFFF            ori $21, $21, 65535
12757	C4CC  3C16FFFF            lui $22, 65535
12758	C4D0  36D6FFFF            ori $22, $22, 65535
12759	C4D4  3C17FFFF            lui $23, 65535
12760	C4D8  36F7FFFF            ori $23, $23, 65535
12761	C4DC  3C18FFFF            lui $24, 65535
12762	C4E0  3718FFFF            ori $24, $24, 65535
12763	C4E4  3C19FFFF            lui $25, 65535
12764	C4E8  3739FFFF            ori $25, $25, 65535
12765	C4EC  3C1AFFFF            lui $26, 65535
12766	C4F0  375AFFFF            ori $26, $26, 65535
12767	C4F4  3C1BFFFF            lui $27, 65535
12768	C4F8  377BFFFF            ori $27, $27, 65535
12769	C4FC  3C1CFFFF            lui $28, 65535
12770	C500  379CFFFF            ori $28, $28, 65535
12771	C504  3C1DFFFF            lui $29, 65535
12772	C508  37BDFFFF            ori $29, $29, 65535
12773	C50C  03E00008            jr $31
12774	                          
12775	                          store_load_upward_0:
12776	C510  00210821            addu $1, $1, $1
12777	C514  AFC10000            sw $1, 0($30)
12778	C518  3C010000            lui $1, 0
12779	C51C  34210000            ori $1, $1, 0
12780	C520  00421021            addu $2, $2, $2
12781	C524  AFC20004            sw $2, 4($30)
12782	C528  3C020000            lui $2, 0
12783	C52C  34420000            ori $2, $2, 0
12784	C530  00631821            addu $3, $3, $3
12785	C534  AFC30008            sw $3, 8($30)
12786	C538  3C030000            lui $3, 0
12787	C53C  34630000            ori $3, $3, 0
12788	C540  00842021            addu $4, $4, $4
12789	C544  AFC4000C            sw $4, 12($30)
12790	C548  3C040000            lui $4, 0
12791	C54C  34840000            ori $4, $4, 0
12792	C550  00A52821            addu $5, $5, $5
12793	C554  AFC50010            sw $5, 16($30)
12794	C558  3C050000            lui $5, 0
12795	C55C  34A50000            ori $5, $5, 0
12796	C560  00C63021            addu $6, $6, $6
12797	C564  AFC60014            sw $6, 20($30)
12798	C568  3C060000            lui $6, 0
12799	C56C  34C60000            ori $6, $6, 0
12800	C570  00E73821            addu $7, $7, $7
12801	C574  AFC70018            sw $7, 24($30)
12802	C578  3C070000            lui $7, 0
12803	C57C  34E70000            ori $7, $7, 0
12804	C580  01084021            addu $8, $8, $8
12805	C584  AFC8001C            sw $8, 28($30)
12806	C588  3C080000            lui $8, 0
12807	C58C  35080000            ori $8, $8, 0
12808	C590  01294821            addu $9, $9, $9
12809	C594  AFC90020            sw $9, 32($30)
12810	C598  3C090000            lui $9, 0
12811	C59C  35290000            ori $9, $9, 0
12812	C5A0  014A5021            addu $10, $10, $10
12813	C5A4  AFCA0024            sw $10, 36($30)
12814	C5A8  3C0A0000            lui $10, 0
12815	C5AC  354A0000            ori $10, $10, 0
12816	C5B0  016B5821            addu $11, $11, $11
12817	C5B4  AFCB0028            sw $11, 40($30)
12818	C5B8  3C0B0000            lui $11, 0
12819	C5BC  356B0000            ori $11, $11, 0
12820	C5C0  018C6021            addu $12, $12, $12
12821	C5C4  AFCC002C            sw $12, 44($30)
12822	C5C8  3C0C0000            lui $12, 0
12823	C5CC  358C0000            ori $12, $12, 0
12824	C5D0  01AD6821            addu $13, $13, $13
12825	C5D4  AFCD0030            sw $13, 48($30)
12826	C5D8  3C0D0000            lui $13, 0
12827	C5DC  35AD0000            ori $13, $13, 0
12828	C5E0  01CE7021            addu $14, $14, $14
12829	C5E4  AFCE0034            sw $14, 52($30)
12830	C5E8  3C0E0000            lui $14, 0
12831	C5EC  35CE0000            ori $14, $14, 0
12832	C5F0  01EF7821            addu $15, $15, $15
12833	C5F4  AFCF0038            sw $15, 56($30)
12834	C5F8  3C0F0000            lui $15, 0
12835	C5FC  35EF0000            ori $15, $15, 0
12836	C600  02108021            addu $16, $16, $16
12837	C604  AFD0003C            sw $16, 60($30)
12838	C608  3C100000            lui $16, 0
12839	C60C  36100000            ori $16, $16, 0
12840	C610  02318821            addu $17, $17, $17
12841	C614  AFD10040            sw $17, 64($30)
12842	C618  3C110000            lui $17, 0
12843	C61C  36310000            ori $17, $17, 0
12844	C620  02529021            addu $18, $18, $18
12845	C624  AFD20044            sw $18, 68($30)
12846	C628  3C120000            lui $18, 0
12847	C62C  36520000            ori $18, $18, 0
12848	C630  02739821            addu $19, $19, $19
12849	C634  AFD30048            sw $19, 72($30)
12850	C638  3C130000            lui $19, 0
12851	C63C  36730000            ori $19, $19, 0
12852	C640  0294A021            addu $20, $20, $20
12853	C644  AFD4004C            sw $20, 76($30)
12854	C648  3C140000            lui $20, 0
12855	C64C  36940000            ori $20, $20, 0
12856	C650  02B5A821            addu $21, $21, $21
12857	C654  AFD50050            sw $21, 80($30)
12858	C658  3C150000            lui $21, 0
12859	C65C  36B50000            ori $21, $21, 0
12860	C660  02D6B021            addu $22, $22, $22
12861	C664  AFD60054            sw $22, 84($30)
12862	C668  3C160000            lui $22, 0
12863	C66C  36D60000            ori $22, $22, 0
12864	C670  02F7B821            addu $23, $23, $23
12865	C674  AFD70058            sw $23, 88($30)
12866	C678  3C170000            lui $23, 0
12867	C67C  36F70000            ori $23, $23, 0
12868	C680  0318C021            addu $24, $24, $24
12869	C684  AFD8005C            sw $24, 92($30)
12870	C688  3C180000            lui $24, 0
12871	C68C  37180000            ori $24, $24, 0
12872	C690  0339C821            addu $25, $25, $25
12873	C694  AFD90060            sw $25, 96($30)
12874	C698  3C190000            lui $25, 0
12875	C69C  37390000            ori $25, $25, 0
12876	C6A0  035AD021            addu $26, $26, $26
12877	C6A4  AFDA0064            sw $26, 100($30)
12878	C6A8  3C1A0000            lui $26, 0
12879	C6AC  375A0000            ori $26, $26, 0
12880	C6B0  037BD821            addu $27, $27, $27
12881	C6B4  AFDB0068            sw $27, 104($30)
12882	C6B8  3C1B0000            lui $27, 0
12883	C6BC  377B0000            ori $27, $27, 0
12884	C6C0  039CE021            addu $28, $28, $28
12885	C6C4  AFDC006C            sw $28, 108($30)
12886	C6C8  3C1C0000            lui $28, 0
12887	C6CC  379C0000            ori $28, $28, 0
12888	C6D0  03BDE821            addu $29, $29, $29
12889	C6D4  AFDD0070            sw $29, 112($30)
12890	C6D8  3C1D0000            lui $29, 0
12891	C6DC  37BD0000            ori $29, $29, 0
12892	C6E0  03E00008            jr $31
12893	                          
12894	                          store_load_downward_1:
12895	C6E4  03BDE821            addu $29, $29, $29
12896	C6E8  AFDD0000            sw $29, 0($30)
12897	C6EC  3C1DFFFF            lui $29, 65535
12898	C6F0  37BDFFFF            ori $29, $29, 65535
12899	C6F4  03BDE821            addu $29, $29, $29
12900	C6F8  AFDD0004            sw $29, 4($30)
12901	C6FC  039CE021            addu $28, $28, $28
12902	C700  AFDC0008            sw $28, 8($30)
12903	C704  3C1CFFFF            lui $28, 65535
12904	C708  379CFFFF            ori $28, $28, 65535
12905	C70C  039CE021            addu $28, $28, $28
12906	C710  AFDC000C            sw $28, 12($30)
12907	C714  037BD821            addu $27, $27, $27
12908	C718  AFDB0010            sw $27, 16($30)
12909	C71C  3C1BFFFF            lui $27, 65535
12910	C720  377BFFFF            ori $27, $27, 65535
12911	C724  037BD821            addu $27, $27, $27
12912	C728  AFDB0014            sw $27, 20($30)
12913	C72C  035AD021            addu $26, $26, $26
12914	C730  AFDA0018            sw $26, 24($30)
12915	C734  3C1AFFFF            lui $26, 65535
12916	C738  375AFFFF            ori $26, $26, 65535
12917	C73C  035AD021            addu $26, $26, $26
12918	C740  AFDA001C            sw $26, 28($30)
12919	C744  0339C821            addu $25, $25, $25
12920	C748  AFD90020            sw $25, 32($30)
12921	C74C  3C19FFFF            lui $25, 65535
12922	C750  3739FFFF            ori $25, $25, 65535
12923	C754  0339C821            addu $25, $25, $25
12924	C758  AFD90024            sw $25, 36($30)
12925	C75C  0318C021            addu $24, $24, $24
12926	C760  AFD80028            sw $24, 40($30)
12927	C764  3C18FFFF            lui $24, 65535
12928	C768  3718FFFF            ori $24, $24, 65535
12929	C76C  0318C021            addu $24, $24, $24
12930	C770  AFD8002C            sw $24, 44($30)
12931	C774  02F7B821            addu $23, $23, $23
12932	C778  AFD70030            sw $23, 48($30)
12933	C77C  3C17FFFF            lui $23, 65535
12934	C780  36F7FFFF            ori $23, $23, 65535
12935	C784  02F7B821            addu $23, $23, $23
12936	C788  AFD70034            sw $23, 52($30)
12937	C78C  02D6B021            addu $22, $22, $22
12938	C790  AFD60038            sw $22, 56($30)
12939	C794  3C16FFFF            lui $22, 65535
12940	C798  36D6FFFF            ori $22, $22, 65535
12941	C79C  02D6B021            addu $22, $22, $22
12942	C7A0  AFD6003C            sw $22, 60($30)
12943	C7A4  02B5A821            addu $21, $21, $21
12944	C7A8  AFD50040            sw $21, 64($30)
12945	C7AC  3C15FFFF            lui $21, 65535
12946	C7B0  36B5FFFF            ori $21, $21, 65535
12947	C7B4  02B5A821            addu $21, $21, $21
12948	C7B8  AFD50044            sw $21, 68($30)
12949	C7BC  0294A021            addu $20, $20, $20
12950	C7C0  AFD40048            sw $20, 72($30)
12951	C7C4  3C14FFFF            lui $20, 65535
12952	C7C8  3694FFFF            ori $20, $20, 65535
12953	C7CC  0294A021            addu $20, $20, $20
12954	C7D0  AFD4004C            sw $20, 76($30)
12955	C7D4  02739821            addu $19, $19, $19
12956	C7D8  AFD30050            sw $19, 80($30)
12957	C7DC  3C13FFFF            lui $19, 65535
12958	C7E0  3673FFFF            ori $19, $19, 65535
12959	C7E4  02739821            addu $19, $19, $19
12960	C7E8  AFD30054            sw $19, 84($30)
12961	C7EC  02529021            addu $18, $18, $18
12962	C7F0  AFD20058            sw $18, 88($30)
12963	C7F4  3C12FFFF            lui $18, 65535
12964	C7F8  3652FFFF            ori $18, $18, 65535
12965	C7FC  02529021            addu $18, $18, $18
12966	C800  AFD2005C            sw $18, 92($30)
12967	C804  02318821            addu $17, $17, $17
12968	C808  AFD10060            sw $17, 96($30)
12969	C80C  3C11FFFF            lui $17, 65535
12970	C810  3631FFFF            ori $17, $17, 65535
12971	C814  02318821            addu $17, $17, $17
12972	C818  AFD10064            sw $17, 100($30)
12973	C81C  02108021            addu $16, $16, $16
12974	C820  AFD00068            sw $16, 104($30)
12975	C824  3C10FFFF            lui $16, 65535
12976	C828  3610FFFF            ori $16, $16, 65535
12977	C82C  02108021            addu $16, $16, $16
12978	C830  AFD0006C            sw $16, 108($30)
12979	C834  01EF7821            addu $15, $15, $15
12980	C838  AFCF0070            sw $15, 112($30)
12981	C83C  3C0FFFFF            lui $15, 65535
12982	C840  35EFFFFF            ori $15, $15, 65535
12983	C844  01EF7821            addu $15, $15, $15
12984	C848  AFCF0074            sw $15, 116($30)
12985	C84C  01CE7021            addu $14, $14, $14
12986	C850  AFCE0078            sw $14, 120($30)
12987	C854  3C0EFFFF            lui $14, 65535
12988	C858  35CEFFFF            ori $14, $14, 65535
12989	C85C  01CE7021            addu $14, $14, $14
12990	C860  AFCE007C            sw $14, 124($30)
12991	C864  01AD6821            addu $13, $13, $13
12992	C868  AFCD0080            sw $13, 128($30)
12993	C86C  3C0DFFFF            lui $13, 65535
12994	C870  35ADFFFF            ori $13, $13, 65535
12995	C874  01AD6821            addu $13, $13, $13
12996	C878  AFCD0084            sw $13, 132($30)
12997	C87C  018C6021            addu $12, $12, $12
12998	C880  AFCC0088            sw $12, 136($30)
12999	C884  3C0CFFFF            lui $12, 65535
13000	C888  358CFFFF            ori $12, $12, 65535
13001	C88C  018C6021            addu $12, $12, $12
13002	C890  AFCC008C            sw $12, 140($30)
13003	C894  016B5821            addu $11, $11, $11
13004	C898  AFCB0090            sw $11, 144($30)
13005	C89C  3C0BFFFF            lui $11, 65535
13006	C8A0  356BFFFF            ori $11, $11, 65535
13007	C8A4  016B5821            addu $11, $11, $11
13008	C8A8  AFCB0094            sw $11, 148($30)
13009	C8AC  014A5021            addu $10, $10, $10
13010	C8B0  AFCA0098            sw $10, 152($30)
13011	C8B4  3C0AFFFF            lui $10, 65535
13012	C8B8  354AFFFF            ori $10, $10, 65535
13013	C8BC  014A5021            addu $10, $10, $10
13014	C8C0  AFCA009C            sw $10, 156($30)
13015	C8C4  01294821            addu $9, $9, $9
13016	C8C8  AFC900A0            sw $9, 160($30)
13017	C8CC  3C09FFFF            lui $9, 65535
13018	C8D0  3529FFFF            ori $9, $9, 65535
13019	C8D4  01294821            addu $9, $9, $9
13020	C8D8  AFC900A4            sw $9, 164($30)
13021	C8DC  01084021            addu $8, $8, $8
13022	C8E0  AFC800A8            sw $8, 168($30)
13023	C8E4  3C08FFFF            lui $8, 65535
13024	C8E8  3508FFFF            ori $8, $8, 65535
13025	C8EC  01084021            addu $8, $8, $8
13026	C8F0  AFC800AC            sw $8, 172($30)
13027	C8F4  00E73821            addu $7, $7, $7
13028	C8F8  AFC700B0            sw $7, 176($30)
13029	C8FC  3C07FFFF            lui $7, 65535
13030	C900  34E7FFFF            ori $7, $7, 65535
13031	C904  00E73821            addu $7, $7, $7
13032	C908  AFC700B4            sw $7, 180($30)
13033	C90C  00C63021            addu $6, $6, $6
13034	C910  AFC600B8            sw $6, 184($30)
13035	C914  3C06FFFF            lui $6, 65535
13036	C918  34C6FFFF            ori $6, $6, 65535
13037	C91C  00C63021            addu $6, $6, $6
13038	C920  AFC600BC            sw $6, 188($30)
13039	C924  00A52821            addu $5, $5, $5
13040	C928  AFC500C0            sw $5, 192($30)
13041	C92C  3C05FFFF            lui $5, 65535
13042	C930  34A5FFFF            ori $5, $5, 65535
13043	C934  00A52821            addu $5, $5, $5
13044	C938  AFC500C4            sw $5, 196($30)
13045	C93C  00842021            addu $4, $4, $4
13046	C940  AFC400C8            sw $4, 200($30)
13047	C944  3C04FFFF            lui $4, 65535
13048	C948  3484FFFF            ori $4, $4, 65535
13049	C94C  00842021            addu $4, $4, $4
13050	C950  AFC400CC            sw $4, 204($30)
13051	C954  00631821            addu $3, $3, $3
13052	C958  AFC300D0            sw $3, 208($30)
13053	C95C  3C03FFFF            lui $3, 65535
13054	C960  3463FFFF            ori $3, $3, 65535
13055	C964  00631821            addu $3, $3, $3
13056	C968  AFC300D4            sw $3, 212($30)
13057	C96C  00421021            addu $2, $2, $2
13058	C970  AFC200D8            sw $2, 216($30)
13059	C974  3C02FFFF            lui $2, 65535
13060	C978  3442FFFF            ori $2, $2, 65535
13061	C97C  00421021            addu $2, $2, $2
13062	C980  AFC200DC            sw $2, 220($30)
13063	C984  00210821            addu $1, $1, $1
13064	C988  AFC100E0            sw $1, 224($30)
13065	C98C  3C01FFFF            lui $1, 65535
13066	C990  3421FFFF            ori $1, $1, 65535
13067	C994  00210821            addu $1, $1, $1
13068	C998  AFC100E4            sw $1, 228($30)
13069	C99C  03E00008            jr $31
13070	                          
13071	                          init_upward_0:
13072	C9A0  3C010000            lui $1, 0
13073	C9A4  34210000            ori $1, $1, 0
13074	C9A8  3C020000            lui $2, 0
13075	C9AC  34420000            ori $2, $2, 0
13076	C9B0  3C030000            lui $3, 0
13077	C9B4  34630000            ori $3, $3, 0
13078	C9B8  3C040000            lui $4, 0
13079	C9BC  34840000            ori $4, $4, 0
13080	C9C0  3C050000            lui $5, 0
13081	C9C4  34A50000            ori $5, $5, 0
13082	C9C8  3C060000            lui $6, 0
13083	C9CC  34C60000            ori $6, $6, 0
13084	C9D0  3C070000            lui $7, 0
13085	C9D4  34E70000            ori $7, $7, 0
13086	C9D8  3C080000            lui $8, 0
13087	C9DC  35080000            ori $8, $8, 0
13088	C9E0  3C090000            lui $9, 0
13089	C9E4  35290000            ori $9, $9, 0
13090	C9E8  3C0A0000            lui $10, 0
13091	C9EC  354A0000            ori $10, $10, 0
13092	C9F0  3C0B0000            lui $11, 0
13093	C9F4  356B0000            ori $11, $11, 0
13094	C9F8  3C0C0000            lui $12, 0
13095	C9FC  358C0000            ori $12, $12, 0
13096	CA00  3C0D0000            lui $13, 0
13097	CA04  35AD0000            ori $13, $13, 0
13098	CA08  3C0E0000            lui $14, 0
13099	CA0C  35CE0000            ori $14, $14, 0
13100	CA10  3C0F0000            lui $15, 0
13101	CA14  35EF0000            ori $15, $15, 0
13102	CA18  3C100000            lui $16, 0
13103	CA1C  36100000            ori $16, $16, 0
13104	CA20  3C110000            lui $17, 0
13105	CA24  36310000            ori $17, $17, 0
13106	CA28  3C120000            lui $18, 0
13107	CA2C  36520000            ori $18, $18, 0
13108	CA30  3C130000            lui $19, 0
13109	CA34  36730000            ori $19, $19, 0
13110	CA38  3C140000            lui $20, 0
13111	CA3C  36940000            ori $20, $20, 0
13112	CA40  3C150000            lui $21, 0
13113	CA44  36B50000            ori $21, $21, 0
13114	CA48  3C160000            lui $22, 0
13115	CA4C  36D60000            ori $22, $22, 0
13116	CA50  3C170000            lui $23, 0
13117	CA54  36F70000            ori $23, $23, 0
13118	CA58  3C180000            lui $24, 0
13119	CA5C  37180000            ori $24, $24, 0
13120	CA60  3C190000            lui $25, 0
13121	CA64  37390000            ori $25, $25, 0
13122	CA68  3C1A0000            lui $26, 0
13123	CA6C  375A0000            ori $26, $26, 0
13124	CA70  3C1B0000            lui $27, 0
13125	CA74  377B0000            ori $27, $27, 0
13126	CA78  3C1C0000            lui $28, 0
13127	CA7C  379C0000            ori $28, $28, 0
13128	CA80  3C1D0000            lui $29, 0
13129	CA84  37BD0000            ori $29, $29, 0
13130	CA88  03E00008            jr $31
13131	                          
13132	                          store_load_upward_1:
13133	CA8C  00210821            addu $1, $1, $1
13134	CA90  AFC10000            sw $1, 0($30)
13135	CA94  3C01FFFF            lui $1, 65535
13136	CA98  3421FFFF            ori $1, $1, 65535
13137	CA9C  00421021            addu $2, $2, $2
13138	CAA0  AFC20004            sw $2, 4($30)
13139	CAA4  3C02FFFF            lui $2, 65535
13140	CAA8  3442FFFF            ori $2, $2, 65535
13141	CAAC  00631821            addu $3, $3, $3
13142	CAB0  AFC30008            sw $3, 8($30)
13143	CAB4  3C03FFFF            lui $3, 65535
13144	CAB8  3463FFFF            ori $3, $3, 65535
13145	CABC  00842021            addu $4, $4, $4
13146	CAC0  AFC4000C            sw $4, 12($30)
13147	CAC4  3C04FFFF            lui $4, 65535
13148	CAC8  3484FFFF            ori $4, $4, 65535
13149	CACC  00A52821            addu $5, $5, $5
13150	CAD0  AFC50010            sw $5, 16($30)
13151	CAD4  3C05FFFF            lui $5, 65535
13152	CAD8  34A5FFFF            ori $5, $5, 65535
13153	CADC  00C63021            addu $6, $6, $6
13154	CAE0  AFC60014            sw $6, 20($30)
13155	CAE4  3C06FFFF            lui $6, 65535
13156	CAE8  34C6FFFF            ori $6, $6, 65535
13157	CAEC  00E73821            addu $7, $7, $7
13158	CAF0  AFC70018            sw $7, 24($30)
13159	CAF4  3C07FFFF            lui $7, 65535
13160	CAF8  34E7FFFF            ori $7, $7, 65535
13161	CAFC  01084021            addu $8, $8, $8
13162	CB00  AFC8001C            sw $8, 28($30)
13163	CB04  3C08FFFF            lui $8, 65535
13164	CB08  3508FFFF            ori $8, $8, 65535
13165	CB0C  01294821            addu $9, $9, $9
13166	CB10  AFC90020            sw $9, 32($30)
13167	CB14  3C09FFFF            lui $9, 65535
13168	CB18  3529FFFF            ori $9, $9, 65535
13169	CB1C  014A5021            addu $10, $10, $10
13170	CB20  AFCA0024            sw $10, 36($30)
13171	CB24  3C0AFFFF            lui $10, 65535
13172	CB28  354AFFFF            ori $10, $10, 65535
13173	CB2C  016B5821            addu $11, $11, $11
13174	CB30  AFCB0028            sw $11, 40($30)
13175	CB34  3C0BFFFF            lui $11, 65535
13176	CB38  356BFFFF            ori $11, $11, 65535
13177	CB3C  018C6021            addu $12, $12, $12
13178	CB40  AFCC002C            sw $12, 44($30)
13179	CB44  3C0CFFFF            lui $12, 65535
13180	CB48  358CFFFF            ori $12, $12, 65535
13181	CB4C  01AD6821            addu $13, $13, $13
13182	CB50  AFCD0030            sw $13, 48($30)
13183	CB54  3C0DFFFF            lui $13, 65535
13184	CB58  35ADFFFF            ori $13, $13, 65535
13185	CB5C  01CE7021            addu $14, $14, $14
13186	CB60  AFCE0034            sw $14, 52($30)
13187	CB64  3C0EFFFF            lui $14, 65535
13188	CB68  35CEFFFF            ori $14, $14, 65535
13189	CB6C  01EF7821            addu $15, $15, $15
13190	CB70  AFCF0038            sw $15, 56($30)
13191	CB74  3C0FFFFF            lui $15, 65535
13192	CB78  35EFFFFF            ori $15, $15, 65535
13193	CB7C  02108021            addu $16, $16, $16
13194	CB80  AFD0003C            sw $16, 60($30)
13195	CB84  3C10FFFF            lui $16, 65535
13196	CB88  3610FFFF            ori $16, $16, 65535
13197	CB8C  02318821            addu $17, $17, $17
13198	CB90  AFD10040            sw $17, 64($30)
13199	CB94  3C11FFFF            lui $17, 65535
13200	CB98  3631FFFF            ori $17, $17, 65535
13201	CB9C  02529021            addu $18, $18, $18
13202	CBA0  AFD20044            sw $18, 68($30)
13203	CBA4  3C12FFFF            lui $18, 65535
13204	CBA8  3652FFFF            ori $18, $18, 65535
13205	CBAC  02739821            addu $19, $19, $19
13206	CBB0  AFD30048            sw $19, 72($30)
13207	CBB4  3C13FFFF            lui $19, 65535
13208	CBB8  3673FFFF            ori $19, $19, 65535
13209	CBBC  0294A021            addu $20, $20, $20
13210	CBC0  AFD4004C            sw $20, 76($30)
13211	CBC4  3C14FFFF            lui $20, 65535
13212	CBC8  3694FFFF            ori $20, $20, 65535
13213	CBCC  02B5A821            addu $21, $21, $21
13214	CBD0  AFD50050            sw $21, 80($30)
13215	CBD4  3C15FFFF            lui $21, 65535
13216	CBD8  36B5FFFF            ori $21, $21, 65535
13217	CBDC  02D6B021            addu $22, $22, $22
13218	CBE0  AFD60054            sw $22, 84($30)
13219	CBE4  3C16FFFF            lui $22, 65535
13220	CBE8  36D6FFFF            ori $22, $22, 65535
13221	CBEC  02F7B821            addu $23, $23, $23
13222	CBF0  AFD70058            sw $23, 88($30)
13223	CBF4  3C17FFFF            lui $23, 65535
13224	CBF8  36F7FFFF            ori $23, $23, 65535
13225	CBFC  0318C021            addu $24, $24, $24
13226	CC00  AFD8005C            sw $24, 92($30)
13227	CC04  3C18FFFF            lui $24, 65535
13228	CC08  3718FFFF            ori $24, $24, 65535
13229	CC0C  0339C821            addu $25, $25, $25
13230	CC10  AFD90060            sw $25, 96($30)
13231	CC14  3C19FFFF            lui $25, 65535
13232	CC18  3739FFFF            ori $25, $25, 65535
13233	CC1C  035AD021            addu $26, $26, $26
13234	CC20  AFDA0064            sw $26, 100($30)
13235	CC24  3C1AFFFF            lui $26, 65535
13236	CC28  375AFFFF            ori $26, $26, 65535
13237	CC2C  037BD821            addu $27, $27, $27
13238	CC30  AFDB0068            sw $27, 104($30)
13239	CC34  3C1BFFFF            lui $27, 65535
13240	CC38  377BFFFF            ori $27, $27, 65535
13241	CC3C  039CE021            addu $28, $28, $28
13242	CC40  AFDC006C            sw $28, 108($30)
13243	CC44  3C1CFFFF            lui $28, 65535
13244	CC48  379CFFFF            ori $28, $28, 65535
13245	CC4C  03BDE821            addu $29, $29, $29
13246	CC50  AFDD0070            sw $29, 112($30)
13247	CC54  3C1DFFFF            lui $29, 65535
13248	CC58  37BDFFFF            ori $29, $29, 65535
13249	CC5C  03E00008            jr $31
13250	                          
13251	                          store_load_downward_0:
13252	CC60  03BDE821            addu $29, $29, $29
13253	CC64  AFDD0000            sw $29, 0($30)
13254	CC68  3C1D0000            lui $29, 0
13255	CC6C  37BD0000            ori $29, $29, 0
13256	CC70  03BDE821            addu $29, $29, $29
13257	CC74  AFDD0004            sw $29, 4($30)
13258	CC78  039CE021            addu $28, $28, $28
13259	CC7C  AFDC0008            sw $28, 8($30)
13260	CC80  3C1C0000            lui $28, 0
13261	CC84  379C0000            ori $28, $28, 0
13262	CC88  039CE021            addu $28, $28, $28
13263	CC8C  AFDC000C            sw $28, 12($30)
13264	CC90  037BD821            addu $27, $27, $27
13265	CC94  AFDB0010            sw $27, 16($30)
13266	CC98  3C1B0000            lui $27, 0
13267	CC9C  377B0000            ori $27, $27, 0
13268	CCA0  037BD821            addu $27, $27, $27
13269	CCA4  AFDB0014            sw $27, 20($30)
13270	CCA8  035AD021            addu $26, $26, $26
13271	CCAC  AFDA0018            sw $26, 24($30)
13272	CCB0  3C1A0000            lui $26, 0
13273	CCB4  375A0000            ori $26, $26, 0
13274	CCB8  035AD021            addu $26, $26, $26
13275	CCBC  AFDA001C            sw $26, 28($30)
13276	CCC0  0339C821            addu $25, $25, $25
13277	CCC4  AFD90020            sw $25, 32($30)
13278	CCC8  3C190000            lui $25, 0
13279	CCCC  37390000            ori $25, $25, 0
13280	CCD0  0339C821            addu $25, $25, $25
13281	CCD4  AFD90024            sw $25, 36($30)
13282	CCD8  0318C021            addu $24, $24, $24
13283	CCDC  AFD80028            sw $24, 40($30)
13284	CCE0  3C180000            lui $24, 0
13285	CCE4  37180000            ori $24, $24, 0
13286	CCE8  0318C021            addu $24, $24, $24
13287	CCEC  AFD8002C            sw $24, 44($30)
13288	CCF0  02F7B821            addu $23, $23, $23
13289	CCF4  AFD70030            sw $23, 48($30)
13290	CCF8  3C170000            lui $23, 0
13291	CCFC  36F70000            ori $23, $23, 0
13292	CD00  02F7B821            addu $23, $23, $23
13293	CD04  AFD70034            sw $23, 52($30)
13294	CD08  02D6B021            addu $22, $22, $22
13295	CD0C  AFD60038            sw $22, 56($30)
13296	CD10  3C160000            lui $22, 0
13297	CD14  36D60000            ori $22, $22, 0
13298	CD18  02D6B021            addu $22, $22, $22
13299	CD1C  AFD6003C            sw $22, 60($30)
13300	CD20  02B5A821            addu $21, $21, $21
13301	CD24  AFD50040            sw $21, 64($30)
13302	CD28  3C150000            lui $21, 0
13303	CD2C  36B50000            ori $21, $21, 0
13304	CD30  02B5A821            addu $21, $21, $21
13305	CD34  AFD50044            sw $21, 68($30)
13306	CD38  0294A021            addu $20, $20, $20
13307	CD3C  AFD40048            sw $20, 72($30)
13308	CD40  3C140000            lui $20, 0
13309	CD44  36940000            ori $20, $20, 0
13310	CD48  0294A021            addu $20, $20, $20
13311	CD4C  AFD4004C            sw $20, 76($30)
13312	CD50  02739821            addu $19, $19, $19
13313	CD54  AFD30050            sw $19, 80($30)
13314	CD58  3C130000            lui $19, 0
13315	CD5C  36730000            ori $19, $19, 0
13316	CD60  02739821            addu $19, $19, $19
13317	CD64  AFD30054            sw $19, 84($30)
13318	CD68  02529021            addu $18, $18, $18
13319	CD6C  AFD20058            sw $18, 88($30)
13320	CD70  3C120000            lui $18, 0
13321	CD74  36520000            ori $18, $18, 0
13322	CD78  02529021            addu $18, $18, $18
13323	CD7C  AFD2005C            sw $18, 92($30)
13324	CD80  02318821            addu $17, $17, $17
13325	CD84  AFD10060            sw $17, 96($30)
13326	CD88  3C110000            lui $17, 0
13327	CD8C  36310000            ori $17, $17, 0
13328	CD90  02318821            addu $17, $17, $17
13329	CD94  AFD10064            sw $17, 100($30)
13330	CD98  02108021            addu $16, $16, $16
13331	CD9C  AFD00068            sw $16, 104($30)
13332	CDA0  3C100000            lui $16, 0
13333	CDA4  36100000            ori $16, $16, 0
13334	CDA8  02108021            addu $16, $16, $16
13335	CDAC  AFD0006C            sw $16, 108($30)
13336	CDB0  01EF7821            addu $15, $15, $15
13337	CDB4  AFCF0070            sw $15, 112($30)
13338	CDB8  3C0F0000            lui $15, 0
13339	CDBC  35EF0000            ori $15, $15, 0
13340	CDC0  01EF7821            addu $15, $15, $15
13341	CDC4  AFCF0074            sw $15, 116($30)
13342	CDC8  01CE7021            addu $14, $14, $14
13343	CDCC  AFCE0078            sw $14, 120($30)
13344	CDD0  3C0E0000            lui $14, 0
13345	CDD4  35CE0000            ori $14, $14, 0
13346	CDD8  01CE7021            addu $14, $14, $14
13347	CDDC  AFCE007C            sw $14, 124($30)
13348	CDE0  01AD6821            addu $13, $13, $13
13349	CDE4  AFCD0080            sw $13, 128($30)
13350	CDE8  3C0D0000            lui $13, 0
13351	CDEC  35AD0000            ori $13, $13, 0
13352	CDF0  01AD6821            addu $13, $13, $13
13353	CDF4  AFCD0084            sw $13, 132($30)
13354	CDF8  018C6021            addu $12, $12, $12
13355	CDFC  AFCC0088            sw $12, 136($30)
13356	CE00  3C0C0000            lui $12, 0
13357	CE04  358C0000            ori $12, $12, 0
13358	CE08  018C6021            addu $12, $12, $12
13359	CE0C  AFCC008C            sw $12, 140($30)
13360	CE10  016B5821            addu $11, $11, $11
13361	CE14  AFCB0090            sw $11, 144($30)
13362	CE18  3C0B0000            lui $11, 0
13363	CE1C  356B0000            ori $11, $11, 0
13364	CE20  016B5821            addu $11, $11, $11
13365	CE24  AFCB0094            sw $11, 148($30)
13366	CE28  014A5021            addu $10, $10, $10
13367	CE2C  AFCA0098            sw $10, 152($30)
13368	CE30  3C0A0000            lui $10, 0
13369	CE34  354A0000            ori $10, $10, 0
13370	CE38  014A5021            addu $10, $10, $10
13371	CE3C  AFCA009C            sw $10, 156($30)
13372	CE40  01294821            addu $9, $9, $9
13373	CE44  AFC900A0            sw $9, 160($30)
13374	CE48  3C090000            lui $9, 0
13375	CE4C  35290000            ori $9, $9, 0
13376	CE50  01294821            addu $9, $9, $9
13377	CE54  AFC900A4            sw $9, 164($30)
13378	CE58  01084021            addu $8, $8, $8
13379	CE5C  AFC800A8            sw $8, 168($30)
13380	CE60  3C080000            lui $8, 0
13381	CE64  35080000            ori $8, $8, 0
13382	CE68  01084021            addu $8, $8, $8
13383	CE6C  AFC800AC            sw $8, 172($30)
13384	CE70  00E73821            addu $7, $7, $7
13385	CE74  AFC700B0            sw $7, 176($30)
13386	CE78  3C070000            lui $7, 0
13387	CE7C  34E70000            ori $7, $7, 0
13388	CE80  00E73821            addu $7, $7, $7
13389	CE84  AFC700B4            sw $7, 180($30)
13390	CE88  00C63021            addu $6, $6, $6
13391	CE8C  AFC600B8            sw $6, 184($30)
13392	CE90  3C060000            lui $6, 0
13393	CE94  34C60000            ori $6, $6, 0
13394	CE98  00C63021            addu $6, $6, $6
13395	CE9C  AFC600BC            sw $6, 188($30)
13396	CEA0  00A52821            addu $5, $5, $5
13397	CEA4  AFC500C0            sw $5, 192($30)
13398	CEA8  3C050000            lui $5, 0
13399	CEAC  34A50000            ori $5, $5, 0
13400	CEB0  00A52821            addu $5, $5, $5
13401	CEB4  AFC500C4            sw $5, 196($30)
13402	CEB8  00842021            addu $4, $4, $4
13403	CEBC  AFC400C8            sw $4, 200($30)
13404	CEC0  3C040000            lui $4, 0
13405	CEC4  34840000            ori $4, $4, 0
13406	CEC8  00842021            addu $4, $4, $4
13407	CECC  AFC400CC            sw $4, 204($30)
13408	CED0  00631821            addu $3, $3, $3
13409	CED4  AFC300D0            sw $3, 208($30)
13410	CED8  3C030000            lui $3, 0
13411	CEDC  34630000            ori $3, $3, 0
13412	CEE0  00631821            addu $3, $3, $3
13413	CEE4  AFC300D4            sw $3, 212($30)
13414	CEE8  00421021            addu $2, $2, $2
13415	CEEC  AFC200D8            sw $2, 216($30)
13416	CEF0  3C020000            lui $2, 0
13417	CEF4  34420000            ori $2, $2, 0
13418	CEF8  00421021            addu $2, $2, $2
13419	CEFC  AFC200DC            sw $2, 220($30)
13420	CF00  00210821            addu $1, $1, $1
13421	CF04  AFC100E0            sw $1, 224($30)
13422	CF08  3C010000            lui $1, 0
13423	CF0C  34210000            ori $1, $1, 0
13424	CF10  00210821            addu $1, $1, $1
13425	CF14  AFC100E4            sw $1, 228($30)
13426	CF18  03E00008            jr $31
13427	                          
13428	                          hi_upward_0:
13429	CF1C  00210019            multu $1, $1
13430	CF20  00000810            mfhi $1
13431	CF24  AFC10000            sw $1, 0($30)
13432	CF28  3C010000            lui $1, 0
13433	CF2C  34210000            ori $1, $1, 0
13434	CF30  00420019            multu $2, $2
13435	CF34  00001010            mfhi $2
13436	CF38  AFC20004            sw $2, 4($30)
13437	CF3C  3C020000            lui $2, 0
13438	CF40  34420000            ori $2, $2, 0
13439	CF44  00630019            multu $3, $3
13440	CF48  00001810            mfhi $3
13441	CF4C  AFC30008            sw $3, 8($30)
13442	CF50  3C030000            lui $3, 0
13443	CF54  34630000            ori $3, $3, 0
13444	CF58  00840019            multu $4, $4
13445	CF5C  00002010            mfhi $4
13446	CF60  AFC4000C            sw $4, 12($30)
13447	CF64  3C040000            lui $4, 0
13448	CF68  34840000            ori $4, $4, 0
13449	CF6C  00A50019            multu $5, $5
13450	CF70  00002810            mfhi $5
13451	CF74  AFC50010            sw $5, 16($30)
13452	CF78  3C050000            lui $5, 0
13453	CF7C  34A50000            ori $5, $5, 0
13454	CF80  00C60019            multu $6, $6
13455	CF84  00003010            mfhi $6
13456	CF88  AFC60014            sw $6, 20($30)
13457	CF8C  3C060000            lui $6, 0
13458	CF90  34C60000            ori $6, $6, 0
13459	CF94  00E70019            multu $7, $7
13460	CF98  00003810            mfhi $7
13461	CF9C  AFC70018            sw $7, 24($30)
13462	CFA0  3C070000            lui $7, 0
13463	CFA4  34E70000            ori $7, $7, 0
13464	CFA8  01080019            multu $8, $8
13465	CFAC  00004010            mfhi $8
13466	CFB0  AFC8001C            sw $8, 28($30)
13467	CFB4  3C080000            lui $8, 0
13468	CFB8  35080000            ori $8, $8, 0
13469	CFBC  01290019            multu $9, $9
13470	CFC0  00004810            mfhi $9
13471	CFC4  AFC90020            sw $9, 32($30)
13472	CFC8  3C090000            lui $9, 0
13473	CFCC  35290000            ori $9, $9, 0
13474	CFD0  014A0019            multu $10, $10
13475	CFD4  00005010            mfhi $10
13476	CFD8  AFCA0024            sw $10, 36($30)
13477	CFDC  3C0A0000            lui $10, 0
13478	CFE0  354A0000            ori $10, $10, 0
13479	CFE4  016B0019            multu $11, $11
13480	CFE8  00005810            mfhi $11
13481	CFEC  AFCB0028            sw $11, 40($30)
13482	CFF0  3C0B0000            lui $11, 0
13483	CFF4  356B0000            ori $11, $11, 0
13484	CFF8  018C0019            multu $12, $12
13485	CFFC  00006010            mfhi $12
13486	D000  AFCC002C            sw $12, 44($30)
13487	D004  3C0C0000            lui $12, 0
13488	D008  358C0000            ori $12, $12, 0
13489	D00C  01AD0019            multu $13, $13
13490	D010  00006810            mfhi $13
13491	D014  AFCD0030            sw $13, 48($30)
13492	D018  3C0D0000            lui $13, 0
13493	D01C  35AD0000            ori $13, $13, 0
13494	D020  01CE0019            multu $14, $14
13495	D024  00007010            mfhi $14
13496	D028  AFCE0034            sw $14, 52($30)
13497	D02C  3C0E0000            lui $14, 0
13498	D030  35CE0000            ori $14, $14, 0
13499	D034  01EF0019            multu $15, $15
13500	D038  00007810            mfhi $15
13501	D03C  AFCF0038            sw $15, 56($30)
13502	D040  3C0F0000            lui $15, 0
13503	D044  35EF0000            ori $15, $15, 0
13504	D048  02100019            multu $16, $16
13505	D04C  00008010            mfhi $16
13506	D050  AFD0003C            sw $16, 60($30)
13507	D054  3C100000            lui $16, 0
13508	D058  36100000            ori $16, $16, 0
13509	D05C  02310019            multu $17, $17
13510	D060  00008810            mfhi $17
13511	D064  AFD10040            sw $17, 64($30)
13512	D068  3C110000            lui $17, 0
13513	D06C  36310000            ori $17, $17, 0
13514	D070  02520019            multu $18, $18
13515	D074  00009010            mfhi $18
13516	D078  AFD20044            sw $18, 68($30)
13517	D07C  3C120000            lui $18, 0
13518	D080  36520000            ori $18, $18, 0
13519	D084  02730019            multu $19, $19
13520	D088  00009810            mfhi $19
13521	D08C  AFD30048            sw $19, 72($30)
13522	D090  3C130000            lui $19, 0
13523	D094  36730000            ori $19, $19, 0
13524	D098  02940019            multu $20, $20
13525	D09C  0000A010            mfhi $20
13526	D0A0  AFD4004C            sw $20, 76($30)
13527	D0A4  3C140000            lui $20, 0
13528	D0A8  36940000            ori $20, $20, 0
13529	D0AC  02B50019            multu $21, $21
13530	D0B0  0000A810            mfhi $21
13531	D0B4  AFD50050            sw $21, 80($30)
13532	D0B8  3C150000            lui $21, 0
13533	D0BC  36B50000            ori $21, $21, 0
13534	D0C0  02D60019            multu $22, $22
13535	D0C4  0000B010            mfhi $22
13536	D0C8  AFD60054            sw $22, 84($30)
13537	D0CC  3C160000            lui $22, 0
13538	D0D0  36D60000            ori $22, $22, 0
13539	D0D4  02F70019            multu $23, $23
13540	D0D8  0000B810            mfhi $23
13541	D0DC  AFD70058            sw $23, 88($30)
13542	D0E0  3C170000            lui $23, 0
13543	D0E4  36F70000            ori $23, $23, 0
13544	D0E8  03180019            multu $24, $24
13545	D0EC  0000C010            mfhi $24
13546	D0F0  AFD8005C            sw $24, 92($30)
13547	D0F4  3C180000            lui $24, 0
13548	D0F8  37180000            ori $24, $24, 0
13549	D0FC  03390019            multu $25, $25
13550	D100  0000C810            mfhi $25
13551	D104  AFD90060            sw $25, 96($30)
13552	D108  3C190000            lui $25, 0
13553	D10C  37390000            ori $25, $25, 0
13554	D110  035A0019            multu $26, $26
13555	D114  0000D010            mfhi $26
13556	D118  AFDA0064            sw $26, 100($30)
13557	D11C  3C1A0000            lui $26, 0
13558	D120  375A0000            ori $26, $26, 0
13559	D124  037B0019            multu $27, $27
13560	D128  0000D810            mfhi $27
13561	D12C  AFDB0068            sw $27, 104($30)
13562	D130  3C1B0000            lui $27, 0
13563	D134  377B0000            ori $27, $27, 0
13564	D138  039C0019            multu $28, $28
13565	D13C  0000E010            mfhi $28
13566	D140  AFDC006C            sw $28, 108($30)
13567	D144  3C1C0000            lui $28, 0
13568	D148  379C0000            ori $28, $28, 0
13569	D14C  03BD0019            multu $29, $29
13570	D150  0000E810            mfhi $29
13571	D154  AFDD0070            sw $29, 112($30)
13572	D158  3C1D0000            lui $29, 0
13573	D15C  37BD0000            ori $29, $29, 0
13574	D160  03E00008            jr $31
13575	                          
13576	                          hi_downward_1:
13577	D164  03BD0019            multu $29, $29
13578	D168  0000E810            mfhi $29
13579	D16C  AFDD0000            sw $29, 0($30)
13580	D170  3C1DFFFF            lui $29, 65535
13581	D174  37BDFFFF            ori $29, $29, 65535
13582	D178  03BD0019            multu $29, $29
13583	D17C  0000E810            mfhi $29
13584	D180  AFDD0004            sw $29, 4($30)
13585	D184  039C0019            multu $28, $28
13586	D188  0000E010            mfhi $28
13587	D18C  AFDC0008            sw $28, 8($30)
13588	D190  3C1CFFFF            lui $28, 65535
13589	D194  379CFFFF            ori $28, $28, 65535
13590	D198  039C0019            multu $28, $28
13591	D19C  0000E010            mfhi $28
13592	D1A0  AFDC000C            sw $28, 12($30)
13593	D1A4  037B0019            multu $27, $27
13594	D1A8  0000D810            mfhi $27
13595	D1AC  AFDB0010            sw $27, 16($30)
13596	D1B0  3C1BFFFF            lui $27, 65535
13597	D1B4  377BFFFF            ori $27, $27, 65535
13598	D1B8  037B0019            multu $27, $27
13599	D1BC  0000D810            mfhi $27
13600	D1C0  AFDB0014            sw $27, 20($30)
13601	D1C4  035A0019            multu $26, $26
13602	D1C8  0000D010            mfhi $26
13603	D1CC  AFDA0018            sw $26, 24($30)
13604	D1D0  3C1AFFFF            lui $26, 65535
13605	D1D4  375AFFFF            ori $26, $26, 65535
13606	D1D8  035A0019            multu $26, $26
13607	D1DC  0000D010            mfhi $26
13608	D1E0  AFDA001C            sw $26, 28($30)
13609	D1E4  03390019            multu $25, $25
13610	D1E8  0000C810            mfhi $25
13611	D1EC  AFD90020            sw $25, 32($30)
13612	D1F0  3C19FFFF            lui $25, 65535
13613	D1F4  3739FFFF            ori $25, $25, 65535
13614	D1F8  03390019            multu $25, $25
13615	D1FC  0000C810            mfhi $25
13616	D200  AFD90024            sw $25, 36($30)
13617	D204  03180019            multu $24, $24
13618	D208  0000C010            mfhi $24
13619	D20C  AFD80028            sw $24, 40($30)
13620	D210  3C18FFFF            lui $24, 65535
13621	D214  3718FFFF            ori $24, $24, 65535
13622	D218  03180019            multu $24, $24
13623	D21C  0000C010            mfhi $24
13624	D220  AFD8002C            sw $24, 44($30)
13625	D224  02F70019            multu $23, $23
13626	D228  0000B810            mfhi $23
13627	D22C  AFD70030            sw $23, 48($30)
13628	D230  3C17FFFF            lui $23, 65535
13629	D234  36F7FFFF            ori $23, $23, 65535
13630	D238  02F70019            multu $23, $23
13631	D23C  0000B810            mfhi $23
13632	D240  AFD70034            sw $23, 52($30)
13633	D244  02D60019            multu $22, $22
13634	D248  0000B010            mfhi $22
13635	D24C  AFD60038            sw $22, 56($30)
13636	D250  3C16FFFF            lui $22, 65535
13637	D254  36D6FFFF            ori $22, $22, 65535
13638	D258  02D60019            multu $22, $22
13639	D25C  0000B010            mfhi $22
13640	D260  AFD6003C            sw $22, 60($30)
13641	D264  02B50019            multu $21, $21
13642	D268  0000A810            mfhi $21
13643	D26C  AFD50040            sw $21, 64($30)
13644	D270  3C15FFFF            lui $21, 65535
13645	D274  36B5FFFF            ori $21, $21, 65535
13646	D278  02B50019            multu $21, $21
13647	D27C  0000A810            mfhi $21
13648	D280  AFD50044            sw $21, 68($30)
13649	D284  02940019            multu $20, $20
13650	D288  0000A010            mfhi $20
13651	D28C  AFD40048            sw $20, 72($30)
13652	D290  3C14FFFF            lui $20, 65535
13653	D294  3694FFFF            ori $20, $20, 65535
13654	D298  02940019            multu $20, $20
13655	D29C  0000A010            mfhi $20
13656	D2A0  AFD4004C            sw $20, 76($30)
13657	D2A4  02730019            multu $19, $19
13658	D2A8  00009810            mfhi $19
13659	D2AC  AFD30050            sw $19, 80($30)
13660	D2B0  3C13FFFF            lui $19, 65535
13661	D2B4  3673FFFF            ori $19, $19, 65535
13662	D2B8  02730019            multu $19, $19
13663	D2BC  00009810            mfhi $19
13664	D2C0  AFD30054            sw $19, 84($30)
13665	D2C4  02520019            multu $18, $18
13666	D2C8  00009010            mfhi $18
13667	D2CC  AFD20058            sw $18, 88($30)
13668	D2D0  3C12FFFF            lui $18, 65535
13669	D2D4  3652FFFF            ori $18, $18, 65535
13670	D2D8  02520019            multu $18, $18
13671	D2DC  00009010            mfhi $18
13672	D2E0  AFD2005C            sw $18, 92($30)
13673	D2E4  02310019            multu $17, $17
13674	D2E8  00008810            mfhi $17
13675	D2EC  AFD10060            sw $17, 96($30)
13676	D2F0  3C11FFFF            lui $17, 65535
13677	D2F4  3631FFFF            ori $17, $17, 65535
13678	D2F8  02310019            multu $17, $17
13679	D2FC  00008810            mfhi $17
13680	D300  AFD10064            sw $17, 100($30)
13681	D304  02100019            multu $16, $16
13682	D308  00008010            mfhi $16
13683	D30C  AFD00068            sw $16, 104($30)
13684	D310  3C10FFFF            lui $16, 65535
13685	D314  3610FFFF            ori $16, $16, 65535
13686	D318  02100019            multu $16, $16
13687	D31C  00008010            mfhi $16
13688	D320  AFD0006C            sw $16, 108($30)
13689	D324  01EF0019            multu $15, $15
13690	D328  00007810            mfhi $15
13691	D32C  AFCF0070            sw $15, 112($30)
13692	D330  3C0FFFFF            lui $15, 65535
13693	D334  35EFFFFF            ori $15, $15, 65535
13694	D338  01EF0019            multu $15, $15
13695	D33C  00007810            mfhi $15
13696	D340  AFCF0074            sw $15, 116($30)
13697	D344  01CE0019            multu $14, $14
13698	D348  00007010            mfhi $14
13699	D34C  AFCE0078            sw $14, 120($30)
13700	D350  3C0EFFFF            lui $14, 65535
13701	D354  35CEFFFF            ori $14, $14, 65535
13702	D358  01CE0019            multu $14, $14
13703	D35C  00007010            mfhi $14
13704	D360  AFCE007C            sw $14, 124($30)
13705	D364  01AD0019            multu $13, $13
13706	D368  00006810            mfhi $13
13707	D36C  AFCD0080            sw $13, 128($30)
13708	D370  3C0DFFFF            lui $13, 65535
13709	D374  35ADFFFF            ori $13, $13, 65535
13710	D378  01AD0019            multu $13, $13
13711	D37C  00006810            mfhi $13
13712	D380  AFCD0084            sw $13, 132($30)
13713	D384  018C0019            multu $12, $12
13714	D388  00006010            mfhi $12
13715	D38C  AFCC0088            sw $12, 136($30)
13716	D390  3C0CFFFF            lui $12, 65535
13717	D394  358CFFFF            ori $12, $12, 65535
13718	D398  018C0019            multu $12, $12
13719	D39C  00006010            mfhi $12
13720	D3A0  AFCC008C            sw $12, 140($30)
13721	D3A4  016B0019            multu $11, $11
13722	D3A8  00005810            mfhi $11
13723	D3AC  AFCB0090            sw $11, 144($30)
13724	D3B0  3C0BFFFF            lui $11, 65535
13725	D3B4  356BFFFF            ori $11, $11, 65535
13726	D3B8  016B0019            multu $11, $11
13727	D3BC  00005810            mfhi $11
13728	D3C0  AFCB0094            sw $11, 148($30)
13729	D3C4  014A0019            multu $10, $10
13730	D3C8  00005010            mfhi $10
13731	D3CC  AFCA0098            sw $10, 152($30)
13732	D3D0  3C0AFFFF            lui $10, 65535
13733	D3D4  354AFFFF            ori $10, $10, 65535
13734	D3D8  014A0019            multu $10, $10
13735	D3DC  00005010            mfhi $10
13736	D3E0  AFCA009C            sw $10, 156($30)
13737	D3E4  01290019            multu $9, $9
13738	D3E8  00004810            mfhi $9
13739	D3EC  AFC900A0            sw $9, 160($30)
13740	D3F0  3C09FFFF            lui $9, 65535
13741	D3F4  3529FFFF            ori $9, $9, 65535
13742	D3F8  01290019            multu $9, $9
13743	D3FC  00004810            mfhi $9
13744	D400  AFC900A4            sw $9, 164($30)
13745	D404  01080019            multu $8, $8
13746	D408  00004010            mfhi $8
13747	D40C  AFC800A8            sw $8, 168($30)
13748	D410  3C08FFFF            lui $8, 65535
13749	D414  3508FFFF            ori $8, $8, 65535
13750	D418  01080019            multu $8, $8
13751	D41C  00004010            mfhi $8
13752	D420  AFC800AC            sw $8, 172($30)
13753	D424  00E70019            multu $7, $7
13754	D428  00003810            mfhi $7
13755	D42C  AFC700B0            sw $7, 176($30)
13756	D430  3C07FFFF            lui $7, 65535
13757	D434  34E7FFFF            ori $7, $7, 65535
13758	D438  00E70019            multu $7, $7
13759	D43C  00003810            mfhi $7
13760	D440  AFC700B4            sw $7, 180($30)
13761	D444  00C60019            multu $6, $6
13762	D448  00003010            mfhi $6
13763	D44C  AFC600B8            sw $6, 184($30)
13764	D450  3C06FFFF            lui $6, 65535
13765	D454  34C6FFFF            ori $6, $6, 65535
13766	D458  00C60019            multu $6, $6
13767	D45C  00003010            mfhi $6
13768	D460  AFC600BC            sw $6, 188($30)
13769	D464  00A50019            multu $5, $5
13770	D468  00002810            mfhi $5
13771	D46C  AFC500C0            sw $5, 192($30)
13772	D470  3C05FFFF            lui $5, 65535
13773	D474  34A5FFFF            ori $5, $5, 65535
13774	D478  00A50019            multu $5, $5
13775	D47C  00002810            mfhi $5
13776	D480  AFC500C4            sw $5, 196($30)
13777	D484  00840019            multu $4, $4
13778	D488  00002010            mfhi $4
13779	D48C  AFC400C8            sw $4, 200($30)
13780	D490  3C04FFFF            lui $4, 65535
13781	D494  3484FFFF            ori $4, $4, 65535
13782	D498  00840019            multu $4, $4
13783	D49C  00002010            mfhi $4
13784	D4A0  AFC400CC            sw $4, 204($30)
13785	D4A4  00630019            multu $3, $3
13786	D4A8  00001810            mfhi $3
13787	D4AC  AFC300D0            sw $3, 208($30)
13788	D4B0  3C03FFFF            lui $3, 65535
13789	D4B4  3463FFFF            ori $3, $3, 65535
13790	D4B8  00630019            multu $3, $3
13791	D4BC  00001810            mfhi $3
13792	D4C0  AFC300D4            sw $3, 212($30)
13793	D4C4  00420019            multu $2, $2
13794	D4C8  00001010            mfhi $2
13795	D4CC  AFC200D8            sw $2, 216($30)
13796	D4D0  3C02FFFF            lui $2, 65535
13797	D4D4  3442FFFF            ori $2, $2, 65535
13798	D4D8  00420019            multu $2, $2
13799	D4DC  00001010            mfhi $2
13800	D4E0  AFC200DC            sw $2, 220($30)
13801	D4E4  00210019            multu $1, $1
13802	D4E8  00000810            mfhi $1
13803	D4EC  AFC100E0            sw $1, 224($30)
13804	D4F0  3C01FFFF            lui $1, 65535
13805	D4F4  3421FFFF            ori $1, $1, 65535
13806	D4F8  00210019            multu $1, $1
13807	D4FC  00000810            mfhi $1
13808	D500  AFC100E4            sw $1, 228($30)
13809	D504  03E00008            jr $31
13810	                          
13811	                          lo_upward_0:
13812	D508  00210019            multu $1, $1
13813	D50C  00000812            mflo $1
13814	D510  AFC10000            sw $1, 0($30)
13815	D514  3C010000            lui $1, 0
13816	D518  34210000            ori $1, $1, 0
13817	D51C  00420019            multu $2, $2
13818	D520  00001012            mflo $2
13819	D524  AFC20004            sw $2, 4($30)
13820	D528  3C020000            lui $2, 0
13821	D52C  34420000            ori $2, $2, 0
13822	D530  00630019            multu $3, $3
13823	D534  00001812            mflo $3
13824	D538  AFC30008            sw $3, 8($30)
13825	D53C  3C030000            lui $3, 0
13826	D540  34630000            ori $3, $3, 0
13827	D544  00840019            multu $4, $4
13828	D548  00002012            mflo $4
13829	D54C  AFC4000C            sw $4, 12($30)
13830	D550  3C040000            lui $4, 0
13831	D554  34840000            ori $4, $4, 0
13832	D558  00A50019            multu $5, $5
13833	D55C  00002812            mflo $5
13834	D560  AFC50010            sw $5, 16($30)
13835	D564  3C050000            lui $5, 0
13836	D568  34A50000            ori $5, $5, 0
13837	D56C  00C60019            multu $6, $6
13838	D570  00003012            mflo $6
13839	D574  AFC60014            sw $6, 20($30)
13840	D578  3C060000            lui $6, 0
13841	D57C  34C60000            ori $6, $6, 0
13842	D580  00E70019            multu $7, $7
13843	D584  00003812            mflo $7
13844	D588  AFC70018            sw $7, 24($30)
13845	D58C  3C070000            lui $7, 0
13846	D590  34E70000            ori $7, $7, 0
13847	D594  01080019            multu $8, $8
13848	D598  00004012            mflo $8
13849	D59C  AFC8001C            sw $8, 28($30)
13850	D5A0  3C080000            lui $8, 0
13851	D5A4  35080000            ori $8, $8, 0
13852	D5A8  01290019            multu $9, $9
13853	D5AC  00004812            mflo $9
13854	D5B0  AFC90020            sw $9, 32($30)
13855	D5B4  3C090000            lui $9, 0
13856	D5B8  35290000            ori $9, $9, 0
13857	D5BC  014A0019            multu $10, $10
13858	D5C0  00005012            mflo $10
13859	D5C4  AFCA0024            sw $10, 36($30)
13860	D5C8  3C0A0000            lui $10, 0
13861	D5CC  354A0000            ori $10, $10, 0
13862	D5D0  016B0019            multu $11, $11
13863	D5D4  00005812            mflo $11
13864	D5D8  AFCB0028            sw $11, 40($30)
13865	D5DC  3C0B0000            lui $11, 0
13866	D5E0  356B0000            ori $11, $11, 0
13867	D5E4  018C0019            multu $12, $12
13868	D5E8  00006012            mflo $12
13869	D5EC  AFCC002C            sw $12, 44($30)
13870	D5F0  3C0C0000            lui $12, 0
13871	D5F4  358C0000            ori $12, $12, 0
13872	D5F8  01AD0019            multu $13, $13
13873	D5FC  00006812            mflo $13
13874	D600  AFCD0030            sw $13, 48($30)
13875	D604  3C0D0000            lui $13, 0
13876	D608  35AD0000            ori $13, $13, 0
13877	D60C  01CE0019            multu $14, $14
13878	D610  00007012            mflo $14
13879	D614  AFCE0034            sw $14, 52($30)
13880	D618  3C0E0000            lui $14, 0
13881	D61C  35CE0000            ori $14, $14, 0
13882	D620  01EF0019            multu $15, $15
13883	D624  00007812            mflo $15
13884	D628  AFCF0038            sw $15, 56($30)
13885	D62C  3C0F0000            lui $15, 0
13886	D630  35EF0000            ori $15, $15, 0
13887	D634  02100019            multu $16, $16
13888	D638  00008012            mflo $16
13889	D63C  AFD0003C            sw $16, 60($30)
13890	D640  3C100000            lui $16, 0
13891	D644  36100000            ori $16, $16, 0
13892	D648  02310019            multu $17, $17
13893	D64C  00008812            mflo $17
13894	D650  AFD10040            sw $17, 64($30)
13895	D654  3C110000            lui $17, 0
13896	D658  36310000            ori $17, $17, 0
13897	D65C  02520019            multu $18, $18
13898	D660  00009012            mflo $18
13899	D664  AFD20044            sw $18, 68($30)
13900	D668  3C120000            lui $18, 0
13901	D66C  36520000            ori $18, $18, 0
13902	D670  02730019            multu $19, $19
13903	D674  00009812            mflo $19
13904	D678  AFD30048            sw $19, 72($30)
13905	D67C  3C130000            lui $19, 0
13906	D680  36730000            ori $19, $19, 0
13907	D684  02940019            multu $20, $20
13908	D688  0000A012            mflo $20
13909	D68C  AFD4004C            sw $20, 76($30)
13910	D690  3C140000            lui $20, 0
13911	D694  36940000            ori $20, $20, 0
13912	D698  02B50019            multu $21, $21
13913	D69C  0000A812            mflo $21
13914	D6A0  AFD50050            sw $21, 80($30)
13915	D6A4  3C150000            lui $21, 0
13916	D6A8  36B50000            ori $21, $21, 0
13917	D6AC  02D60019            multu $22, $22
13918	D6B0  0000B012            mflo $22
13919	D6B4  AFD60054            sw $22, 84($30)
13920	D6B8  3C160000            lui $22, 0
13921	D6BC  36D60000            ori $22, $22, 0
13922	D6C0  02F70019            multu $23, $23
13923	D6C4  0000B812            mflo $23
13924	D6C8  AFD70058            sw $23, 88($30)
13925	D6CC  3C170000            lui $23, 0
13926	D6D0  36F70000            ori $23, $23, 0
13927	D6D4  03180019            multu $24, $24
13928	D6D8  0000C012            mflo $24
13929	D6DC  AFD8005C            sw $24, 92($30)
13930	D6E0  3C180000            lui $24, 0
13931	D6E4  37180000            ori $24, $24, 0
13932	D6E8  03390019            multu $25, $25
13933	D6EC  0000C812            mflo $25
13934	D6F0  AFD90060            sw $25, 96($30)
13935	D6F4  3C190000            lui $25, 0
13936	D6F8  37390000            ori $25, $25, 0
13937	D6FC  035A0019            multu $26, $26
13938	D700  0000D012            mflo $26
13939	D704  AFDA0064            sw $26, 100($30)
13940	D708  3C1A0000            lui $26, 0
13941	D70C  375A0000            ori $26, $26, 0
13942	D710  037B0019            multu $27, $27
13943	D714  0000D812            mflo $27
13944	D718  AFDB0068            sw $27, 104($30)
13945	D71C  3C1B0000            lui $27, 0
13946	D720  377B0000            ori $27, $27, 0
13947	D724  039C0019            multu $28, $28
13948	D728  0000E012            mflo $28
13949	D72C  AFDC006C            sw $28, 108($30)
13950	D730  3C1C0000            lui $28, 0
13951	D734  379C0000            ori $28, $28, 0
13952	D738  03BD0019            multu $29, $29
13953	D73C  0000E812            mflo $29
13954	D740  AFDD0070            sw $29, 112($30)
13955	D744  3C1D0000            lui $29, 0
13956	D748  37BD0000            ori $29, $29, 0
13957	D74C  03E00008            jr $31
13958	                          
13959	                          lo_downward_1:
13960	D750  03BD0019            multu $29, $29
13961	D754  0000E812            mflo $29
13962	D758  AFDD0000            sw $29, 0($30)
13963	D75C  3C1DFFFF            lui $29, 65535
13964	D760  37BDFFFF            ori $29, $29, 65535
13965	D764  03BD0019            multu $29, $29
13966	D768  0000E812            mflo $29
13967	D76C  AFDD0004            sw $29, 4($30)
13968	D770  039C0019            multu $28, $28
13969	D774  0000E012            mflo $28
13970	D778  AFDC0008            sw $28, 8($30)
13971	D77C  3C1CFFFF            lui $28, 65535
13972	D780  379CFFFF            ori $28, $28, 65535
13973	D784  039C0019            multu $28, $28
13974	D788  0000E012            mflo $28
13975	D78C  AFDC000C            sw $28, 12($30)
13976	D790  037B0019            multu $27, $27
13977	D794  0000D812            mflo $27
13978	D798  AFDB0010            sw $27, 16($30)
13979	D79C  3C1BFFFF            lui $27, 65535
13980	D7A0  377BFFFF            ori $27, $27, 65535
13981	D7A4  037B0019            multu $27, $27
13982	D7A8  0000D812            mflo $27
13983	D7AC  AFDB0014            sw $27, 20($30)
13984	D7B0  035A0019            multu $26, $26
13985	D7B4  0000D012            mflo $26
13986	D7B8  AFDA0018            sw $26, 24($30)
13987	D7BC  3C1AFFFF            lui $26, 65535
13988	D7C0  375AFFFF            ori $26, $26, 65535
13989	D7C4  035A0019            multu $26, $26
13990	D7C8  0000D012            mflo $26
13991	D7CC  AFDA001C            sw $26, 28($30)
13992	D7D0  03390019            multu $25, $25
13993	D7D4  0000C812            mflo $25
13994	D7D8  AFD90020            sw $25, 32($30)
13995	D7DC  3C19FFFF            lui $25, 65535
13996	D7E0  3739FFFF            ori $25, $25, 65535
13997	D7E4  03390019            multu $25, $25
13998	D7E8  0000C812            mflo $25
13999	D7EC  AFD90024            sw $25, 36($30)
14000	D7F0  03180019            multu $24, $24
14001	D7F4  0000C012            mflo $24
14002	D7F8  AFD80028            sw $24, 40($30)
14003	D7FC  3C18FFFF            lui $24, 65535
14004	D800  3718FFFF            ori $24, $24, 65535
14005	D804  03180019            multu $24, $24
14006	D808  0000C012            mflo $24
14007	D80C  AFD8002C            sw $24, 44($30)
14008	D810  02F70019            multu $23, $23
14009	D814  0000B812            mflo $23
14010	D818  AFD70030            sw $23, 48($30)
14011	D81C  3C17FFFF            lui $23, 65535
14012	D820  36F7FFFF            ori $23, $23, 65535
14013	D824  02F70019            multu $23, $23
14014	D828  0000B812            mflo $23
14015	D82C  AFD70034            sw $23, 52($30)
14016	D830  02D60019            multu $22, $22
14017	D834  0000B012            mflo $22
14018	D838  AFD60038            sw $22, 56($30)
14019	D83C  3C16FFFF            lui $22, 65535
14020	D840  36D6FFFF            ori $22, $22, 65535
14021	D844  02D60019            multu $22, $22
14022	D848  0000B012            mflo $22
14023	D84C  AFD6003C            sw $22, 60($30)
14024	D850  02B50019            multu $21, $21
14025	D854  0000A812            mflo $21
14026	D858  AFD50040            sw $21, 64($30)
14027	D85C  3C15FFFF            lui $21, 65535
14028	D860  36B5FFFF            ori $21, $21, 65535
14029	D864  02B50019            multu $21, $21
14030	D868  0000A812            mflo $21
14031	D86C  AFD50044            sw $21, 68($30)
14032	D870  02940019            multu $20, $20
14033	D874  0000A012            mflo $20
14034	D878  AFD40048            sw $20, 72($30)
14035	D87C  3C14FFFF            lui $20, 65535
14036	D880  3694FFFF            ori $20, $20, 65535
14037	D884  02940019            multu $20, $20
14038	D888  0000A012            mflo $20
14039	D88C  AFD4004C            sw $20, 76($30)
14040	D890  02730019            multu $19, $19
14041	D894  00009812            mflo $19
14042	D898  AFD30050            sw $19, 80($30)
14043	D89C  3C13FFFF            lui $19, 65535
14044	D8A0  3673FFFF            ori $19, $19, 65535
14045	D8A4  02730019            multu $19, $19
14046	D8A8  00009812            mflo $19
14047	D8AC  AFD30054            sw $19, 84($30)
14048	D8B0  02520019            multu $18, $18
14049	D8B4  00009012            mflo $18
14050	D8B8  AFD20058            sw $18, 88($30)
14051	D8BC  3C12FFFF            lui $18, 65535
14052	D8C0  3652FFFF            ori $18, $18, 65535
14053	D8C4  02520019            multu $18, $18
14054	D8C8  00009012            mflo $18
14055	D8CC  AFD2005C            sw $18, 92($30)
14056	D8D0  02310019            multu $17, $17
14057	D8D4  00008812            mflo $17
14058	D8D8  AFD10060            sw $17, 96($30)
14059	D8DC  3C11FFFF            lui $17, 65535
14060	D8E0  3631FFFF            ori $17, $17, 65535
14061	D8E4  02310019            multu $17, $17
14062	D8E8  00008812            mflo $17
14063	D8EC  AFD10064            sw $17, 100($30)
14064	D8F0  02100019            multu $16, $16
14065	D8F4  00008012            mflo $16
14066	D8F8  AFD00068            sw $16, 104($30)
14067	D8FC  3C10FFFF            lui $16, 65535
14068	D900  3610FFFF            ori $16, $16, 65535
14069	D904  02100019            multu $16, $16
14070	D908  00008012            mflo $16
14071	D90C  AFD0006C            sw $16, 108($30)
14072	D910  01EF0019            multu $15, $15
14073	D914  00007812            mflo $15
14074	D918  AFCF0070            sw $15, 112($30)
14075	D91C  3C0FFFFF            lui $15, 65535
14076	D920  35EFFFFF            ori $15, $15, 65535
14077	D924  01EF0019            multu $15, $15
14078	D928  00007812            mflo $15
14079	D92C  AFCF0074            sw $15, 116($30)
14080	D930  01CE0019            multu $14, $14
14081	D934  00007012            mflo $14
14082	D938  AFCE0078            sw $14, 120($30)
14083	D93C  3C0EFFFF            lui $14, 65535
14084	D940  35CEFFFF            ori $14, $14, 65535
14085	D944  01CE0019            multu $14, $14
14086	D948  00007012            mflo $14
14087	D94C  AFCE007C            sw $14, 124($30)
14088	D950  01AD0019            multu $13, $13
14089	D954  00006812            mflo $13
14090	D958  AFCD0080            sw $13, 128($30)
14091	D95C  3C0DFFFF            lui $13, 65535
14092	D960  35ADFFFF            ori $13, $13, 65535
14093	D964  01AD0019            multu $13, $13
14094	D968  00006812            mflo $13
14095	D96C  AFCD0084            sw $13, 132($30)
14096	D970  018C0019            multu $12, $12
14097	D974  00006012            mflo $12
14098	D978  AFCC0088            sw $12, 136($30)
14099	D97C  3C0CFFFF            lui $12, 65535
14100	D980  358CFFFF            ori $12, $12, 65535
14101	D984  018C0019            multu $12, $12
14102	D988  00006012            mflo $12
14103	D98C  AFCC008C            sw $12, 140($30)
14104	D990  016B0019            multu $11, $11
14105	D994  00005812            mflo $11
14106	D998  AFCB0090            sw $11, 144($30)
14107	D99C  3C0BFFFF            lui $11, 65535
14108	D9A0  356BFFFF            ori $11, $11, 65535
14109	D9A4  016B0019            multu $11, $11
14110	D9A8  00005812            mflo $11
14111	D9AC  AFCB0094            sw $11, 148($30)
14112	D9B0  014A0019            multu $10, $10
14113	D9B4  00005012            mflo $10
14114	D9B8  AFCA0098            sw $10, 152($30)
14115	D9BC  3C0AFFFF            lui $10, 65535
14116	D9C0  354AFFFF            ori $10, $10, 65535
14117	D9C4  014A0019            multu $10, $10
14118	D9C8  00005012            mflo $10
14119	D9CC  AFCA009C            sw $10, 156($30)
14120	D9D0  01290019            multu $9, $9
14121	D9D4  00004812            mflo $9
14122	D9D8  AFC900A0            sw $9, 160($30)
14123	D9DC  3C09FFFF            lui $9, 65535
14124	D9E0  3529FFFF            ori $9, $9, 65535
14125	D9E4  01290019            multu $9, $9
14126	D9E8  00004812            mflo $9
14127	D9EC  AFC900A4            sw $9, 164($30)
14128	D9F0  01080019            multu $8, $8
14129	D9F4  00004012            mflo $8
14130	D9F8  AFC800A8            sw $8, 168($30)
14131	D9FC  3C08FFFF            lui $8, 65535
14132	DA00  3508FFFF            ori $8, $8, 65535
14133	DA04  01080019            multu $8, $8
14134	DA08  00004012            mflo $8
14135	DA0C  AFC800AC            sw $8, 172($30)
14136	DA10  00E70019            multu $7, $7
14137	DA14  00003812            mflo $7
14138	DA18  AFC700B0            sw $7, 176($30)
14139	DA1C  3C07FFFF            lui $7, 65535
14140	DA20  34E7FFFF            ori $7, $7, 65535
14141	DA24  00E70019            multu $7, $7
14142	DA28  00003812            mflo $7
14143	DA2C  AFC700B4            sw $7, 180($30)
14144	DA30  00C60019            multu $6, $6
14145	DA34  00003012            mflo $6
14146	DA38  AFC600B8            sw $6, 184($30)
14147	DA3C  3C06FFFF            lui $6, 65535
14148	DA40  34C6FFFF            ori $6, $6, 65535
14149	DA44  00C60019            multu $6, $6
14150	DA48  00003012            mflo $6
14151	DA4C  AFC600BC            sw $6, 188($30)
14152	DA50  00A50019            multu $5, $5
14153	DA54  00002812            mflo $5
14154	DA58  AFC500C0            sw $5, 192($30)
14155	DA5C  3C05FFFF            lui $5, 65535
14156	DA60  34A5FFFF            ori $5, $5, 65535
14157	DA64  00A50019            multu $5, $5
14158	DA68  00002812            mflo $5
14159	DA6C  AFC500C4            sw $5, 196($30)
14160	DA70  00840019            multu $4, $4
14161	DA74  00002012            mflo $4
14162	DA78  AFC400C8            sw $4, 200($30)
14163	DA7C  3C04FFFF            lui $4, 65535
14164	DA80  3484FFFF            ori $4, $4, 65535
14165	DA84  00840019            multu $4, $4
14166	DA88  00002012            mflo $4
14167	DA8C  AFC400CC            sw $4, 204($30)
14168	DA90  00630019            multu $3, $3
14169	DA94  00001812            mflo $3
14170	DA98  AFC300D0            sw $3, 208($30)
14171	DA9C  3C03FFFF            lui $3, 65535
14172	DAA0  3463FFFF            ori $3, $3, 65535
14173	DAA4  00630019            multu $3, $3
14174	DAA8  00001812            mflo $3
14175	DAAC  AFC300D4            sw $3, 212($30)
14176	DAB0  00420019            multu $2, $2
14177	DAB4  00001012            mflo $2
14178	DAB8  AFC200D8            sw $2, 216($30)
14179	DABC  3C02FFFF            lui $2, 65535
14180	DAC0  3442FFFF            ori $2, $2, 65535
14181	DAC4  00420019            multu $2, $2
14182	DAC8  00001012            mflo $2
14183	DACC  AFC200DC            sw $2, 220($30)
14184	DAD0  00210019            multu $1, $1
14185	DAD4  00000812            mflo $1
14186	DAD8  AFC100E0            sw $1, 224($30)
14187	DADC  3C01FFFF            lui $1, 65535
14188	DAE0  3421FFFF            ori $1, $1, 65535
14189	DAE4  00210019            multu $1, $1
14190	DAE8  00000812            mflo $1
14191	DAEC  AFC100E4            sw $1, 228($30)
14192	DAF0  03E00008            jr $31
14193	                          
14194	                          hi_upward_1:
14195	DAF4  00210019            multu $1, $1
14196	DAF8  00000810            mfhi $1
14197	DAFC  AFC10000            sw $1, 0($30)
14198	DB00  3C01FFFF            lui $1, 65535
14199	DB04  3421FFFF            ori $1, $1, 65535
14200	DB08  00420019            multu $2, $2
14201	DB0C  00001010            mfhi $2
14202	DB10  AFC20004            sw $2, 4($30)
14203	DB14  3C02FFFF            lui $2, 65535
14204	DB18  3442FFFF            ori $2, $2, 65535
14205	DB1C  00630019            multu $3, $3
14206	DB20  00001810            mfhi $3
14207	DB24  AFC30008            sw $3, 8($30)
14208	DB28  3C03FFFF            lui $3, 65535
14209	DB2C  3463FFFF            ori $3, $3, 65535
14210	DB30  00840019            multu $4, $4
14211	DB34  00002010            mfhi $4
14212	DB38  AFC4000C            sw $4, 12($30)
14213	DB3C  3C04FFFF            lui $4, 65535
14214	DB40  3484FFFF            ori $4, $4, 65535
14215	DB44  00A50019            multu $5, $5
14216	DB48  00002810            mfhi $5
14217	DB4C  AFC50010            sw $5, 16($30)
14218	DB50  3C05FFFF            lui $5, 65535
14219	DB54  34A5FFFF            ori $5, $5, 65535
14220	DB58  00C60019            multu $6, $6
14221	DB5C  00003010            mfhi $6
14222	DB60  AFC60014            sw $6, 20($30)
14223	DB64  3C06FFFF            lui $6, 65535
14224	DB68  34C6FFFF            ori $6, $6, 65535
14225	DB6C  00E70019            multu $7, $7
14226	DB70  00003810            mfhi $7
14227	DB74  AFC70018            sw $7, 24($30)
14228	DB78  3C07FFFF            lui $7, 65535
14229	DB7C  34E7FFFF            ori $7, $7, 65535
14230	DB80  01080019            multu $8, $8
14231	DB84  00004010            mfhi $8
14232	DB88  AFC8001C            sw $8, 28($30)
14233	DB8C  3C08FFFF            lui $8, 65535
14234	DB90  3508FFFF            ori $8, $8, 65535
14235	DB94  01290019            multu $9, $9
14236	DB98  00004810            mfhi $9
14237	DB9C  AFC90020            sw $9, 32($30)
14238	DBA0  3C09FFFF            lui $9, 65535
14239	DBA4  3529FFFF            ori $9, $9, 65535
14240	DBA8  014A0019            multu $10, $10
14241	DBAC  00005010            mfhi $10
14242	DBB0  AFCA0024            sw $10, 36($30)
14243	DBB4  3C0AFFFF            lui $10, 65535
14244	DBB8  354AFFFF            ori $10, $10, 65535
14245	DBBC  016B0019            multu $11, $11
14246	DBC0  00005810            mfhi $11
14247	DBC4  AFCB0028            sw $11, 40($30)
14248	DBC8  3C0BFFFF            lui $11, 65535
14249	DBCC  356BFFFF            ori $11, $11, 65535
14250	DBD0  018C0019            multu $12, $12
14251	DBD4  00006010            mfhi $12
14252	DBD8  AFCC002C            sw $12, 44($30)
14253	DBDC  3C0CFFFF            lui $12, 65535
14254	DBE0  358CFFFF            ori $12, $12, 65535
14255	DBE4  01AD0019            multu $13, $13
14256	DBE8  00006810            mfhi $13
14257	DBEC  AFCD0030            sw $13, 48($30)
14258	DBF0  3C0DFFFF            lui $13, 65535
14259	DBF4  35ADFFFF            ori $13, $13, 65535
14260	DBF8  01CE0019            multu $14, $14
14261	DBFC  00007010            mfhi $14
14262	DC00  AFCE0034            sw $14, 52($30)
14263	DC04  3C0EFFFF            lui $14, 65535
14264	DC08  35CEFFFF            ori $14, $14, 65535
14265	DC0C  01EF0019            multu $15, $15
14266	DC10  00007810            mfhi $15
14267	DC14  AFCF0038            sw $15, 56($30)
14268	DC18  3C0FFFFF            lui $15, 65535
14269	DC1C  35EFFFFF            ori $15, $15, 65535
14270	DC20  02100019            multu $16, $16
14271	DC24  00008010            mfhi $16
14272	DC28  AFD0003C            sw $16, 60($30)
14273	DC2C  3C10FFFF            lui $16, 65535
14274	DC30  3610FFFF            ori $16, $16, 65535
14275	DC34  02310019            multu $17, $17
14276	DC38  00008810            mfhi $17
14277	DC3C  AFD10040            sw $17, 64($30)
14278	DC40  3C11FFFF            lui $17, 65535
14279	DC44  3631FFFF            ori $17, $17, 65535
14280	DC48  02520019            multu $18, $18
14281	DC4C  00009010            mfhi $18
14282	DC50  AFD20044            sw $18, 68($30)
14283	DC54  3C12FFFF            lui $18, 65535
14284	DC58  3652FFFF            ori $18, $18, 65535
14285	DC5C  02730019            multu $19, $19
14286	DC60  00009810            mfhi $19
14287	DC64  AFD30048            sw $19, 72($30)
14288	DC68  3C13FFFF            lui $19, 65535
14289	DC6C  3673FFFF            ori $19, $19, 65535
14290	DC70  02940019            multu $20, $20
14291	DC74  0000A010            mfhi $20
14292	DC78  AFD4004C            sw $20, 76($30)
14293	DC7C  3C14FFFF            lui $20, 65535
14294	DC80  3694FFFF            ori $20, $20, 65535
14295	DC84  02B50019            multu $21, $21
14296	DC88  0000A810            mfhi $21
14297	DC8C  AFD50050            sw $21, 80($30)
14298	DC90  3C15FFFF            lui $21, 65535
14299	DC94  36B5FFFF            ori $21, $21, 65535
14300	DC98  02D60019            multu $22, $22
14301	DC9C  0000B010            mfhi $22
14302	DCA0  AFD60054            sw $22, 84($30)
14303	DCA4  3C16FFFF            lui $22, 65535
14304	DCA8  36D6FFFF            ori $22, $22, 65535
14305	DCAC  02F70019            multu $23, $23
14306	DCB0  0000B810            mfhi $23
14307	DCB4  AFD70058            sw $23, 88($30)
14308	DCB8  3C17FFFF            lui $23, 65535
14309	DCBC  36F7FFFF            ori $23, $23, 65535
14310	DCC0  03180019            multu $24, $24
14311	DCC4  0000C010            mfhi $24
14312	DCC8  AFD8005C            sw $24, 92($30)
14313	DCCC  3C18FFFF            lui $24, 65535
14314	DCD0  3718FFFF            ori $24, $24, 65535
14315	DCD4  03390019            multu $25, $25
14316	DCD8  0000C810            mfhi $25
14317	DCDC  AFD90060            sw $25, 96($30)
14318	DCE0  3C19FFFF            lui $25, 65535
14319	DCE4  3739FFFF            ori $25, $25, 65535
14320	DCE8  035A0019            multu $26, $26
14321	DCEC  0000D010            mfhi $26
14322	DCF0  AFDA0064            sw $26, 100($30)
14323	DCF4  3C1AFFFF            lui $26, 65535
14324	DCF8  375AFFFF            ori $26, $26, 65535
14325	DCFC  037B0019            multu $27, $27
14326	DD00  0000D810            mfhi $27
14327	DD04  AFDB0068            sw $27, 104($30)
14328	DD08  3C1BFFFF            lui $27, 65535
14329	DD0C  377BFFFF            ori $27, $27, 65535
14330	DD10  039C0019            multu $28, $28
14331	DD14  0000E010            mfhi $28
14332	DD18  AFDC006C            sw $28, 108($30)
14333	DD1C  3C1CFFFF            lui $28, 65535
14334	DD20  379CFFFF            ori $28, $28, 65535
14335	DD24  03BD0019            multu $29, $29
14336	DD28  0000E810            mfhi $29
14337	DD2C  AFDD0070            sw $29, 112($30)
14338	DD30  3C1DFFFF            lui $29, 65535
14339	DD34  37BDFFFF            ori $29, $29, 65535
14340	DD38  03E00008            jr $31
14341	                          
14342	                          hi_downward_0:
14343	DD3C  03BD0019            multu $29, $29
14344	DD40  0000E810            mfhi $29
14345	DD44  AFDD0000            sw $29, 0($30)
14346	DD48  3C1D0000            lui $29, 0
14347	DD4C  37BD0000            ori $29, $29, 0
14348	DD50  03BD0019            multu $29, $29
14349	DD54  0000E810            mfhi $29
14350	DD58  AFDD0004            sw $29, 4($30)
14351	DD5C  039C0019            multu $28, $28
14352	DD60  0000E010            mfhi $28
14353	DD64  AFDC0008            sw $28, 8($30)
14354	DD68  3C1C0000            lui $28, 0
14355	DD6C  379C0000            ori $28, $28, 0
14356	DD70  039C0019            multu $28, $28
14357	DD74  0000E010            mfhi $28
14358	DD78  AFDC000C            sw $28, 12($30)
14359	DD7C  037B0019            multu $27, $27
14360	DD80  0000D810            mfhi $27
14361	DD84  AFDB0010            sw $27, 16($30)
14362	DD88  3C1B0000            lui $27, 0
14363	DD8C  377B0000            ori $27, $27, 0
14364	DD90  037B0019            multu $27, $27
14365	DD94  0000D810            mfhi $27
14366	DD98  AFDB0014            sw $27, 20($30)
14367	DD9C  035A0019            multu $26, $26
14368	DDA0  0000D010            mfhi $26
14369	DDA4  AFDA0018            sw $26, 24($30)
14370	DDA8  3C1A0000            lui $26, 0
14371	DDAC  375A0000            ori $26, $26, 0
14372	DDB0  035A0019            multu $26, $26
14373	DDB4  0000D010            mfhi $26
14374	DDB8  AFDA001C            sw $26, 28($30)
14375	DDBC  03390019            multu $25, $25
14376	DDC0  0000C810            mfhi $25
14377	DDC4  AFD90020            sw $25, 32($30)
14378	DDC8  3C190000            lui $25, 0
14379	DDCC  37390000            ori $25, $25, 0
14380	DDD0  03390019            multu $25, $25
14381	DDD4  0000C810            mfhi $25
14382	DDD8  AFD90024            sw $25, 36($30)
14383	DDDC  03180019            multu $24, $24
14384	DDE0  0000C010            mfhi $24
14385	DDE4  AFD80028            sw $24, 40($30)
14386	DDE8  3C180000            lui $24, 0
14387	DDEC  37180000            ori $24, $24, 0
14388	DDF0  03180019            multu $24, $24
14389	DDF4  0000C010            mfhi $24
14390	DDF8  AFD8002C            sw $24, 44($30)
14391	DDFC  02F70019            multu $23, $23
14392	DE00  0000B810            mfhi $23
14393	DE04  AFD70030            sw $23, 48($30)
14394	DE08  3C170000            lui $23, 0
14395	DE0C  36F70000            ori $23, $23, 0
14396	DE10  02F70019            multu $23, $23
14397	DE14  0000B810            mfhi $23
14398	DE18  AFD70034            sw $23, 52($30)
14399	DE1C  02D60019            multu $22, $22
14400	DE20  0000B010            mfhi $22
14401	DE24  AFD60038            sw $22, 56($30)
14402	DE28  3C160000            lui $22, 0
14403	DE2C  36D60000            ori $22, $22, 0
14404	DE30  02D60019            multu $22, $22
14405	DE34  0000B010            mfhi $22
14406	DE38  AFD6003C            sw $22, 60($30)
14407	DE3C  02B50019            multu $21, $21
14408	DE40  0000A810            mfhi $21
14409	DE44  AFD50040            sw $21, 64($30)
14410	DE48  3C150000            lui $21, 0
14411	DE4C  36B50000            ori $21, $21, 0
14412	DE50  02B50019            multu $21, $21
14413	DE54  0000A810            mfhi $21
14414	DE58  AFD50044            sw $21, 68($30)
14415	DE5C  02940019            multu $20, $20
14416	DE60  0000A010            mfhi $20
14417	DE64  AFD40048            sw $20, 72($30)
14418	DE68  3C140000            lui $20, 0
14419	DE6C  36940000            ori $20, $20, 0
14420	DE70  02940019            multu $20, $20
14421	DE74  0000A010            mfhi $20
14422	DE78  AFD4004C            sw $20, 76($30)
14423	DE7C  02730019            multu $19, $19
14424	DE80  00009810            mfhi $19
14425	DE84  AFD30050            sw $19, 80($30)
14426	DE88  3C130000            lui $19, 0
14427	DE8C  36730000            ori $19, $19, 0
14428	DE90  02730019            multu $19, $19
14429	DE94  00009810            mfhi $19
14430	DE98  AFD30054            sw $19, 84($30)
14431	DE9C  02520019            multu $18, $18
14432	DEA0  00009010            mfhi $18
14433	DEA4  AFD20058            sw $18, 88($30)
14434	DEA8  3C120000            lui $18, 0
14435	DEAC  36520000            ori $18, $18, 0
14436	DEB0  02520019            multu $18, $18
14437	DEB4  00009010            mfhi $18
14438	DEB8  AFD2005C            sw $18, 92($30)
14439	DEBC  02310019            multu $17, $17
14440	DEC0  00008810            mfhi $17
14441	DEC4  AFD10060            sw $17, 96($30)
14442	DEC8  3C110000            lui $17, 0
14443	DECC  36310000            ori $17, $17, 0
14444	DED0  02310019            multu $17, $17
14445	DED4  00008810            mfhi $17
14446	DED8  AFD10064            sw $17, 100($30)
14447	DEDC  02100019            multu $16, $16
14448	DEE0  00008010            mfhi $16
14449	DEE4  AFD00068            sw $16, 104($30)
14450	DEE8  3C100000            lui $16, 0
14451	DEEC  36100000            ori $16, $16, 0
14452	DEF0  02100019            multu $16, $16
14453	DEF4  00008010            mfhi $16
14454	DEF8  AFD0006C            sw $16, 108($30)
14455	DEFC  01EF0019            multu $15, $15
14456	DF00  00007810            mfhi $15
14457	DF04  AFCF0070            sw $15, 112($30)
14458	DF08  3C0F0000            lui $15, 0
14459	DF0C  35EF0000            ori $15, $15, 0
14460	DF10  01EF0019            multu $15, $15
14461	DF14  00007810            mfhi $15
14462	DF18  AFCF0074            sw $15, 116($30)
14463	DF1C  01CE0019            multu $14, $14
14464	DF20  00007010            mfhi $14
14465	DF24  AFCE0078            sw $14, 120($30)
14466	DF28  3C0E0000            lui $14, 0
14467	DF2C  35CE0000            ori $14, $14, 0
14468	DF30  01CE0019            multu $14, $14
14469	DF34  00007010            mfhi $14
14470	DF38  AFCE007C            sw $14, 124($30)
14471	DF3C  01AD0019            multu $13, $13
14472	DF40  00006810            mfhi $13
14473	DF44  AFCD0080            sw $13, 128($30)
14474	DF48  3C0D0000            lui $13, 0
14475	DF4C  35AD0000            ori $13, $13, 0
14476	DF50  01AD0019            multu $13, $13
14477	DF54  00006810            mfhi $13
14478	DF58  AFCD0084            sw $13, 132($30)
14479	DF5C  018C0019            multu $12, $12
14480	DF60  00006010            mfhi $12
14481	DF64  AFCC0088            sw $12, 136($30)
14482	DF68  3C0C0000            lui $12, 0
14483	DF6C  358C0000            ori $12, $12, 0
14484	DF70  018C0019            multu $12, $12
14485	DF74  00006010            mfhi $12
14486	DF78  AFCC008C            sw $12, 140($30)
14487	DF7C  016B0019            multu $11, $11
14488	DF80  00005810            mfhi $11
14489	DF84  AFCB0090            sw $11, 144($30)
14490	DF88  3C0B0000            lui $11, 0
14491	DF8C  356B0000            ori $11, $11, 0
14492	DF90  016B0019            multu $11, $11
14493	DF94  00005810            mfhi $11
14494	DF98  AFCB0094            sw $11, 148($30)
14495	DF9C  014A0019            multu $10, $10
14496	DFA0  00005010            mfhi $10
14497	DFA4  AFCA0098            sw $10, 152($30)
14498	DFA8  3C0A0000            lui $10, 0
14499	DFAC  354A0000            ori $10, $10, 0
14500	DFB0  014A0019            multu $10, $10
14501	DFB4  00005010            mfhi $10
14502	DFB8  AFCA009C            sw $10, 156($30)
14503	DFBC  01290019            multu $9, $9
14504	DFC0  00004810            mfhi $9
14505	DFC4  AFC900A0            sw $9, 160($30)
14506	DFC8  3C090000            lui $9, 0
14507	DFCC  35290000            ori $9, $9, 0
14508	DFD0  01290019            multu $9, $9
14509	DFD4  00004810            mfhi $9
14510	DFD8  AFC900A4            sw $9, 164($30)
14511	DFDC  01080019            multu $8, $8
14512	DFE0  00004010            mfhi $8
14513	DFE4  AFC800A8            sw $8, 168($30)
14514	DFE8  3C080000            lui $8, 0
14515	DFEC  35080000            ori $8, $8, 0
14516	DFF0  01080019            multu $8, $8
14517	DFF4  00004010            mfhi $8
14518	DFF8  AFC800AC            sw $8, 172($30)
14519	DFFC  00E70019            multu $7, $7
14520	E000  00003810            mfhi $7
14521	E004  AFC700B0            sw $7, 176($30)
14522	E008  3C070000            lui $7, 0
14523	E00C  34E70000            ori $7, $7, 0
14524	E010  00E70019            multu $7, $7
14525	E014  00003810            mfhi $7
14526	E018  AFC700B4            sw $7, 180($30)
14527	E01C  00C60019            multu $6, $6
14528	E020  00003010            mfhi $6
14529	E024  AFC600B8            sw $6, 184($30)
14530	E028  3C060000            lui $6, 0
14531	E02C  34C60000            ori $6, $6, 0
14532	E030  00C60019            multu $6, $6
14533	E034  00003010            mfhi $6
14534	E038  AFC600BC            sw $6, 188($30)
14535	E03C  00A50019            multu $5, $5
14536	E040  00002810            mfhi $5
14537	E044  AFC500C0            sw $5, 192($30)
14538	E048  3C050000            lui $5, 0
14539	E04C  34A50000            ori $5, $5, 0
14540	E050  00A50019            multu $5, $5
14541	E054  00002810            mfhi $5
14542	E058  AFC500C4            sw $5, 196($30)
14543	E05C  00840019            multu $4, $4
14544	E060  00002010            mfhi $4
14545	E064  AFC400C8            sw $4, 200($30)
14546	E068  3C040000            lui $4, 0
14547	E06C  34840000            ori $4, $4, 0
14548	E070  00840019            multu $4, $4
14549	E074  00002010            mfhi $4
14550	E078  AFC400CC            sw $4, 204($30)
14551	E07C  00630019            multu $3, $3
14552	E080  00001810            mfhi $3
14553	E084  AFC300D0            sw $3, 208($30)
14554	E088  3C030000            lui $3, 0
14555	E08C  34630000            ori $3, $3, 0
14556	E090  00630019            multu $3, $3
14557	E094  00001810            mfhi $3
14558	E098  AFC300D4            sw $3, 212($30)
14559	E09C  00420019            multu $2, $2
14560	E0A0  00001010            mfhi $2
14561	E0A4  AFC200D8            sw $2, 216($30)
14562	E0A8  3C020000            lui $2, 0
14563	E0AC  34420000            ori $2, $2, 0
14564	E0B0  00420019            multu $2, $2
14565	E0B4  00001010            mfhi $2
14566	E0B8  AFC200DC            sw $2, 220($30)
14567	E0BC  00210019            multu $1, $1
14568	E0C0  00000810            mfhi $1
14569	E0C4  AFC100E0            sw $1, 224($30)
14570	E0C8  3C010000            lui $1, 0
14571	E0CC  34210000            ori $1, $1, 0
14572	E0D0  00210019            multu $1, $1
14573	E0D4  00000810            mfhi $1
14574	E0D8  AFC100E4            sw $1, 228($30)
14575	E0DC  03E00008            jr $31
14576	                          
14577	                          lo_upward_1:
14578	E0E0  00210019            multu $1, $1
14579	E0E4  00000812            mflo $1
14580	E0E8  AFC10000            sw $1, 0($30)
14581	E0EC  3C01FFFF            lui $1, 65535
14582	E0F0  3421FFFF            ori $1, $1, 65535
14583	E0F4  00420019            multu $2, $2
14584	E0F8  00001012            mflo $2
14585	E0FC  AFC20004            sw $2, 4($30)
14586	E100  3C02FFFF            lui $2, 65535
14587	E104  3442FFFF            ori $2, $2, 65535
14588	E108  00630019            multu $3, $3
14589	E10C  00001812            mflo $3
14590	E110  AFC30008            sw $3, 8($30)
14591	E114  3C03FFFF            lui $3, 65535
14592	E118  3463FFFF            ori $3, $3, 65535
14593	E11C  00840019            multu $4, $4
14594	E120  00002012            mflo $4
14595	E124  AFC4000C            sw $4, 12($30)
14596	E128  3C04FFFF            lui $4, 65535
14597	E12C  3484FFFF            ori $4, $4, 65535
14598	E130  00A50019            multu $5, $5
14599	E134  00002812            mflo $5
14600	E138  AFC50010            sw $5, 16($30)
14601	E13C  3C05FFFF            lui $5, 65535
14602	E140  34A5FFFF            ori $5, $5, 65535
14603	E144  00C60019            multu $6, $6
14604	E148  00003012            mflo $6
14605	E14C  AFC60014            sw $6, 20($30)
14606	E150  3C06FFFF            lui $6, 65535
14607	E154  34C6FFFF            ori $6, $6, 65535
14608	E158  00E70019            multu $7, $7
14609	E15C  00003812            mflo $7
14610	E160  AFC70018            sw $7, 24($30)
14611	E164  3C07FFFF            lui $7, 65535
14612	E168  34E7FFFF            ori $7, $7, 65535
14613	E16C  01080019            multu $8, $8
14614	E170  00004012            mflo $8
14615	E174  AFC8001C            sw $8, 28($30)
14616	E178  3C08FFFF            lui $8, 65535
14617	E17C  3508FFFF            ori $8, $8, 65535
14618	E180  01290019            multu $9, $9
14619	E184  00004812            mflo $9
14620	E188  AFC90020            sw $9, 32($30)
14621	E18C  3C09FFFF            lui $9, 65535
14622	E190  3529FFFF            ori $9, $9, 65535
14623	E194  014A0019            multu $10, $10
14624	E198  00005012            mflo $10
14625	E19C  AFCA0024            sw $10, 36($30)
14626	E1A0  3C0AFFFF            lui $10, 65535
14627	E1A4  354AFFFF            ori $10, $10, 65535
14628	E1A8  016B0019            multu $11, $11
14629	E1AC  00005812            mflo $11
14630	E1B0  AFCB0028            sw $11, 40($30)
14631	E1B4  3C0BFFFF            lui $11, 65535
14632	E1B8  356BFFFF            ori $11, $11, 65535
14633	E1BC  018C0019            multu $12, $12
14634	E1C0  00006012            mflo $12
14635	E1C4  AFCC002C            sw $12, 44($30)
14636	E1C8  3C0CFFFF            lui $12, 65535
14637	E1CC  358CFFFF            ori $12, $12, 65535
14638	E1D0  01AD0019            multu $13, $13
14639	E1D4  00006812            mflo $13
14640	E1D8  AFCD0030            sw $13, 48($30)
14641	E1DC  3C0DFFFF            lui $13, 65535
14642	E1E0  35ADFFFF            ori $13, $13, 65535
14643	E1E4  01CE0019            multu $14, $14
14644	E1E8  00007012            mflo $14
14645	E1EC  AFCE0034            sw $14, 52($30)
14646	E1F0  3C0EFFFF            lui $14, 65535
14647	E1F4  35CEFFFF            ori $14, $14, 65535
14648	E1F8  01EF0019            multu $15, $15
14649	E1FC  00007812            mflo $15
14650	E200  AFCF0038            sw $15, 56($30)
14651	E204  3C0FFFFF            lui $15, 65535
14652	E208  35EFFFFF            ori $15, $15, 65535
14653	E20C  02100019            multu $16, $16
14654	E210  00008012            mflo $16
14655	E214  AFD0003C            sw $16, 60($30)
14656	E218  3C10FFFF            lui $16, 65535
14657	E21C  3610FFFF            ori $16, $16, 65535
14658	E220  02310019            multu $17, $17
14659	E224  00008812            mflo $17
14660	E228  AFD10040            sw $17, 64($30)
14661	E22C  3C11FFFF            lui $17, 65535
14662	E230  3631FFFF            ori $17, $17, 65535
14663	E234  02520019            multu $18, $18
14664	E238  00009012            mflo $18
14665	E23C  AFD20044            sw $18, 68($30)
14666	E240  3C12FFFF            lui $18, 65535
14667	E244  3652FFFF            ori $18, $18, 65535
14668	E248  02730019            multu $19, $19
14669	E24C  00009812            mflo $19
14670	E250  AFD30048            sw $19, 72($30)
14671	E254  3C13FFFF            lui $19, 65535
14672	E258  3673FFFF            ori $19, $19, 65535
14673	E25C  02940019            multu $20, $20
14674	E260  0000A012            mflo $20
14675	E264  AFD4004C            sw $20, 76($30)
14676	E268  3C14FFFF            lui $20, 65535
14677	E26C  3694FFFF            ori $20, $20, 65535
14678	E270  02B50019            multu $21, $21
14679	E274  0000A812            mflo $21
14680	E278  AFD50050            sw $21, 80($30)
14681	E27C  3C15FFFF            lui $21, 65535
14682	E280  36B5FFFF            ori $21, $21, 65535
14683	E284  02D60019            multu $22, $22
14684	E288  0000B012            mflo $22
14685	E28C  AFD60054            sw $22, 84($30)
14686	E290  3C16FFFF            lui $22, 65535
14687	E294  36D6FFFF            ori $22, $22, 65535
14688	E298  02F70019            multu $23, $23
14689	E29C  0000B812            mflo $23
14690	E2A0  AFD70058            sw $23, 88($30)
14691	E2A4  3C17FFFF            lui $23, 65535
14692	E2A8  36F7FFFF            ori $23, $23, 65535
14693	E2AC  03180019            multu $24, $24
14694	E2B0  0000C012            mflo $24
14695	E2B4  AFD8005C            sw $24, 92($30)
14696	E2B8  3C18FFFF            lui $24, 65535
14697	E2BC  3718FFFF            ori $24, $24, 65535
14698	E2C0  03390019            multu $25, $25
14699	E2C4  0000C812            mflo $25
14700	E2C8  AFD90060            sw $25, 96($30)
14701	E2CC  3C19FFFF            lui $25, 65535
14702	E2D0  3739FFFF            ori $25, $25, 65535
14703	E2D4  035A0019            multu $26, $26
14704	E2D8  0000D012            mflo $26
14705	E2DC  AFDA0064            sw $26, 100($30)
14706	E2E0  3C1AFFFF            lui $26, 65535
14707	E2E4  375AFFFF            ori $26, $26, 65535
14708	E2E8  037B0019            multu $27, $27
14709	E2EC  0000D812            mflo $27
14710	E2F0  AFDB0068            sw $27, 104($30)
14711	E2F4  3C1BFFFF            lui $27, 65535
14712	E2F8  377BFFFF            ori $27, $27, 65535
14713	E2FC  039C0019            multu $28, $28
14714	E300  0000E012            mflo $28
14715	E304  AFDC006C            sw $28, 108($30)
14716	E308  3C1CFFFF            lui $28, 65535
14717	E30C  379CFFFF            ori $28, $28, 65535
14718	E310  03BD0019            multu $29, $29
14719	E314  0000E812            mflo $29
14720	E318  AFDD0070            sw $29, 112($30)
14721	E31C  3C1DFFFF            lui $29, 65535
14722	E320  37BDFFFF            ori $29, $29, 65535
14723	E324  03E00008            jr $31
14724	                          
14725	                          lo_downward_0:
14726	E328  03BD0019            multu $29, $29
14727	E32C  0000E812            mflo $29
14728	E330  AFDD0000            sw $29, 0($30)
14729	E334  3C1D0000            lui $29, 0
14730	E338  37BD0000            ori $29, $29, 0
14731	E33C  03BD0019            multu $29, $29
14732	E340  0000E812            mflo $29
14733	E344  AFDD0004            sw $29, 4($30)
14734	E348  039C0019            multu $28, $28
14735	E34C  0000E012            mflo $28
14736	E350  AFDC0008            sw $28, 8($30)
14737	E354  3C1C0000            lui $28, 0
14738	E358  379C0000            ori $28, $28, 0
14739	E35C  039C0019            multu $28, $28
14740	E360  0000E012            mflo $28
14741	E364  AFDC000C            sw $28, 12($30)
14742	E368  037B0019            multu $27, $27
14743	E36C  0000D812            mflo $27
14744	E370  AFDB0010            sw $27, 16($30)
14745	E374  3C1B0000            lui $27, 0
14746	E378  377B0000            ori $27, $27, 0
14747	E37C  037B0019            multu $27, $27
14748	E380  0000D812            mflo $27
14749	E384  AFDB0014            sw $27, 20($30)
14750	E388  035A0019            multu $26, $26
14751	E38C  0000D012            mflo $26
14752	E390  AFDA0018            sw $26, 24($30)
14753	E394  3C1A0000            lui $26, 0
14754	E398  375A0000            ori $26, $26, 0
14755	E39C  035A0019            multu $26, $26
14756	E3A0  0000D012            mflo $26
14757	E3A4  AFDA001C            sw $26, 28($30)
14758	E3A8  03390019            multu $25, $25
14759	E3AC  0000C812            mflo $25
14760	E3B0  AFD90020            sw $25, 32($30)
14761	E3B4  3C190000            lui $25, 0
14762	E3B8  37390000            ori $25, $25, 0
14763	E3BC  03390019            multu $25, $25
14764	E3C0  0000C812            mflo $25
14765	E3C4  AFD90024            sw $25, 36($30)
14766	E3C8  03180019            multu $24, $24
14767	E3CC  0000C012            mflo $24
14768	E3D0  AFD80028            sw $24, 40($30)
14769	E3D4  3C180000            lui $24, 0
14770	E3D8  37180000            ori $24, $24, 0
14771	E3DC  03180019            multu $24, $24
14772	E3E0  0000C012            mflo $24
14773	E3E4  AFD8002C            sw $24, 44($30)
14774	E3E8  02F70019            multu $23, $23
14775	E3EC  0000B812            mflo $23
14776	E3F0  AFD70030            sw $23, 48($30)
14777	E3F4  3C170000            lui $23, 0
14778	E3F8  36F70000            ori $23, $23, 0
14779	E3FC  02F70019            multu $23, $23
14780	E400  0000B812            mflo $23
14781	E404  AFD70034            sw $23, 52($30)
14782	E408  02D60019            multu $22, $22
14783	E40C  0000B012            mflo $22
14784	E410  AFD60038            sw $22, 56($30)
14785	E414  3C160000            lui $22, 0
14786	E418  36D60000            ori $22, $22, 0
14787	E41C  02D60019            multu $22, $22
14788	E420  0000B012            mflo $22
14789	E424  AFD6003C            sw $22, 60($30)
14790	E428  02B50019            multu $21, $21
14791	E42C  0000A812            mflo $21
14792	E430  AFD50040            sw $21, 64($30)
14793	E434  3C150000            lui $21, 0
14794	E438  36B50000            ori $21, $21, 0
14795	E43C  02B50019            multu $21, $21
14796	E440  0000A812            mflo $21
14797	E444  AFD50044            sw $21, 68($30)
14798	E448  02940019            multu $20, $20
14799	E44C  0000A012            mflo $20
14800	E450  AFD40048            sw $20, 72($30)
14801	E454  3C140000            lui $20, 0
14802	E458  36940000            ori $20, $20, 0
14803	E45C  02940019            multu $20, $20
14804	E460  0000A012            mflo $20
14805	E464  AFD4004C            sw $20, 76($30)
14806	E468  02730019            multu $19, $19
14807	E46C  00009812            mflo $19
14808	E470  AFD30050            sw $19, 80($30)
14809	E474  3C130000            lui $19, 0
14810	E478  36730000            ori $19, $19, 0
14811	E47C  02730019            multu $19, $19
14812	E480  00009812            mflo $19
14813	E484  AFD30054            sw $19, 84($30)
14814	E488  02520019            multu $18, $18
14815	E48C  00009012            mflo $18
14816	E490  AFD20058            sw $18, 88($30)
14817	E494  3C120000            lui $18, 0
14818	E498  36520000            ori $18, $18, 0
14819	E49C  02520019            multu $18, $18
14820	E4A0  00009012            mflo $18
14821	E4A4  AFD2005C            sw $18, 92($30)
14822	E4A8  02310019            multu $17, $17
14823	E4AC  00008812            mflo $17
14824	E4B0  AFD10060            sw $17, 96($30)
14825	E4B4  3C110000            lui $17, 0
14826	E4B8  36310000            ori $17, $17, 0
14827	E4BC  02310019            multu $17, $17
14828	E4C0  00008812            mflo $17
14829	E4C4  AFD10064            sw $17, 100($30)
14830	E4C8  02100019            multu $16, $16
14831	E4CC  00008012            mflo $16
14832	E4D0  AFD00068            sw $16, 104($30)
14833	E4D4  3C100000            lui $16, 0
14834	E4D8  36100000            ori $16, $16, 0
14835	E4DC  02100019            multu $16, $16
14836	E4E0  00008012            mflo $16
14837	E4E4  AFD0006C            sw $16, 108($30)
14838	E4E8  01EF0019            multu $15, $15
14839	E4EC  00007812            mflo $15
14840	E4F0  AFCF0070            sw $15, 112($30)
14841	E4F4  3C0F0000            lui $15, 0
14842	E4F8  35EF0000            ori $15, $15, 0
14843	E4FC  01EF0019            multu $15, $15
14844	E500  00007812            mflo $15
14845	E504  AFCF0074            sw $15, 116($30)
14846	E508  01CE0019            multu $14, $14
14847	E50C  00007012            mflo $14
14848	E510  AFCE0078            sw $14, 120($30)
14849	E514  3C0E0000            lui $14, 0
14850	E518  35CE0000            ori $14, $14, 0
14851	E51C  01CE0019            multu $14, $14
14852	E520  00007012            mflo $14
14853	E524  AFCE007C            sw $14, 124($30)
14854	E528  01AD0019            multu $13, $13
14855	E52C  00006812            mflo $13
14856	E530  AFCD0080            sw $13, 128($30)
14857	E534  3C0D0000            lui $13, 0
14858	E538  35AD0000            ori $13, $13, 0
14859	E53C  01AD0019            multu $13, $13
14860	E540  00006812            mflo $13
14861	E544  AFCD0084            sw $13, 132($30)
14862	E548  018C0019            multu $12, $12
14863	E54C  00006012            mflo $12
14864	E550  AFCC0088            sw $12, 136($30)
14865	E554  3C0C0000            lui $12, 0
14866	E558  358C0000            ori $12, $12, 0
14867	E55C  018C0019            multu $12, $12
14868	E560  00006012            mflo $12
14869	E564  AFCC008C            sw $12, 140($30)
14870	E568  016B0019            multu $11, $11
14871	E56C  00005812            mflo $11
14872	E570  AFCB0090            sw $11, 144($30)
14873	E574  3C0B0000            lui $11, 0
14874	E578  356B0000            ori $11, $11, 0
14875	E57C  016B0019            multu $11, $11
14876	E580  00005812            mflo $11
14877	E584  AFCB0094            sw $11, 148($30)
14878	E588  014A0019            multu $10, $10
14879	E58C  00005012            mflo $10
14880	E590  AFCA0098            sw $10, 152($30)
14881	E594  3C0A0000            lui $10, 0
14882	E598  354A0000            ori $10, $10, 0
14883	E59C  014A0019            multu $10, $10
14884	E5A0  00005012            mflo $10
14885	E5A4  AFCA009C            sw $10, 156($30)
14886	E5A8  01290019            multu $9, $9
14887	E5AC  00004812            mflo $9
14888	E5B0  AFC900A0            sw $9, 160($30)
14889	E5B4  3C090000            lui $9, 0
14890	E5B8  35290000            ori $9, $9, 0
14891	E5BC  01290019            multu $9, $9
14892	E5C0  00004812            mflo $9
14893	E5C4  AFC900A4            sw $9, 164($30)
14894	E5C8  01080019            multu $8, $8
14895	E5CC  00004012            mflo $8
14896	E5D0  AFC800A8            sw $8, 168($30)
14897	E5D4  3C080000            lui $8, 0
14898	E5D8  35080000            ori $8, $8, 0
14899	E5DC  01080019            multu $8, $8
14900	E5E0  00004012            mflo $8
14901	E5E4  AFC800AC            sw $8, 172($30)
14902	E5E8  00E70019            multu $7, $7
14903	E5EC  00003812            mflo $7
14904	E5F0  AFC700B0            sw $7, 176($30)
14905	E5F4  3C070000            lui $7, 0
14906	E5F8  34E70000            ori $7, $7, 0
14907	E5FC  00E70019            multu $7, $7
14908	E600  00003812            mflo $7
14909	E604  AFC700B4            sw $7, 180($30)
14910	E608  00C60019            multu $6, $6
14911	E60C  00003012            mflo $6
14912	E610  AFC600B8            sw $6, 184($30)
14913	E614  3C060000            lui $6, 0
14914	E618  34C60000            ori $6, $6, 0
14915	E61C  00C60019            multu $6, $6
14916	E620  00003012            mflo $6
14917	E624  AFC600BC            sw $6, 188($30)
14918	E628  00A50019            multu $5, $5
14919	E62C  00002812            mflo $5
14920	E630  AFC500C0            sw $5, 192($30)
14921	E634  3C050000            lui $5, 0
14922	E638  34A50000            ori $5, $5, 0
14923	E63C  00A50019            multu $5, $5
14924	E640  00002812            mflo $5
14925	E644  AFC500C4            sw $5, 196($30)
14926	E648  00840019            multu $4, $4
14927	E64C  00002012            mflo $4
14928	E650  AFC400C8            sw $4, 200($30)
14929	E654  3C040000            lui $4, 0
14930	E658  34840000            ori $4, $4, 0
14931	E65C  00840019            multu $4, $4
14932	E660  00002012            mflo $4
14933	E664  AFC400CC            sw $4, 204($30)
14934	E668  00630019            multu $3, $3
14935	E66C  00001812            mflo $3
14936	E670  AFC300D0            sw $3, 208($30)
14937	E674  3C030000            lui $3, 0
14938	E678  34630000            ori $3, $3, 0
14939	E67C  00630019            multu $3, $3
14940	E680  00001812            mflo $3
14941	E684  AFC300D4            sw $3, 212($30)
14942	E688  00420019            multu $2, $2
14943	E68C  00001012            mflo $2
14944	E690  AFC200D8            sw $2, 216($30)
14945	E694  3C020000            lui $2, 0
14946	E698  34420000            ori $2, $2, 0
14947	E69C  00420019            multu $2, $2
14948	E6A0  00001012            mflo $2
14949	E6A4  AFC200DC            sw $2, 220($30)
14950	E6A8  00210019            multu $1, $1
14951	E6AC  00000812            mflo $1
14952	E6B0  AFC100E0            sw $1, 224($30)
14953	E6B4  3C010000            lui $1, 0
14954	E6B8  34210000            ori $1, $1, 0
14955	E6BC  00210019            multu $1, $1
14956	E6C0  00000812            mflo $1
14957	E6C4  AFC100E4            sw $1, 228($30)
14958	E6C8  03E00008            jr $31
14959	                          
14960	                          ;..........memory_initialization..........;
14961	                          init_patterns:
14962	E6CC  3C08AA39            lui $8, 43577
14963	E6D0  3508E3CD            ori $8, $8, 58317
14964	E6D4  AFC80000            sw $8, 0($30)
14965	E6D8  3C09C052            lui $9, 49234
14966	E6DC  35295882            ori $9, $9, 22658
14967	E6E0  AFC90004            sw $9, 4($30)
14968	E6E4  3C0AD6FF            lui $10, 55039
14969	E6E8  354A59FC            ori $10, $10, 23036
14970	E6EC  AFCA0008            sw $10, 8($30)
14971	E6F0  3C0B1136            lui $11, 4406
14972	E6F4  356B8ACC            ori $11, $11, 35532
14973	E6F8  AFCB000C            sw $11, 12($30)
14974	E6FC  3C0CF91F            lui $12, 63775
14975	E700  358C6AFB            ori $12, $12, 27387
14976	E704  AFCC0010            sw $12, 16($30)
14977	E708  3C0D3B91            lui $13, 15249
14978	E70C  35ADB085            ori $13, $13, 45189
14979	E710  AFCD0014            sw $13, 20($30)
14980	E714  3C0E1E54            lui $14, 7764
14981	E718  35CE4D36            ori $14, $14, 19766
14982	E71C  AFCE0018            sw $14, 24($30)
14983	E720  3C0FF688            lui $15, 63112
14984	E724  35EFD17E            ori $15, $15, 53630
14985	E728  AFCF001C            sw $15, 28($30)
14986	E72C  3C08A212            lui $8, 41490
14987	E730  35087B62            ori $8, $8, 31586
14988	E734  AFC80020            sw $8, 32($30)
14989	E738  3C09B0BB            lui $9, 45243
14990	E73C  3529C2E1            ori $9, $9, 49889
14991	E740  AFC90024            sw $9, 36($30)
14992	E744  3C0AFB7C            lui $10, 64380
14993	E748  354A3AE7            ori $10, $10, 15079
14994	E74C  AFCA0028            sw $10, 40($30)
14995	E750  3C0B049E            lui $11, 1182
14996	E754  356BFC93            ori $11, $11, 64659
14997	E758  AFCB002C            sw $11, 44($30)
14998	E75C  3C0CFA05            lui $12, 64005
14999	E760  358C4634            ori $12, $12, 17972
15000	E764  AFCC0030            sw $12, 48($30)
15001	E768  3C0D6E94            lui $13, 28308
15002	E76C  35AD716A            ori $13, $13, 29034
15003	E770  AFCD0034            sw $13, 52($30)
15004	E774  3C0EEA9A            lui $14, 60058
15005	E778  35CE781F            ori $14, $14, 30751
15006	E77C  AFCE0038            sw $14, 56($30)
15007	E780  3C0F89FA            lui $15, 35322
15008	E784  35EF0238            ori $15, $15, 568
15009	E788  AFCF003C            sw $15, 60($30)
15010	E78C  3C086E36            lui $8, 28214
15011	E790  3508E63B            ori $8, $8, 58939
15012	E794  AFC80040            sw $8, 64($30)
15013	E798  3C09A54A            lui $9, 42314
15014	E79C  35292A22            ori $9, $9, 10786
15015	E7A0  AFC90044            sw $9, 68($30)
15016	E7A4  3C0AF40D            lui $10, 62477
15017	E7A8  354AFD03            ori $10, $10, 64771
15018	E7AC  AFCA0048            sw $10, 72($30)
15019	E7B0  3C0B2A32            lui $11, 10802
15020	E7B4  356BC4E8            ori $11, $11, 50408
15021	E7B8  AFCB004C            sw $11, 76($30)
15022	E7BC  3C0CEC54            lui $12, 60500
15023	E7C0  358CF3BF            ori $12, $12, 62399
15024	E7C4  AFCC0050            sw $12, 80($30)
15025	E7C8  3C0DEFBF            lui $13, 61375
15026	E7CC  35ADB14E            ori $13, $13, 45390
15027	E7D0  AFCD0054            sw $13, 84($30)
15028	E7D4  3C0EDD38            lui $14, 56632
15029	E7D8  35CE6BBE            ori $14, $14, 27582
15030	E7DC  AFCE0058            sw $14, 88($30)
15031	E7E0  3C0F0962            lui $15, 2402
15032	E7E4  35EFBB05            ori $15, $15, 47877
15033	E7E8  AFCF005C            sw $15, 92($30)
15034	E7EC  3C089FBE            lui $8, 40894
15035	E7F0  3508D5D5            ori $8, $8, 54741
15036	E7F4  AFC80060            sw $8, 96($30)
15037	E7F8  3C09DA9A            lui $9, 55962
15038	E7FC  3529C7E4            ori $9, $9, 51172
15039	E800  AFC90064            sw $9, 100($30)
15040	E804  3C0A7B7A            lui $10, 31610
15041	E808  354A539C            ori $10, $10, 21404
15042	E80C  AFCA0068            sw $10, 104($30)
15043	E810  3C0B3CDA            lui $11, 15578
15044	E814  356B8748            ori $11, $11, 34632
15045	E818  AFCB006C            sw $11, 108($30)
15046	E81C  3C0C4F47            lui $12, 20295
15047	E820  358CB85F            ori $12, $12, 47199
15048	E824  AFCC0070            sw $12, 112($30)
15049	E828  3C0DF996            lui $13, 63894
15050	E82C  35ADBD11            ori $13, $13, 48401
15051	E830  AFCD0074            sw $13, 116($30)
15052	E834  3C0ECC5E            lui $14, 52318
15053	E838  35CE732E            ori $14, $14, 29486
15054	E83C  AFCE0078            sw $14, 120($30)
15055	E840  3C0F06F1            lui $15, 1777
15056	E844  35EF5773            ori $15, $15, 22387
15057	E848  AFCF007C            sw $15, 124($30)
15058	E84C  3C08D593            lui $8, 54675
15059	E850  3508875B            ori $8, $8, 34651
15060	E854  AFC80080            sw $8, 128($30)
15061	E858  3C098A7B            lui $9, 35451
15062	E85C  35295CE1            ori $9, $9, 23777
15063	E860  AFC90084            sw $9, 132($30)
15064	E864  3C0A74A6            lui $10, 29862
15065	E868  354AD18F            ori $10, $10, 53647
15066	E86C  AFCA0088            sw $10, 136($30)
15067	E870  3C0B64CD            lui $11, 25805
15068	E874  356BA2BB            ori $11, $11, 41659
15069	E878  AFCB008C            sw $11, 140($30)
15070	E87C  3C0C701E            lui $12, 28702
15071	E880  358CA96A            ori $12, $12, 43370
15072	E884  AFCC0090            sw $12, 144($30)
15073	E888  3C0D3CC4            lui $13, 15556
15074	E88C  35AD8A40            ori $13, $13, 35392
15075	E890  AFCD0094            sw $13, 148($30)
15076	E894  3C0E3CA9            lui $14, 15529
15077	E898  35CEA56E            ori $14, $14, 42350
15078	E89C  AFCE0098            sw $14, 152($30)
15079	E8A0  3C0F10D1            lui $15, 4305
15080	E8A4  35EFBECB            ori $15, $15, 48843
15081	E8A8  AFCF009C            sw $15, 156($30)
15082	E8AC  3C08E027            lui $8, 57383
15083	E8B0  3508DDB6            ori $8, $8, 56758
15084	E8B4  AFC800A0            sw $8, 160($30)
15085	E8B8  3C09BBAF            lui $9, 48047
15086	E8BC  3529295F            ori $9, $9, 10591
15087	E8C0  AFC900A4            sw $9, 164($30)
15088	E8C4  3C0A24EF            lui $10, 9455
15089	E8C8  354A0321            ori $10, $10, 801
15090	E8CC  AFCA00A8            sw $10, 168($30)
15091	E8D0  3C0B0D00            lui $11, 3328
15092	E8D4  356BE5EC            ori $11, $11, 58860
15093	E8D8  AFCB00AC            sw $11, 172($30)
15094	E8DC  3C0C129C            lui $12, 4764
15095	E8E0  358CFBD1            ori $12, $12, 64465
15096	E8E4  AFCC00B0            sw $12, 176($30)
15097	E8E8  3C0DF819            lui $13, 63513
15098	E8EC  35ADAF25            ori $13, $13, 44837
15099	E8F0  AFCD00B4            sw $13, 180($30)
15100	E8F4  3C0EF436            lui $14, 62518
15101	E8F8  35CED980            ori $14, $14, 55680
15102	E8FC  AFCE00B8            sw $14, 184($30)
15103	E900  3C0F2654            lui $15, 9812
15104	E904  35EF31D0            ori $15, $15, 12752
15105	E908  AFCF00BC            sw $15, 188($30)
15106	E90C  3C087B1B            lui $8, 31515
15107	E910  350894C0            ori $8, $8, 38080
15108	E914  AFC800C0            sw $8, 192($30)
15109	E918  3C096411            lui $9, 25617
15110	E91C  3529496F            ori $9, $9, 18799
15111	E920  AFC900C4            sw $9, 196($30)
15112	E924  3C0AE7AD            lui $10, 59309
15113	E928  354AE6D0            ori $10, $10, 59088
15114	E92C  AFCA00C8            sw $10, 200($30)
15115	E930  3C0BAD0D            lui $11, 44301
15116	E934  356B5592            ori $11, $11, 21906
15117	E938  AFCB00CC            sw $11, 204($30)
15118	E93C  3C0C7EC8            lui $12, 32456
15119	E940  358C5043            ori $12, $12, 20547
15120	E944  AFCC00D0            sw $12, 208($30)
15121	E948  3C0D8D6E            lui $13, 36206
15122	E94C  35AD1900            ori $13, $13, 6400
15123	E950  AFCD00D4            sw $13, 212($30)
15124	E954  3C0E0EAC            lui $14, 3756
15125	E958  35CEC6AD            ori $14, $14, 50861
15126	E95C  AFCE00D8            sw $14, 216($30)
15127	E960  3C0F482D            lui $15, 18477
15128	E964  35EF26DA            ori $15, $15, 9946
15129	E968  AFCF00DC            sw $15, 220($30)
15130	E96C  3C0819B0            lui $8, 6576
15131	E970  3508650C            ori $8, $8, 25868
15132	E974  AFC800E0            sw $8, 224($30)
15133	E978  3C094B04            lui $9, 19204
15134	E97C  3529408A            ori $9, $9, 16522
15135	E980  AFC900E4            sw $9, 228($30)
15136	E984  3C0A61D1            lui $10, 25041
15137	E988  354A8B4F            ori $10, $10, 35663
15138	E98C  AFCA00E8            sw $10, 232($30)
15139	E990  3C0B4B77            lui $11, 19319
15140	E994  356B297E            ori $11, $11, 10622
15141	E998  AFCB00EC            sw $11, 236($30)
15142	E99C  3C0C36B6            lui $12, 14006
15143	E9A0  358CACEA            ori $12, $12, 44266
15144	E9A4  AFCC00F0            sw $12, 240($30)
15145	E9A8  3C0D218B            lui $13, 8587
15146	E9AC  35AD2961            ori $13, $13, 10593
15147	E9B0  AFCD00F4            sw $13, 244($30)
15148	E9B4  3C0E7DE5            lui $14, 32229
15149	E9B8  35CE6403            ori $14, $14, 25603
15150	E9BC  AFCE00F8            sw $14, 248($30)
15151	E9C0  3C0F40CC            lui $15, 16588
15152	E9C4  35EFE80E            ori $15, $15, 59406
15153	E9C8  AFCF00FC            sw $15, 252($30)
15154	E9CC  3C08428B            lui $8, 17035
15155	E9D0  350814D0            ori $8, $8, 5328
15156	E9D4  AFC80100            sw $8, 256($30)
15157	E9D8  3C097B6D            lui $9, 31597
15158	E9DC  3529B202            ori $9, $9, 45570
15159	E9E0  AFC90104            sw $9, 260($30)
15160	E9E4  3C0A2B6F            lui $10, 11119
15161	E9E8  354A9A2A            ori $10, $10, 39466
15162	E9EC  AFCA0108            sw $10, 264($30)
15163	E9F0  3C0B3A4B            lui $11, 14923
15164	E9F4  356B3388            ori $11, $11, 13192
15165	E9F8  AFCB010C            sw $11, 268($30)
15166	E9FC  3C0C9A42            lui $12, 39490
15167	EA00  358CC2EB            ori $12, $12, 49899
15168	EA04  AFCC0110            sw $12, 272($30)
15169	EA08  3C0D0261            lui $13, 609
15170	EA0C  35AD08DC            ori $13, $13, 2268
15171	EA10  AFCD0114            sw $13, 276($30)
15172	EA14  3C0E2599            lui $14, 9625
15173	EA18  35CE5B8F            ori $14, $14, 23439
15174	EA1C  AFCE0118            sw $14, 280($30)
15175	EA20  3C0F3566            lui $15, 13670
15176	EA24  35EF363B            ori $15, $15, 13883
15177	EA28  AFCF011C            sw $15, 284($30)
15178	EA2C  3C08366C            lui $8, 13932
15179	EA30  35083540            ori $8, $8, 13632
15180	EA34  AFC80120            sw $8, 288($30)
15181	EA38  3C09D154            lui $9, 53588
15182	EA3C  3529CFF9            ori $9, $9, 53241
15183	EA40  AFC90124            sw $9, 292($30)
15184	EA44  3C0A69BD            lui $10, 27069
15185	EA48  354A4BF1            ori $10, $10, 19441
15186	EA4C  AFCA0128            sw $10, 296($30)
15187	EA50  3C0BF539            lui $11, 62777
15188	EA54  356B4B2C            ori $11, $11, 19244
15189	EA58  AFCB012C            sw $11, 300($30)
15190	EA5C  3C0CE381            lui $12, 58241
15191	EA60  358C9661            ori $12, $12, 38497
15192	EA64  AFCC0130            sw $12, 304($30)
15193	EA68  3C0D5B38            lui $13, 23352
15194	EA6C  35ADBE61            ori $13, $13, 48737
15195	EA70  AFCD0134            sw $13, 308($30)
15196	EA74  3C0E0D0C            lui $14, 3340
15197	EA78  35CE1B5A            ori $14, $14, 7002
15198	EA7C  AFCE0138            sw $14, 312($30)
15199	EA80  3C0FCC0C            lui $15, 52236
15200	EA84  35EF09C4            ori $15, $15, 2500
15201	EA88  AFCF013C            sw $15, 316($30)
15202	EA8C  3C08BF61            lui $8, 48993
15203	EA90  3508FE7D            ori $8, $8, 65149
15204	EA94  AFC80140            sw $8, 320($30)
15205	EA98  3C09C8E6            lui $9, 51430
15206	EA9C  352997A3            ori $9, $9, 38819
15207	EAA0  AFC90144            sw $9, 324($30)
15208	EAA4  3C0AF114            lui $10, 61716
15209	EAA8  354ABAEA            ori $10, $10, 47850
15210	EAAC  AFCA0148            sw $10, 328($30)
15211	EAB0  3C0B27A1            lui $11, 10145
15212	EAB4  356B718A            ori $11, $11, 29066
15213	EAB8  AFCB014C            sw $11, 332($30)
15214	EABC  3C0C4857            lui $12, 18519
15215	EAC0  358CF004            ori $12, $12, 61444
15216	EAC4  AFCC0150            sw $12, 336($30)
15217	EAC8  3C0DA227            lui $13, 41511
15218	EACC  35ADE80D            ori $13, $13, 59405
15219	EAD0  AFCD0154            sw $13, 340($30)
15220	EAD4  3C0E0EA6            lui $14, 3750
15221	EAD8  35CEE0A5            ori $14, $14, 57509
15222	EADC  AFCE0158            sw $14, 344($30)
15223	EAE0  3C0F85EA            lui $15, 34282
15224	EAE4  35EF514B            ori $15, $15, 20811
15225	EAE8  AFCF015C            sw $15, 348($30)
15226	EAEC  3C08305C            lui $8, 12380
15227	EAF0  35086C53            ori $8, $8, 27731
15228	EAF4  AFC80160            sw $8, 352($30)
15229	EAF8  3C09AEC2            lui $9, 44738
15230	EAFC  3529A44B            ori $9, $9, 42059
15231	EB00  AFC90164            sw $9, 356($30)
15232	EB04  3C0AACF3            lui $10, 44275
15233	EB08  354ABB62            ori $10, $10, 47970
15234	EB0C  AFCA0168            sw $10, 360($30)
15235	EB10  3C0B4B94            lui $11, 19348
15236	EB14  356BE758            ori $11, $11, 59224
15237	EB18  AFCB016C            sw $11, 364($30)
15238	EB1C  3C0C8403            lui $12, 33795
15239	EB20  358C224D            ori $12, $12, 8781
15240	EB24  AFCC0170            sw $12, 368($30)
15241	EB28  3C0D9899            lui $13, 39065
15242	EB2C  35AD0FB8            ori $13, $13, 4024
15243	EB30  AFCD0174            sw $13, 372($30)
15244	EB34  3C0E868A            lui $14, 34442
15245	EB38  35CE989E            ori $14, $14, 39070
15246	EB3C  AFCE0178            sw $14, 376($30)
15247	EB40  3C0FF00F            lui $15, 61455
15248	EB44  35EF5C1B            ori $15, $15, 23579
15249	EB48  AFCF017C            sw $15, 380($30)
15250	EB4C  3C08D711            lui $8, 55057
15251	EB50  3508D3F6            ori $8, $8, 54262
15252	EB54  AFC80180            sw $8, 384($30)
15253	EB58  3C09B794            lui $9, 46996
15254	EB5C  35294474            ori $9, $9, 17524
15255	EB60  AFC90184            sw $9, 388($30)
15256	EB64  3C0A21B3            lui $10, 8627
15257	EB68  354ABFC1            ori $10, $10, 49089
15258	EB6C  AFCA0188            sw $10, 392($30)
15259	EB70  3C0BC5AC            lui $11, 50604
15260	EB74  356BEF1E            ori $11, $11, 61214
15261	EB78  AFCB018C            sw $11, 396($30)
15262	EB7C  3C0C9091            lui $12, 37009
15263	EB80  358C6418            ori $12, $12, 25624
15264	EB84  AFCC0190            sw $12, 400($30)
15265	EB88  3C0DDF2B            lui $13, 57131
15266	EB8C  35AD3BC4            ori $13, $13, 15300
15267	EB90  AFCD0194            sw $13, 404($30)
15268	EB94  3C0EF3F9            lui $14, 62457
15269	EB98  35CEB2CF            ori $14, $14, 45775
15270	EB9C  AFCE0198            sw $14, 408($30)
15271	EBA0  3C0FEFAB            lui $15, 61355
15272	EBA4  35EFFD41            ori $15, $15, 64833
15273	EBA8  AFCF019C            sw $15, 412($30)
15274	EBAC  3C081291            lui $8, 4753
15275	EBB0  35081645            ori $8, $8, 5701
15276	EBB4  AFC801A0            sw $8, 416($30)
15277	EBB8  3C093AE6            lui $9, 15078
15278	EBBC  3529D65A            ori $9, $9, 54874
15279	EBC0  AFC901A4            sw $9, 420($30)
15280	EBC4  3C0A0268            lui $10, 616
15281	EBC8  354A3AC2            ori $10, $10, 15042
15282	EBCC  AFCA01A8            sw $10, 424($30)
15283	EBD0  3C0B2331            lui $11, 9009
15284	EBD4  356B0487            ori $11, $11, 1159
15285	EBD8  AFCB01AC            sw $11, 428($30)
15286	EBDC  3C0CA99E            lui $12, 43422
15287	EBE0  358CE344            ori $12, $12, 58180
15288	EBE4  AFCC01B0            sw $12, 432($30)
15289	EBE8  3C0DE7BC            lui $13, 59324
15290	EBEC  35ADEF65            ori $13, $13, 61285
15291	EBF0  AFCD01B4            sw $13, 436($30)
15292	EBF4  3C0E8177            lui $14, 33143
15293	EBF8  35CE2D00            ori $14, $14, 11520
15294	EBFC  AFCE01B8            sw $14, 440($30)
15295	EC00  3C0F9F43            lui $15, 40771
15296	EC04  35EFF2C3            ori $15, $15, 62147
15297	EC08  AFCF01BC            sw $15, 444($30)
15298	EC0C  3C08A540            lui $8, 42304
15299	EC10  3508698C            ori $8, $8, 27020
15300	EC14  AFC801C0            sw $8, 448($30)
15301	EC18  3C0960F7            lui $9, 24823
15302	EC1C  35296076            ori $9, $9, 24694
15303	EC20  AFC901C4            sw $9, 452($30)
15304	EC24  3C0A0C39            lui $10, 3129
15305	EC28  354AEB02            ori $10, $10, 60162
15306	EC2C  AFCA01C8            sw $10, 456($30)
15307	EC30  3C0BCBF3            lui $11, 52211
15308	EC34  356B214A            ori $11, $11, 8522
15309	EC38  AFCB01CC            sw $11, 460($30)
15310	EC3C  3C0C2508            lui $12, 9480
15311	EC40  358C72B8            ori $12, $12, 29368
15312	EC44  AFCC01D0            sw $12, 464($30)
15313	EC48  3C0D00EE            lui $13, 238
15314	EC4C  35AD68D6            ori $13, $13, 26838
15315	EC50  AFCD01D4            sw $13, 468($30)
15316	EC54  3C0E0A53            lui $14, 2643
15317	EC58  35CECBC0            ori $14, $14, 52160
15318	EC5C  AFCE01D8            sw $14, 472($30)
15319	EC60  3C0F3045            lui $15, 12357
15320	EC64  35EFE735            ori $15, $15, 59189
15321	EC68  AFCF01DC            sw $15, 476($30)
15322	EC6C  3C08B92B            lui $8, 47403
15323	EC70  350841E1            ori $8, $8, 16865
15324	EC74  AFC801E0            sw $8, 480($30)
15325	EC78  3C090889            lui $9, 2185
15326	EC7C  3529F756            ori $9, $9, 63318
15327	EC80  AFC901E4            sw $9, 484($30)
15328	EC84  3C0ADDAD            lui $10, 56749
15329	EC88  354AE09C            ori $10, $10, 57500
15330	EC8C  AFCA01E8            sw $10, 488($30)
15331	EC90  3C0B1CE8            lui $11, 7400
15332	EC94  356BE52D            ori $11, $11, 58669
15333	EC98  AFCB01EC            sw $11, 492($30)
15334	EC9C  3C0C3345            lui $12, 13125
15335	ECA0  358C8640            ori $12, $12, 34368
15336	ECA4  AFCC01F0            sw $12, 496($30)
15337	ECA8  3C0D6BF0            lui $13, 27632
15338	ECAC  35AD2369            ori $13, $13, 9065
15339	ECB0  AFCD01F4            sw $13, 500($30)
15340	ECB4  3C0EAD87            lui $14, 44423
15341	ECB8  35CED617            ori $14, $14, 54807
15342	ECBC  AFCE01F8            sw $14, 504($30)
15343	ECC0  3C0FD395            lui $15, 54165
15344	ECC4  35EFDD91            ori $15, $15, 56721
15345	ECC8  AFCF01FC            sw $15, 508($30)
15346	ECCC  3C08492E            lui $8, 18734
15347	ECD0  35081559            ori $8, $8, 5465
15348	ECD4  AFC80200            sw $8, 512($30)
15349	ECD8  3C097DC3            lui $9, 32195
15350	ECDC  3529D796            ori $9, $9, 55190
15351	ECE0  AFC90204            sw $9, 516($30)
15352	ECE4  3C0A9B2F            lui $10, 39727
15353	ECE8  354A0F6F            ori $10, $10, 3951
15354	ECEC  AFCA0208            sw $10, 520($30)
15355	ECF0  3C0B7245            lui $11, 29253
15356	ECF4  356B243B            ori $11, $11, 9275
15357	ECF8  AFCB020C            sw $11, 524($30)
15358	ECFC  3C0CF63D            lui $12, 63037
15359	ED00  358C9F0C            ori $12, $12, 40716
15360	ED04  AFCC0210            sw $12, 528($30)
15361	ED08  3C0DFF7C            lui $13, 65404
15362	ED0C  35ADEE83            ori $13, $13, 61059
15363	ED10  AFCD0214            sw $13, 532($30)
15364	ED14  3C0EABFA            lui $14, 44026
15365	ED18  35CE143D            ori $14, $14, 5181
15366	ED1C  AFCE0218            sw $14, 536($30)
15367	ED20  3C0F4979            lui $15, 18809
15368	ED24  35EF2678            ori $15, $15, 9848
15369	ED28  AFCF021C            sw $15, 540($30)
15370	ED2C  3C081A77            lui $8, 6775
15371	ED30  3508DC5C            ori $8, $8, 56412
15372	ED34  AFC80220            sw $8, 544($30)
15373	ED38  3C09FCF7            lui $9, 64759
15374	ED3C  3529F1A4            ori $9, $9, 61860
15375	ED40  AFC90224            sw $9, 548($30)
15376	ED44  3C0AB2C1            lui $10, 45761
15377	ED48  354A8914            ori $10, $10, 35092
15378	ED4C  AFCA0228            sw $10, 552($30)
15379	ED50  3C0B0A2D            lui $11, 2605
15380	ED54  356B0C78            ori $11, $11, 3192
15381	ED58  AFCB022C            sw $11, 556($30)
15382	ED5C  3C0CD3DE            lui $12, 54238
15383	ED60  358C04AE            ori $12, $12, 1198
15384	ED64  AFCC0230            sw $12, 560($30)
15385	ED68  3C0DE5ED            lui $13, 58861
15386	ED6C  35AD16A0            ori $13, $13, 5792
15387	ED70  AFCD0234            sw $13, 564($30)
15388	ED74  3C0EFD7F            lui $14, 64895
15389	ED78  35CEB2F6            ori $14, $14, 45814
15390	ED7C  AFCE0238            sw $14, 568($30)
15391	ED80  3C0F0218            lui $15, 536
15392	ED84  35EF47AE            ori $15, $15, 18350
15393	ED88  AFCF023C            sw $15, 572($30)
15394	ED8C  3C0808DB            lui $8, 2267
15395	ED90  35088620            ori $8, $8, 34336
15396	ED94  AFC80240            sw $8, 576($30)
15397	ED98  3C09BD2F            lui $9, 48431
15398	ED9C  35297FCF            ori $9, $9, 32719
15399	EDA0  AFC90244            sw $9, 580($30)
15400	EDA4  3C0A41CA            lui $10, 16842
15401	EDA8  354AAA25            ori $10, $10, 43557
15402	EDAC  AFCA0248            sw $10, 584($30)
15403	EDB0  3C0B4517            lui $11, 17687
15404	EDB4  356BB2CA            ori $11, $11, 45770
15405	EDB8  AFCB024C            sw $11, 588($30)
15406	EDBC  3C0C618C            lui $12, 24972
15407	EDC0  358CE7ED            ori $12, $12, 59373
15408	EDC4  AFCC0250            sw $12, 592($30)
15409	EDC8  3C0D1698            lui $13, 5784
15410	EDCC  35ADD7C2            ori $13, $13, 55234
15411	EDD0  AFCD0254            sw $13, 596($30)
15412	EDD4  3C0ED1BA            lui $14, 53690
15413	EDD8  35CED144            ori $14, $14, 53572
15414	EDDC  AFCE0258            sw $14, 600($30)
15415	EDE0  3C0FEE05            lui $15, 60933
15416	EDE4  35EFAB79            ori $15, $15, 43897
15417	EDE8  AFCF025C            sw $15, 604($30)
15418	EDEC  3C084628            lui $8, 17960
15419	EDF0  35085DC2            ori $8, $8, 24002
15420	EDF4  AFC80260            sw $8, 608($30)
15421	EDF8  3C095A8E            lui $9, 23182
15422	EDFC  35291694            ori $9, $9, 5780
15423	EE00  AFC90264            sw $9, 612($30)
15424	EE04  3C0AA012            lui $10, 40978
15425	EE08  354A3581            ori $10, $10, 13697
15426	EE0C  AFCA0268            sw $10, 616($30)
15427	EE10  3C0B1015            lui $11, 4117
15428	EE14  356B2705            ori $11, $11, 9989
15429	EE18  AFCB026C            sw $11, 620($30)
15430	EE1C  3C0C86E3            lui $12, 34531
15431	EE20  358C7CC6            ori $12, $12, 31942
15432	EE24  AFCC0270            sw $12, 624($30)
15433	EE28  3C0D4820            lui $13, 18464
15434	EE2C  35AD5A79            ori $13, $13, 23161
15435	EE30  AFCD0274            sw $13, 628($30)
15436	EE34  3C0E18A3            lui $14, 6307
15437	EE38  35CEEAB1            ori $14, $14, 60081
15438	EE3C  AFCE0278            sw $14, 632($30)
15439	EE40  3C0FD956            lui $15, 55638
15440	EE44  35EF0CA2            ori $15, $15, 3234
15441	EE48  AFCF027C            sw $15, 636($30)
15442	EE4C  3C087EA9            lui $8, 32425
15443	EE50  3508BB1B            ori $8, $8, 47899
15444	EE54  AFC80280            sw $8, 640($30)
15445	EE58  3C091D5E            lui $9, 7518
15446	EE5C  35295B63            ori $9, $9, 23395
15447	EE60  AFC90284            sw $9, 644($30)
15448	EE64  3C0A1947            lui $10, 6471
15449	EE68  354A1F0D            ori $10, $10, 7949
15450	EE6C  AFCA0288            sw $10, 648($30)
15451	EE70  3C0B76E8            lui $11, 30440
15452	EE74  356B1960            ori $11, $11, 6496
15453	EE78  AFCB028C            sw $11, 652($30)
15454	EE7C  3C0C472F            lui $12, 18223
15455	EE80  358CABA1            ori $12, $12, 43937
15456	EE84  AFCC0290            sw $12, 656($30)
15457	EE88  3C0D5392            lui $13, 21394
15458	EE8C  35AD42B3            ori $13, $13, 17075
15459	EE90  AFCD0294            sw $13, 660($30)
15460	EE94  3C0EE137            lui $14, 57655
15461	EE98  35CEE43F            ori $14, $14, 58431
15462	EE9C  AFCE0298            sw $14, 664($30)
15463	EEA0  3C0FD457            lui $15, 54359
15464	EEA4  35EF09AE            ori $15, $15, 2478
15465	EEA8  AFCF029C            sw $15, 668($30)
15466	EEAC  3C0826E6            lui $8, 9958
15467	EEB0  35084A26            ori $8, $8, 18982
15468	EEB4  AFC802A0            sw $8, 672($30)
15469	EEB8  3C09F23B            lui $9, 62011
15470	EEBC  35290AD1            ori $9, $9, 2769
15471	EEC0  AFC902A4            sw $9, 676($30)
15472	EEC4  3C0A2003            lui $10, 8195
15473	EEC8  354AE742            ori $10, $10, 59202
15474	EECC  AFCA02A8            sw $10, 680($30)
15475	EED0  3C0BC0F0            lui $11, 49392
15476	EED4  356B862C            ori $11, $11, 34348
15477	EED8  AFCB02AC            sw $11, 684($30)
15478	EEDC  3C0C866E            lui $12, 34414
15479	EEE0  358CC860            ori $12, $12, 51296
15480	EEE4  AFCC02B0            sw $12, 688($30)
15481	EEE8  3C0DAD05            lui $13, 44293
15482	EEEC  35ADBC7A            ori $13, $13, 48250
15483	EEF0  AFCD02B4            sw $13, 692($30)
15484	EEF4  3C0E8519            lui $14, 34073
15485	EEF8  35CE99F1            ori $14, $14, 39409
15486	EEFC  AFCE02B8            sw $14, 696($30)
15487	EF00  3C0F091C            lui $15, 2332
15488	EF04  35EF0A38            ori $15, $15, 2616
15489	EF08  AFCF02BC            sw $15, 700($30)
15490	EF0C  3C08A484            lui $8, 42116
15491	EF10  3508925E            ori $8, $8, 37470
15492	EF14  AFC802C0            sw $8, 704($30)
15493	EF18  3C09F31B            lui $9, 62235
15494	EF1C  35296C0C            ori $9, $9, 27660
15495	EF20  AFC902C4            sw $9, 708($30)
15496	EF24  3C0AC7B3            lui $10, 51123
15497	EF28  354A3CA8            ori $10, $10, 15528
15498	EF2C  AFCA02C8            sw $10, 712($30)
15499	EF30  3C0B903C            lui $11, 36924
15500	EF34  356B3752            ori $11, $11, 14162
15501	EF38  AFCB02CC            sw $11, 716($30)
15502	EF3C  3C0C8200            lui $12, 33280
15503	EF40  358C7464            ori $12, $12, 29796
15504	EF44  AFCC02D0            sw $12, 720($30)
15505	EF48  3C0D71CA            lui $13, 29130
15506	EF4C  35AD0B96            ori $13, $13, 2966
15507	EF50  AFCD02D4            sw $13, 724($30)
15508	EF54  3C0EC0E2            lui $14, 49378
15509	EF58  35CEE7A1            ori $14, $14, 59297
15510	EF5C  AFCE02D8            sw $14, 728($30)
15511	EF60  3C0FFB8B            lui $15, 64395
15512	EF64  35EFFF35            ori $15, $15, 65333
15513	EF68  AFCF02DC            sw $15, 732($30)
15514	EF6C  3C083368            lui $8, 13160
15515	EF70  3508FC86            ori $8, $8, 64646
15516	EF74  AFC802E0            sw $8, 736($30)
15517	EF78  3C09D70D            lui $9, 55053
15518	EF7C  3529C583            ori $9, $9, 50563
15519	EF80  AFC902E4            sw $9, 740($30)
15520	EF84  3C0A0F24            lui $10, 3876
15521	EF88  354A6C7B            ori $10, $10, 27771
15522	EF8C  AFCA02E8            sw $10, 744($30)
15523	EF90  3C0B9196            lui $11, 37270
15524	EF94  356B8FC7            ori $11, $11, 36807
15525	EF98  AFCB02EC            sw $11, 748($30)
15526	EF9C  3C0C7AED            lui $12, 31469
15527	EFA0  358CBC3C            ori $12, $12, 48188
15528	EFA4  AFCC02F0            sw $12, 752($30)
15529	EFA8  3C0D040C            lui $13, 1036
15530	EFAC  35ADAF83            ori $13, $13, 44931
15531	EFB0  AFCD02F4            sw $13, 756($30)
15532	EFB4  3C0EA2EE            lui $14, 41710
15533	EFB8  35CE7801            ori $14, $14, 30721
15534	EFBC  AFCE02F8            sw $14, 760($30)
15535	EFC0  3C0FEFE7            lui $15, 61415
15536	EFC4  35EF0979            ori $15, $15, 2425
15537	EFC8  AFCF02FC            sw $15, 764($30)
15538	EFCC  3C082996            lui $8, 10646
15539	EFD0  350850C1            ori $8, $8, 20673
15540	EFD4  AFC80300            sw $8, 768($30)
15541	EFD8  3C091A45            lui $9, 6725
15542	EFDC  352983DF            ori $9, $9, 33759
15543	EFE0  AFC90304            sw $9, 772($30)
15544	EFE4  3C0AAFCD            lui $10, 45005
15545	EFE8  354A9FCF            ori $10, $10, 40911
15546	EFEC  AFCA0308            sw $10, 776($30)
15547	EFF0  3C0B7234            lui $11, 29236
15548	EFF4  356B20AB            ori $11, $11, 8363
15549	EFF8  AFCB030C            sw $11, 780($30)
15550	EFFC  3C0CDCC5            lui $12, 56517
15551	F000  358CBFFA            ori $12, $12, 49146
15552	F004  AFCC0310            sw $12, 784($30)
15553	F008  3C0D8FF5            lui $13, 36853
15554	F00C  35AD41D2            ori $13, $13, 16850
15555	F010  AFCD0314            sw $13, 788($30)
15556	F014  3C0E4A2D            lui $14, 18989
15557	F018  35CE0732            ori $14, $14, 1842
15558	F01C  AFCE0318            sw $14, 792($30)
15559	F020  3C0FF442            lui $15, 62530
15560	F024  35EF136F            ori $15, $15, 4975
15561	F028  AFCF031C            sw $15, 796($30)
15562	F02C  3C0848BF            lui $8, 18623
15563	F030  3508EAA9            ori $8, $8, 60073
15564	F034  AFC80320            sw $8, 800($30)
15565	F038  3C09701E            lui $9, 28702
15566	F03C  3529C45C            ori $9, $9, 50268
15567	F040  AFC90324            sw $9, 804($30)
15568	F044  3C0ACFFA            lui $10, 53242
15569	F048  354A35DF            ori $10, $10, 13791
15570	F04C  AFCA0328            sw $10, 808($30)
15571	F050  3C0B0F6A            lui $11, 3946
15572	F054  356BF089            ori $11, $11, 61577
15573	F058  AFCB032C            sw $11, 812($30)
15574	F05C  3C0C61CB            lui $12, 25035
15575	F060  358C625A            ori $12, $12, 25178
15576	F064  AFCC0330            sw $12, 816($30)
15577	F068  3C0DFD2B            lui $13, 64811
15578	F06C  35AD21EF            ori $13, $13, 8687
15579	F070  AFCD0334            sw $13, 820($30)
15580	F074  3C0E00E4            lui $14, 228
15581	F078  35CE6B7F            ori $14, $14, 27519
15582	F07C  AFCE0338            sw $14, 824($30)
15583	F080  3C0F3E4F            lui $15, 15951
15584	F084  35EF89F7            ori $15, $15, 35319
15585	F088  AFCF033C            sw $15, 828($30)
15586	F08C  3C084A09            lui $8, 18953
15587	F090  350866D6            ori $8, $8, 26326
15588	F094  AFC80340            sw $8, 832($30)
15589	F098  3C09A3D6            lui $9, 41942
15590	F09C  3529E4A8            ori $9, $9, 58536
15591	F0A0  AFC90344            sw $9, 836($30)
15592	F0A4  3C0A016D            lui $10, 365
15593	F0A8  354ADE12            ori $10, $10, 56850
15594	F0AC  AFCA0348            sw $10, 840($30)
15595	F0B0  3C0BA8CF            lui $11, 43215
15596	F0B4  356B04C3            ori $11, $11, 1219
15597	F0B8  AFCB034C            sw $11, 844($30)
15598	F0BC  3C0C53EB            lui $12, 21483
15599	F0C0  358C1463            ori $12, $12, 5219
15600	F0C4  AFCC0350            sw $12, 848($30)
15601	F0C8  3C0D5A4A            lui $13, 23114
15602	F0CC  35ADF64F            ori $13, $13, 63055
15603	F0D0  AFCD0354            sw $13, 852($30)
15604	F0D4  3C0E01F8            lui $14, 504
15605	F0D8  35CEA4A1            ori $14, $14, 42145
15606	F0DC  AFCE0358            sw $14, 856($30)
15607	F0E0  3C0F1112            lui $15, 4370
15608	F0E4  35EFBF22            ori $15, $15, 48930
15609	F0E8  AFCF035C            sw $15, 860($30)
15610	F0EC  3C08F49A            lui $8, 62618
15611	F0F0  35082B6A            ori $8, $8, 11114
15612	F0F4  AFC80360            sw $8, 864($30)
15613	F0F8  3C09C2BD            lui $9, 49853
15614	F0FC  35290E40            ori $9, $9, 3648
15615	F100  AFC90364            sw $9, 868($30)
15616	F104  3C0A9C08            lui $10, 39944
15617	F108  354A5980            ori $10, $10, 22912
15618	F10C  AFCA0368            sw $10, 872($30)
15619	F110  3C0BE144            lui $11, 57668
15620	F114  356BFC4C            ori $11, $11, 64588
15621	F118  AFCB036C            sw $11, 876($30)
15622	F11C  3C0CAEE4            lui $12, 44772
15623	F120  358CC896            ori $12, $12, 51350
15624	F124  AFCC0370            sw $12, 880($30)
15625	F128  3C0DAA66            lui $13, 43622
15626	F12C  35ADDFD6            ori $13, $13, 57302
15627	F130  AFCD0374            sw $13, 884($30)
15628	F134  3C0EC532            lui $14, 50482
15629	F138  35CE4C7E            ori $14, $14, 19582
15630	F13C  AFCE0378            sw $14, 888($30)
15631	F140  3C0F1A32            lui $15, 6706
15632	F144  35EF13F3            ori $15, $15, 5107
15633	F148  AFCF037C            sw $15, 892($30)
15634	F14C  3C08D78B            lui $8, 55179
15635	F150  350814A7            ori $8, $8, 5287
15636	F154  AFC80380            sw $8, 896($30)
15637	F158  3C095E1D            lui $9, 24093
15638	F15C  3529178C            ori $9, $9, 6028
15639	F160  AFC90384            sw $9, 900($30)
15640	F164  3C0AA3F4            lui $10, 41972
15641	F168  354A902C            ori $10, $10, 36908
15642	F16C  AFCA0388            sw $10, 904($30)
15643	F170  3C0B1C30            lui $11, 7216
15644	F174  356B2820            ori $11, $11, 10272
15645	F178  AFCB038C            sw $11, 908($30)
15646	F17C  3C0CC3E4            lui $12, 50148
15647	F180  358CB924            ori $12, $12, 47396
15648	F184  AFCC0390            sw $12, 912($30)
15649	F188  3C0DFBE4            lui $13, 64484
15650	F18C  35AD31BA            ori $13, $13, 12730
15651	F190  AFCD0394            sw $13, 916($30)
15652	F194  3C0E2D4E            lui $14, 11598
15653	F198  35CE5541            ori $14, $14, 21825
15654	F19C  AFCE0398            sw $14, 920($30)
15655	F1A0  3C0F8F58            lui $15, 36696
15656	F1A4  35EF35D9            ori $15, $15, 13785
15657	F1A8  AFCF039C            sw $15, 924($30)
15658	F1AC  3C080C4E            lui $8, 3150
15659	F1B0  35087DCE            ori $8, $8, 32206
15660	F1B4  AFC803A0            sw $8, 928($30)
15661	F1B8  3C093A44            lui $9, 14916
15662	F1BC  35296840            ori $9, $9, 26688
15663	F1C0  AFC903A4            sw $9, 932($30)
15664	F1C4  3C0A6320            lui $10, 25376
15665	F1C8  354ACF00            ori $10, $10, 52992
15666	F1CC  AFCA03A8            sw $10, 936($30)
15667	F1D0  3C0BB7D7            lui $11, 47063
15668	F1D4  356B41A4            ori $11, $11, 16804
15669	F1D8  AFCB03AC            sw $11, 940($30)
15670	F1DC  3C0C40A0            lui $12, 16544
15671	F1E0  358C9D04            ori $12, $12, 40196
15672	F1E4  AFCC03B0            sw $12, 944($30)
15673	F1E8  3C0D024A            lui $13, 586
15674	F1EC  35AD09D8            ori $13, $13, 2520
15675	F1F0  AFCD03B4            sw $13, 948($30)
15676	F1F4  3C0EEB30            lui $14, 60208
15677	F1F8  35CEED00            ori $14, $14, 60672
15678	F1FC  AFCE03B8            sw $14, 952($30)
15679	F200  3C0F80F9            lui $15, 33017
15680	F204  35EF689A            ori $15, $15, 26778
15681	F208  AFCF03BC            sw $15, 956($30)
15682	F20C  3C08236C            lui $8, 9068
15683	F210  350885C0            ori $8, $8, 34240
15684	F214  AFC803C0            sw $8, 960($30)
15685	F218  3C09C024            lui $9, 49188
15686	F21C  35293D60            ori $9, $9, 15712
15687	F220  AFC903C4            sw $9, 964($30)
15688	F224  3C0A5A49            lui $10, 23113
15689	F228  354ABDF2            ori $10, $10, 48626
15690	F22C  AFCA03C8            sw $10, 968($30)
15691	F230  3C0B9B5C            lui $11, 39772
15692	F234  356B3C13            ori $11, $11, 15379
15693	F238  AFCB03CC            sw $11, 972($30)
15694	F23C  3C0C6AD8            lui $12, 27352
15695	F240  358C655E            ori $12, $12, 25950
15696	F244  AFCC03D0            sw $12, 976($30)
15697	F248  3C0DA604            lui $13, 42500
15698	F24C  35AD327E            ori $13, $13, 12926
15699	F250  AFCD03D4            sw $13, 980($30)
15700	F254  3C0E5D03            lui $14, 23811
15701	F258  35CE425E            ori $14, $14, 16990
15702	F25C  AFCE03D8            sw $14, 984($30)
15703	F260  3C0FAA09            lui $15, 43529
15704	F264  35EFAC2A            ori $15, $15, 44074
15705	F268  AFCF03DC            sw $15, 988($30)
15706	F26C  3C085C6A            lui $8, 23658
15707	F270  3508DB3B            ori $8, $8, 56123
15708	F274  AFC803E0            sw $8, 992($30)
15709	F278  3C09CD8A            lui $9, 52618
15710	F27C  35298AB0            ori $9, $9, 35504
15711	F280  AFC903E4            sw $9, 996($30)
15712	F284  3C0A0FAB            lui $10, 4011
15713	F288  354AA500            ori $10, $10, 42240
15714	F28C  AFCA03E8            sw $10, 1000($30)
15715	F290  3C0BF9BA            lui $11, 63930
15716	F294  356B67F0            ori $11, $11, 26608
15717	F298  AFCB03EC            sw $11, 1004($30)
15718	F29C  3C0C5148            lui $12, 20808
15719	F2A0  358C6241            ori $12, $12, 25153
15720	F2A4  AFCC03F0            sw $12, 1008($30)
15721	F2A8  3C0D6646            lui $13, 26182
15722	F2AC  35ADE0BC            ori $13, $13, 57532
15723	F2B0  AFCD03F4            sw $13, 1012($30)
15724	F2B4  3C0E18F6            lui $14, 6390
15725	F2B8  35CE14A0            ori $14, $14, 5280
15726	F2BC  AFCE03F8            sw $14, 1016($30)
15727	F2C0  3C0F3A6A            lui $15, 14954
15728	F2C4  35EFF069            ori $15, $15, 61545
15729	F2C8  AFCF03FC            sw $15, 1020($30)
15730	F2CC  3C08C8E5            lui $8, 51429
15731	F2D0  35088281            ori $8, $8, 33409
15732	F2D4  AFC80400            sw $8, 1024($30)
15733	F2D8  3C09AC23            lui $9, 44067
15734	F2DC  3529A7C4            ori $9, $9, 42948
15735	F2E0  AFC90404            sw $9, 1028($30)
15736	F2E4  3C0A66B0            lui $10, 26288
15737	F2E8  354AF47E            ori $10, $10, 62590
15738	F2EC  AFCA0408            sw $10, 1032($30)
15739	F2F0  3C0B6EFF            lui $11, 28415
15740	F2F4  356B962D            ori $11, $11, 38445
15741	F2F8  AFCB040C            sw $11, 1036($30)
15742	F2FC  3C0C5EEC            lui $12, 24300
15743	F300  358C4783            ori $12, $12, 18307
15744	F304  AFCC0410            sw $12, 1040($30)
15745	F308  3C0D9DEA            lui $13, 40426
15746	F30C  35AD5F66            ori $13, $13, 24422
15747	F310  AFCD0414            sw $13, 1044($30)
15748	F314  3C0E1FB7            lui $14, 8119
15749	F318  35CEF322            ori $14, $14, 62242
15750	F31C  AFCE0418            sw $14, 1048($30)
15751	F320  3C0FDAF2            lui $15, 56050
15752	F324  35EF7D0A            ori $15, $15, 32010
15753	F328  AFCF041C            sw $15, 1052($30)
15754	F32C  3C08B17F            lui $8, 45439
15755	F330  35082CD7            ori $8, $8, 11479
15756	F334  AFC80420            sw $8, 1056($30)
15757	F338  3C091E66            lui $9, 7782
15758	F33C  35296877            ori $9, $9, 26743
15759	F340  AFC90424            sw $9, 1060($30)
15760	F344  3C0AD470            lui $10, 54384
15761	F348  354AE7A2            ori $10, $10, 59298
15762	F34C  AFCA0428            sw $10, 1064($30)
15763	F350  3C0B75E1            lui $11, 30177
15764	F354  356B0F02            ori $11, $11, 3842
15765	F358  AFCB042C            sw $11, 1068($30)
15766	F35C  3C0CE49E            lui $12, 58526
15767	F360  358CEB61            ori $12, $12, 60257
15768	F364  AFCC0430            sw $12, 1072($30)
15769	F368  3C0D9648            lui $13, 38472
15770	F36C  35ADC9FF            ori $13, $13, 51711
15771	F370  AFCD0434            sw $13, 1076($30)
15772	F374  3C0EC5CB            lui $14, 50635
15773	F378  35CEBF6F            ori $14, $14, 49007
15774	F37C  AFCE0438            sw $14, 1080($30)
15775	F380  3C0F69EF            lui $15, 27119
15776	F384  35EFCCC9            ori $15, $15, 52425
15777	F388  AFCF043C            sw $15, 1084($30)
15778	F38C  3C08E14E            lui $8, 57678
15779	F390  3508B402            ori $8, $8, 46082
15780	F394  AFC80440            sw $8, 1088($30)
15781	F398  3C095B5A            lui $9, 23386
15782	F39C  352976A5            ori $9, $9, 30373
15783	F3A0  AFC90444            sw $9, 1092($30)
15784	F3A4  3C0A444A            lui $10, 17482
15785	F3A8  354AD9E0            ori $10, $10, 55776
15786	F3AC  AFCA0448            sw $10, 1096($30)
15787	F3B0  3C0B9AEC            lui $11, 39660
15788	F3B4  356B481D            ori $11, $11, 18461
15789	F3B8  AFCB044C            sw $11, 1100($30)
15790	F3BC  3C0C2E8A            lui $12, 11914
15791	F3C0  358C2E83            ori $12, $12, 11907
15792	F3C4  AFCC0450            sw $12, 1104($30)
15793	F3C8  3C0DFCA9            lui $13, 64681
15794	F3CC  35AD7869            ori $13, $13, 30825
15795	F3D0  AFCD0454            sw $13, 1108($30)
15796	F3D4  3C0EEBA1            lui $14, 60321
15797	F3D8  35CE3D3F            ori $14, $14, 15679
15798	F3DC  AFCE0458            sw $14, 1112($30)
15799	F3E0  3C0F63DE            lui $15, 25566
15800	F3E4  35EFB7FC            ori $15, $15, 47100
15801	F3E8  AFCF045C            sw $15, 1116($30)
15802	F3EC  3C08952A            lui $8, 38186
15803	F3F0  3508680B            ori $8, $8, 26635
15804	F3F4  AFC80460            sw $8, 1120($30)
15805	F3F8  3C09D01E            lui $9, 53278
15806	F3FC  352922E0            ori $9, $9, 8928
15807	F400  AFC90464            sw $9, 1124($30)
15808	F404  3C0A4C75            lui $10, 19573
15809	F408  354AFB52            ori $10, $10, 64338
15810	F40C  AFCA0468            sw $10, 1128($30)
15811	F410  3C0B0EB3            lui $11, 3763
15812	F414  356B4F3B            ori $11, $11, 20283
15813	F418  AFCB046C            sw $11, 1132($30)
15814	F41C  3C0C2409            lui $12, 9225
15815	F420  358C32C1            ori $12, $12, 12993
15816	F424  AFCC0470            sw $12, 1136($30)
15817	F428  3C0DCCD3            lui $13, 52435
15818	F42C  35AD07A7            ori $13, $13, 1959
15819	F430  AFCD0474            sw $13, 1140($30)
15820	F434  3C0E8A83            lui $14, 35459
15821	F438  35CEE183            ori $14, $14, 57731
15822	F43C  AFCE0478            sw $14, 1144($30)
15823	F440  3C0FC704            lui $15, 50948
15824	F444  35EFC18E            ori $15, $15, 49550
15825	F448  AFCF047C            sw $15, 1148($30)
15826	F44C  3C08C907            lui $8, 51463
15827	F450  35089789            ori $8, $8, 38793
15828	F454  AFC80480            sw $8, 1152($30)
15829	F458  3C091817            lui $9, 6167
15830	F45C  3529EDEF            ori $9, $9, 60911
15831	F460  AFC90484            sw $9, 1156($30)
15832	F464  3C0A7DA3            lui $10, 32163
15833	F468  354ADF60            ori $10, $10, 57184
15834	F46C  AFCA0488            sw $10, 1160($30)
15835	F470  3C0BD9C9            lui $11, 55753
15836	F474  356B143C            ori $11, $11, 5180
15837	F478  AFCB048C            sw $11, 1164($30)
15838	F47C  3C0C7D19            lui $12, 32025
15839	F480  358C2B61            ori $12, $12, 11105
15840	F484  AFCC0490            sw $12, 1168($30)
15841	F488  3C0DD5E0            lui $13, 54752
15842	F48C  35AD4F69            ori $13, $13, 20329
15843	F490  AFCD0494            sw $13, 1172($30)
15844	F494  3C0E5DE3            lui $14, 24035
15845	F498  35CEC87D            ori $14, $14, 51325
15846	F49C  AFCE0498            sw $14, 1176($30)
15847	F4A0  3C0FFAFF            lui $15, 64255
15848	F4A4  35EF57D7            ori $15, $15, 22487
15849	F4A8  AFCF049C            sw $15, 1180($30)
15850	F4AC  3C08BE7A            lui $8, 48762
15851	F4B0  35082247            ori $8, $8, 8775
15852	F4B4  AFC804A0            sw $8, 1184($30)
15853	F4B8  3C092F74            lui $9, 12148
15854	F4BC  3529ED98            ori $9, $9, 60824
15855	F4C0  AFC904A4            sw $9, 1188($30)
15856	F4C4  3C0A4078            lui $10, 16504
15857	F4C8  354A443F            ori $10, $10, 17471
15858	F4CC  AFCA04A8            sw $10, 1192($30)
15859	F4D0  3C0B0723            lui $11, 1827
15860	F4D4  356BE7A5            ori $11, $11, 59301
15861	F4D8  AFCB04AC            sw $11, 1196($30)
15862	F4DC  3C0CDD86            lui $12, 56710
15863	F4E0  358C4EB3            ori $12, $12, 20147
15864	F4E4  AFCC04B0            sw $12, 1200($30)
15865	F4E8  3C0D8FB1            lui $13, 36785
15866	F4EC  35AD7B4F            ori $13, $13, 31567
15867	F4F0  AFCD04B4            sw $13, 1204($30)
15868	F4F4  3C0E30CE            lui $14, 12494
15869	F4F8  35CE3B82            ori $14, $14, 15234
15870	F4FC  AFCE04B8            sw $14, 1208($30)
15871	F500  3C0F3D7E            lui $15, 15742
15872	F504  35EF2E95            ori $15, $15, 11925
15873	F508  AFCF04BC            sw $15, 1212($30)
15874	F50C  3C08C363            lui $8, 50019
15875	F510  3508F900            ori $8, $8, 63744
15876	F514  AFC804C0            sw $8, 1216($30)
15877	F518  3C09CE9F            lui $9, 52895
15878	F51C  352973CF            ori $9, $9, 29647
15879	F520  AFC904C4            sw $9, 1220($30)
15880	F524  3C0AD833            lui $10, 55347
15881	F528  354A45BB            ori $10, $10, 17851
15882	F52C  AFCA04C8            sw $10, 1224($30)
15883	F530  3C0B0C04            lui $11, 3076
15884	F534  356B6E7C            ori $11, $11, 28284
15885	F538  AFCB04CC            sw $11, 1228($30)
15886	F53C  3C0C6A29            lui $12, 27177
15887	F540  358CDBC8            ori $12, $12, 56264
15888	F544  AFCC04D0            sw $12, 1232($30)
15889	F548  3C0D3AB1            lui $13, 15025
15890	F54C  35ADDAE7            ori $13, $13, 56039
15891	F550  AFCD04D4            sw $13, 1236($30)
15892	F554  3C0E617A            lui $14, 24954
15893	F558  35CE4C7C            ori $14, $14, 19580
15894	F55C  AFCE04D8            sw $14, 1240($30)
15895	F560  3C0F8184            lui $15, 33156
15896	F564  35EF4CC2            ori $15, $15, 19650
15897	F568  AFCF04DC            sw $15, 1244($30)
15898	F56C  3C08CD74            lui $8, 52596
15899	F570  35083E06            ori $8, $8, 15878
15900	F574  AFC804E0            sw $8, 1248($30)
15901	F578  3C096627            lui $9, 26151
15902	F57C  35294112            ori $9, $9, 16658
15903	F580  AFC904E4            sw $9, 1252($30)
15904	F584  3C0ABFEF            lui $10, 49135
15905	F588  354A43D4            ori $10, $10, 17364
15906	F58C  AFCA04E8            sw $10, 1256($30)
15907	F590  3C0B2AFB            lui $11, 11003
15908	F594  356BCDD5            ori $11, $11, 52693
15909	F598  AFCB04EC            sw $11, 1260($30)
15910	F59C  3C0CAA63            lui $12, 43619
15911	F5A0  358CBCF7            ori $12, $12, 48375
15912	F5A4  AFCC04F0            sw $12, 1264($30)
15913	F5A8  3C0D2F6E            lui $13, 12142
15914	F5AC  35AD9EA8            ori $13, $13, 40616
15915	F5B0  AFCD04F4            sw $13, 1268($30)
15916	F5B4  3C0E11CC            lui $14, 4556
15917	F5B8  35CEA9A2            ori $14, $14, 43426
15918	F5BC  AFCE04F8            sw $14, 1272($30)
15919	F5C0  3C0F2EE9            lui $15, 12009
15920	F5C4  35EF8FD0            ori $15, $15, 36816
15921	F5C8  AFCF04FC            sw $15, 1276($30)
15922	F5CC  3C0891E7            lui $8, 37351
15923	F5D0  350824B9            ori $8, $8, 9401
15924	F5D4  AFC80500            sw $8, 1280($30)
15925	F5D8  3C094875            lui $9, 18549
15926	F5DC  35293149            ori $9, $9, 12617
15927	F5E0  AFC90504            sw $9, 1284($30)
15928	F5E4  3C0AFABB            lui $10, 64187
15929	F5E8  354AE17F            ori $10, $10, 57727
15930	F5EC  AFCA0508            sw $10, 1288($30)
15931	F5F0  3C0BEFF6            lui $11, 61430
15932	F5F4  356BB261            ori $11, $11, 45665
15933	F5F8  AFCB050C            sw $11, 1292($30)
15934	F5FC  3C0C9390            lui $12, 37776
15935	F600  358CEDE4            ori $12, $12, 60900
15936	F604  AFCC0510            sw $12, 1296($30)
15937	F608  3C0DB26D            lui $13, 45677
15938	F60C  35ADE219            ori $13, $13, 57881
15939	F610  AFCD0514            sw $13, 1300($30)
15940	F614  3C0E0634            lui $14, 1588
15941	F618  35CE47C0            ori $14, $14, 18368
15942	F61C  AFCE0518            sw $14, 1304($30)
15943	F620  3C0F9FE4            lui $15, 40932
15944	F624  35EFA337            ori $15, $15, 41783
15945	F628  AFCF051C            sw $15, 1308($30)
15946	F62C  3C080A83            lui $8, 2691
15947	F630  3508B806            ori $8, $8, 47110
15948	F634  AFC80520            sw $8, 1312($30)
15949	F638  3C09E158            lui $9, 57688
15950	F63C  3529B60E            ori $9, $9, 46606
15951	F640  AFC90524            sw $9, 1316($30)
15952	F644  3C0A5F5C            lui $10, 24412
15953	F648  354A9BFC            ori $10, $10, 39932
15954	F64C  AFCA0528            sw $10, 1320($30)
15955	F650  3C0BDF82            lui $11, 57218
15956	F654  356B7FBD            ori $11, $11, 32701
15957	F658  AFCB052C            sw $11, 1324($30)
15958	F65C  03E00008            jr $31
15959	                          
15960	                          end:
15961	F660  08003D98              j end
15962	                          
Table des tiquettes :
end	F660
init_patterns	E6CC
lo_downward_0	E328
lo_upward_1	E0E0
hi_downward_0	DD3C
hi_upward_1	DAF4
lo_downward_1	D750
lo_upward_0	D508
hi_downward_1	D164
hi_upward_0	CF1C
store_load_downward_0	CC60
store_load_upward_1	CA8C
init_upward_0	C9A0
store_load_downward_1	C6E4
store_load_upward_0	C510
init_upward_1	C424
store_branch	C418
increment_offset	C408
reset_hi_lo	C3F4
reset_offsets	C3E0
load_patterns	C3D4
pipeline_operation_2	C308
pipeline_operation_1	C238
pipeline_operation_0	C168
hilo_register_operation	C13C
operation_bltzal	C128
operation_bgezal	C114
operation_lw0_sw0	C100
operation_lw_sw	C0EC
operation_mtc0_mfc0	C0D0
operation_xori	B66C
operation_sltiu	AC08
operation_slti	A1A4
operation_ori	9740
operation_andi	8CDC
operation_addiu	8278
operation_multu_psuedo	5204
operation_mult_psuedo	2190
operation_sltu_psuedo	2154
operation_slt_psuedo	2118
operation_sra_psuedo	20EC
operation_srl_psuedo	20C0
operation_sll_psuedo	2094
operation_nor_psuedo	2020
operation_xor_psuedo	1FAC
operation_or_psuedo	1F38
operation_and_psuedo	1EC4
operation_subu_psuedo	1DC4
operation_addu_psuedo	1CC4
operation_mtlo_hi_lo	1CA8
operation_mthi_hi_lo	1C8C
operation_multu_hi	1C70
operation_multu_lo	1C54
operation_mult_hi	1C38
operation_mult_lo	1C1C
operation_mtlo	1C04
operation_mthi	1BEC
operation_mflo	1BD4
operation_mfhi	1BB8
operation_multu	1B9C
operation_mult	1B84
operation_sra	1B6C
operation_srl	1B54
operation_sll	1B3C
operation_srlv	1B24
operation_srav	1B0C
operation_sltu	1AF4
operation_slt	1ADC
operation_sllv	1AC4
operation_xor	1AAC
operation_subu	1A94
operation_or	1A7C
operation_nor	1A64
operation_and	1A4C
operation_addu	1A34
register_operation_2	1A14
register_operation	1A04
reg_special	0080
main	0080
_reset	0000
