1	                          ;CODE MEMORY: (0x00000000-0x0000FFFF)
2	                          ;DATA MEMORY: (0x00010000-0x0001FFFF)
3	                          
4	                          org 0000
5	                          
6	0000  400D8000            mfc0 $16, $13
7	0004  12000011            beq $16, $0, _reset
8	                          
9	                          exception_handler:
10	0008  400C8000             mfc0 $16, $12
11	000C  400D8800             mfc0 $17, $13
12	0010  400E9800             mfc0 $19, $14
13	0014  400FA000             mfc0 $20, $15
14	0018  AFB00000             sw $16, 0($29)
15	001C  AFB10004             sw $17, 4($29)
16	0020  AFB30008             sw $19, 8($29)
17	0024  AFB4000C             sw $20, 12($29)
18	0028  22730004             addi $19, $19, 4
19	002C  40937000             mtc0 $19, $14
20	0030  400CA800             mfc0 $21, $12
21	0034  22B5FFFD             addi $21, $21, 65533
22	0038  36B50001             ori $21, $21, 1
23	003C  40956000             mtc0 $21, $12
24	0040  40200004             cop0 4
25	0044  02600008             jr $19
26	                          
27	                          _reset:
28	0048  00000026             xor $0, $0, $0
29	004C  00210826             xor $1, $1, $1
30	0050  00421026             xor $2, $2, $2
31	0054  00631826             xor $3, $3, $3
32	0058  00842026             xor $4, $4, $4
33	005C  00A52826             xor $5, $5, $5
34	0060  00C63026             xor $6, $6, $6
35	0064  00E73826             xor $7, $7, $7
36	0068  01084026             xor $8, $8, $8
37	006C  01294826             xor $9, $9, $9
38	0070  014A5026             xor $10, $10, $10
39	0074  016B5826             xor $11, $11, $11
40	0078  018C6026             xor $12, $12, $12
41	007C  01AD6826             xor $13, $13, $13
42	0080  01CE7026             xor $14, $14, $14
43	0084  01EF7826             xor $15, $15, $15
44	0088  02108026             xor $16, $16, $16
45	008C  02318826             xor $17, $17, $17
46	0090  02529026             xor $18, $18, $18
47	0094  02739826             xor $19, $19, $19
48	0098  0294A026             xor $20, $20, $20
49	009C  02B5A826             xor $21, $21, $21
50	00A0  02D6B026             xor $22, $22, $22
51	00A4  02F7B826             xor $23, $23, $23
52	00A8  0318C026             xor $24, $24, $24
53	00AC  0339C826             xor $25, $25, $25
54	00B0  035AD026             xor $26, $26, $26
55	00B4  037BD826             xor $27, $27, $27
56	00B8  039CE026             xor $28, $28, $28
57	00BC  03BDE826             xor $29, $29, $29
58	00C0  03DEF026             xor $30, $30, $30
59	00C4  03FFF826             xor $31, $31, $31
60	                          
61	                          main:
62	                          ;........initialize all registers..............;
63	                          reg_special:
64	00C8  3C00FFFF             lui $0, 65535
65	00CC  3400FFFF             ori $0, $0, 65535
66	00D0  3C01FFFF             lui $1, 65535
67	00D4  3421FFFF             ori $1, $1, 65535
68	00D8  3C02FFFF             lui $2, 65535
69	00DC  3442FFFF             ori $2, $2, 65535
70	00E0  3C03FFFF             lui $3, 65535
71	00E4  3463FFFF             ori $3, $3, 65535
72	00E8  3C04FFFF             lui $4, 65535
73	00EC  3484FFFF             ori $4, $4, 65535
74	00F0  3C05FFFF             lui $5, 65535
75	00F4  34A5FFFF             ori $5, $5, 65535
76	00F8  3C06FFFF             lui $6, 65535
77	00FC  34C6FFFF             ori $6, $6, 65535
78	0100  3C07FFFF             lui $7, 65535
79	0104  34E7FFFF             ori $7, $7, 65535
80	0108  3C08FFFF             lui $8, 65535
81	010C  3508FFFF             ori $8, $8, 65535
82	0110  3C09FFFF             lui $9, 65535
83	0114  3529FFFF             ori $9, $9, 65535
84	0118  3C0AFFFF             lui $10, 65535
85	011C  354AFFFF             ori $10, $10, 65535
86	0120  3C0BFFFF             lui $11, 65535
87	0124  356BFFFF             ori $11, $11, 65535
88	0128  3C0CFFFF             lui $12, 65535
89	012C  358CFFFF             ori $12, $12, 65535
90	0130  3C0DFFFF             lui $13, 65535
91	0134  35ADFFFF             ori $13, $13, 65535
92	0138  3C0EFFFF             lui $14, 65535
93	013C  35CEFFFF             ori $14, $14, 65535
94	0140  3C0FFFFF             lui $15, 65535
95	0144  35EFFFFF             ori $15, $15, 65535
96	0148  3C10FFFF             lui $16, 65535
97	014C  3610FFFF             ori $16, $16, 65535
98	0150  3C11FFFF             lui $17, 65535
99	0154  3631FFFF             ori $17, $17, 65535
100	0158  3C12FFFF             lui $18, 65535
101	015C  3652FFFF             ori $18, $18, 65535
102	0160  3C13FFFF             lui $19, 65535
103	0164  3673FFFF             ori $19, $19, 65535
104	0168  3C14FFFF             lui $20, 65535
105	016C  3694FFFF             ori $20, $20, 65535
106	0170  3C15FFFF             lui $21, 65535
107	0174  36B5FFFF             ori $21, $21, 65535
108	0178  3C16FFFF             lui $22, 65535
109	017C  36D6FFFF             ori $22, $22, 65535
110	0180  3C17FFFF             lui $23, 65535
111	0184  36F7FFFF             ori $23, $23, 65535
112	0188  3C18FFFF             lui $24, 65535
113	018C  3718FFFF             ori $24, $24, 65535
114	0190  3C19FFFF             lui $25, 65535
115	0194  3739FFFF             ori $25, $25, 65535
116	0198  3C1AFFFF             lui $26, 65535
117	019C  375AFFFF             ori $26, $26, 65535
118	01A0  3C1BFFFF             lui $27, 65535
119	01A4  377BFFFF             ori $27, $27, 65535
120	01A8  3C1CFFFF             lui $28, 65535
121	01AC  379CFFFF             ori $28, $28, 65535
122	01B0  3C1DFFFF             lui $29, 65535
123	01B4  37BDFFFF             ori $29, $29, 65535
124	01B8  3C1EFFFF             lui $30, 65535
125	01BC  37DEFFFF             ori $30, $30, 65535
126	01C0  3C1FFFFF             lui $31, 65535
127	01C4  37FFFFFF             ori $31, $31, 65535
128	                          
129	                          ;........test special purpose registers........;
130	01C8  3C010001             lui $1, 1
131	01CC  342107D0             ori $1, $1, 2000
132	                          
133	01D0  00000024             and $0, $0, $0
134	01D4  AC200000             sw $0, 0($1)
135	01D8  3C000000             lui $0, 0
136	01DC  34000000             ori $0, $0, 0
137	01E0  00421024             and $2, $2, $2
138	01E4  AC220004             sw $2, 4($1)
139	01E8  3C020000             lui $2, 0
140	01EC  34420000             ori $2, $2, 0
141	01F0  00631824             and $3, $3, $3
142	01F4  AC230008             sw $3, 8($1)
143	01F8  3C030000             lui $3, 0
144	01FC  34630000             ori $3, $3, 0
145	0200  00842024             and $4, $4, $4
146	0204  AC24000C             sw $4, 12($1)
147	0208  3C040000             lui $4, 0
148	020C  34840000             ori $4, $4, 0
149	0210  00A52824             and $5, $5, $5
150	0214  AC250010             sw $5, 16($1)
151	0218  3C050000             lui $5, 0
152	021C  34A50000             ori $5, $5, 0
153	0220  00C63024             and $6, $6, $6
154	0224  AC260014             sw $6, 20($1)
155	0228  3C060000             lui $6, 0
156	022C  34C60000             ori $6, $6, 0
157	0230  00E73824             and $7, $7, $7
158	0234  AC270018             sw $7, 24($1)
159	0238  3C070000             lui $7, 0
160	023C  34E70000             ori $7, $7, 0
161	0240  01084024             and $8, $8, $8
162	0244  AC28001C             sw $8, 28($1)
163	0248  3C080000             lui $8, 0
164	024C  35080000             ori $8, $8, 0
165	0250  01294824             and $9, $9, $9
166	0254  AC290020             sw $9, 32($1)
167	0258  3C090000             lui $9, 0
168	025C  35290000             ori $9, $9, 0
169	0260  014A5024             and $10, $10, $10
170	0264  AC2A0024             sw $10, 36($1)
171	0268  3C0A0000             lui $10, 0
172	026C  354A0000             ori $10, $10, 0
173	0270  016B5824             and $11, $11, $11
174	0274  AC2B0028             sw $11, 40($1)
175	0278  3C0B0000             lui $11, 0
176	027C  356B0000             ori $11, $11, 0
177	0280  018C6024             and $12, $12, $12
178	0284  AC2C002C             sw $12, 44($1)
179	0288  3C0C0000             lui $12, 0
180	028C  358C0000             ori $12, $12, 0
181	0290  01AD6824             and $13, $13, $13
182	0294  AC2D0030             sw $13, 48($1)
183	0298  3C0D0000             lui $13, 0
184	029C  35AD0000             ori $13, $13, 0
185	02A0  01CE7024             and $14, $14, $14
186	02A4  AC2E0034             sw $14, 52($1)
187	02A8  3C0E0000             lui $14, 0
188	02AC  35CE0000             ori $14, $14, 0
189	02B0  01EF7824             and $15, $15, $15
190	02B4  AC2F0038             sw $15, 56($1)
191	02B8  3C0F0000             lui $15, 0
192	02BC  35EF0000             ori $15, $15, 0
193	02C0  02108024             and $16, $16, $16
194	02C4  AC30003C             sw $16, 60($1)
195	02C8  3C100000             lui $16, 0
196	02CC  36100000             ori $16, $16, 0
197	02D0  02318824             and $17, $17, $17
198	02D4  AC310040             sw $17, 64($1)
199	02D8  3C110000             lui $17, 0
200	02DC  36310000             ori $17, $17, 0
201	02E0  02529024             and $18, $18, $18
202	02E4  AC320044             sw $18, 68($1)
203	02E8  3C120000             lui $18, 0
204	02EC  36520000             ori $18, $18, 0
205	02F0  02739824             and $19, $19, $19
206	02F4  AC330048             sw $19, 72($1)
207	02F8  3C130000             lui $19, 0
208	02FC  36730000             ori $19, $19, 0
209	0300  0294A024             and $20, $20, $20
210	0304  AC34004C             sw $20, 76($1)
211	0308  3C140000             lui $20, 0
212	030C  36940000             ori $20, $20, 0
213	0310  02B5A824             and $21, $21, $21
214	0314  AC350050             sw $21, 80($1)
215	0318  3C150000             lui $21, 0
216	031C  36B50000             ori $21, $21, 0
217	0320  02D6B024             and $22, $22, $22
218	0324  AC360054             sw $22, 84($1)
219	0328  3C160000             lui $22, 0
220	032C  36D60000             ori $22, $22, 0
221	0330  02F7B824             and $23, $23, $23
222	0334  AC370058             sw $23, 88($1)
223	0338  3C170000             lui $23, 0
224	033C  36F70000             ori $23, $23, 0
225	0340  0318C024             and $24, $24, $24
226	0344  AC38005C             sw $24, 92($1)
227	0348  3C180000             lui $24, 0
228	034C  37180000             ori $24, $24, 0
229	0350  0339C824             and $25, $25, $25
230	0354  AC390060             sw $25, 96($1)
231	0358  3C190000             lui $25, 0
232	035C  37390000             ori $25, $25, 0
233	0360  035AD024             and $26, $26, $26
234	0364  AC3A0064             sw $26, 100($1)
235	0368  3C1A0000             lui $26, 0
236	036C  375A0000             ori $26, $26, 0
237	0370  037BD824             and $27, $27, $27
238	0374  AC3B0068             sw $27, 104($1)
239	0378  3C1B0000             lui $27, 0
240	037C  377B0000             ori $27, $27, 0
241	0380  039CE024             and $28, $28, $28
242	0384  AC3C006C             sw $28, 108($1)
243	0388  3C1C0000             lui $28, 0
244	038C  379C0000             ori $28, $28, 0
245	0390  03BDE824             and $29, $29, $29
246	0394  AC3D0070             sw $29, 112($1)
247	0398  3C1D0000             lui $29, 0
248	039C  37BD0000             ori $29, $29, 0
249	03A0  03DEF024             and $30, $30, $30
250	03A4  AC3E0074             sw $30, 116($1)
251	03A8  3C1E0000             lui $30, 0
252	03AC  37DE0000             ori $30, $30, 0
253	03B0  03FFF824             and $31, $31, $31
254	03B4  AC3F0078             sw $31, 120($1)
255	03B8  3C1F0000             lui $31, 0
256	03BC  37FF0000             ori $31, $31, 0
257	                          
258	03C0  00000027             nor $0, $0, $0
259	03C4  AC20007C             sw $0, 124($1)
260	03C8  3C00FFFF             lui $0, 65535
261	03CC  3400FFFF             ori $0, $0, 65535
262	03D0  00000024             and $0, $0, $0
263	03D4  AC200080             sw $0, 128($1)
264	03D8  03FFF827             nor $31, $31, $31
265	03DC  AC3F0084             sw $31, 132($1)
266	03E0  3C1FFFFF             lui $31, 65535
267	03E4  37FFFFFF             ori $31, $31, 65535
268	03E8  03FFF824             and $31, $31, $31
269	03EC  AC3F0088             sw $31, 136($1)
270	03F0  03DEF027             nor $30, $30, $30
271	03F4  AC3E008C             sw $30, 140($1)
272	03F8  3C1EFFFF             lui $30, 65535
273	03FC  37DEFFFF             ori $30, $30, 65535
274	0400  03DEF024             and $30, $30, $30
275	0404  AC3E0090             sw $30, 144($1)
276	0408  03BDE827             nor $29, $29, $29
277	040C  AC3D0094             sw $29, 148($1)
278	0410  3C1DFFFF             lui $29, 65535
279	0414  37BDFFFF             ori $29, $29, 65535
280	0418  03BDE824             and $29, $29, $29
281	041C  AC3D0098             sw $29, 152($1)
282	0420  039CE027             nor $28, $28, $28
283	0424  AC3C009C             sw $28, 156($1)
284	0428  3C1CFFFF             lui $28, 65535
285	042C  379CFFFF             ori $28, $28, 65535
286	0430  039CE024             and $28, $28, $28
287	0434  AC3C00A0             sw $28, 160($1)
288	0438  037BD827             nor $27, $27, $27
289	043C  AC3B00A4             sw $27, 164($1)
290	0440  3C1BFFFF             lui $27, 65535
291	0444  377BFFFF             ori $27, $27, 65535
292	0448  037BD824             and $27, $27, $27
293	044C  AC3B00A8             sw $27, 168($1)
294	0450  035AD027             nor $26, $26, $26
295	0454  AC3A00AC             sw $26, 172($1)
296	0458  3C1AFFFF             lui $26, 65535
297	045C  375AFFFF             ori $26, $26, 65535
298	0460  035AD024             and $26, $26, $26
299	0464  AC3A00B0             sw $26, 176($1)
300	0468  0339C827             nor $25, $25, $25
301	046C  AC3900B4             sw $25, 180($1)
302	0470  3C19FFFF             lui $25, 65535
303	0474  3739FFFF             ori $25, $25, 65535
304	0478  0339C824             and $25, $25, $25
305	047C  AC3900B8             sw $25, 184($1)
306	0480  0318C027             nor $24, $24, $24
307	0484  AC3800BC             sw $24, 188($1)
308	0488  3C18FFFF             lui $24, 65535
309	048C  3718FFFF             ori $24, $24, 65535
310	0490  0318C024             and $24, $24, $24
311	0494  AC3800C0             sw $24, 192($1)
312	0498  02F7B827             nor $23, $23, $23
313	049C  AC3700C4             sw $23, 196($1)
314	04A0  3C17FFFF             lui $23, 65535
315	04A4  36F7FFFF             ori $23, $23, 65535
316	04A8  02F7B824             and $23, $23, $23
317	04AC  AC3700C8             sw $23, 200($1)
318	04B0  02D6B027             nor $22, $22, $22
319	04B4  AC3600CC             sw $22, 204($1)
320	04B8  3C16FFFF             lui $22, 65535
321	04BC  36D6FFFF             ori $22, $22, 65535
322	04C0  02D6B024             and $22, $22, $22
323	04C4  AC3600D0             sw $22, 208($1)
324	04C8  02B5A827             nor $21, $21, $21
325	04CC  AC3500D4             sw $21, 212($1)
326	04D0  3C15FFFF             lui $21, 65535
327	04D4  36B5FFFF             ori $21, $21, 65535
328	04D8  02B5A824             and $21, $21, $21
329	04DC  AC3500D8             sw $21, 216($1)
330	04E0  0294A027             nor $20, $20, $20
331	04E4  AC3400DC             sw $20, 220($1)
332	04E8  3C14FFFF             lui $20, 65535
333	04EC  3694FFFF             ori $20, $20, 65535
334	04F0  0294A024             and $20, $20, $20
335	04F4  AC3400E0             sw $20, 224($1)
336	04F8  02739827             nor $19, $19, $19
337	04FC  AC3300E4             sw $19, 228($1)
338	0500  3C13FFFF             lui $19, 65535
339	0504  3673FFFF             ori $19, $19, 65535
340	0508  02739824             and $19, $19, $19
341	050C  AC3300E8             sw $19, 232($1)
342	0510  02529027             nor $18, $18, $18
343	0514  AC3200EC             sw $18, 236($1)
344	0518  3C12FFFF             lui $18, 65535
345	051C  3652FFFF             ori $18, $18, 65535
346	0520  02529024             and $18, $18, $18
347	0524  AC3200F0             sw $18, 240($1)
348	0528  02318827             nor $17, $17, $17
349	052C  AC3100F4             sw $17, 244($1)
350	0530  3C11FFFF             lui $17, 65535
351	0534  3631FFFF             ori $17, $17, 65535
352	0538  02318824             and $17, $17, $17
353	053C  AC3100F8             sw $17, 248($1)
354	0540  02108027             nor $16, $16, $16
355	0544  AC3000FC             sw $16, 252($1)
356	0548  3C10FFFF             lui $16, 65535
357	054C  3610FFFF             ori $16, $16, 65535
358	0550  02108024             and $16, $16, $16
359	0554  AC300100             sw $16, 256($1)
360	0558  01EF7827             nor $15, $15, $15
361	055C  AC2F0104             sw $15, 260($1)
362	0560  3C0FFFFF             lui $15, 65535
363	0564  35EFFFFF             ori $15, $15, 65535
364	0568  01EF7824             and $15, $15, $15
365	056C  AC2F0108             sw $15, 264($1)
366	0570  01CE7027             nor $14, $14, $14
367	0574  AC2E010C             sw $14, 268($1)
368	0578  3C0EFFFF             lui $14, 65535
369	057C  35CEFFFF             ori $14, $14, 65535
370	0580  01CE7024             and $14, $14, $14
371	0584  AC2E0110             sw $14, 272($1)
372	0588  01AD6827             nor $13, $13, $13
373	058C  AC2D0114             sw $13, 276($1)
374	0590  3C0DFFFF             lui $13, 65535
375	0594  35ADFFFF             ori $13, $13, 65535
376	0598  01AD6824             and $13, $13, $13
377	059C  AC2D0118             sw $13, 280($1)
378	05A0  018C6027             nor $12, $12, $12
379	05A4  AC2C011C             sw $12, 284($1)
380	05A8  3C0CFFFF             lui $12, 65535
381	05AC  358CFFFF             ori $12, $12, 65535
382	05B0  018C6024             and $12, $12, $12
383	05B4  AC2C0120             sw $12, 288($1)
384	05B8  016B5827             nor $11, $11, $11
385	05BC  AC2B0124             sw $11, 292($1)
386	05C0  3C0BFFFF             lui $11, 65535
387	05C4  356BFFFF             ori $11, $11, 65535
388	05C8  016B5824             and $11, $11, $11
389	05CC  AC2B0128             sw $11, 296($1)
390	05D0  014A5027             nor $10, $10, $10
391	05D4  AC2A012C             sw $10, 300($1)
392	05D8  3C0AFFFF             lui $10, 65535
393	05DC  354AFFFF             ori $10, $10, 65535
394	05E0  014A5024             and $10, $10, $10
395	05E4  AC2A0130             sw $10, 304($1)
396	05E8  01294827             nor $9, $9, $9
397	05EC  AC290134             sw $9, 308($1)
398	05F0  3C09FFFF             lui $9, 65535
399	05F4  3529FFFF             ori $9, $9, 65535
400	05F8  01294824             and $9, $9, $9
401	05FC  AC290138             sw $9, 312($1)
402	0600  01084027             nor $8, $8, $8
403	0604  AC28013C             sw $8, 316($1)
404	0608  3C08FFFF             lui $8, 65535
405	060C  3508FFFF             ori $8, $8, 65535
406	0610  01084024             and $8, $8, $8
407	0614  AC280140             sw $8, 320($1)
408	0618  00E73827             nor $7, $7, $7
409	061C  AC270144             sw $7, 324($1)
410	0620  3C07FFFF             lui $7, 65535
411	0624  34E7FFFF             ori $7, $7, 65535
412	0628  00E73824             and $7, $7, $7
413	062C  AC270148             sw $7, 328($1)
414	0630  00C63027             nor $6, $6, $6
415	0634  AC26014C             sw $6, 332($1)
416	0638  3C06FFFF             lui $6, 65535
417	063C  34C6FFFF             ori $6, $6, 65535
418	0640  00C63024             and $6, $6, $6
419	0644  AC260150             sw $6, 336($1)
420	0648  00A52827             nor $5, $5, $5
421	064C  AC250154             sw $5, 340($1)
422	0650  3C05FFFF             lui $5, 65535
423	0654  34A5FFFF             ori $5, $5, 65535
424	0658  00A52824             and $5, $5, $5
425	065C  AC250158             sw $5, 344($1)
426	0660  00842027             nor $4, $4, $4
427	0664  AC24015C             sw $4, 348($1)
428	0668  3C04FFFF             lui $4, 65535
429	066C  3484FFFF             ori $4, $4, 65535
430	0670  00842024             and $4, $4, $4
431	0674  AC240160             sw $4, 352($1)
432	0678  00631827             nor $3, $3, $3
433	067C  AC230164             sw $3, 356($1)
434	0680  3C03FFFF             lui $3, 65535
435	0684  3463FFFF             ori $3, $3, 65535
436	0688  00631824             and $3, $3, $3
437	068C  AC230168             sw $3, 360($1)
438	0690  00421027             nor $2, $2, $2
439	0694  AC22016C             sw $2, 364($1)
440	0698  3C02FFFF             lui $2, 65535
441	069C  3442FFFF             ori $2, $2, 65535
442	06A0  00421024             and $2, $2, $2
443	06A4  AC220170             sw $2, 368($1)
444	                          
445	06A8  00201024             and $2, $1, $0
446	06AC  3C01FFFF             lui $1, 65535
447	06B0  3421FFFF             ori $1, $1, 65535
448	06B4  3C1FFFFF             lui $31, 65535
449	06B8  37FFFFFF             ori $31, $31, 65535
450	                          
451	06BC  00210824             and $1, $1, $1
452	06C0  AC4102E8             sw $1, 744($2)
453	06C4  3C010000             lui $1, 0
454	06C8  34210000             ori $1, $1, 0
455	06CC  03FFF824             and $31, $31, $31
456	06D0  AC5F02EC             sw $31, 748($2)
457	06D4  3C1F0000             lui $31, 0
458	06D8  37FF0000             ori $31, $31, 0
459	                          
460	06DC  03FFF827             nor $31, $31, $31
461	06E0  AC5F02F0             sw $31, 752($2)
462	06E4  3C1FFFFF             lui $31, 65535
463	06E8  37FFFFFF             ori $31, $31, 65535
464	06EC  03FFF824             and $31, $31, $31
465	06F0  AC5F02F4             sw $31, 756($2)
466	06F4  00210827             nor $1, $1, $1
467	06F8  AC4102F8             sw $1, 760($2)
468	06FC  3C01FFFF             lui $1, 65535
469	0700  3421FFFF             ori $1, $1, 65535
470	0704  00210824             and $1, $1, $1
471	0708  AC4102FE             sw $1, 766($2)
472	                          
473	070C  00400824             and $1, $2, $0
474	                          
475	                          ;.............special register mirror.............;
476	0710  3C000000             lui $0, 0
477	0714  34000000             ori $0, $0, 0
478	0718  3C020000             lui $2, 0
479	071C  34420000             ori $2, $2, 0
480	0720  3C030000             lui $3, 0
481	0724  34630000             ori $3, $3, 0
482	0728  3C040000             lui $4, 0
483	072C  34840000             ori $4, $4, 0
484	0730  3C050000             lui $5, 0
485	0734  34A50000             ori $5, $5, 0
486	0738  3C060000             lui $6, 0
487	073C  34C60000             ori $6, $6, 0
488	0740  3C070000             lui $7, 0
489	0744  34E70000             ori $7, $7, 0
490	0748  3C080000             lui $8, 0
491	074C  35080000             ori $8, $8, 0
492	0750  3C090000             lui $9, 0
493	0754  35290000             ori $9, $9, 0
494	0758  3C0A0000             lui $10, 0
495	075C  354A0000             ori $10, $10, 0
496	0760  3C0B0000             lui $11, 0
497	0764  356B0000             ori $11, $11, 0
498	0768  3C0C0000             lui $12, 0
499	076C  358C0000             ori $12, $12, 0
500	0770  3C0D0000             lui $13, 0
501	0774  35AD0000             ori $13, $13, 0
502	0778  3C0E0000             lui $14, 0
503	077C  35CE0000             ori $14, $14, 0
504	0780  3C0F0000             lui $15, 0
505	0784  35EF0000             ori $15, $15, 0
506	0788  3C100000             lui $16, 0
507	078C  36100000             ori $16, $16, 0
508	0790  3C110000             lui $17, 0
509	0794  36310000             ori $17, $17, 0
510	0798  3C120000             lui $18, 0
511	079C  36520000             ori $18, $18, 0
512	07A0  3C130000             lui $19, 0
513	07A4  36730000             ori $19, $19, 0
514	07A8  3C140000             lui $20, 0
515	07AC  36940000             ori $20, $20, 0
516	07B0  3C150000             lui $21, 0
517	07B4  36B50000             ori $21, $21, 0
518	07B8  3C160000             lui $22, 0
519	07BC  36D60000             ori $22, $22, 0
520	07C0  3C170000             lui $23, 0
521	07C4  36F70000             ori $23, $23, 0
522	07C8  3C180000             lui $24, 0
523	07CC  37180000             ori $24, $24, 0
524	07D0  3C190000             lui $25, 0
525	07D4  37390000             ori $25, $25, 0
526	07D8  3C1A0000             lui $26, 0
527	07DC  375A0000             ori $26, $26, 0
528	07E0  3C1B0000             lui $27, 0
529	07E4  377B0000             ori $27, $27, 0
530	07E8  3C1C0000             lui $28, 0
531	07EC  379C0000             ori $28, $28, 0
532	07F0  3C1D0000             lui $29, 0
533	07F4  37BD0000             ori $29, $29, 0
534	07F8  3C1E0000             lui $30, 0
535	07FC  37DE0000             ori $30, $30, 0
536	0800  3C1F0000             lui $31, 0
537	0804  37FF0000             ori $31, $31, 0
538	                          
539	0808  00000027             nor $0, $0, $0
540	080C  AC200174             sw $0, 372($1)
541	0810  3C00FFFF             lui $0, 65535
542	0814  3400FFFF             ori $0, $0, 65535
543	0818  00421027             nor $2, $2, $2
544	081C  AC220178             sw $2, 376($1)
545	0820  3C02FFFF             lui $2, 65535
546	0824  3442FFFF             ori $2, $2, 65535
547	0828  00631827             nor $3, $3, $3
548	082C  AC23017C             sw $3, 380($1)
549	0830  3C03FFFF             lui $3, 65535
550	0834  3463FFFF             ori $3, $3, 65535
551	0838  00842027             nor $4, $4, $4
552	083C  AC240180             sw $4, 384($1)
553	0840  3C04FFFF             lui $4, 65535
554	0844  3484FFFF             ori $4, $4, 65535
555	0848  00A52827             nor $5, $5, $5
556	084C  AC250184             sw $5, 388($1)
557	0850  3C05FFFF             lui $5, 65535
558	0854  34A5FFFF             ori $5, $5, 65535
559	0858  00C63027             nor $6, $6, $6
560	085C  AC260188             sw $6, 392($1)
561	0860  3C06FFFF             lui $6, 65535
562	0864  34C6FFFF             ori $6, $6, 65535
563	0868  00E73827             nor $7, $7, $7
564	086C  AC27018C             sw $7, 396($1)
565	0870  3C07FFFF             lui $7, 65535
566	0874  34E7FFFF             ori $7, $7, 65535
567	0878  01084027             nor $8, $8, $8
568	087C  AC280190             sw $8, 400($1)
569	0880  3C08FFFF             lui $8, 65535
570	0884  3508FFFF             ori $8, $8, 65535
571	0888  01294827             nor $9, $9, $9
572	088C  AC290194             sw $9, 404($1)
573	0890  3C09FFFF             lui $9, 65535
574	0894  3529FFFF             ori $9, $9, 65535
575	0898  014A5027             nor $10, $10, $10
576	089C  AC2A0198             sw $10, 408($1)
577	08A0  3C0AFFFF             lui $10, 65535
578	08A4  354AFFFF             ori $10, $10, 65535
579	08A8  016B5827             nor $11, $11, $11
580	08AC  AC2B019C             sw $11, 412($1)
581	08B0  3C0BFFFF             lui $11, 65535
582	08B4  356BFFFF             ori $11, $11, 65535
583	08B8  018C6027             nor $12, $12, $12
584	08BC  AC2C01A0             sw $12, 416($1)
585	08C0  3C0CFFFF             lui $12, 65535
586	08C4  358CFFFF             ori $12, $12, 65535
587	08C8  01AD6827             nor $13, $13, $13
588	08CC  AC2D01A4             sw $13, 420($1)
589	08D0  3C0DFFFF             lui $13, 65535
590	08D4  35ADFFFF             ori $13, $13, 65535
591	08D8  01CE7027             nor $14, $14, $14
592	08DC  AC2E01A8             sw $14, 424($1)
593	08E0  3C0EFFFF             lui $14, 65535
594	08E4  35CEFFFF             ori $14, $14, 65535
595	08E8  01EF7827             nor $15, $15, $15
596	08EC  AC2F01AC             sw $15, 428($1)
597	08F0  3C0FFFFF             lui $15, 65535
598	08F4  35EFFFFF             ori $15, $15, 65535
599	08F8  02108027             nor $16, $16, $16
600	08FC  AC3001B0             sw $16, 432($1)
601	0900  3C10FFFF             lui $16, 65535
602	0904  3610FFFF             ori $16, $16, 65535
603	0908  02318827             nor $17, $17, $17
604	090C  AC3101B4             sw $17, 436($1)
605	0910  3C11FFFF             lui $17, 65535
606	0914  3631FFFF             ori $17, $17, 65535
607	0918  02529027             nor $18, $18, $18
608	091C  AC3201B8             sw $18, 440($1)
609	0920  3C12FFFF             lui $18, 65535
610	0924  3652FFFF             ori $18, $18, 65535
611	0928  02739827             nor $19, $19, $19
612	092C  AC3301BC             sw $19, 444($1)
613	0930  3C13FFFF             lui $19, 65535
614	0934  3673FFFF             ori $19, $19, 65535
615	0938  0294A027             nor $20, $20, $20
616	093C  AC3401C0             sw $20, 448($1)
617	0940  3C14FFFF             lui $20, 65535
618	0944  3694FFFF             ori $20, $20, 65535
619	0948  02B5A827             nor $21, $21, $21
620	094C  AC3501C4             sw $21, 452($1)
621	0950  3C15FFFF             lui $21, 65535
622	0954  36B5FFFF             ori $21, $21, 65535
623	0958  02D6B027             nor $22, $22, $22
624	095C  AC3601C8             sw $22, 456($1)
625	0960  3C16FFFF             lui $22, 65535
626	0964  36D6FFFF             ori $22, $22, 65535
627	0968  02F7B827             nor $23, $23, $23
628	096C  AC3701CC             sw $23, 460($1)
629	0970  3C17FFFF             lui $23, 65535
630	0974  36F7FFFF             ori $23, $23, 65535
631	0978  0318C027             nor $24, $24, $24
632	097C  AC3801D0             sw $24, 464($1)
633	0980  3C18FFFF             lui $24, 65535
634	0984  3718FFFF             ori $24, $24, 65535
635	0988  0339C827             nor $25, $25, $25
636	098C  AC3901D4             sw $25, 468($1)
637	0990  3C19FFFF             lui $25, 65535
638	0994  3739FFFF             ori $25, $25, 65535
639	0998  035AD027             nor $26, $26, $26
640	099C  AC3A01D8             sw $26, 472($1)
641	09A0  3C1AFFFF             lui $26, 65535
642	09A4  375AFFFF             ori $26, $26, 65535
643	09A8  037BD827             nor $27, $27, $27
644	09AC  AC3B01DC             sw $27, 476($1)
645	09B0  3C1BFFFF             lui $27, 65535
646	09B4  377BFFFF             ori $27, $27, 65535
647	09B8  039CE027             nor $28, $28, $28
648	09BC  AC3C01E0             sw $28, 480($1)
649	09C0  3C1CFFFF             lui $28, 65535
650	09C4  379CFFFF             ori $28, $28, 65535
651	09C8  03BDE827             nor $29, $29, $29
652	09CC  AC3D01E4             sw $29, 484($1)
653	09D0  3C1DFFFF             lui $29, 65535
654	09D4  37BDFFFF             ori $29, $29, 65535
655	09D8  03DEF027             nor $30, $30, $30
656	09DC  AC3E01E8             sw $30, 488($1)
657	09E0  3C1EFFFF             lui $30, 65535
658	09E4  37DEFFFF             ori $30, $30, 65535
659	09E8  03FFF827             nor $31, $31, $31
660	09EC  AC3F01EC             sw $31, 492($1)
661	09F0  3C1FFFFF             lui $31, 65535
662	09F4  37FFFFFF             ori $31, $31, 65535
663	                          
664	09F8  00000024             and $0, $0, $0
665	09FC  AC2001F0             sw $0, 496($1)
666	0A00  3C000000             lui $0, 0
667	0A04  34000000             ori $0, $0, 0
668	0A08  00000024             and $0, $0, $0
669	0A0C  AC2001F4             sw $0, 500($1)
670	0A10  03FFF824             and $31, $31, $31
671	0A14  AC3F01F8             sw $31, 504($1)
672	0A18  3C1F0000             lui $31, 0
673	0A1C  37FF0000             ori $31, $31, 0
674	0A20  03FFF824             and $31, $31, $31
675	0A24  AC3F01FC             sw $31, 508($1)
676	0A28  03DEF024             and $30, $30, $30
677	0A2C  AC3E0200             sw $30, 512($1)
678	0A30  3C1E0000             lui $30, 0
679	0A34  37DE0000             ori $30, $30, 0
680	0A38  03DEF024             and $30, $30, $30
681	0A3C  AC3E0204             sw $30, 516($1)
682	0A40  03BDE824             and $29, $29, $29
683	0A44  AC3D0208             sw $29, 520($1)
684	0A48  3C1D0000             lui $29, 0
685	0A4C  37BD0000             ori $29, $29, 0
686	0A50  03BDE824             and $29, $29, $29
687	0A54  AC3D020C             sw $29, 524($1)
688	0A58  039CE024             and $28, $28, $28
689	0A5C  AC3C0210             sw $28, 528($1)
690	0A60  3C1C0000             lui $28, 0
691	0A64  379C0000             ori $28, $28, 0
692	0A68  039CE024             and $28, $28, $28
693	0A6C  AC3C0214             sw $28, 532($1)
694	0A70  037BD824             and $27, $27, $27
695	0A74  AC3B0218             sw $27, 536($1)
696	0A78  3C1B0000             lui $27, 0
697	0A7C  377B0000             ori $27, $27, 0
698	0A80  037BD824             and $27, $27, $27
699	0A84  AC3B021C             sw $27, 540($1)
700	0A88  035AD024             and $26, $26, $26
701	0A8C  AC3A0220             sw $26, 544($1)
702	0A90  3C1A0000             lui $26, 0
703	0A94  375A0000             ori $26, $26, 0
704	0A98  035AD024             and $26, $26, $26
705	0A9C  AC3A0224             sw $26, 548($1)
706	0AA0  0339C824             and $25, $25, $25
707	0AA4  AC390228             sw $25, 552($1)
708	0AA8  3C190000             lui $25, 0
709	0AAC  37390000             ori $25, $25, 0
710	0AB0  0339C824             and $25, $25, $25
711	0AB4  AC39022C             sw $25, 556($1)
712	0AB8  0318C024             and $24, $24, $24
713	0ABC  AC380230             sw $24, 560($1)
714	0AC0  3C180000             lui $24, 0
715	0AC4  37180000             ori $24, $24, 0
716	0AC8  0318C024             and $24, $24, $24
717	0ACC  AC380234             sw $24, 564($1)
718	0AD0  02F7B824             and $23, $23, $23
719	0AD4  AC370238             sw $23, 568($1)
720	0AD8  3C170000             lui $23, 0
721	0ADC  36F70000             ori $23, $23, 0
722	0AE0  02F7B824             and $23, $23, $23
723	0AE4  AC37023C             sw $23, 572($1)
724	0AE8  02D6B024             and $22, $22, $22
725	0AEC  AC360240             sw $22, 576($1)
726	0AF0  3C160000             lui $22, 0
727	0AF4  36D60000             ori $22, $22, 0
728	0AF8  02D6B024             and $22, $22, $22
729	0AFC  AC360244             sw $22, 580($1)
730	0B00  02B5A824             and $21, $21, $21
731	0B04  AC350248             sw $21, 584($1)
732	0B08  3C150000             lui $21, 0
733	0B0C  36B50000             ori $21, $21, 0
734	0B10  02B5A824             and $21, $21, $21
735	0B14  AC35024C             sw $21, 588($1)
736	0B18  0294A024             and $20, $20, $20
737	0B1C  AC340250             sw $20, 592($1)
738	0B20  3C140000             lui $20, 0
739	0B24  36940000             ori $20, $20, 0
740	0B28  0294A024             and $20, $20, $20
741	0B2C  AC340254             sw $20, 596($1)
742	0B30  02739824             and $19, $19, $19
743	0B34  AC330258             sw $19, 600($1)
744	0B38  3C130000             lui $19, 0
745	0B3C  36730000             ori $19, $19, 0
746	0B40  02739824             and $19, $19, $19
747	0B44  AC33025C             sw $19, 604($1)
748	0B48  02529024             and $18, $18, $18
749	0B4C  AC320260             sw $18, 608($1)
750	0B50  3C120000             lui $18, 0
751	0B54  36520000             ori $18, $18, 0
752	0B58  02529024             and $18, $18, $18
753	0B5C  AC320264             sw $18, 612($1)
754	0B60  02318824             and $17, $17, $17
755	0B64  AC310268             sw $17, 616($1)
756	0B68  3C110000             lui $17, 0
757	0B6C  36310000             ori $17, $17, 0
758	0B70  02318824             and $17, $17, $17
759	0B74  AC31026C             sw $17, 620($1)
760	0B78  02108024             and $16, $16, $16
761	0B7C  AC300270             sw $16, 624($1)
762	0B80  3C100000             lui $16, 0
763	0B84  36100000             ori $16, $16, 0
764	0B88  02108024             and $16, $16, $16
765	0B8C  AC300274             sw $16, 628($1)
766	0B90  01EF7824             and $15, $15, $15
767	0B94  AC2F0278             sw $15, 632($1)
768	0B98  3C0F0000             lui $15, 0
769	0B9C  35EF0000             ori $15, $15, 0
770	0BA0  01EF7824             and $15, $15, $15
771	0BA4  AC2F027C             sw $15, 636($1)
772	0BA8  01CE7024             and $14, $14, $14
773	0BAC  AC2E0280             sw $14, 640($1)
774	0BB0  3C0E0000             lui $14, 0
775	0BB4  35CE0000             ori $14, $14, 0
776	0BB8  01CE7024             and $14, $14, $14
777	0BBC  AC2E0284             sw $14, 644($1)
778	0BC0  01AD6824             and $13, $13, $13
779	0BC4  AC2D0288             sw $13, 648($1)
780	0BC8  3C0D0000             lui $13, 0
781	0BCC  35AD0000             ori $13, $13, 0
782	0BD0  01AD6824             and $13, $13, $13
783	0BD4  AC2D028C             sw $13, 652($1)
784	0BD8  018C6024             and $12, $12, $12
785	0BDC  AC2C0290             sw $12, 656($1)
786	0BE0  3C0C0000             lui $12, 0
787	0BE4  358C0000             ori $12, $12, 0
788	0BE8  018C6024             and $12, $12, $12
789	0BEC  AC2C0294             sw $12, 660($1)
790	0BF0  016B5824             and $11, $11, $11
791	0BF4  AC2B0298             sw $11, 664($1)
792	0BF8  3C0B0000             lui $11, 0
793	0BFC  356B0000             ori $11, $11, 0
794	0C00  016B5824             and $11, $11, $11
795	0C04  AC2B029C             sw $11, 668($1)
796	0C08  014A5024             and $10, $10, $10
797	0C0C  AC2A02A0             sw $10, 672($1)
798	0C10  3C0A0000             lui $10, 0
799	0C14  354A0000             ori $10, $10, 0
800	0C18  014A5024             and $10, $10, $10
801	0C1C  AC2A02A4             sw $10, 676($1)
802	0C20  01294824             and $9, $9, $9
803	0C24  AC2902A8             sw $9, 680($1)
804	0C28  3C090000             lui $9, 0
805	0C2C  35290000             ori $9, $9, 0
806	0C30  01294824             and $9, $9, $9
807	0C34  AC2902AC             sw $9, 684($1)
808	0C38  01084024             and $8, $8, $8
809	0C3C  AC2802B0             sw $8, 688($1)
810	0C40  3C080000             lui $8, 0
811	0C44  35080000             ori $8, $8, 0
812	0C48  01084024             and $8, $8, $8
813	0C4C  AC2802B4             sw $8, 692($1)
814	0C50  00E73824             and $7, $7, $7
815	0C54  AC2702B8             sw $7, 696($1)
816	0C58  3C070000             lui $7, 0
817	0C5C  34E70000             ori $7, $7, 0
818	0C60  00E73824             and $7, $7, $7
819	0C64  AC2702BC             sw $7, 700($1)
820	0C68  00C63024             and $6, $6, $6
821	0C6C  AC2602C0             sw $6, 704($1)
822	0C70  3C060000             lui $6, 0
823	0C74  34C60000             ori $6, $6, 0
824	0C78  00C63024             and $6, $6, $6
825	0C7C  AC2602C4             sw $6, 708($1)
826	0C80  00A52824             and $5, $5, $5
827	0C84  AC2502C8             sw $5, 712($1)
828	0C88  3C050000             lui $5, 0
829	0C8C  34A50000             ori $5, $5, 0
830	0C90  00A52824             and $5, $5, $5
831	0C94  AC2502CC             sw $5, 716($1)
832	0C98  00842024             and $4, $4, $4
833	0C9C  AC2402D0             sw $4, 720($1)
834	0CA0  3C040000             lui $4, 0
835	0CA4  34840000             ori $4, $4, 0
836	0CA8  00842024             and $4, $4, $4
837	0CAC  AC2402D4             sw $4, 724($1)
838	0CB0  00631824             and $3, $3, $3
839	0CB4  AC2302D8             sw $3, 728($1)
840	0CB8  3C030000             lui $3, 0
841	0CBC  34630000             ori $3, $3, 0
842	0CC0  00631824             and $3, $3, $3
843	0CC4  AC2302DC             sw $3, 732($1)
844	0CC8  00421024             and $2, $2, $2
845	0CCC  AC2202E0             sw $2, 736($1)
846	0CD0  3C020000             lui $2, 0
847	0CD4  34420000             ori $2, $2, 0
848	0CD8  00421024             and $2, $2, $2
849	0CDC  AC2202E4             sw $2, 740($1)
850	                          
851	0CE0  00201024             and $2, $1, $0
852	                          
853	0CE4  3C010000             lui $1, 0
854	0CE8  34210000             ori $1, $1, 0
855	0CEC  3C1F0000             lui $31, 0
856	0CF0  37FF0000             ori $31, $31, 0
857	                          
858	0CF4  00210827             nor $1, $1, $1
859	0CF8  AC410302             sw $1, 770($2)
860	0CFC  3C01FFFF             lui $1, 65535
861	0D00  3421FFFF             ori $1, $1, 65535
862	0D04  03FFF827             nor $31, $31, $31
863	0D08  AC5F0306             sw $31, 774($2)
864	0D0C  3C1FFFFF             lui $31, 65535
865	0D10  37FFFFFF             ori $31, $31, 65535
866	                          
867	0D14  03FFF824             and $31, $31, $31
868	0D18  AC5F030A             sw $31, 778($2)
869	0D1C  3C1F0000             lui $31, 0
870	0D20  37FF0000             ori $31, $31, 0
871	0D24  03FFF824             and $31, $31, $31
872	0D28  AC5F030E             sw $31, 782($2)
873	0D2C  00210824             and $1, $1, $1
874	0D30  AC410312             sw $1, 786($2)
875	0D34  3C010000             lui $1, 0
876	0D38  34210000             ori $1, $1, 0
877	0D3C  00210824             and $1, $1, $1
878	0D40  AC410316             sw $1, 790($2)
879	                          
880	                          ;..........pipeline test..........;
881	0D44  3C1D0001            lui $29, 1
882	0D48  37BD1388            ori $29, $29, 5000
883	                          
884	                          pipeline_operation:
885	                          ;.............pipeline test_alu.............;
886	0D4C  3C010000             lui $1, 0
887	0D50  34210000             ori $1, $1, 0
888	0D54  3C1FFFFF             lui $31, 65535
889	0D58  37FFFFFF             ori $31, $31, 65535
890	0D5C  00000000             sll $0, $0, 0
891	0D60  00000000             sll $0, $0, 0
892	0D64  03FF0824             and $1, $31, $31
893	0D68  003F1024             and $2, $1, $31
894	0D6C  00000000             sll $0, $0, 0
895	0D70  AFA20000             sw $2, 0($29)
896	                          
897	0D74  3C01FFFF             lui $1, 65535
898	0D78  3421FFFF             ori $1, $1, 65535
899	0D7C  3C1F0000             lui $31, 0
900	0D80  37FF0000             ori $31, $31, 0
901	0D84  00000000             sll $0, $0, 0
902	0D88  00000000             sll $0, $0, 0
903	0D8C  03FF0824             and $1, $31, $31
904	0D90  003F1024             and $2, $1, $31
905	0D94  00000000             sll $0, $0, 0
906	0D98  AFA20004             sw $2, 4($29)
907	                          
908	0D9C  3C010000             lui $1, 0
909	0DA0  34210000             ori $1, $1, 0
910	0DA4  3C1FFFFF             lui $31, 65535
911	0DA8  37FFFFFF             ori $31, $31, 65535
912	0DAC  00000000             sll $0, $0, 0
913	0DB0  00000000             sll $0, $0, 0
914	0DB4  03FF0824             and $1, $31, $31
915	0DB8  03E11024             and $2, $31, $1
916	0DBC  00000000             sll $0, $0, 0
917	0DC0  AFA20008             sw $2, 8($29)
918	                          
919	0DC4  3C01FFFF             lui $1, 65535
920	0DC8  3421FFFF             ori $1, $1, 65535
921	0DCC  3C1F0000             lui $31, 0
922	0DD0  37FF0000             ori $31, $31, 0
923	0DD4  00000000             sll $0, $0, 0
924	0DD8  00000000             sll $0, $0, 0
925	0DDC  03FF0824             and $1, $31, $31
926	0DE0  03E11024             and $2, $31, $1
927	0DE4  00000000             sll $0, $0, 0
928	0DE8  AFA2000C             sw $2, 12($29)
929	                          
930	0DEC  3C010000             lui $1, 0
931	0DF0  34210000             ori $1, $1, 0
932	0DF4  3C1FFFFF             lui $31, 65535
933	0DF8  37FFFFFF             ori $31, $31, 65535
934	0DFC  00000000             sll $0, $0, 0
935	0E00  03FF0824             and $1, $31, $31
936	0E04  003F0824             and $1, $1, $31
937	0E08  003F1024             and $2, $1, $31
938	0E0C  00000000             sll $0, $0, 0
939	0E10  AFA20010             sw $2, 16($29)
940	                          
941	0E14  3C01FFFF             lui $1, 65535
942	0E18  3421FFFF             ori $1, $1, 65535
943	0E1C  3C1F0000             lui $31, 0
944	0E20  37FF0000             ori $31, $31, 0
945	0E24  00000000             sll $0, $0, 0
946	0E28  03FF0824             and $1, $31, $31
947	0E2C  003F0824             and $1, $1, $31
948	0E30  003F1024             and $2, $1, $31
949	0E34  00000000             sll $0, $0, 0
950	0E38  AFA20014             sw $2, 20($29)
951	                          
952	0E3C  3C010000             lui $1, 0
953	0E40  34210000             ori $1, $1, 0
954	0E44  3C1FFFFF             lui $31, 65535
955	0E48  37FFFFFF             ori $31, $31, 65535
956	0E4C  00000000             sll $0, $0, 0
957	0E50  00000000             sll $0, $0, 0
958	0E54  0021F824             and $31, $1, $1
959	0E58  03E11024             and $2, $31, $1
960	0E5C  00000000             sll $0, $0, 0
961	0E60  AFA20018             sw $2, 24($29)
962	                          
963	0E64  3C01FFFF             lui $1, 65535
964	0E68  3421FFFF             ori $1, $1, 65535
965	0E6C  3C1F0000             lui $31, 0
966	0E70  37FF0000             ori $31, $31, 0
967	0E74  00000000             sll $0, $0, 0
968	0E78  00000000             sll $0, $0, 0
969	0E7C  0021F824             and $31, $1, $1
970	0E80  03E11024             and $2, $31, $1
971	0E84  00000000             sll $0, $0, 0
972	0E88  AFA2001C             sw $2, 28($29)
973	                          
974	0E8C  3C010000             lui $1, 0
975	0E90  34210000             ori $1, $1, 0
976	0E94  3C1FFFFF             lui $31, 65535
977	0E98  37FFFFFF             ori $31, $31, 65535
978	0E9C  00000000             sll $0, $0, 0
979	0EA0  00000000             sll $0, $0, 0
980	0EA4  0021F824             and $31, $1, $1
981	0EA8  003F1024             and $2, $1, $31
982	0EAC  00000000             sll $0, $0, 0
983	0EB0  AFA20020             sw $2, 32($29)
984	                          
985	0EB4  3C01FFFF             lui $1, 65535
986	0EB8  3421FFFF             ori $1, $1, 65535
987	0EBC  3C1F0000             lui $31, 0
988	0EC0  37FF0000             ori $31, $31, 0
989	0EC4  00000000             sll $0, $0, 0
990	0EC8  00000000             sll $0, $0, 0
991	0ECC  0021F824             and $31, $1, $1
992	0ED0  003F1024             and $2, $1, $31
993	0ED4  00000000             sll $0, $0, 0
994	0ED8  AFA20024             sw $2, 36($29)
995	                          
996	0EDC  3C010000             lui $1, 0
997	0EE0  34210000             ori $1, $1, 0
998	0EE4  3C1FFFFF             lui $31, 65535
999	0EE8  37FFFFFF             ori $31, $31, 65535
1000	0EEC  00000000             sll $0, $0, 0
1001	0EF0  0021F824             and $31, $1, $1
1002	0EF4  03E1F824             and $31, $31, $1
1003	0EF8  03E11024             and $2, $31, $1
1004	0EFC  00000000             sll $0, $0, 0
1005	0F00  AFA20028             sw $2, 40($29)
1006	                          
1007	0F04  3C01FFFF             lui $1, 65535
1008	0F08  3421FFFF             ori $1, $1, 65535
1009	0F0C  3C1F0000             lui $31, 0
1010	0F10  37FF0000             ori $31, $31, 0
1011	0F14  00000000             sll $0, $0, 0
1012	0F18  0021F824             and $31, $1, $1
1013	0F1C  03E1F824             and $31, $31, $1
1014	0F20  03E11024             and $2, $31, $1
1015	0F24  00000000             sll $0, $0, 0
1016	0F28  AFA2002C             sw $2, 44($29)
1017	                          
1018	                          ;.............pipeline test_load_alu.............;
1019	0F2C  3C01FFFF             lui $1, 65535
1020	0F30  3421FFFF             ori $1, $1, 65535
1021	0F34  AFA10030             sw $1, 48($29)
1022	0F38  00000000             sll $0, $0, 0
1023	0F3C  3C010000             lui $1, 0
1024	0F40  34210000             ori $1, $1, 0
1025	0F44  3C1FFFFF             lui $31, 65535
1026	0F48  37FFFFFF             ori $31, $31, 65535
1027	0F4C  8FA10030             lw $1, 48($29)
1028	0F50  00000000             sll $0, $0, 0
1029	0F54  003F1024             and $2, $1, $31
1030	0F58  AFA20034             sw $2, 52($29)
1031	                          
1032	0F5C  3C010000             lui $1, 0
1033	0F60  34210000             ori $1, $1, 0
1034	0F64  AFA10038             sw $1, 56($29)
1035	0F68  00000000             sll $0, $0, 0
1036	0F6C  3C01FFFF             lui $1, 65535
1037	0F70  3421FFFF             ori $1, $1, 65535
1038	0F74  3C1FFFFF             lui $31, 65535
1039	0F78  37FFFFFF             ori $31, $31, 65535
1040	0F7C  8FA10038             lw $1, 56($29)
1041	0F80  00000000             sll $0, $0, 0
1042	0F84  003F1024             and $2, $1, $31
1043	0F88  AFA2003C             sw $2, 60($29)
1044	                          
1045	0F8C  3C01FFFF             lui $1, 65535
1046	0F90  3421FFFF             ori $1, $1, 65535
1047	0F94  AFA10040             sw $1, 64($29)
1048	0F98  00000000             sll $0, $0, 0
1049	0F9C  3C010000             lui $1, 0
1050	0FA0  34210000             ori $1, $1, 0
1051	0FA4  3C1FFFFF             lui $31, 65535
1052	0FA8  37FFFFFF             ori $31, $31, 65535
1053	0FAC  8FA10040             lw $1, 64($29)
1054	0FB0  00000000             sll $0, $0, 0
1055	0FB4  03E11024             and $2, $31, $1
1056	0FB8  AFA20044             sw $2, 68($29)
1057	                          
1058	0FBC  3C010000             lui $1, 0
1059	0FC0  34210000             ori $1, $1, 0
1060	0FC4  AFA10048             sw $1, 72($29)
1061	0FC8  00000000             sll $0, $0, 0
1062	0FCC  3C01FFFF             lui $1, 65535
1063	0FD0  3421FFFF             ori $1, $1, 65535
1064	0FD4  3C1FFFFF             lui $31, 65535
1065	0FD8  37FFFFFF             ori $31, $31, 65535
1066	0FDC  8FA10048             lw $1, 72($29)
1067	0FE0  00000000             sll $0, $0, 0
1068	0FE4  03E11024             and $2, $31, $1
1069	0FE8  AFA2004C             sw $2, 76($29)
1070	                          
1071	                          ;.............pipeline test_store_load_data.............;
1072	0FEC  3C010000             lui $1, 0
1073	0FF0  34210000             ori $1, $1, 0
1074	0FF4  3C1FFFFF             lui $31, 65535
1075	0FF8  37FFFFFF             ori $31, $31, 65535
1076	0FFC  AFA10050             sw $1, 80($29)
1077	1000  00000000             sll $0, $0, 0
1078	1004  AFBF0050             sw $31, 80($29)
1079	1008  8FBF0050             lw $31, 80($29)
1080	100C  00000000             sll $0, $0, 0
1081	1010  00000000             sll $0, $0, 0
1082	1014  00000000             sll $0, $0, 0
1083	1018  AFBF0054             sw $31, 84($29)
1084	                          
1085	                          ;.............pipeline test_load_store_data.............;
1086	101C  3C01FFFF             lui $1, 65535
1087	1020  3421FFFF             ori $1, $1, 65535
1088	1024  AFA10058             sw $1, 88($29)
1089	1028  3C010000             lui $1, 0
1090	102C  34210000             ori $1, $1, 0
1091	1030  8FA10058             lw $1, 88($29)
1092	1034  00000000             sll $0, $0, 0
1093	1038  AFA1005C             sw $1, 92($29)
1094	                          
1095	                          ;.............pipeline control hazard.............;
1096	103C  3C010000             lui $1, 0
1097	1040  34210000             ori $1, $1, 0
1098	1044  3C1EFFFF             lui $30, 65535
1099	1048  37DEFFFF             ori $30, $30, 65535
1100	104C  003E9024             and $18, $1, $30
1101	1050  17C10001             bne $30, $1, continue
1102	                          continue:
1103	1054  AFB20060            sw $18, 96($29)
1104	                          
1105	                          ;.............pipeline addressing hazard store.............;
1106	1058  3C010000             lui $1, 0
1107	105C  34210000             ori $1, $1, 0
1108	1060  003D0821             addu $1, $1, $29
1109	1064  AC210064             sw $1, 100($1)
1110	1068  3C1FFFFF             lui $31, 65535
1111	106C  37FFFFFF             ori $31, $31, 65535
1112	1070  8C3F0064             lw $31, 100($1)
1113	1074  AFFF0064             sw $31, 100($31)
1114	                          
1115	                          ;.............comparator test.............;
1116	1078  3C000000             lui $0, 0
1117	107C  34000000             ori $0, $0, 0
1118	1080  3C1FFFFF             lui $31, 65535
1119	1084  37FFFFFF             ori $31, $31, 65535
1120	1088  00000000             sll $0, $0, 0
1121	108C  03FF0024             and $0, $31, $31
1122	1090  001F1024             and $2, $0, $31
1123	1094  AFA20068             sw $2, 104($29)
1124	                          
1125	1098  3C1E0000             lui $30, 0
1126	109C  37DE0000             ori $30, $30, 0
1127	10A0  3C1FFFFF             lui $31, 65535
1128	10A4  37FFFFFF             ori $31, $31, 65535
1129	10A8  00000000             sll $0, $0, 0
1130	10AC  03FFF024             and $30, $31, $31
1131	10B0  03DF1024             and $2, $30, $31
1132	10B4  AFA2006C             sw $2, 108($29)
1133	                          
1134	10B8  3C000000             lui $0, 0
1135	10BC  34000000             ori $0, $0, 0
1136	10C0  3C1FFFFF             lui $31, 65535
1137	10C4  37FFFFFF             ori $31, $31, 65535
1138	10C8  00000000             sll $0, $0, 0
1139	10CC  03FF0024             and $0, $31, $31
1140	10D0  03E01024             and $2, $31, $0
1141	10D4  AFA20070             sw $2, 112($29)
1142	                          
1143	10D8  3C1E0000             lui $30, 0
1144	10DC  37DE0000             ori $30, $30, 0
1145	10E0  3C1FFFFF             lui $31, 65535
1146	10E4  37FFFFFF             ori $31, $31, 65535
1147	10E8  00000000             sll $0, $0, 0
1148	10EC  03FFF024             and $30, $31, $31
1149	10F0  03FE1024             and $2, $31, $30
1150	10F4  AFA20074             sw $2, 116($29)
1151	                          
1152	                          ;.............comparator contd (changing result address).............;
1153	10F8  3C140000             lui $20, 0
1154	10FC  36940000             ori $20, $20, 0
1155	1100  029DA021             addu $20, $20, $29 ;calculate next memory address
1156	                          
1157	1104  3C01FFFF             lui $1, 65535
1158	1108  3421FFFF             ori $1, $1, 65535
1159	110C  3C1F0000             lui $31, 0
1160	1110  37FF0000             ori $31, $31, 0
1161	1114  00000000             sll $0, $0, 0
1162	1118  0021F824             and $31, $1, $1
1163	111C  03E11024             and $2, $31, $1
1164	1120  AE820078             sw $2, 120($20)
1165	                          
1166	1124  3C01FFFF             lui $1, 65535
1167	1128  3421FFFF             ori $1, $1, 65535
1168	112C  3C1E0000             lui $30, 0
1169	1130  37DE0000             ori $30, $30, 0
1170	1134  00000000             sll $0, $0, 0
1171	1138  0021F824             and $31, $1, $1
1172	113C  03C11024             and $2, $30, $1
1173	1140  AE82007C             sw $2, 124($20)
1174	                          
1175	1144  3C01FFFF             lui $1, 65535
1176	1148  3421FFFF             ori $1, $1, 65535
1177	114C  3C1D0000             lui $29, 0
1178	1150  37BD0000             ori $29, $29, 0
1179	1154  00000000             sll $0, $0, 0
1180	1158  0021F824             and $31, $1, $1
1181	115C  03A11024             and $2, $29, $1
1182	1160  AE820080             sw $2, 128($20)
1183	                          
1184	1164  3C01FFFF             lui $1, 65535
1185	1168  3421FFFF             ori $1, $1, 65535
1186	116C  3C1B0000             lui $27, 0
1187	1170  377B0000             ori $27, $27, 0
1188	1174  00000000             sll $0, $0, 0
1189	1178  0021F824             and $31, $1, $1
1190	117C  03611024             and $2, $27, $1
1191	1180  AE820084             sw $2, 132($20)
1192	                          
1193	1184  3C01FFFF             lui $1, 65535
1194	1188  3421FFFF             ori $1, $1, 65535
1195	118C  3C170000             lui $23, 0
1196	1190  36F70000             ori $23, $23, 0
1197	1194  00000000             sll $0, $0, 0
1198	1198  0021F824             and $31, $1, $1
1199	119C  02E11024             and $2, $23, $1
1200	11A0  AE820088             sw $2, 136($20)
1201	                          
1202	11A4  3C01FFFF             lui $1, 65535
1203	11A8  3421FFFF             ori $1, $1, 65535
1204	11AC  3C0F0000             lui $15, 0
1205	11B0  35EF0000             ori $15, $15, 0
1206	11B4  00000000             sll $0, $0, 0
1207	11B8  0021F824             and $31, $1, $1
1208	11BC  01E11024             and $2, $15, $1
1209	11C0  AE82008C             sw $2, 140($20)
1210	                          
1211	11C4  3C01FFFF             lui $1, 65535
1212	11C8  3421FFFF             ori $1, $1, 65535
1213	11CC  3C1E0000             lui $30, 0
1214	11D0  37DE0000             ori $30, $30, 0
1215	11D4  00000000             sll $0, $0, 0
1216	11D8  0021F024             and $30, $1, $1
1217	11DC  03E11024             and $2, $31, $1
1218	11E0  AE820090             sw $2, 144($20)
1219	                          
1220	11E4  3C01FFFF             lui $1, 65535
1221	11E8  3421FFFF             ori $1, $1, 65535
1222	11EC  3C1D0000             lui $29, 0
1223	11F0  37BD0000             ori $29, $29, 0
1224	11F4  00000000             sll $0, $0, 0
1225	11F8  0021E824             and $29, $1, $1
1226	11FC  03E11024             and $2, $31, $1
1227	1200  AE820094             sw $2, 148($20)
1228	                          
1229	1204  3C01FFFF             lui $1, 65535
1230	1208  3421FFFF             ori $1, $1, 65535
1231	120C  3C1B0000             lui $27, 0
1232	1210  377B0000             ori $27, $27, 0
1233	1214  00000000             sll $0, $0, 0
1234	1218  0021D824             and $27, $1, $1
1235	121C  03E11024             and $2, $31, $1
1236	1220  AE820098             sw $2, 152($20)
1237	                          
1238	1224  3C01FFFF             lui $1, 65535
1239	1228  3421FFFF             ori $1, $1, 65535
1240	122C  3C170000             lui $23, 0
1241	1230  36F70000             ori $23, $23, 0
1242	1234  00000000             sll $0, $0, 0
1243	1238  0021B824             and $23, $1, $1
1244	123C  03E11024             and $2, $31, $1
1245	1240  AE82009C             sw $2, 156($20)
1246	                          
1247	1244  3C01FFFF             lui $1, 65535
1248	1248  3421FFFF             ori $1, $1, 65535
1249	124C  3C0F0000             lui $15, 0
1250	1250  35EF0000             ori $15, $15, 0
1251	1254  00000000             sll $0, $0, 0
1252	1258  00217824             and $15, $1, $1
1253	125C  03E11024             and $2, $31, $1
1254	1260  AE8200A0             sw $2, 160($20)
1255	                          
1256	1264  3C01FFFF             lui $1, 65535
1257	1268  3421FFFF             ori $1, $1, 65535
1258	126C  3C1F0000             lui $31, 0
1259	1270  37FF0000             ori $31, $31, 0
1260	1274  00000000             sll $0, $0, 0
1261	1278  0021F824             and $31, $1, $1
1262	127C  003F1024             and $2, $1, $31
1263	1280  AE8200A4             sw $2, 164($20)
1264	                          
1265	1284  3C01FFFF             lui $1, 65535
1266	1288  3421FFFF             ori $1, $1, 65535
1267	128C  3C1E0000             lui $30, 0
1268	1290  37DE0000             ori $30, $30, 0
1269	1294  00000000             sll $0, $0, 0
1270	1298  0021F824             and $31, $1, $1
1271	129C  003E1024             and $2, $1, $30
1272	12A0  AE8200A8             sw $2, 168($20)
1273	                          
1274	12A4  3C01FFFF             lui $1, 65535
1275	12A8  3421FFFF             ori $1, $1, 65535
1276	12AC  3C1D0000             lui $29, 0
1277	12B0  37BD0000             ori $29, $29, 0
1278	12B4  00000000             sll $0, $0, 0
1279	12B8  0021F824             and $31, $1, $1
1280	12BC  003D1024             and $2, $1, $29
1281	12C0  AE8200AC             sw $2, 172($20)
1282	                          
1283	12C4  3C01FFFF             lui $1, 65535
1284	12C8  3421FFFF             ori $1, $1, 65535
1285	12CC  3C1B0000             lui $27, 0
1286	12D0  377B0000             ori $27, $27, 0
1287	12D4  00000000             sll $0, $0, 0
1288	12D8  0021F824             and $31, $1, $1
1289	12DC  003B1024             and $2, $1, $27
1290	12E0  AE8200B0             sw $2, 176($20)
1291	                          
1292	12E4  3C01FFFF             lui $1, 65535
1293	12E8  3421FFFF             ori $1, $1, 65535
1294	12EC  3C170000             lui $23, 0
1295	12F0  36F70000             ori $23, $23, 0
1296	12F4  00000000             sll $0, $0, 0
1297	12F8  0021F824             and $31, $1, $1
1298	12FC  00371024             and $2, $1, $23
1299	1300  AE8200B4             sw $2, 180($20)
1300	                          
1301	1304  3C01FFFF             lui $1, 65535
1302	1308  3421FFFF             ori $1, $1, 65535
1303	130C  3C0F0000             lui $15, 0
1304	1310  35EF0000             ori $15, $15, 0
1305	1314  00000000             sll $0, $0, 0
1306	1318  0021F824             and $31, $1, $1
1307	131C  002F1024             and $2, $1, $15
1308	1320  AE8200B8             sw $2, 184($20)
1309	                          
1310	1324  3C01FFFF             lui $1, 65535
1311	1328  3421FFFF             ori $1, $1, 65535
1312	132C  3C1E0000             lui $30, 0
1313	1330  37DE0000             ori $30, $30, 0
1314	1334  00000000             sll $0, $0, 0
1315	1338  0021F024             and $30, $1, $1
1316	133C  003F1024             and $2, $1, $31
1317	1340  AE8200BC             sw $2, 188($20)
1318	                          
1319	1344  3C01FFFF             lui $1, 65535
1320	1348  3421FFFF             ori $1, $1, 65535
1321	134C  3C1D0000             lui $29, 0
1322	1350  37BD0000             ori $29, $29, 0
1323	1354  00000000             sll $0, $0, 0
1324	1358  0021E824             and $29, $1, $1
1325	135C  003F1024             and $2, $1, $31
1326	1360  AE8200C0             sw $2, 192($20)
1327	                          
1328	1364  3C01FFFF             lui $1, 65535
1329	1368  3421FFFF             ori $1, $1, 65535
1330	136C  3C1B0000             lui $27, 0
1331	1370  377B0000             ori $27, $27, 0
1332	1374  00000000             sll $0, $0, 0
1333	1378  0021D824             and $27, $1, $1
1334	137C  003F1024             and $2, $1, $31
1335	1380  AE8200C4             sw $2, 196($20)
1336	                          
1337	1384  3C01FFFF             lui $1, 65535
1338	1388  3421FFFF             ori $1, $1, 65535
1339	138C  3C170000             lui $23, 0
1340	1390  36F70000             ori $23, $23, 0
1341	1394  00000000             sll $0, $0, 0
1342	1398  0021B824             and $23, $1, $1
1343	139C  003F1024             and $2, $1, $31
1344	13A0  AE8200C8             sw $2, 200($20)
1345	                          
1346	13A4  3C01FFFF             lui $1, 65535
1347	13A8  3421FFFF             ori $1, $1, 65535
1348	13AC  3C0F0000             lui $15, 0
1349	13B0  35EF0000             ori $15, $15, 0
1350	13B4  00000000             sll $0, $0, 0
1351	13B8  00217824             and $15, $1, $1
1352	13BC  003F1024             and $2, $1, $31
1353	13C0  AE8200CC             sw $2, 204($20)
1354	                          
1355	                          ;.............comparator load_alu.............;
1356	13C4  3C000000             lui $0, 0
1357	13C8  34000000             ori $0, $0, 0
1358	13CC  3C01FFFF             lui $1, 65535
1359	13D0  3421FFFF             ori $1, $1, 65535
1360	13D4  00000000             sll $0, $0, 0
1361	13D8  8E8000CC             lw $0, 204($20)
1362	13DC  00000000             sll $0, $0, 0
1363	13E0  00011024             and $2, $0, $1
1364	13E4  AE8200D0             sw $2, 208($20)
1365	                          
1366	13E8  3C1E0000             lui $30, 0
1367	13EC  37DE0000             ori $30, $30, 0
1368	13F0  3C01FFFF             lui $1, 65535
1369	13F4  3421FFFF             ori $1, $1, 65535
1370	13F8  00000000             sll $0, $0, 0
1371	13FC  8E9E00CC             lw $30, 204($20)
1372	1400  00000000             sll $0, $0, 0
1373	1404  03C11024             and $2, $30, $1
1374	1408  AE8200D4             sw $2, 212($20)
1375	                          
1376	140C  3C000000             lui $0, 0
1377	1410  34000000             ori $0, $0, 0
1378	1414  3C01FFFF             lui $1, 65535
1379	1418  3421FFFF             ori $1, $1, 65535
1380	141C  00000000             sll $0, $0, 0
1381	1420  8E8000CC             lw $0, 204($20)
1382	1424  00000000             sll $0, $0, 0
1383	1428  00201024             and $2, $1, $0
1384	142C  AE8200D8             sw $2, 216($20)
1385	                          
1386	1430  3C1E0000             lui $30, 0
1387	1434  37DE0000             ori $30, $30, 0
1388	1438  3C01FFFF             lui $1, 65535
1389	143C  3421FFFF             ori $1, $1, 65535
1390	1440  00000000             sll $0, $0, 0
1391	1444  8E9E00CC             lw $30, 204($20)
1392	1448  00000000             sll $0, $0, 0
1393	144C  003E1024             and $2, $1, $30
1394	1450  AE8200DC             sw $2, 220($20)
1395	                          
1396	1454  3C01FFFF             lui $1, 65535
1397	1458  3421FFFF             ori $1, $1, 65535
1398	145C  3C1F0000             lui $31, 0
1399	1460  37FF0000             ori $31, $31, 0
1400	1464  00000000             sll $0, $0, 0
1401	1468  8E9F00CC             lw $31, 204($20)
1402	146C  00000000             sll $0, $0, 0
1403	1470  03E11024             and $2, $31, $1
1404	1474  AE8200E0             sw $2, 224($20)
1405	                          
1406	1478  3C01FFFF             lui $1, 65535
1407	147C  3421FFFF             ori $1, $1, 65535
1408	1480  3C1E0000             lui $30, 0
1409	1484  37DE0000             ori $30, $30, 0
1410	1488  00000000             sll $0, $0, 0
1411	148C  8E9F00CC             lw $31, 204($20)
1412	1490  00000000             sll $0, $0, 0
1413	1494  03C11024             and $2, $30, $1
1414	1498  AE8200E4             sw $2, 228($20)
1415	                          
1416	149C  3C01FFFF             lui $1, 65535
1417	14A0  3421FFFF             ori $1, $1, 65535
1418	14A4  3C1D0000             lui $29, 0
1419	14A8  37BD0000             ori $29, $29, 0
1420	14AC  00000000             sll $0, $0, 0
1421	14B0  8E9F00CC             lw $31, 204($20)
1422	14B4  00000000             sll $0, $0, 0
1423	14B8  03A11024             and $2, $29, $1
1424	14BC  AE8200E8             sw $2, 232($20)
1425	                          
1426	14C0  3C01FFFF             lui $1, 65535
1427	14C4  3421FFFF             ori $1, $1, 65535
1428	14C8  3C1B0000             lui $27, 0
1429	14CC  377B0000             ori $27, $27, 0
1430	14D0  00000000             sll $0, $0, 0
1431	14D4  8E9F00CC             lw $31, 204($20)
1432	14D8  00000000             sll $0, $0, 0
1433	14DC  03611024             and $2, $27, $1
1434	14E0  AE8200EC             sw $2, 236($20)
1435	                          
1436	14E4  3C01FFFF             lui $1, 65535
1437	14E8  3421FFFF             ori $1, $1, 65535
1438	14EC  3C170000             lui $23, 0
1439	14F0  36F70000             ori $23, $23, 0
1440	14F4  00000000             sll $0, $0, 0
1441	14F8  8E9F00CC             lw $31, 204($20)
1442	14FC  00000000             sll $0, $0, 0
1443	1500  02E11024             and $2, $23, $1
1444	1504  AE8200F0             sw $2, 240($20)
1445	                          
1446	1508  3C01FFFF             lui $1, 65535
1447	150C  3421FFFF             ori $1, $1, 65535
1448	1510  3C0F0000             lui $15, 0
1449	1514  35EF0000             ori $15, $15, 0
1450	1518  00000000             sll $0, $0, 0
1451	151C  8E9F00CC             lw $31, 204($20)
1452	1520  00000000             sll $0, $0, 0
1453	1524  01E11024             and $2, $15, $1
1454	1528  AE8200F4             sw $2, 244($20)
1455	                          
1456	152C  3C01FFFF             lui $1, 65535
1457	1530  3421FFFF             ori $1, $1, 65535
1458	1534  3C1E0000             lui $30, 0
1459	1538  37DE0000             ori $30, $30, 0
1460	153C  00000000             sll $0, $0, 0
1461	1540  8E9E00CC             lw $30, 204($20)
1462	1544  00000000             sll $0, $0, 0
1463	1548  03E11024             and $2, $31, $1
1464	154C  AE8200F8             sw $2, 248($20)
1465	                          
1466	1550  3C01FFFF             lui $1, 65535
1467	1554  3421FFFF             ori $1, $1, 65535
1468	1558  3C1D0000             lui $29, 0
1469	155C  37BD0000             ori $29, $29, 0
1470	1560  00000000             sll $0, $0, 0
1471	1564  8E9D00CC             lw $29, 204($20)
1472	1568  00000000             sll $0, $0, 0
1473	156C  03E11024             and $2, $31, $1
1474	1570  AE8200FC             sw $2, 252($20)
1475	                          
1476	1574  3C01FFFF             lui $1, 65535
1477	1578  3421FFFF             ori $1, $1, 65535
1478	157C  3C1B0000             lui $27, 0
1479	1580  377B0000             ori $27, $27, 0
1480	1584  00000000             sll $0, $0, 0
1481	1588  8E9B00CC             lw $27, 204($20)
1482	158C  00000000             sll $0, $0, 0
1483	1590  03E11024             and $2, $31, $1
1484	1594  AE820100             sw $2, 256($20)
1485	                          
1486	1598  3C01FFFF             lui $1, 65535
1487	159C  3421FFFF             ori $1, $1, 65535
1488	15A0  3C170000             lui $23, 0
1489	15A4  36F70000             ori $23, $23, 0
1490	15A8  00000000             sll $0, $0, 0
1491	15AC  8E9700CC             lw $23, 204($20)
1492	15B0  00000000             sll $0, $0, 0
1493	15B4  03E11024             and $2, $31, $1
1494	15B8  AE820104             sw $2, 260($20)
1495	                          
1496	15BC  3C01FFFF             lui $1, 65535
1497	15C0  3421FFFF             ori $1, $1, 65535
1498	15C4  3C0F0000             lui $15, 0
1499	15C8  35EF0000             ori $15, $15, 0
1500	15CC  00000000             sll $0, $0, 0
1501	15D0  8E8F00CC             lw $15, 204($20)
1502	15D4  00000000             sll $0, $0, 0
1503	15D8  03E11024             and $2, $31, $1
1504	15DC  AE820108             sw $2, 264($20)
1505	                          
1506	15E0  3C01FFFF             lui $1, 65535
1507	15E4  3421FFFF             ori $1, $1, 65535
1508	15E8  3C1F0000             lui $31, 0
1509	15EC  37FF0000             ori $31, $31, 0
1510	15F0  00000000             sll $0, $0, 0
1511	15F4  8E9F00CC             lw $31, 204($20)
1512	15F8  00000000             sll $0, $0, 0
1513	15FC  003F1024             and $2, $1, $31
1514	1600  AE82010C             sw $2, 268($20)
1515	                          
1516	1604  3C01FFFF             lui $1, 65535
1517	1608  3421FFFF             ori $1, $1, 65535
1518	160C  3C1E0000             lui $30, 0
1519	1610  37DE0000             ori $30, $30, 0
1520	1614  00000000             sll $0, $0, 0
1521	1618  8E9F00CC             lw $31, 204($20)
1522	161C  00000000             sll $0, $0, 0
1523	1620  003E1024             and $2, $1, $30
1524	1624  AE820110             sw $2, 272($20)
1525	                          
1526	1628  3C01FFFF             lui $1, 65535
1527	162C  3421FFFF             ori $1, $1, 65535
1528	1630  3C1D0000             lui $29, 0
1529	1634  37BD0000             ori $29, $29, 0
1530	1638  00000000             sll $0, $0, 0
1531	163C  8E9F00CC             lw $31, 204($20)
1532	1640  00000000             sll $0, $0, 0
1533	1644  003D1024             and $2, $1, $29
1534	1648  AE820114             sw $2, 276($20)
1535	                          
1536	164C  3C01FFFF             lui $1, 65535
1537	1650  3421FFFF             ori $1, $1, 65535
1538	1654  3C1B0000             lui $27, 0
1539	1658  377B0000             ori $27, $27, 0
1540	165C  00000000             sll $0, $0, 0
1541	1660  8E9F00CC             lw $31, 204($20)
1542	1664  00000000             sll $0, $0, 0
1543	1668  003B1024             and $2, $1, $27
1544	166C  AE820118             sw $2, 280($20)
1545	                          
1546	1670  3C01FFFF             lui $1, 65535
1547	1674  3421FFFF             ori $1, $1, 65535
1548	1678  3C170000             lui $23, 0
1549	167C  36F70000             ori $23, $23, 0
1550	1680  00000000             sll $0, $0, 0
1551	1684  8E9F00CC             lw $31, 204($20)
1552	1688  00000000             sll $0, $0, 0
1553	168C  00371024             and $2, $1, $23
1554	1690  AE82011C             sw $2, 284($20)
1555	                          
1556	1694  3C01FFFF             lui $1, 65535
1557	1698  3421FFFF             ori $1, $1, 65535
1558	169C  3C0F0000             lui $15, 0
1559	16A0  35EF0000             ori $15, $15, 0
1560	16A4  00000000             sll $0, $0, 0
1561	16A8  8E9F00CC             lw $31, 204($20)
1562	16AC  00000000             sll $0, $0, 0
1563	16B0  002F1024             and $2, $1, $15
1564	16B4  AE820120             sw $2, 288($20)
1565	                          
1566	16B8  3C01FFFF             lui $1, 65535
1567	16BC  3421FFFF             ori $1, $1, 65535
1568	16C0  3C1E0000             lui $30, 0
1569	16C4  37DE0000             ori $30, $30, 0
1570	16C8  00000000             sll $0, $0, 0
1571	16CC  8E9E00CC             lw $30, 204($20)
1572	16D0  00000000             sll $0, $0, 0
1573	16D4  003F1024             and $2, $1, $31
1574	16D8  AE820124             sw $2, 292($20)
1575	                          
1576	16DC  3C01FFFF             lui $1, 65535
1577	16E0  3421FFFF             ori $1, $1, 65535
1578	16E4  3C1D0000             lui $29, 0
1579	16E8  37BD0000             ori $29, $29, 0
1580	16EC  00000000             sll $0, $0, 0
1581	16F0  8E9D00CC             lw $29, 204($20)
1582	16F4  00000000             sll $0, $0, 0
1583	16F8  003F1024             and $2, $1, $31
1584	16FC  AE820128             sw $2, 296($20)
1585	                          
1586	1700  3C01FFFF             lui $1, 65535
1587	1704  3421FFFF             ori $1, $1, 65535
1588	1708  3C1B0000             lui $27, 0
1589	170C  377B0000             ori $27, $27, 0
1590	1710  00000000             sll $0, $0, 0
1591	1714  8E9B00CC             lw $27, 204($20)
1592	1718  00000000             sll $0, $0, 0
1593	171C  003F1024             and $2, $1, $31
1594	1720  AE82012C             sw $2, 300($20)
1595	                          
1596	1724  3C01FFFF             lui $1, 65535
1597	1728  3421FFFF             ori $1, $1, 65535
1598	172C  3C170000             lui $23, 0
1599	1730  36F70000             ori $23, $23, 0
1600	1734  00000000             sll $0, $0, 0
1601	1738  8E9700CC             lw $23, 204($20)
1602	173C  00000000             sll $0, $0, 0
1603	1740  003F1024             and $2, $1, $31
1604	1744  AE820130             sw $2, 304($20)
1605	                          
1606	1748  3C01FFFF             lui $1, 65535
1607	174C  3421FFFF             ori $1, $1, 65535
1608	1750  3C0F0000             lui $15, 0
1609	1754  35EF0000             ori $15, $15, 0
1610	1758  00000000             sll $0, $0, 0
1611	175C  8E8F00CC             lw $15, 204($20)
1612	1760  00000000             sll $0, $0, 0
1613	1764  003F1024             and $2, $1, $31
1614	1768  AE820134             sw $2, 308($20)
1615	                          
1616	                          ;.............comparator hazard.............;
1617	176C  3C01FFFF             lui $1, 65535
1618	1770  3421FFFF             ori $1, $1, 65535
1619	1774  3C1E0000             lui $30, 0
1620	1778  37DE0000             ori $30, $30, 0
1621	177C  00000000             sll $0, $0, 0
1622	1780  8E9F00CC             lw $31, 204($20)
1623	1784  03C11024             and $2, $30, $1
1624	1788  AE820138             sw $2, 312($20)
1625	                          
1626	178C  3C01FFFF             lui $1, 65535
1627	1790  3421FFFF             ori $1, $1, 65535
1628	1794  3C1D0000             lui $29, 0
1629	1798  37BD0000             ori $29, $29, 0
1630	179C  00000000             sll $0, $0, 0
1631	17A0  8E9F00CC             lw $31, 204($20)
1632	17A4  03A11024             and $2, $29, $1
1633	17A8  AE82013C             sw $2, 316($20)
1634	                          
1635	17AC  3C01FFFF             lui $1, 65535
1636	17B0  3421FFFF             ori $1, $1, 65535
1637	17B4  3C1B0000             lui $27, 0
1638	17B8  377B0000             ori $27, $27, 0
1639	17BC  00000000             sll $0, $0, 0
1640	17C0  8E9F00CC             lw $31, 204($20)
1641	17C4  03611024             and $2, $27, $1
1642	17C8  AE820140             sw $2, 320($20)
1643	                          
1644	17CC  3C01FFFF             lui $1, 65535
1645	17D0  3421FFFF             ori $1, $1, 65535
1646	17D4  3C170000             lui $23, 0
1647	17D8  36F70000             ori $23, $23, 0
1648	17DC  00000000             sll $0, $0, 0
1649	17E0  8E9F00CC             lw $31, 204($20)
1650	17E4  02E11024             and $2, $23, $1
1651	17E8  AE820144             sw $2, 324($20)
1652	                          
1653	17EC  3C01FFFF             lui $1, 65535
1654	17F0  3421FFFF             ori $1, $1, 65535
1655	17F4  3C0F0000             lui $15, 0
1656	17F8  35EF0000             ori $15, $15, 0
1657	17FC  00000000             sll $0, $0, 0
1658	1800  8E9F00CC             lw $31, 204($20)
1659	1804  01E11024             and $2, $15, $1
1660	1808  AE820148             sw $2, 328($20)
1661	                          
1662	180C  3C01FFFF             lui $1, 65535
1663	1810  3421FFFF             ori $1, $1, 65535
1664	1814  3C1E0000             lui $30, 0
1665	1818  37DE0000             ori $30, $30, 0
1666	181C  00000000             sll $0, $0, 0
1667	1820  8E9E00CC             lw $30, 204($20)
1668	1824  03E11024             and $2, $31, $1
1669	1828  AE82014C             sw $2, 332($20)
1670	                          
1671	182C  3C01FFFF             lui $1, 65535
1672	1830  3421FFFF             ori $1, $1, 65535
1673	1834  3C1D0000             lui $29, 0
1674	1838  37BD0000             ori $29, $29, 0
1675	183C  00000000             sll $0, $0, 0
1676	1840  8E9D00CC             lw $29, 204($20)
1677	1844  03E11024             and $2, $31, $1
1678	1848  AE820150             sw $2, 336($20)
1679	                          
1680	184C  3C01FFFF             lui $1, 65535
1681	1850  3421FFFF             ori $1, $1, 65535
1682	1854  3C1B0000             lui $27, 0
1683	1858  377B0000             ori $27, $27, 0
1684	185C  00000000             sll $0, $0, 0
1685	1860  8E9B00CC             lw $27, 204($20)
1686	1864  03E11024             and $2, $31, $1
1687	1868  AE820154             sw $2, 340($20)
1688	                          
1689	186C  3C01FFFF             lui $1, 65535
1690	1870  3421FFFF             ori $1, $1, 65535
1691	1874  3C170000             lui $23, 0
1692	1878  36F70000             ori $23, $23, 0
1693	187C  00000000             sll $0, $0, 0
1694	1880  8E9700CC             lw $23, 204($20)
1695	1884  03E11024             and $2, $31, $1
1696	1888  AE820158             sw $2, 344($20)
1697	                          
1698	188C  3C01FFFF             lui $1, 65535
1699	1890  3421FFFF             ori $1, $1, 65535
1700	1894  3C0F0000             lui $15, 0
1701	1898  35EF0000             ori $15, $15, 0
1702	189C  00000000             sll $0, $0, 0
1703	18A0  8E8F00CC             lw $15, 204($20)
1704	18A4  03E11024             and $2, $31, $1
1705	18A8  AE82015C             sw $2, 348($20)
1706	                          
1707	                          ;........co-co_processor registers........;
1708	18AC  3C1D0001            lui $29, 1
1709	18B0  37BD157C            ori $29, $29, 5500
1710	                          
1711	18B4  0C002D34            jal reset_offsets
1712	18B8  0C002D4A            jal init_cp
1713	                          cop0_register:
1714	18BC  3C01FFFF             lui $1, 65535
1715	18C0  3421FFFF             ori $1, $1, 65535
1716	18C4  40814000             mtc0 $1, $8
1717	18C8  40816000             mtc0 $1, $12
1718	18CC  40816800             mtc0 $1, $13
1719	18D0  40817000             mtc0 $1, $14
1720	18D4  40817800             mtc0 $1, $15
1721	18D8  40081000             mfc0 $2, $8
1722	18DC  00000000             sll $0, $0, 0
1723	18E0  AFA20000             sw $2, 0($29)
1724	18E4  40804000             mtc0 $0, $8
1725	18E8  400C1000             mfc0 $2, $12
1726	18EC  00000000             sll $0, $0, 0
1727	18F0  AFA20004             sw $2, 4($29)
1728	18F4  40806000             mtc0 $0, $12
1729	18F8  400D1800             mfc0 $3, $13
1730	18FC  00000000             sll $0, $0, 0
1731	1900  AFA30008             sw $3, 8($29)
1732	1904  40806800             mtc0 $0, $13
1733	1908  400E2000             mfc0 $4, $14
1734	190C  00000000             sll $0, $0, 0
1735	1910  AFA4000C             sw $4, 12($29)
1736	1914  40807000             mtc0 $0, $14
1737	1918  400F2800             mfc0 $5, $15
1738	191C  00000000             sll $0, $0, 0
1739	1920  AFA50010             sw $5, 16($29)
1740	1924  40807800             mtc0 $0, $15
1741	1928  40083000             mfc0 $6, $8
1742	192C  00000000             sll $0, $0, 0
1743	1930  AFA60014             sw $6, 20($29)
1744	1934  40814000             mtc0 $1, $8
1745	1938  40083800             mfc0 $7, $8
1746	193C  00000000             sll $0, $0, 0
1747	1940  AFA70018             sw $7, 24($29)
1748	1944  400C3000             mfc0 $6, $12
1749	1948  00000000             sll $0, $0, 0
1750	194C  AFA6001C             sw $6, 28($29)
1751	1950  40816000             mtc0 $1, $12
1752	1954  400C3800             mfc0 $7, $12
1753	1958  00000000             sll $0, $0, 0
1754	195C  AFA70020             sw $7, 32($29)
1755	1960  400D4000             mfc0 $8, $13
1756	1964  00000000             sll $0, $0, 0
1757	1968  AFA80024             sw $8, 36($29)
1758	196C  40816800             mtc0 $1, $13
1759	1970  400D4800             mfc0 $9, $13
1760	1974  00000000             sll $0, $0, 0
1761	1978  AFA90028             sw $9, 40($29)
1762	197C  400E5000             mfc0 $10, $14
1763	1980  00000000             sll $0, $0, 0
1764	1984  AFAA002C             sw $10, 44($29)
1765	1988  40817000             mtc0 $1, $14
1766	198C  400E5800             mfc0 $11, $14
1767	1990  00000000             sll $0, $0, 0
1768	1994  AFAB0030             sw $11, 48($29)
1769	1998  400F8000             mfc0 $16, $15
1770	199C  00000000             sll $0, $0, 0
1771	19A0  AFB00034             sw $16, 52($29)
1772	19A4  40817800             mtc0 $1, $15
1773	19A8  400F8800             mfc0 $17, $15
1774	19AC  00000000             sll $0, $0, 0
1775	19B0  AFB10038             sw $17, 56($29)
1776	                          
1777	                          ;........coprocessor mirror........;
1778	19B4  3C01FFFF             lui $1, 65535
1779	19B8  3421FFFF             ori $1, $1, 65535
1780	19BC  40804000             mtc0 $0, $8
1781	19C0  40806000             mtc0 $0, $12
1782	19C4  40806800             mtc0 $0, $13
1783	19C8  40807000             mtc0 $0, $14
1784	19CC  40807800             mtc0 $0, $15
1785	19D0  40081000             mfc0 $2, $8
1786	19D4  00000000             sll $0, $0, 0
1787	19D8  AFA2003C             sw $2, 60($29)
1788	19DC  40814000             mtc0 $1, $8
1789	19E0  400C1000             mfc0 $2, $12
1790	19E4  00000000             sll $0, $0, 0
1791	19E8  AFA20040             sw $2, 64($29)
1792	19EC  40816000             mtc0 $1, $12
1793	19F0  400D1800             mfc0 $3, $13
1794	19F4  00000000             sll $0, $0, 0
1795	19F8  AFA30044             sw $3, 68($29)
1796	19FC  40816800             mtc0 $1, $13
1797	1A00  400E2000             mfc0 $4, $14
1798	1A04  00000000             sll $0, $0, 0
1799	1A08  AFA40048             sw $4, 72($29)
1800	1A0C  40817000             mtc0 $1, $14
1801	1A10  400F2800             mfc0 $5, $15
1802	1A14  00000000             sll $0, $0, 0
1803	1A18  AFA5004C             sw $5, 76($29)
1804	1A1C  40817800             mtc0 $1, $15
1805	1A20  40083000             mfc0 $6, $8
1806	1A24  00000000             sll $0, $0, 0
1807	1A28  AFA60050             sw $6, 80($29)
1808	1A2C  40804000             mtc0 $0, $8
1809	1A30  40083800             mfc0 $7, $8
1810	1A34  00000000             sll $0, $0, 0
1811	1A38  AFA70054             sw $7, 84($29)
1812	1A3C  400C3000             mfc0 $6, $12
1813	1A40  00000000             sll $0, $0, 0
1814	1A44  AFA60058             sw $6, 88($29)
1815	1A48  40806000             mtc0 $0, $12
1816	1A4C  400C3800             mfc0 $7, $12
1817	1A50  00000000             sll $0, $0, 0
1818	1A54  AFA7005C             sw $7, 92($29)
1819	1A58  400D4000             mfc0 $8, $13
1820	1A5C  00000000             sll $0, $0, 0
1821	1A60  AFA80060             sw $8, 96($29)
1822	1A64  40806800             mtc0 $0, $13
1823	1A68  400D4800             mfc0 $9, $13
1824	1A6C  00000000             sll $0, $0, 0
1825	1A70  AFA90064             sw $9, 100($29)
1826	1A74  400E5000             mfc0 $10, $14
1827	1A78  00000000             sll $0, $0, 0
1828	1A7C  AFAA0068             sw $10, 104($29)
1829	1A80  40807000             mtc0 $0, $14
1830	1A84  400E5800             mfc0 $11, $14
1831	1A88  00000000             sll $0, $0, 0
1832	1A8C  AFAB006C             sw $11, 108($29)
1833	1A90  400F8000             mfc0 $16, $15
1834	1A94  AFB00070             sw $16, 112($29)
1835	1A98  40807800             mtc0 $0, $15
1836	1A9C  400F8800             mfc0 $17, $15
1837	1AA0  AFB10074             sw $17, 116($29)
1838	                          
1839	                          ;........other test........;
1840	                          ;........reset $26 back for branch loops........;
1841	1AA4  3C1A0000            lui $26, 0
1842	1AA8  375A00C2            ori $26, $26, 194
1843	                          ;........reset $28 back for other test loops........;
1844	1AAC  3C1C0000            lui $28, 0
1845	1AB0  379C014C            ori $28, $28, 332
1846	                          ;........set memory location for signature........;
1847	1AB4  3C1D0001            lui $29, 1
1848	1AB8  37BD1770            ori $29, $29, 6000
1849	                          
1850	1ABC  0C002D34            jal reset_offsets
1851	1AC0  0C003411            jal init_patterns
1852	1AC4  0C0037F9            jal init_branch
1853	                          
1854	1AC8  0C002D34            jal reset_offsets
1855	1ACC  0C002D4A            jal init_cp
1856	                          operation_add:
1857	1AD0  0C002D31             jal load_patterns
1858	1AD4  01F09020             add $18, $15, $16
1859	1AD8  00000000             sll $0, $0, 0
1860	1ADC  020F9820             add $19, $16, $15
1861	1AE0  0C002D47             jal store
1862	1AE4  0C002D3C             jal increment_offset
1863	1AE8  177CFFFA             bne $27, $28, operation_add
1864	                          
1865	1AEC  0C002D34            jal reset_offsets
1866	1AF0  0C002D4A            jal init_cp
1867	                          operation_sub:
1868	1AF4  0C002D31             jal load_patterns
1869	1AF8  01F09022             sub $18, $15, $16
1870	1AFC  00000000             sll $0, $0, 0
1871	1B00  020F9822             sub $19, $16, $15
1872	1B04  0C002D47             jal store
1873	1B08  0C002D3C             jal increment_offset
1874	1B0C  177CFFFA             bne $27, $28, operation_sub
1875	                          
1876	1B10  0C002D34            jal reset_offsets
1877	                          operation_sll:
1878	1B14  0C002D31             jal load_patterns
1879	1B18  000F9140             sll $18 ,$15, 5
1880	1B1C  AFB20000             sw $18, 0($29)
1881	1B20  0C002D3C             jal increment_offset
1882	1B24  177CFFFC             bne $27, $28, operation_sll
1883	                          
1884	1B28  0C002D34            jal reset_offsets
1885	                          operation_srl:
1886	1B2C  0C002D31             jal load_patterns
1887	1B30  000F9142             srl $18 ,$15, 5
1888	1B34  AFB20000             sw $18, 0($29)
1889	1B38  0C002D3C             jal increment_offset
1890	1B3C  177CFFFC             bne $27, $28, operation_srl
1891	                          
1892	1B40  0C002D34            jal reset_offsets
1893	                          operation_sra:
1894	1B44  0C002D31             jal load_patterns
1895	1B48  000F9143             sra $18 ,$15, 5
1896	1B4C  AFB20000             sw $18, 0($29)
1897	1B50  0C002D3C             jal increment_offset
1898	1B54  177CFFFC             bne $27, $28, operation_sra
1899	                          
1900	1B58  0C002D34            jal reset_offsets
1901	                          operation_mult_lo:
1902	1B5C  0C002D31             jal load_patterns
1903	1B60  01F00018             mult $15, $16
1904	1B64  00009012             mflo $18
1905	1B68  020F0018             mult $16, $15
1906	1B6C  00009812             mflo $19
1907	1B70  0C002D47             jal store
1908	1B74  0C002D3C             jal increment_offset
1909	1B78  177CFFF9             bne $27, $28, operation_mult_lo
1910	                          
1911	1B7C  0C002D34            jal reset_offsets
1912	                          operation_mult_hi:
1913	1B80  0C002D31             jal load_patterns
1914	1B84  01F00018             mult $15, $16
1915	1B88  00009010             mfhi $18
1916	1B8C  020F0018             mult $16, $15
1917	1B90  00009810             mfhi $19
1918	1B94  0C002D47             jal store
1919	1B98  0C002D3C             jal increment_offset
1920	1B9C  177CFFF9             bne $27, $28, operation_mult_hi
1921	                          
1922	1BA0  0C002D34            jal reset_offsets
1923	                          operation_multu_lo:
1924	1BA4  0C002D31             jal load_patterns
1925	1BA8  01F00019             multu $15, $16
1926	1BAC  00009012             mflo $18
1927	1BB0  020F0019             multu $16, $15
1928	1BB4  00009812             mflo $19
1929	1BB8  0C002D47             jal store
1930	1BBC  0C002D3C             jal increment_offset
1931	1BC0  177CFFF9             bne $27, $28, operation_multu_lo
1932	                          
1933	1BC4  0C002D34            jal reset_offsets
1934	                          operation_multu_hi:
1935	1BC8  0C002D31             jal load_patterns
1936	1BCC  01F00019             multu $15, $16
1937	1BD0  00009010             mfhi $18
1938	1BD4  020F0019             multu $16, $15
1939	1BD8  00009810             mfhi $19
1940	1BDC  0C002D47             jal store
1941	1BE0  0C002D3C             jal increment_offset
1942	1BE4  177CFFF9             bne $27, $28, operation_multu_hi
1943	                          
1944	1BE8  0C002D34            jal reset_offsets
1945	                          operation_mthi_hi_lo:
1946	1BEC  0C002D31             jal load_patterns
1947	1BF0  02000011             mthi $16
1948	1BF4  00009010             mfhi $18
1949	1BF8  AFB20000             sw $18, 0($29)
1950	1BFC  0C002D3C             jal increment_offset
1951	1C00  177CFFFB             bne $27, $28, operation_mthi_hi_lo
1952	                          
1953	1C04  0C002D34            jal reset_offsets
1954	                          operation_mtlo_hi_lo:
1955	1C08  0C002D31             jal load_patterns
1956	1C0C  02000013             mtlo $16
1957	1C10  00009012             mflo $18
1958	1C14  AFB20000             sw $18, 0($29)
1959	1C18  0C002D3C             jal increment_offset
1960	1C1C  177CFFFB             bne $27, $28, operation_mtlo_hi_lo
1961	                          
1962	1C20  0C002D34            jal reset_offsets
1963	                          operation_op2:
1964	1C24  0C002D31             jal load_patterns
1965	1C28  01F09021             addu $18, $15, $16
1966	1C2C  020F9821             addu $19, $16, $15
1967	1C30  0C002D47             jal store
1968	1C34  0C002D43             jal increment
1969	1C38  01F09024             and $18, $15, $16
1970	1C3C  020F9824             and $19, $16, $15
1971	1C40  0C002D47             jal store
1972	1C44  0C002D43             jal increment
1973	1C48  01F09027             nor $18, $15, $16
1974	1C4C  020F9827             nor $19, $16, $15
1975	1C50  0C002D47             jal store
1976	1C54  0C002D43             jal increment
1977	1C58  01F09025             or $18, $15, $16
1978	1C5C  020F9825             or $19, $16, $15
1979	1C60  0C002D47             jal store
1980	1C64  0C002D43             jal increment
1981	1C68  01F09023             subu $18, $15, $16
1982	1C6C  020F9823             subu $19, $16, $15
1983	1C70  0C002D47             jal store
1984	1C74  0C002D43             jal increment
1985	1C78  01F09026             xor $18, $15, $16
1986	1C7C  020F9826             xor $19, $16, $15
1987	1C80  0C002D47             jal store
1988	1C84  0C002D43             jal increment
1989	1C88  020F9004             sllv $18, $15, $16
1990	1C8C  01F09804             sllv $19, $16, $15
1991	1C90  0C002D47             jal store
1992	1C94  0C002D43             jal increment
1993	1C98  01F0902A             slt $18, $15, $16
1994	1C9C  020F982A             slt $19, $16, $15
1995	1CA0  0C002D47             jal store
1996	1CA4  0C002D43             jal increment
1997	1CA8  01F0902B             sltu $18, $15, $16
1998	1CAC  020F982B             sltu $19, $16, $15
1999	1CB0  0C002D47             jal store
2000	1CB4  0C002D43             jal increment
2001	1CB8  020F9007             srav $18, $15, $16
2002	1CBC  01F09807             srav $19, $16, $15
2003	1CC0  0C002D47             jal store
2004	1CC4  0C002D43             jal increment
2005	1CC8  020F9006             srlv $18, $15, $16
2006	1CCC  01F09806             srlv $19, $16, $15
2007	1CD0  0C002D47             jal store
2008	1CD4  0C002D43             jal increment
2009	1CD8  0C002D3C             jal increment_offset
2010	1CDC  177CFFD2             bne $27, $28, operation_op2
2011	                          
2012	1CE0  0C002D34            jal reset_offsets
2013	1CE4  0C002D4A            jal init_cp
2014	                          operation_addi:
2015	1CE8  0C002D31             jal load_patterns
2016	1CEC  21F25882             addi $18, $15, 22658
2017	1CF0  AFB20000             sw $18, 0($29)
2018	1CF4  0C002D3C             jal increment_offset
2019	1CF8  0C002D31             jal load_patterns
2020	1CFC  21F28ACC             addi $18, $15, 35532
2021	1D00  AFB20000             sw $18, 0($29)
2022	1D04  0C002D3C             jal increment_offset
2023	1D08  0C002D31             jal load_patterns
2024	1D0C  21F2B085             addi $18, $15, 45189
2025	1D10  AFB20000             sw $18, 0($29)
2026	1D14  0C002D3C             jal increment_offset
2027	1D18  0C002D31             jal load_patterns
2028	1D1C  21F2D17E             addi $18, $15, 53630
2029	1D20  AFB20000             sw $18, 0($29)
2030	1D24  0C002D3C             jal increment_offset
2031	1D28  0C002D31             jal load_patterns
2032	1D2C  21F2C2E1             addi $18, $15, 49889
2033	1D30  AFB20000             sw $18, 0($29)
2034	1D34  0C002D3C             jal increment_offset
2035	1D38  0C002D31             jal load_patterns
2036	1D3C  21F2FC93             addi $18, $15, 64659
2037	1D40  AFB20000             sw $18, 0($29)
2038	1D44  0C002D3C             jal increment_offset
2039	1D48  0C002D31             jal load_patterns
2040	1D4C  21F2716A             addi $18, $15, 29034
2041	1D50  AFB20000             sw $18, 0($29)
2042	1D54  0C002D3C             jal increment_offset
2043	1D58  0C002D31             jal load_patterns
2044	1D5C  21F20238             addi $18, $15, 568
2045	1D60  AFB20000             sw $18, 0($29)
2046	1D64  0C002D3C             jal increment_offset
2047	1D68  0C002D31             jal load_patterns
2048	1D6C  21F22A22             addi $18, $15, 10786
2049	1D70  AFB20000             sw $18, 0($29)
2050	1D74  0C002D3C             jal increment_offset
2051	1D78  0C002D31             jal load_patterns
2052	1D7C  21F2C4E8             addi $18, $15, 50408
2053	1D80  AFB20000             sw $18, 0($29)
2054	1D84  0C002D3C             jal increment_offset
2055	1D88  0C002D31             jal load_patterns
2056	1D8C  21F2B14E             addi $18, $15, 45390
2057	1D90  AFB20000             sw $18, 0($29)
2058	1D94  0C002D3C             jal increment_offset
2059	1D98  0C002D31             jal load_patterns
2060	1D9C  21F2BB05             addi $18, $15, 47877
2061	1DA0  AFB20000             sw $18, 0($29)
2062	1DA4  0C002D3C             jal increment_offset
2063	1DA8  0C002D31             jal load_patterns
2064	1DAC  21F2C7E4             addi $18, $15, 51172
2065	1DB0  AFB20000             sw $18, 0($29)
2066	1DB4  0C002D3C             jal increment_offset
2067	1DB8  0C002D31             jal load_patterns
2068	1DBC  21F28748             addi $18, $15, 34632
2069	1DC0  AFB20000             sw $18, 0($29)
2070	1DC4  0C002D3C             jal increment_offset
2071	1DC8  0C002D31             jal load_patterns
2072	1DCC  21F2BD11             addi $18, $15, 48401
2073	1DD0  AFB20000             sw $18, 0($29)
2074	1DD4  0C002D3C             jal increment_offset
2075	1DD8  0C002D31             jal load_patterns
2076	1DDC  21F25773             addi $18, $15, 22387
2077	1DE0  AFB20000             sw $18, 0($29)
2078	1DE4  0C002D3C             jal increment_offset
2079	1DE8  0C002D31             jal load_patterns
2080	1DEC  21F25CE1             addi $18, $15, 23777
2081	1DF0  AFB20000             sw $18, 0($29)
2082	1DF4  0C002D3C             jal increment_offset
2083	1DF8  0C002D31             jal load_patterns
2084	1DFC  21F2A2BB             addi $18, $15, 41659
2085	1E00  AFB20000             sw $18, 0($29)
2086	1E04  0C002D3C             jal increment_offset
2087	1E08  0C002D31             jal load_patterns
2088	1E0C  21F28A40             addi $18, $15, 35392
2089	1E10  AFB20000             sw $18, 0($29)
2090	1E14  0C002D3C             jal increment_offset
2091	1E18  0C002D31             jal load_patterns
2092	1E1C  21F2BECB             addi $18, $15, 48843
2093	1E20  AFB20000             sw $18, 0($29)
2094	1E24  0C002D3C             jal increment_offset
2095	1E28  0C002D31             jal load_patterns
2096	1E2C  21F2295F             addi $18, $15, 10591
2097	1E30  AFB20000             sw $18, 0($29)
2098	1E34  0C002D3C             jal increment_offset
2099	1E38  0C002D31             jal load_patterns
2100	1E3C  21F2E5EC             addi $18, $15, 58860
2101	1E40  AFB20000             sw $18, 0($29)
2102	1E44  0C002D3C             jal increment_offset
2103	1E48  0C002D31             jal load_patterns
2104	1E4C  21F2AF25             addi $18, $15, 44837
2105	1E50  AFB20000             sw $18, 0($29)
2106	1E54  0C002D3C             jal increment_offset
2107	1E58  0C002D31             jal load_patterns
2108	1E5C  21F231D0             addi $18, $15, 12752
2109	1E60  AFB20000             sw $18, 0($29)
2110	1E64  0C002D3C             jal increment_offset
2111	1E68  0C002D31             jal load_patterns
2112	1E6C  21F2496F             addi $18, $15, 18799
2113	1E70  AFB20000             sw $18, 0($29)
2114	1E74  0C002D3C             jal increment_offset
2115	1E78  0C002D31             jal load_patterns
2116	1E7C  21F25592             addi $18, $15, 21906
2117	1E80  AFB20000             sw $18, 0($29)
2118	1E84  0C002D3C             jal increment_offset
2119	1E88  0C002D31             jal load_patterns
2120	1E8C  21F21900             addi $18, $15, 6400
2121	1E90  AFB20000             sw $18, 0($29)
2122	1E94  0C002D3C             jal increment_offset
2123	1E98  0C002D31             jal load_patterns
2124	1E9C  21F226DA             addi $18, $15, 9946
2125	1EA0  AFB20000             sw $18, 0($29)
2126	1EA4  0C002D3C             jal increment_offset
2127	1EA8  0C002D31             jal load_patterns
2128	1EAC  21F2408A             addi $18, $15, 16522
2129	1EB0  AFB20000             sw $18, 0($29)
2130	1EB4  0C002D3C             jal increment_offset
2131	1EB8  0C002D31             jal load_patterns
2132	1EBC  21F2297E             addi $18, $15, 10622
2133	1EC0  AFB20000             sw $18, 0($29)
2134	1EC4  0C002D3C             jal increment_offset
2135	1EC8  0C002D31             jal load_patterns
2136	1ECC  21F22961             addi $18, $15, 10593
2137	1ED0  AFB20000             sw $18, 0($29)
2138	1ED4  0C002D3C             jal increment_offset
2139	1ED8  0C002D31             jal load_patterns
2140	1EDC  21F2E80E             addi $18, $15, 59406
2141	1EE0  AFB20000             sw $18, 0($29)
2142	1EE4  0C002D3C             jal increment_offset
2143	1EE8  0C002D31             jal load_patterns
2144	1EEC  21F2B202             addi $18, $15, 45570
2145	1EF0  AFB20000             sw $18, 0($29)
2146	1EF4  0C002D3C             jal increment_offset
2147	1EF8  0C002D31             jal load_patterns
2148	1EFC  21F23388             addi $18, $15, 13192
2149	1F00  AFB20000             sw $18, 0($29)
2150	1F04  0C002D3C             jal increment_offset
2151	1F08  0C002D31             jal load_patterns
2152	1F0C  21F208DC             addi $18, $15, 2268
2153	1F10  AFB20000             sw $18, 0($29)
2154	1F14  0C002D3C             jal increment_offset
2155	1F18  0C002D31             jal load_patterns
2156	1F1C  21F2363B             addi $18, $15, 13883
2157	1F20  AFB20000             sw $18, 0($29)
2158	1F24  0C002D3C             jal increment_offset
2159	1F28  0C002D31             jal load_patterns
2160	1F2C  21F2CFF9             addi $18, $15, 53241
2161	1F30  AFB20000             sw $18, 0($29)
2162	1F34  0C002D3C             jal increment_offset
2163	1F38  0C002D31             jal load_patterns
2164	1F3C  21F24B2C             addi $18, $15, 19244
2165	1F40  AFB20000             sw $18, 0($29)
2166	1F44  0C002D3C             jal increment_offset
2167	1F48  0C002D31             jal load_patterns
2168	1F4C  21F2BE61             addi $18, $15, 48737
2169	1F50  AFB20000             sw $18, 0($29)
2170	1F54  0C002D3C             jal increment_offset
2171	1F58  0C002D31             jal load_patterns
2172	1F5C  21F209C4             addi $18, $15, 2500
2173	1F60  AFB20000             sw $18, 0($29)
2174	1F64  0C002D3C             jal increment_offset
2175	1F68  0C002D31             jal load_patterns
2176	1F6C  21F297A3             addi $18, $15, 38819
2177	1F70  AFB20000             sw $18, 0($29)
2178	1F74  0C002D3C             jal increment_offset
2179	1F78  0C002D31             jal load_patterns
2180	1F7C  21F2718A             addi $18, $15, 29066
2181	1F80  AFB20000             sw $18, 0($29)
2182	1F84  0C002D3C             jal increment_offset
2183	1F88  0C002D31             jal load_patterns
2184	1F8C  21F2E80D             addi $18, $15, 59405
2185	1F90  AFB20000             sw $18, 0($29)
2186	1F94  0C002D3C             jal increment_offset
2187	1F98  0C002D31             jal load_patterns
2188	1F9C  21F2514B             addi $18, $15, 20811
2189	1FA0  AFB20000             sw $18, 0($29)
2190	1FA4  0C002D3C             jal increment_offset
2191	1FA8  0C002D31             jal load_patterns
2192	1FAC  21F2A44B             addi $18, $15, 42059
2193	1FB0  AFB20000             sw $18, 0($29)
2194	1FB4  0C002D3C             jal increment_offset
2195	1FB8  0C002D31             jal load_patterns
2196	1FBC  21F2E758             addi $18, $15, 59224
2197	1FC0  AFB20000             sw $18, 0($29)
2198	1FC4  0C002D3C             jal increment_offset
2199	1FC8  0C002D31             jal load_patterns
2200	1FCC  21F20FB8             addi $18, $15, 4024
2201	1FD0  AFB20000             sw $18, 0($29)
2202	1FD4  0C002D3C             jal increment_offset
2203	1FD8  0C002D31             jal load_patterns
2204	1FDC  21F25C1B             addi $18, $15, 23579
2205	1FE0  AFB20000             sw $18, 0($29)
2206	1FE4  0C002D3C             jal increment_offset
2207	1FE8  0C002D31             jal load_patterns
2208	1FEC  21F24474             addi $18, $15, 17524
2209	1FF0  AFB20000             sw $18, 0($29)
2210	1FF4  0C002D3C             jal increment_offset
2211	1FF8  0C002D31             jal load_patterns
2212	1FFC  21F2EF1E             addi $18, $15, 61214
2213	2000  AFB20000             sw $18, 0($29)
2214	2004  0C002D3C             jal increment_offset
2215	2008  0C002D31             jal load_patterns
2216	200C  21F23BC4             addi $18, $15, 15300
2217	2010  AFB20000             sw $18, 0($29)
2218	2014  0C002D3C             jal increment_offset
2219	2018  0C002D31             jal load_patterns
2220	201C  21F2FD41             addi $18, $15, 64833
2221	2020  AFB20000             sw $18, 0($29)
2222	2024  0C002D3C             jal increment_offset
2223	2028  0C002D31             jal load_patterns
2224	202C  21F2D65A             addi $18, $15, 54874
2225	2030  AFB20000             sw $18, 0($29)
2226	2034  0C002D3C             jal increment_offset
2227	2038  0C002D31             jal load_patterns
2228	203C  21F20487             addi $18, $15, 1159
2229	2040  AFB20000             sw $18, 0($29)
2230	2044  0C002D3C             jal increment_offset
2231	2048  0C002D31             jal load_patterns
2232	204C  21F2EF65             addi $18, $15, 61285
2233	2050  AFB20000             sw $18, 0($29)
2234	2054  0C002D3C             jal increment_offset
2235	2058  0C002D31             jal load_patterns
2236	205C  21F2F2C3             addi $18, $15, 62147
2237	2060  AFB20000             sw $18, 0($29)
2238	2064  0C002D3C             jal increment_offset
2239	2068  0C002D31             jal load_patterns
2240	206C  21F26076             addi $18, $15, 24694
2241	2070  AFB20000             sw $18, 0($29)
2242	2074  0C002D3C             jal increment_offset
2243	2078  0C002D31             jal load_patterns
2244	207C  21F2214A             addi $18, $15, 8522
2245	2080  AFB20000             sw $18, 0($29)
2246	2084  0C002D3C             jal increment_offset
2247	2088  0C002D31             jal load_patterns
2248	208C  21F268D6             addi $18, $15, 26838
2249	2090  AFB20000             sw $18, 0($29)
2250	2094  0C002D3C             jal increment_offset
2251	2098  0C002D31             jal load_patterns
2252	209C  21F2E735             addi $18, $15, 59189
2253	20A0  AFB20000             sw $18, 0($29)
2254	20A4  0C002D3C             jal increment_offset
2255	20A8  0C002D31             jal load_patterns
2256	20AC  21F2F756             addi $18, $15, 63318
2257	20B0  AFB20000             sw $18, 0($29)
2258	20B4  0C002D3C             jal increment_offset
2259	20B8  0C002D31             jal load_patterns
2260	20BC  21F2E52D             addi $18, $15, 58669
2261	20C0  AFB20000             sw $18, 0($29)
2262	20C4  0C002D3C             jal increment_offset
2263	20C8  0C002D31             jal load_patterns
2264	20CC  21F22369             addi $18, $15, 9065
2265	20D0  AFB20000             sw $18, 0($29)
2266	20D4  0C002D3C             jal increment_offset
2267	20D8  0C002D31             jal load_patterns
2268	20DC  21F2DD91             addi $18, $15, 56721
2269	20E0  AFB20000             sw $18, 0($29)
2270	20E4  0C002D3C             jal increment_offset
2271	20E8  0C002D31             jal load_patterns
2272	20EC  21F2D796             addi $18, $15, 55190
2273	20F0  AFB20000             sw $18, 0($29)
2274	20F4  0C002D3C             jal increment_offset
2275	20F8  0C002D31             jal load_patterns
2276	20FC  21F2243B             addi $18, $15, 9275
2277	2100  AFB20000             sw $18, 0($29)
2278	2104  0C002D3C             jal increment_offset
2279	2108  0C002D31             jal load_patterns
2280	210C  21F2EE83             addi $18, $15, 61059
2281	2110  AFB20000             sw $18, 0($29)
2282	2114  0C002D3C             jal increment_offset
2283	2118  0C002D31             jal load_patterns
2284	211C  21F22678             addi $18, $15, 9848
2285	2120  AFB20000             sw $18, 0($29)
2286	2124  0C002D3C             jal increment_offset
2287	2128  0C002D31             jal load_patterns
2288	212C  21F2F1A4             addi $18, $15, 61860
2289	2130  AFB20000             sw $18, 0($29)
2290	2134  0C002D3C             jal increment_offset
2291	2138  0C002D31             jal load_patterns
2292	213C  21F20C78             addi $18, $15, 3192
2293	2140  AFB20000             sw $18, 0($29)
2294	2144  0C002D3C             jal increment_offset
2295	2148  0C002D31             jal load_patterns
2296	214C  21F216A0             addi $18, $15, 5792
2297	2150  AFB20000             sw $18, 0($29)
2298	2154  0C002D3C             jal increment_offset
2299	2158  0C002D31             jal load_patterns
2300	215C  21F247AE             addi $18, $15, 18350
2301	2160  AFB20000             sw $18, 0($29)
2302	2164  0C002D3C             jal increment_offset
2303	2168  0C002D31             jal load_patterns
2304	216C  21F27FCF             addi $18, $15, 32719
2305	2170  AFB20000             sw $18, 0($29)
2306	2174  0C002D3C             jal increment_offset
2307	2178  0C002D31             jal load_patterns
2308	217C  21F2B2CA             addi $18, $15, 45770
2309	2180  AFB20000             sw $18, 0($29)
2310	2184  0C002D3C             jal increment_offset
2311	2188  0C002D31             jal load_patterns
2312	218C  21F2D7C2             addi $18, $15, 55234
2313	2190  AFB20000             sw $18, 0($29)
2314	2194  0C002D3C             jal increment_offset
2315	2198  0C002D31             jal load_patterns
2316	219C  21F2AB79             addi $18, $15, 43897
2317	21A0  AFB20000             sw $18, 0($29)
2318	21A4  0C002D3C             jal increment_offset
2319	21A8  0C002D31             jal load_patterns
2320	21AC  21F21694             addi $18, $15, 5780
2321	21B0  AFB20000             sw $18, 0($29)
2322	21B4  0C002D3C             jal increment_offset
2323	21B8  0C002D31             jal load_patterns
2324	21BC  21F22705             addi $18, $15, 9989
2325	21C0  AFB20000             sw $18, 0($29)
2326	21C4  0C002D3C             jal increment_offset
2327	21C8  0C002D31             jal load_patterns
2328	21CC  21F25A79             addi $18, $15, 23161
2329	21D0  AFB20000             sw $18, 0($29)
2330	21D4  0C002D3C             jal increment_offset
2331	21D8  0C002D31             jal load_patterns
2332	21DC  21F20CA2             addi $18, $15, 3234
2333	21E0  AFB20000             sw $18, 0($29)
2334	21E4  0C002D3C             jal increment_offset
2335	21E8  0C002D31             jal load_patterns
2336	21EC  21F25B63             addi $18, $15, 23395
2337	21F0  AFB20000             sw $18, 0($29)
2338	21F4  0C002D3C             jal increment_offset
2339	21F8  0C002D31             jal load_patterns
2340	21FC  21F21960             addi $18, $15, 6496
2341	2200  AFB20000             sw $18, 0($29)
2342	2204  0C002D3C             jal increment_offset
2343	2208  0C002D31             jal load_patterns
2344	220C  21F242B3             addi $18, $15, 17075
2345	2210  AFB20000             sw $18, 0($29)
2346	2214  0C002D3C             jal increment_offset
2347	2218  0C002D31             jal load_patterns
2348	221C  21F209AE             addi $18, $15, 2478
2349	2220  AFB20000             sw $18, 0($29)
2350	2224  0C002D3C             jal increment_offset
2351	2228  0C002D31             jal load_patterns
2352	222C  21F20AD1             addi $18, $15, 2769
2353	2230  AFB20000             sw $18, 0($29)
2354	2234  0C002D3C             jal increment_offset
2355	2238  0C002D31             jal load_patterns
2356	223C  21F2862C             addi $18, $15, 34348
2357	2240  AFB20000             sw $18, 0($29)
2358	2244  0C002D3C             jal increment_offset
2359	2248  0C002D31             jal load_patterns
2360	224C  21F2BC7A             addi $18, $15, 48250
2361	2250  AFB20000             sw $18, 0($29)
2362	2254  0C002D3C             jal increment_offset
2363	2258  0C002D31             jal load_patterns
2364	225C  21F20A38             addi $18, $15, 2616
2365	2260  AFB20000             sw $18, 0($29)
2366	2264  0C002D3C             jal increment_offset
2367	2268  0C002D31             jal load_patterns
2368	226C  21F26C0C             addi $18, $15, 27660
2369	2270  AFB20000             sw $18, 0($29)
2370	2274  0C002D3C             jal increment_offset
2371	2278  0C002D31             jal load_patterns
2372	227C  21F23752             addi $18, $15, 14162
2373	2280  AFB20000             sw $18, 0($29)
2374	2284  0C002D3C             jal increment_offset
2375	2288  0C002D31             jal load_patterns
2376	228C  21F20B96             addi $18, $15, 2966
2377	2290  AFB20000             sw $18, 0($29)
2378	2294  0C002D3C             jal increment_offset
2379	2298  0C002D31             jal load_patterns
2380	229C  21F2FF35             addi $18, $15, 65333
2381	22A0  AFB20000             sw $18, 0($29)
2382	22A4  0C002D3C             jal increment_offset
2383	22A8  0C002D31             jal load_patterns
2384	22AC  21F2C583             addi $18, $15, 50563
2385	22B0  AFB20000             sw $18, 0($29)
2386	22B4  0C002D3C             jal increment_offset
2387	22B8  0C002D31             jal load_patterns
2388	22BC  21F28FC7             addi $18, $15, 36807
2389	22C0  AFB20000             sw $18, 0($29)
2390	22C4  0C002D3C             jal increment_offset
2391	22C8  0C002D31             jal load_patterns
2392	22CC  21F2AF83             addi $18, $15, 44931
2393	22D0  AFB20000             sw $18, 0($29)
2394	22D4  0C002D3C             jal increment_offset
2395	22D8  0C002D31             jal load_patterns
2396	22DC  21F20979             addi $18, $15, 2425
2397	22E0  AFB20000             sw $18, 0($29)
2398	22E4  0C002D3C             jal increment_offset
2399	22E8  0C002D31             jal load_patterns
2400	22EC  21F283DF             addi $18, $15, 33759
2401	22F0  AFB20000             sw $18, 0($29)
2402	22F4  0C002D3C             jal increment_offset
2403	22F8  0C002D31             jal load_patterns
2404	22FC  21F220AB             addi $18, $15, 8363
2405	2300  AFB20000             sw $18, 0($29)
2406	2304  0C002D3C             jal increment_offset
2407	2308  0C002D31             jal load_patterns
2408	230C  21F241D2             addi $18, $15, 16850
2409	2310  AFB20000             sw $18, 0($29)
2410	2314  0C002D3C             jal increment_offset
2411	2318  0C002D31             jal load_patterns
2412	231C  21F2136F             addi $18, $15, 4975
2413	2320  AFB20000             sw $18, 0($29)
2414	2324  0C002D3C             jal increment_offset
2415	2328  0C002D31             jal load_patterns
2416	232C  21F2C45C             addi $18, $15, 50268
2417	2330  AFB20000             sw $18, 0($29)
2418	2334  0C002D3C             jal increment_offset
2419	2338  0C002D31             jal load_patterns
2420	233C  21F2F089             addi $18, $15, 61577
2421	2340  AFB20000             sw $18, 0($29)
2422	2344  0C002D3C             jal increment_offset
2423	2348  0C002D31             jal load_patterns
2424	234C  21F221EF             addi $18, $15, 8687
2425	2350  AFB20000             sw $18, 0($29)
2426	2354  0C002D3C             jal increment_offset
2427	2358  0C002D31             jal load_patterns
2428	235C  21F289F7             addi $18, $15, 35319
2429	2360  AFB20000             sw $18, 0($29)
2430	2364  0C002D3C             jal increment_offset
2431	2368  0C002D31             jal load_patterns
2432	236C  21F2E4A8             addi $18, $15, 58536
2433	2370  AFB20000             sw $18, 0($29)
2434	2374  0C002D3C             jal increment_offset
2435	2378  0C002D31             jal load_patterns
2436	237C  21F204C3             addi $18, $15, 1219
2437	2380  AFB20000             sw $18, 0($29)
2438	2384  0C002D3C             jal increment_offset
2439	2388  0C002D31             jal load_patterns
2440	238C  21F2F64F             addi $18, $15, 63055
2441	2390  AFB20000             sw $18, 0($29)
2442	2394  0C002D3C             jal increment_offset
2443	2398  0C002D31             jal load_patterns
2444	239C  21F2BF22             addi $18, $15, 48930
2445	23A0  AFB20000             sw $18, 0($29)
2446	23A4  0C002D3C             jal increment_offset
2447	23A8  0C002D31             jal load_patterns
2448	23AC  21F20E40             addi $18, $15, 3648
2449	23B0  AFB20000             sw $18, 0($29)
2450	23B4  0C002D3C             jal increment_offset
2451	23B8  0C002D31             jal load_patterns
2452	23BC  21F2FC4C             addi $18, $15, 64588
2453	23C0  AFB20000             sw $18, 0($29)
2454	23C4  0C002D3C             jal increment_offset
2455	23C8  0C002D31             jal load_patterns
2456	23CC  21F2DFD6             addi $18, $15, 57302
2457	23D0  AFB20000             sw $18, 0($29)
2458	23D4  0C002D3C             jal increment_offset
2459	23D8  0C002D31             jal load_patterns
2460	23DC  21F213F3             addi $18, $15, 5107
2461	23E0  AFB20000             sw $18, 0($29)
2462	23E4  0C002D3C             jal increment_offset
2463	23E8  0C002D31             jal load_patterns
2464	23EC  21F2178C             addi $18, $15, 6028
2465	23F0  AFB20000             sw $18, 0($29)
2466	23F4  0C002D3C             jal increment_offset
2467	23F8  0C002D31             jal load_patterns
2468	23FC  21F22820             addi $18, $15, 10272
2469	2400  AFB20000             sw $18, 0($29)
2470	2404  0C002D3C             jal increment_offset
2471	2408  0C002D31             jal load_patterns
2472	240C  21F231BA             addi $18, $15, 12730
2473	2410  AFB20000             sw $18, 0($29)
2474	2414  0C002D3C             jal increment_offset
2475	2418  0C002D31             jal load_patterns
2476	241C  21F235D9             addi $18, $15, 13785
2477	2420  AFB20000             sw $18, 0($29)
2478	2424  0C002D3C             jal increment_offset
2479	2428  0C002D31             jal load_patterns
2480	242C  21F26840             addi $18, $15, 26688
2481	2430  AFB20000             sw $18, 0($29)
2482	2434  0C002D3C             jal increment_offset
2483	2438  0C002D31             jal load_patterns
2484	243C  21F241A4             addi $18, $15, 16804
2485	2440  AFB20000             sw $18, 0($29)
2486	2444  0C002D3C             jal increment_offset
2487	2448  0C002D31             jal load_patterns
2488	244C  21F209D8             addi $18, $15, 2520
2489	2450  AFB20000             sw $18, 0($29)
2490	2454  0C002D3C             jal increment_offset
2491	2458  0C002D31             jal load_patterns
2492	245C  21F2689A             addi $18, $15, 26778
2493	2460  AFB20000             sw $18, 0($29)
2494	2464  0C002D3C             jal increment_offset
2495	2468  0C002D31             jal load_patterns
2496	246C  21F23D60             addi $18, $15, 15712
2497	2470  AFB20000             sw $18, 0($29)
2498	2474  0C002D3C             jal increment_offset
2499	2478  0C002D31             jal load_patterns
2500	247C  21F23C13             addi $18, $15, 15379
2501	2480  AFB20000             sw $18, 0($29)
2502	2484  0C002D3C             jal increment_offset
2503	2488  0C002D31             jal load_patterns
2504	248C  21F2327E             addi $18, $15, 12926
2505	2490  AFB20000             sw $18, 0($29)
2506	2494  0C002D3C             jal increment_offset
2507	2498  0C002D31             jal load_patterns
2508	249C  21F2AC2A             addi $18, $15, 44074
2509	24A0  AFB20000             sw $18, 0($29)
2510	24A4  0C002D3C             jal increment_offset
2511	24A8  0C002D31             jal load_patterns
2512	24AC  21F28AB0             addi $18, $15, 35504
2513	24B0  AFB20000             sw $18, 0($29)
2514	24B4  0C002D3C             jal increment_offset
2515	24B8  0C002D31             jal load_patterns
2516	24BC  21F267F0             addi $18, $15, 26608
2517	24C0  AFB20000             sw $18, 0($29)
2518	24C4  0C002D3C             jal increment_offset
2519	24C8  0C002D31             jal load_patterns
2520	24CC  21F2E0BC             addi $18, $15, 57532
2521	24D0  AFB20000             sw $18, 0($29)
2522	24D4  0C002D3C             jal increment_offset
2523	24D8  0C002D31             jal load_patterns
2524	24DC  21F2F069             addi $18, $15, 61545
2525	24E0  AFB20000             sw $18, 0($29)
2526	24E4  0C002D3C             jal increment_offset
2527	24E8  0C002D31             jal load_patterns
2528	24EC  21F2A7C4             addi $18, $15, 42948
2529	24F0  AFB20000             sw $18, 0($29)
2530	24F4  0C002D3C             jal increment_offset
2531	24F8  0C002D31             jal load_patterns
2532	24FC  21F2962D             addi $18, $15, 38445
2533	2500  AFB20000             sw $18, 0($29)
2534	2504  0C002D3C             jal increment_offset
2535	2508  0C002D31             jal load_patterns
2536	250C  21F25F66             addi $18, $15, 24422
2537	2510  AFB20000             sw $18, 0($29)
2538	2514  0C002D3C             jal increment_offset
2539	2518  0C002D31             jal load_patterns
2540	251C  21F27D0A             addi $18, $15, 32010
2541	2520  AFB20000             sw $18, 0($29)
2542	2524  0C002D3C             jal increment_offset
2543	2528  0C002D31             jal load_patterns
2544	252C  21F26877             addi $18, $15, 26743
2545	2530  AFB20000             sw $18, 0($29)
2546	2534  0C002D3C             jal increment_offset
2547	2538  0C002D31             jal load_patterns
2548	253C  21F20F02             addi $18, $15, 3842
2549	2540  AFB20000             sw $18, 0($29)
2550	2544  0C002D3C             jal increment_offset
2551	2548  0C002D31             jal load_patterns
2552	254C  21F2C9FF             addi $18, $15, 51711
2553	2550  AFB20000             sw $18, 0($29)
2554	2554  0C002D3C             jal increment_offset
2555	2558  0C002D31             jal load_patterns
2556	255C  21F2CCC9             addi $18, $15, 52425
2557	2560  AFB20000             sw $18, 0($29)
2558	2564  0C002D3C             jal increment_offset
2559	2568  0C002D31             jal load_patterns
2560	256C  21F276A5             addi $18, $15, 30373
2561	2570  AFB20000             sw $18, 0($29)
2562	2574  0C002D3C             jal increment_offset
2563	2578  0C002D31             jal load_patterns
2564	257C  21F2481D             addi $18, $15, 18461
2565	2580  AFB20000             sw $18, 0($29)
2566	2584  0C002D3C             jal increment_offset
2567	2588  0C002D31             jal load_patterns
2568	258C  21F27869             addi $18, $15, 30825
2569	2590  AFB20000             sw $18, 0($29)
2570	2594  0C002D3C             jal increment_offset
2571	2598  0C002D31             jal load_patterns
2572	259C  21F2B7FC             addi $18, $15, 47100
2573	25A0  AFB20000             sw $18, 0($29)
2574	25A4  0C002D3C             jal increment_offset
2575	25A8  0C002D31             jal load_patterns
2576	25AC  21F222E0             addi $18, $15, 8928
2577	25B0  AFB20000             sw $18, 0($29)
2578	25B4  0C002D3C             jal increment_offset
2579	25B8  0C002D31             jal load_patterns
2580	25BC  21F24F3B             addi $18, $15, 20283
2581	25C0  AFB20000             sw $18, 0($29)
2582	25C4  0C002D3C             jal increment_offset
2583	25C8  0C002D31             jal load_patterns
2584	25CC  21F207A7             addi $18, $15, 1959
2585	25D0  AFB20000             sw $18, 0($29)
2586	25D4  0C002D3C             jal increment_offset
2587	25D8  0C002D31             jal load_patterns
2588	25DC  21F2C18E             addi $18, $15, 49550
2589	25E0  AFB20000             sw $18, 0($29)
2590	25E4  0C002D3C             jal increment_offset
2591	25E8  0C002D31             jal load_patterns
2592	25EC  21F2EDEF             addi $18, $15, 60911
2593	25F0  AFB20000             sw $18, 0($29)
2594	25F4  0C002D3C             jal increment_offset
2595	25F8  0C002D31             jal load_patterns
2596	25FC  21F2143C             addi $18, $15, 5180
2597	2600  AFB20000             sw $18, 0($29)
2598	2604  0C002D3C             jal increment_offset
2599	2608  0C002D31             jal load_patterns
2600	260C  21F24F69             addi $18, $15, 20329
2601	2610  AFB20000             sw $18, 0($29)
2602	2614  0C002D3C             jal increment_offset
2603	2618  0C002D31             jal load_patterns
2604	261C  21F257D7             addi $18, $15, 22487
2605	2620  AFB20000             sw $18, 0($29)
2606	2624  0C002D3C             jal increment_offset
2607	2628  0C002D31             jal load_patterns
2608	262C  21F2ED98             addi $18, $15, 60824
2609	2630  AFB20000             sw $18, 0($29)
2610	2634  0C002D3C             jal increment_offset
2611	2638  0C002D31             jal load_patterns
2612	263C  21F2E7A5             addi $18, $15, 59301
2613	2640  AFB20000             sw $18, 0($29)
2614	2644  0C002D3C             jal increment_offset
2615	2648  0C002D31             jal load_patterns
2616	264C  21F27B4F             addi $18, $15, 31567
2617	2650  AFB20000             sw $18, 0($29)
2618	2654  0C002D3C             jal increment_offset
2619	2658  0C002D31             jal load_patterns
2620	265C  21F22E95             addi $18, $15, 11925
2621	2660  AFB20000             sw $18, 0($29)
2622	2664  0C002D3C             jal increment_offset
2623	2668  0C002D31             jal load_patterns
2624	266C  21F273CF             addi $18, $15, 29647
2625	2670  AFB20000             sw $18, 0($29)
2626	2674  0C002D3C             jal increment_offset
2627	2678  0C002D31             jal load_patterns
2628	267C  21F26E7C             addi $18, $15, 28284
2629	2680  AFB20000             sw $18, 0($29)
2630	2684  0C002D3C             jal increment_offset
2631	2688  0C002D31             jal load_patterns
2632	268C  21F2DAE7             addi $18, $15, 56039
2633	2690  AFB20000             sw $18, 0($29)
2634	2694  0C002D3C             jal increment_offset
2635	2698  0C002D31             jal load_patterns
2636	269C  21F24CC2             addi $18, $15, 19650
2637	26A0  AFB20000             sw $18, 0($29)
2638	26A4  0C002D3C             jal increment_offset
2639	26A8  0C002D31             jal load_patterns
2640	26AC  21F24112             addi $18, $15, 16658
2641	26B0  AFB20000             sw $18, 0($29)
2642	26B4  0C002D3C             jal increment_offset
2643	26B8  0C002D31             jal load_patterns
2644	26BC  21F2CDD5             addi $18, $15, 52693
2645	26C0  AFB20000             sw $18, 0($29)
2646	26C4  0C002D3C             jal increment_offset
2647	26C8  0C002D31             jal load_patterns
2648	26CC  21F29EA8             addi $18, $15, 40616
2649	26D0  AFB20000             sw $18, 0($29)
2650	26D4  0C002D3C             jal increment_offset
2651	26D8  0C002D31             jal load_patterns
2652	26DC  21F28FD0             addi $18, $15, 36816
2653	26E0  AFB20000             sw $18, 0($29)
2654	26E4  0C002D3C             jal increment_offset
2655	26E8  0C002D31             jal load_patterns
2656	26EC  21F23149             addi $18, $15, 12617
2657	26F0  AFB20000             sw $18, 0($29)
2658	26F4  0C002D3C             jal increment_offset
2659	26F8  0C002D31             jal load_patterns
2660	26FC  21F2B261             addi $18, $15, 45665
2661	2700  AFB20000             sw $18, 0($29)
2662	2704  0C002D3C             jal increment_offset
2663	2708  0C002D31             jal load_patterns
2664	270C  21F2E219             addi $18, $15, 57881
2665	2710  AFB20000             sw $18, 0($29)
2666	2714  0C002D3C             jal increment_offset
2667	2718  0C002D31             jal load_patterns
2668	271C  21F2A337             addi $18, $15, 41783
2669	2720  AFB20000             sw $18, 0($29)
2670	2724  0C002D3C             jal increment_offset
2671	2728  0C002D31             jal load_patterns
2672	272C  21F2B60E             addi $18, $15, 46606
2673	2730  AFB20000             sw $18, 0($29)
2674	2734  0C002D3C             jal increment_offset
2675	2738  0C002D31             jal load_patterns
2676	273C  21F27FBD             addi $18, $15, 32701
2677	2740  AFB20000             sw $18, 0($29)
2678	2744  0C002D3C             jal increment_offset
2679	                          
2680	2748  0C002D34            jal reset_offsets
2681	                          operation_mtc0:
2682	274C  0C002D31             jal load_patterns
2683	2750  408F6000             mtc0 $15, $12
2684	2754  40906800             mtc0 $16, $13
2685	2758  E3AC0000             swc0 $12, 0($29)
2686	275C  E3AD0004             swc0 $13, 4($29)
2687	2760  0C002D3C             jal increment_offset
2688	2764  177CFFFA             bne $27, $28, operation_mtc0
2689	                          
2690	2768  0C002D34            jal reset_offsets
2691	                          operation_mfc0:
2692	276C  0C002D31             jal load_patterns
2693	2770  408F6000             mtc0 $15, $12
2694	2774  400C9000             mfc0 $18, $12
2695	2778  AFB20000             sw $18, 0($29)
2696	277C  40906800             mtc0 $16, $13
2697	2780  400D9000             mfc0 $18, $13
2698	2784  AFB20004             sw $18, 4($29)
2699	2788  0C002D3C             jal increment_offset
2700	278C  177CFFF8             bne $27, $28, operation_mfc0
2701	                          
2702	2790  0C002D34            jal reset_offsets
2703	                          operation_lw_sw:
2704	2794  8FD20000             lw $18, 0($30)
2705	2798  AFB20000             sw $18, 0($29)
2706	279C  0C002D3C             jal increment_offset
2707	27A0  177CFFFD             bne $27, $28, operation_lw_sw
2708	                          
2709	27A4  0C002D34            jal reset_offsets
2710	                          operation_lw0_sw0:
2711	27A8  C3CE0000             lwc0 $14, 0($30)
2712	27AC  C3CF0004             lwc0 $15, 4($30)
2713	27B0  E3AE0000             swc0 $14, 0($29)
2714	27B4  E3AF0004             swc0 $15, 4($29)
2715	27B8  0C002D3C             jal increment_offset
2716	27BC  177CFFFB             bne $27, $28, operation_lw0_sw0
2717	                          
2718	27C0  0C002D34            jal reset_offsets
2719	                          operation_beq:
2720	27C4  0C0037F6             jal load_branch
2721	27C8  0C002D4F             jal branch_beq
2722	27CC  0C002D3C             jal increment_offset
2723	27D0  177AFFFD             bne $27, $26, operation_beq
2724	                          
2725	27D4  0C002D34            jal reset_offsets
2726	                          operation_bne:
2727	27D8  0C0037F6             jal load_branch
2728	27DC  0C002D54             jal branch_bne
2729	27E0  0C002D3C             jal increment_offset
2730	27E4  177AFFFD             bne $27, $26, operation_bne
2731	                          
2732	27E8  0C002D34            jal reset_offsets
2733	                          operation_bgez:
2734	27EC  0C0037F6             jal load_branch
2735	27F0  0C002D59             jal branch_bgez
2736	27F4  0C002D3C             jal increment_offset
2737	27F8  177AFFFD             bne $27, $26, operation_bgez
2738	                          
2739	27FC  0C002D34            jal reset_offsets
2740	                          operation_bgezal:
2741	2800  0C0037F6             jal load_branch
2742	2804  0C002D5E             jal branch_bgezal
2743	2808  0C002D3C             jal increment_offset
2744	280C  177AFFFD             bne $27, $26, operation_bgezal
2745	                          
2746	2810  0C002D34            jal reset_offsets
2747	                          operation_bgtz:
2748	2814  0C0037F6             jal load_branch
2749	2818  0C002D63             jal branch_bgtz
2750	281C  0C002D3C             jal increment_offset
2751	2820  177AFFFD             bne $27, $26, operation_bgtz
2752	                          
2753	2824  0C002D34            jal reset_offsets
2754	                          operation_blez:
2755	2828  0C0037F6             jal load_branch
2756	282C  0C002D68             jal branch_blez
2757	2830  0C002D3C             jal increment_offset
2758	2834  177AFFFD             bne $27, $26, operation_blez
2759	                          
2760	2838  0C002D34            jal reset_offsets
2761	                          operation_bltz:
2762	283C  0C0037F6             jal load_branch
2763	2840  0C002D6D             jal branch_bltz
2764	2844  0C002D3C             jal increment_offset
2765	2848  177AFFFD             bne $27, $26, operation_bltz
2766	                          
2767	284C  0C002D34            jal reset_offsets
2768	                          operation_bltzal:
2769	2850  0C0037F6             jal load_branch
2770	2854  0C002D72             jal branch_bltzal
2771	2858  0C002D3C             jal increment_offset
2772	285C  177AFFFD             bne $27, $26, operation_bltzal
2773	                          
2774	2860  0C002D34            jal reset_offsets
2775	                          operation_immediate:
2776	2864  0C002D31             jal load_patterns
2777	2868  25F25882             addiu $18, $15, 22658
2778	286C  AFB20000             sw $18, 0($29)
2779	2870  31F25882             andi $18, $15, 22658
2780	2874  AFB20004             sw $18, 4($29)
2781	2878  35F25882             ori $18, $15, 22658
2782	287C  AFB20008             sw $18, 8($29)
2783	2880  29F25882             slti $18, $15, 22658
2784	2884  AFB2000C             sw $18, 12($29)
2785	2888  29F25882             sltiu $18, $15, 22658
2786	288C  AFB20010             sw $18, 16($29)
2787	2890  39F25882             xori $18, $15, 22658
2788	2894  AFB20014             sw $18, 20($29)
2789	2898  0C002D3C             jal increment_offset
2790	289C  0C002D31             jal load_patterns
2791	28A0  25F28ACC             addiu $18, $15, 35532
2792	28A4  AFB2001C             sw $18, 28($29)
2793	28A8  31F28ACC             andi $18, $15, 35532
2794	28AC  AFB20020             sw $18, 32($29)
2795	28B0  35F28ACC             ori $18, $15, 35532
2796	28B4  AFB20024             sw $18, 36($29)
2797	28B8  29F28ACC             slti $18, $15, 35532
2798	28BC  AFB20028             sw $18, 40($29)
2799	28C0  29F28ACC             sltiu $18, $15, 35532
2800	28C4  AFB2002C             sw $18, 44($29)
2801	28C8  39F28ACC             xori $18, $15, 35532
2802	28CC  AFB20030             sw $18, 48($29)
2803	28D0  0C002D3C             jal increment_offset
2804	28D4  0C002D31             jal load_patterns
2805	28D8  25F2B085             addiu $18, $15, 45189
2806	28DC  AFB20038             sw $18, 56($29)
2807	28E0  31F2B085             andi $18, $15, 45189
2808	28E4  AFB2003C             sw $18, 60($29)
2809	28E8  35F2B085             ori $18, $15, 45189
2810	28EC  AFB20040             sw $18, 64($29)
2811	28F0  29F2B085             slti $18, $15, 45189
2812	28F4  AFB20044             sw $18, 68($29)
2813	28F8  29F2B085             sltiu $18, $15, 45189
2814	28FC  AFB20048             sw $18, 72($29)
2815	2900  39F2B085             xori $18, $15, 45189
2816	2904  AFB2004C             sw $18, 76($29)
2817	2908  0C002D3C             jal increment_offset
2818	290C  0C002D31             jal load_patterns
2819	2910  25F2D17E             addiu $18, $15, 53630
2820	2914  AFB20054             sw $18, 84($29)
2821	2918  31F2D17E             andi $18, $15, 53630
2822	291C  AFB20058             sw $18, 88($29)
2823	2920  35F2D17E             ori $18, $15, 53630
2824	2924  AFB2005C             sw $18, 92($29)
2825	2928  29F2D17E             slti $18, $15, 53630
2826	292C  AFB20060             sw $18, 96($29)
2827	2930  29F2D17E             sltiu $18, $15, 53630
2828	2934  AFB20064             sw $18, 100($29)
2829	2938  39F2D17E             xori $18, $15, 53630
2830	293C  AFB20068             sw $18, 104($29)
2831	2940  0C002D3C             jal increment_offset
2832	2944  0C002D31             jal load_patterns
2833	2948  25F2C2E1             addiu $18, $15, 49889
2834	294C  AFB20070             sw $18, 112($29)
2835	2950  31F2C2E1             andi $18, $15, 49889
2836	2954  AFB20074             sw $18, 116($29)
2837	2958  35F2C2E1             ori $18, $15, 49889
2838	295C  AFB20078             sw $18, 120($29)
2839	2960  29F2C2E1             slti $18, $15, 49889
2840	2964  AFB2007C             sw $18, 124($29)
2841	2968  29F2C2E1             sltiu $18, $15, 49889
2842	296C  AFB20080             sw $18, 128($29)
2843	2970  39F2C2E1             xori $18, $15, 49889
2844	2974  AFB20084             sw $18, 132($29)
2845	2978  0C002D3C             jal increment_offset
2846	297C  0C002D31             jal load_patterns
2847	2980  25F2FC93             addiu $18, $15, 64659
2848	2984  AFB2008C             sw $18, 140($29)
2849	2988  31F2FC93             andi $18, $15, 64659
2850	298C  AFB20090             sw $18, 144($29)
2851	2990  35F2FC93             ori $18, $15, 64659
2852	2994  AFB20094             sw $18, 148($29)
2853	2998  29F2FC93             slti $18, $15, 64659
2854	299C  AFB20098             sw $18, 152($29)
2855	29A0  29F2FC93             sltiu $18, $15, 64659
2856	29A4  AFB2009C             sw $18, 156($29)
2857	29A8  39F2FC93             xori $18, $15, 64659
2858	29AC  AFB200A0             sw $18, 160($29)
2859	29B0  0C002D3C             jal increment_offset
2860	29B4  0C002D31             jal load_patterns
2861	29B8  25F2716A             addiu $18, $15, 29034
2862	29BC  AFB200A8             sw $18, 168($29)
2863	29C0  31F2716A             andi $18, $15, 29034
2864	29C4  AFB200AC             sw $18, 172($29)
2865	29C8  35F2716A             ori $18, $15, 29034
2866	29CC  AFB200B0             sw $18, 176($29)
2867	29D0  29F2716A             slti $18, $15, 29034
2868	29D4  AFB200B4             sw $18, 180($29)
2869	29D8  29F2716A             sltiu $18, $15, 29034
2870	29DC  AFB200B8             sw $18, 184($29)
2871	29E0  39F2716A             xori $18, $15, 29034
2872	29E4  AFB200BC             sw $18, 188($29)
2873	29E8  0C002D3C             jal increment_offset
2874	29EC  0C002D31             jal load_patterns
2875	29F0  25F20238             addiu $18, $15, 568
2876	29F4  AFB200C4             sw $18, 196($29)
2877	29F8  31F20238             andi $18, $15, 568
2878	29FC  AFB200C8             sw $18, 200($29)
2879	2A00  35F20238             ori $18, $15, 568
2880	2A04  AFB200CC             sw $18, 204($29)
2881	2A08  29F20238             slti $18, $15, 568
2882	2A0C  AFB200D0             sw $18, 208($29)
2883	2A10  29F20238             sltiu $18, $15, 568
2884	2A14  AFB200D4             sw $18, 212($29)
2885	2A18  39F20238             xori $18, $15, 568
2886	2A1C  AFB200D8             sw $18, 216($29)
2887	2A20  0C002D3C             jal increment_offset
2888	2A24  0C002D31             jal load_patterns
2889	2A28  25F22A22             addiu $18, $15, 10786
2890	2A2C  AFB200E0             sw $18, 224($29)
2891	2A30  31F22A22             andi $18, $15, 10786
2892	2A34  AFB200E4             sw $18, 228($29)
2893	2A38  35F22A22             ori $18, $15, 10786
2894	2A3C  AFB200E8             sw $18, 232($29)
2895	2A40  29F22A22             slti $18, $15, 10786
2896	2A44  AFB200EC             sw $18, 236($29)
2897	2A48  29F22A22             sltiu $18, $15, 10786
2898	2A4C  AFB200F0             sw $18, 240($29)
2899	2A50  39F22A22             xori $18, $15, 10786
2900	2A54  AFB200F4             sw $18, 244($29)
2901	2A58  0C002D3C             jal increment_offset
2902	2A5C  0C002D31             jal load_patterns
2903	2A60  25F2C4E8             addiu $18, $15, 50408
2904	2A64  AFB200FC             sw $18, 252($29)
2905	2A68  31F2C4E8             andi $18, $15, 50408
2906	2A6C  AFB20100             sw $18, 256($29)
2907	2A70  35F2C4E8             ori $18, $15, 50408
2908	2A74  AFB20104             sw $18, 260($29)
2909	2A78  29F2C4E8             slti $18, $15, 50408
2910	2A7C  AFB20108             sw $18, 264($29)
2911	2A80  29F2C4E8             sltiu $18, $15, 50408
2912	2A84  AFB2010C             sw $18, 268($29)
2913	2A88  39F2C4E8             xori $18, $15, 50408
2914	2A8C  AFB20110             sw $18, 272($29)
2915	2A90  0C002D3C             jal increment_offset
2916	2A94  0C002D31             jal load_patterns
2917	2A98  25F2B14E             addiu $18, $15, 45390
2918	2A9C  AFB20118             sw $18, 280($29)
2919	2AA0  31F2B14E             andi $18, $15, 45390
2920	2AA4  AFB2011C             sw $18, 284($29)
2921	2AA8  35F2B14E             ori $18, $15, 45390
2922	2AAC  AFB20120             sw $18, 288($29)
2923	2AB0  29F2B14E             slti $18, $15, 45390
2924	2AB4  AFB20124             sw $18, 292($29)
2925	2AB8  29F2B14E             sltiu $18, $15, 45390
2926	2ABC  AFB20128             sw $18, 296($29)
2927	2AC0  39F2B14E             xori $18, $15, 45390
2928	2AC4  AFB2012C             sw $18, 300($29)
2929	2AC8  0C002D3C             jal increment_offset
2930	2ACC  0C002D31             jal load_patterns
2931	2AD0  25F2BB05             addiu $18, $15, 47877
2932	2AD4  AFB20134             sw $18, 308($29)
2933	2AD8  31F2BB05             andi $18, $15, 47877
2934	2ADC  AFB20138             sw $18, 312($29)
2935	2AE0  35F2BB05             ori $18, $15, 47877
2936	2AE4  AFB2013C             sw $18, 316($29)
2937	2AE8  29F2BB05             slti $18, $15, 47877
2938	2AEC  AFB20140             sw $18, 320($29)
2939	2AF0  29F2BB05             sltiu $18, $15, 47877
2940	2AF4  AFB20144             sw $18, 324($29)
2941	2AF8  39F2BB05             xori $18, $15, 47877
2942	2AFC  AFB20148             sw $18, 328($29)
2943	2B00  0C002D3C             jal increment_offset
2944	2B04  0C002D31             jal load_patterns
2945	2B08  25F2C7E4             addiu $18, $15, 51172
2946	2B0C  AFB20150             sw $18, 336($29)
2947	2B10  31F2C7E4             andi $18, $15, 51172
2948	2B14  AFB20154             sw $18, 340($29)
2949	2B18  35F2C7E4             ori $18, $15, 51172
2950	2B1C  AFB20158             sw $18, 344($29)
2951	2B20  29F2C7E4             slti $18, $15, 51172
2952	2B24  AFB2015C             sw $18, 348($29)
2953	2B28  29F2C7E4             sltiu $18, $15, 51172
2954	2B2C  AFB20160             sw $18, 352($29)
2955	2B30  39F2C7E4             xori $18, $15, 51172
2956	2B34  AFB20164             sw $18, 356($29)
2957	2B38  0C002D3C             jal increment_offset
2958	2B3C  0C002D31             jal load_patterns
2959	2B40  25F28748             addiu $18, $15, 34632
2960	2B44  AFB2016C             sw $18, 364($29)
2961	2B48  31F28748             andi $18, $15, 34632
2962	2B4C  AFB20170             sw $18, 368($29)
2963	2B50  35F28748             ori $18, $15, 34632
2964	2B54  AFB20174             sw $18, 372($29)
2965	2B58  29F28748             slti $18, $15, 34632
2966	2B5C  AFB20178             sw $18, 376($29)
2967	2B60  29F28748             sltiu $18, $15, 34632
2968	2B64  AFB2017C             sw $18, 380($29)
2969	2B68  39F28748             xori $18, $15, 34632
2970	2B6C  AFB20180             sw $18, 384($29)
2971	2B70  0C002D3C             jal increment_offset
2972	2B74  0C002D31             jal load_patterns
2973	2B78  25F2BD11             addiu $18, $15, 48401
2974	2B7C  AFB20188             sw $18, 392($29)
2975	2B80  31F2BD11             andi $18, $15, 48401
2976	2B84  AFB2018C             sw $18, 396($29)
2977	2B88  35F2BD11             ori $18, $15, 48401
2978	2B8C  AFB20190             sw $18, 400($29)
2979	2B90  29F2BD11             slti $18, $15, 48401
2980	2B94  AFB20194             sw $18, 404($29)
2981	2B98  29F2BD11             sltiu $18, $15, 48401
2982	2B9C  AFB20198             sw $18, 408($29)
2983	2BA0  39F2BD11             xori $18, $15, 48401
2984	2BA4  AFB2019C             sw $18, 412($29)
2985	2BA8  0C002D3C             jal increment_offset
2986	2BAC  0C002D31             jal load_patterns
2987	2BB0  25F25773             addiu $18, $15, 22387
2988	2BB4  AFB201A4             sw $18, 420($29)
2989	2BB8  31F25773             andi $18, $15, 22387
2990	2BBC  AFB201A8             sw $18, 424($29)
2991	2BC0  35F25773             ori $18, $15, 22387
2992	2BC4  AFB201AC             sw $18, 428($29)
2993	2BC8  29F25773             slti $18, $15, 22387
2994	2BCC  AFB201B0             sw $18, 432($29)
2995	2BD0  29F25773             sltiu $18, $15, 22387
2996	2BD4  AFB201B4             sw $18, 436($29)
2997	2BD8  39F25773             xori $18, $15, 22387
2998	2BDC  AFB201B8             sw $18, 440($29)
2999	2BE0  0C002D3C             jal increment_offset
3000	2BE4  0C002D31             jal load_patterns
3001	2BE8  25F25CE1             addiu $18, $15, 23777
3002	2BEC  AFB201C0             sw $18, 448($29)
3003	2BF0  31F25CE1             andi $18, $15, 23777
3004	2BF4  AFB201C4             sw $18, 452($29)
3005	2BF8  35F25CE1             ori $18, $15, 23777
3006	2BFC  AFB201C8             sw $18, 456($29)
3007	2C00  29F25CE1             slti $18, $15, 23777
3008	2C04  AFB201CC             sw $18, 460($29)
3009	2C08  29F25CE1             sltiu $18, $15, 23777
3010	2C0C  AFB201D0             sw $18, 464($29)
3011	2C10  39F25CE1             xori $18, $15, 23777
3012	2C14  AFB201D4             sw $18, 468($29)
3013	2C18  0C002D3C             jal increment_offset
3014	2C1C  0C002D31             jal load_patterns
3015	2C20  25F2A2BB             addiu $18, $15, 41659
3016	2C24  AFB201DC             sw $18, 476($29)
3017	2C28  31F2A2BB             andi $18, $15, 41659
3018	2C2C  AFB201E0             sw $18, 480($29)
3019	2C30  35F2A2BB             ori $18, $15, 41659
3020	2C34  AFB201E4             sw $18, 484($29)
3021	2C38  29F2A2BB             slti $18, $15, 41659
3022	2C3C  AFB201E8             sw $18, 488($29)
3023	2C40  29F2A2BB             sltiu $18, $15, 41659
3024	2C44  AFB201EC             sw $18, 492($29)
3025	2C48  39F2A2BB             xori $18, $15, 41659
3026	2C4C  AFB201F0             sw $18, 496($29)
3027	2C50  0C002D3C             jal increment_offset
3028	2C54  0C002D31             jal load_patterns
3029	2C58  25F28A40             addiu $18, $15, 35392
3030	2C5C  AFB201F8             sw $18, 504($29)
3031	2C60  31F28A40             andi $18, $15, 35392
3032	2C64  AFB201FC             sw $18, 508($29)
3033	2C68  35F28A40             ori $18, $15, 35392
3034	2C6C  AFB20200             sw $18, 512($29)
3035	2C70  29F28A40             slti $18, $15, 35392
3036	2C74  AFB20204             sw $18, 516($29)
3037	2C78  29F28A40             sltiu $18, $15, 35392
3038	2C7C  AFB20208             sw $18, 520($29)
3039	2C80  39F28A40             xori $18, $15, 35392
3040	2C84  AFB2020C             sw $18, 524($29)
3041	2C88  0C002D3C             jal increment_offset
3042	2C8C  0C002D31             jal load_patterns
3043	2C90  25F2BECB             addiu $18, $15, 48843
3044	2C94  AFB20214             sw $18, 532($29)
3045	2C98  31F2BECB             andi $18, $15, 48843
3046	2C9C  AFB20218             sw $18, 536($29)
3047	2CA0  35F2BECB             ori $18, $15, 48843
3048	2CA4  AFB2021C             sw $18, 540($29)
3049	2CA8  29F2BECB             slti $18, $15, 48843
3050	2CAC  AFB20220             sw $18, 544($29)
3051	2CB0  29F2BECB             sltiu $18, $15, 48843
3052	2CB4  AFB20224             sw $18, 548($29)
3053	2CB8  39F2BECB             xori $18, $15, 48843
3054	2CBC  AFB20228             sw $18, 552($29)
3055	2CC0  0C002D3C             jal increment_offset
3056	2CC4  0C002D31             jal load_patterns
3057	2CC8  25F2295F             addiu $18, $15, 10591
3058	2CCC  AFB20230             sw $18, 560($29)
3059	2CD0  31F2295F             andi $18, $15, 10591
3060	2CD4  AFB20234             sw $18, 564($29)
3061	2CD8  35F2295F             ori $18, $15, 10591
3062	2CDC  AFB20238             sw $18, 568($29)
3063	2CE0  29F2295F             slti $18, $15, 10591
3064	2CE4  AFB2023C             sw $18, 572($29)
3065	2CE8  29F2295F             sltiu $18, $15, 10591
3066	2CEC  AFB20240             sw $18, 576($29)
3067	2CF0  39F2295F             xori $18, $15, 10591
3068	2CF4  AFB20244             sw $18, 580($29)
3069	2CF8  0C002D3C             jal increment_offset
3070	2CFC  0C002D31             jal load_patterns
3071	2D00  25F2E5EC             addiu $18, $15, 58860
3072	2D04  AFB2024C             sw $18, 588($29)
3073	2D08  31F2E5EC             andi $18, $15, 58860
3074	2D0C  AFB20250             sw $18, 592($29)
3075	2D10  35F2E5EC             ori $18, $15, 58860
3076	2D14  AFB20254             sw $18, 596($29)
3077	2D18  29F2E5EC             slti $18, $15, 58860
3078	2D1C  AFB20258             sw $18, 600($29)
3079	2D20  29F2E5EC             sltiu $18, $15, 58860
3080	2D24  AFB2025C             sw $18, 604($29)
3081	2D28  39F2E5EC             xori $18, $15, 58860
3082	2D2C  AFB20260             sw $18, 608($29)
3083	2D30  0C002D3C             jal increment_offset
3084	2D34  0C002D31             jal load_patterns
3085	2D38  25F2AF25             addiu $18, $15, 44837
3086	2D3C  AFB20268             sw $18, 616($29)
3087	2D40  31F2AF25             andi $18, $15, 44837
3088	2D44  AFB2026C             sw $18, 620($29)
3089	2D48  35F2AF25             ori $18, $15, 44837
3090	2D4C  AFB20270             sw $18, 624($29)
3091	2D50  29F2AF25             slti $18, $15, 44837
3092	2D54  AFB20274             sw $18, 628($29)
3093	2D58  29F2AF25             sltiu $18, $15, 44837
3094	2D5C  AFB20278             sw $18, 632($29)
3095	2D60  39F2AF25             xori $18, $15, 44837
3096	2D64  AFB2027C             sw $18, 636($29)
3097	2D68  0C002D3C             jal increment_offset
3098	2D6C  0C002D31             jal load_patterns
3099	2D70  25F231D0             addiu $18, $15, 12752
3100	2D74  AFB20284             sw $18, 644($29)
3101	2D78  31F231D0             andi $18, $15, 12752
3102	2D7C  AFB20288             sw $18, 648($29)
3103	2D80  35F231D0             ori $18, $15, 12752
3104	2D84  AFB2028C             sw $18, 652($29)
3105	2D88  29F231D0             slti $18, $15, 12752
3106	2D8C  AFB20290             sw $18, 656($29)
3107	2D90  29F231D0             sltiu $18, $15, 12752
3108	2D94  AFB20294             sw $18, 660($29)
3109	2D98  39F231D0             xori $18, $15, 12752
3110	2D9C  AFB20298             sw $18, 664($29)
3111	2DA0  0C002D3C             jal increment_offset
3112	2DA4  0C002D31             jal load_patterns
3113	2DA8  25F2496F             addiu $18, $15, 18799
3114	2DAC  AFB202A0             sw $18, 672($29)
3115	2DB0  31F2496F             andi $18, $15, 18799
3116	2DB4  AFB202A4             sw $18, 676($29)
3117	2DB8  35F2496F             ori $18, $15, 18799
3118	2DBC  AFB202A8             sw $18, 680($29)
3119	2DC0  29F2496F             slti $18, $15, 18799
3120	2DC4  AFB202AC             sw $18, 684($29)
3121	2DC8  29F2496F             sltiu $18, $15, 18799
3122	2DCC  AFB202B0             sw $18, 688($29)
3123	2DD0  39F2496F             xori $18, $15, 18799
3124	2DD4  AFB202B4             sw $18, 692($29)
3125	2DD8  0C002D3C             jal increment_offset
3126	2DDC  0C002D31             jal load_patterns
3127	2DE0  25F25592             addiu $18, $15, 21906
3128	2DE4  AFB202BC             sw $18, 700($29)
3129	2DE8  31F25592             andi $18, $15, 21906
3130	2DEC  AFB202C0             sw $18, 704($29)
3131	2DF0  35F25592             ori $18, $15, 21906
3132	2DF4  AFB202C4             sw $18, 708($29)
3133	2DF8  29F25592             slti $18, $15, 21906
3134	2DFC  AFB202C8             sw $18, 712($29)
3135	2E00  29F25592             sltiu $18, $15, 21906
3136	2E04  AFB202CC             sw $18, 716($29)
3137	2E08  39F25592             xori $18, $15, 21906
3138	2E0C  AFB202D0             sw $18, 720($29)
3139	2E10  0C002D3C             jal increment_offset
3140	2E14  0C002D31             jal load_patterns
3141	2E18  25F21900             addiu $18, $15, 6400
3142	2E1C  AFB202D8             sw $18, 728($29)
3143	2E20  31F21900             andi $18, $15, 6400
3144	2E24  AFB202DC             sw $18, 732($29)
3145	2E28  35F21900             ori $18, $15, 6400
3146	2E2C  AFB202E0             sw $18, 736($29)
3147	2E30  29F21900             slti $18, $15, 6400
3148	2E34  AFB202E4             sw $18, 740($29)
3149	2E38  29F21900             sltiu $18, $15, 6400
3150	2E3C  AFB202E8             sw $18, 744($29)
3151	2E40  39F21900             xori $18, $15, 6400
3152	2E44  AFB202EC             sw $18, 748($29)
3153	2E48  0C002D3C             jal increment_offset
3154	2E4C  0C002D31             jal load_patterns
3155	2E50  25F226DA             addiu $18, $15, 9946
3156	2E54  AFB202F4             sw $18, 756($29)
3157	2E58  31F226DA             andi $18, $15, 9946
3158	2E5C  AFB202F8             sw $18, 760($29)
3159	2E60  35F226DA             ori $18, $15, 9946
3160	2E64  AFB202FC             sw $18, 764($29)
3161	2E68  29F226DA             slti $18, $15, 9946
3162	2E6C  AFB20300             sw $18, 768($29)
3163	2E70  29F226DA             sltiu $18, $15, 9946
3164	2E74  AFB20304             sw $18, 772($29)
3165	2E78  39F226DA             xori $18, $15, 9946
3166	2E7C  AFB20308             sw $18, 776($29)
3167	2E80  0C002D3C             jal increment_offset
3168	2E84  0C002D31             jal load_patterns
3169	2E88  25F2408A             addiu $18, $15, 16522
3170	2E8C  AFB20310             sw $18, 784($29)
3171	2E90  31F2408A             andi $18, $15, 16522
3172	2E94  AFB20314             sw $18, 788($29)
3173	2E98  35F2408A             ori $18, $15, 16522
3174	2E9C  AFB20318             sw $18, 792($29)
3175	2EA0  29F2408A             slti $18, $15, 16522
3176	2EA4  AFB2031C             sw $18, 796($29)
3177	2EA8  29F2408A             sltiu $18, $15, 16522
3178	2EAC  AFB20320             sw $18, 800($29)
3179	2EB0  39F2408A             xori $18, $15, 16522
3180	2EB4  AFB20324             sw $18, 804($29)
3181	2EB8  0C002D3C             jal increment_offset
3182	2EBC  0C002D31             jal load_patterns
3183	2EC0  25F2297E             addiu $18, $15, 10622
3184	2EC4  AFB2032C             sw $18, 812($29)
3185	2EC8  31F2297E             andi $18, $15, 10622
3186	2ECC  AFB20330             sw $18, 816($29)
3187	2ED0  35F2297E             ori $18, $15, 10622
3188	2ED4  AFB20334             sw $18, 820($29)
3189	2ED8  29F2297E             slti $18, $15, 10622
3190	2EDC  AFB20338             sw $18, 824($29)
3191	2EE0  29F2297E             sltiu $18, $15, 10622
3192	2EE4  AFB2033C             sw $18, 828($29)
3193	2EE8  39F2297E             xori $18, $15, 10622
3194	2EEC  AFB20340             sw $18, 832($29)
3195	2EF0  0C002D3C             jal increment_offset
3196	2EF4  0C002D31             jal load_patterns
3197	2EF8  25F22961             addiu $18, $15, 10593
3198	2EFC  AFB20348             sw $18, 840($29)
3199	2F00  31F22961             andi $18, $15, 10593
3200	2F04  AFB2034C             sw $18, 844($29)
3201	2F08  35F22961             ori $18, $15, 10593
3202	2F0C  AFB20350             sw $18, 848($29)
3203	2F10  29F22961             slti $18, $15, 10593
3204	2F14  AFB20354             sw $18, 852($29)
3205	2F18  29F22961             sltiu $18, $15, 10593
3206	2F1C  AFB20358             sw $18, 856($29)
3207	2F20  39F22961             xori $18, $15, 10593
3208	2F24  AFB2035C             sw $18, 860($29)
3209	2F28  0C002D3C             jal increment_offset
3210	2F2C  0C002D31             jal load_patterns
3211	2F30  25F2E80E             addiu $18, $15, 59406
3212	2F34  AFB20364             sw $18, 868($29)
3213	2F38  31F2E80E             andi $18, $15, 59406
3214	2F3C  AFB20368             sw $18, 872($29)
3215	2F40  35F2E80E             ori $18, $15, 59406
3216	2F44  AFB2036C             sw $18, 876($29)
3217	2F48  29F2E80E             slti $18, $15, 59406
3218	2F4C  AFB20370             sw $18, 880($29)
3219	2F50  29F2E80E             sltiu $18, $15, 59406
3220	2F54  AFB20374             sw $18, 884($29)
3221	2F58  39F2E80E             xori $18, $15, 59406
3222	2F5C  AFB20378             sw $18, 888($29)
3223	2F60  0C002D3C             jal increment_offset
3224	2F64  0C002D31             jal load_patterns
3225	2F68  25F2B202             addiu $18, $15, 45570
3226	2F6C  AFB20380             sw $18, 896($29)
3227	2F70  31F2B202             andi $18, $15, 45570
3228	2F74  AFB20384             sw $18, 900($29)
3229	2F78  35F2B202             ori $18, $15, 45570
3230	2F7C  AFB20388             sw $18, 904($29)
3231	2F80  29F2B202             slti $18, $15, 45570
3232	2F84  AFB2038C             sw $18, 908($29)
3233	2F88  29F2B202             sltiu $18, $15, 45570
3234	2F8C  AFB20390             sw $18, 912($29)
3235	2F90  39F2B202             xori $18, $15, 45570
3236	2F94  AFB20394             sw $18, 916($29)
3237	2F98  0C002D3C             jal increment_offset
3238	2F9C  0C002D31             jal load_patterns
3239	2FA0  25F23388             addiu $18, $15, 13192
3240	2FA4  AFB2039C             sw $18, 924($29)
3241	2FA8  31F23388             andi $18, $15, 13192
3242	2FAC  AFB203A0             sw $18, 928($29)
3243	2FB0  35F23388             ori $18, $15, 13192
3244	2FB4  AFB203A4             sw $18, 932($29)
3245	2FB8  29F23388             slti $18, $15, 13192
3246	2FBC  AFB203A8             sw $18, 936($29)
3247	2FC0  29F23388             sltiu $18, $15, 13192
3248	2FC4  AFB203AC             sw $18, 940($29)
3249	2FC8  39F23388             xori $18, $15, 13192
3250	2FCC  AFB203B0             sw $18, 944($29)
3251	2FD0  0C002D3C             jal increment_offset
3252	2FD4  0C002D31             jal load_patterns
3253	2FD8  25F208DC             addiu $18, $15, 2268
3254	2FDC  AFB203B8             sw $18, 952($29)
3255	2FE0  31F208DC             andi $18, $15, 2268
3256	2FE4  AFB203BC             sw $18, 956($29)
3257	2FE8  35F208DC             ori $18, $15, 2268
3258	2FEC  AFB203C0             sw $18, 960($29)
3259	2FF0  29F208DC             slti $18, $15, 2268
3260	2FF4  AFB203C4             sw $18, 964($29)
3261	2FF8  29F208DC             sltiu $18, $15, 2268
3262	2FFC  AFB203C8             sw $18, 968($29)
3263	3000  39F208DC             xori $18, $15, 2268
3264	3004  AFB203CC             sw $18, 972($29)
3265	3008  0C002D3C             jal increment_offset
3266	300C  0C002D31             jal load_patterns
3267	3010  25F2363B             addiu $18, $15, 13883
3268	3014  AFB203D4             sw $18, 980($29)
3269	3018  31F2363B             andi $18, $15, 13883
3270	301C  AFB203D8             sw $18, 984($29)
3271	3020  35F2363B             ori $18, $15, 13883
3272	3024  AFB203DC             sw $18, 988($29)
3273	3028  29F2363B             slti $18, $15, 13883
3274	302C  AFB203E0             sw $18, 992($29)
3275	3030  29F2363B             sltiu $18, $15, 13883
3276	3034  AFB203E4             sw $18, 996($29)
3277	3038  39F2363B             xori $18, $15, 13883
3278	303C  AFB203E8             sw $18, 1000($29)
3279	3040  0C002D3C             jal increment_offset
3280	3044  0C002D31             jal load_patterns
3281	3048  25F2CFF9             addiu $18, $15, 53241
3282	304C  AFB203F0             sw $18, 1008($29)
3283	3050  31F2CFF9             andi $18, $15, 53241
3284	3054  AFB203F4             sw $18, 1012($29)
3285	3058  35F2CFF9             ori $18, $15, 53241
3286	305C  AFB203F8             sw $18, 1016($29)
3287	3060  29F2CFF9             slti $18, $15, 53241
3288	3064  AFB203FC             sw $18, 1020($29)
3289	3068  29F2CFF9             sltiu $18, $15, 53241
3290	306C  AFB20400             sw $18, 1024($29)
3291	3070  39F2CFF9             xori $18, $15, 53241
3292	3074  AFB20404             sw $18, 1028($29)
3293	3078  0C002D3C             jal increment_offset
3294	307C  0C002D31             jal load_patterns
3295	3080  25F24B2C             addiu $18, $15, 19244
3296	3084  AFB2040C             sw $18, 1036($29)
3297	3088  31F24B2C             andi $18, $15, 19244
3298	308C  AFB20410             sw $18, 1040($29)
3299	3090  35F24B2C             ori $18, $15, 19244
3300	3094  AFB20414             sw $18, 1044($29)
3301	3098  29F24B2C             slti $18, $15, 19244
3302	309C  AFB20418             sw $18, 1048($29)
3303	30A0  29F24B2C             sltiu $18, $15, 19244
3304	30A4  AFB2041C             sw $18, 1052($29)
3305	30A8  39F24B2C             xori $18, $15, 19244
3306	30AC  AFB20420             sw $18, 1056($29)
3307	30B0  0C002D3C             jal increment_offset
3308	30B4  0C002D31             jal load_patterns
3309	30B8  25F2BE61             addiu $18, $15, 48737
3310	30BC  AFB20428             sw $18, 1064($29)
3311	30C0  31F2BE61             andi $18, $15, 48737
3312	30C4  AFB2042C             sw $18, 1068($29)
3313	30C8  35F2BE61             ori $18, $15, 48737
3314	30CC  AFB20430             sw $18, 1072($29)
3315	30D0  29F2BE61             slti $18, $15, 48737
3316	30D4  AFB20434             sw $18, 1076($29)
3317	30D8  29F2BE61             sltiu $18, $15, 48737
3318	30DC  AFB20438             sw $18, 1080($29)
3319	30E0  39F2BE61             xori $18, $15, 48737
3320	30E4  AFB2043C             sw $18, 1084($29)
3321	30E8  0C002D3C             jal increment_offset
3322	30EC  0C002D31             jal load_patterns
3323	30F0  25F209C4             addiu $18, $15, 2500
3324	30F4  AFB20444             sw $18, 1092($29)
3325	30F8  31F209C4             andi $18, $15, 2500
3326	30FC  AFB20448             sw $18, 1096($29)
3327	3100  35F209C4             ori $18, $15, 2500
3328	3104  AFB2044C             sw $18, 1100($29)
3329	3108  29F209C4             slti $18, $15, 2500
3330	310C  AFB20450             sw $18, 1104($29)
3331	3110  29F209C4             sltiu $18, $15, 2500
3332	3114  AFB20454             sw $18, 1108($29)
3333	3118  39F209C4             xori $18, $15, 2500
3334	311C  AFB20458             sw $18, 1112($29)
3335	3120  0C002D3C             jal increment_offset
3336	3124  0C002D31             jal load_patterns
3337	3128  25F297A3             addiu $18, $15, 38819
3338	312C  AFB20460             sw $18, 1120($29)
3339	3130  31F297A3             andi $18, $15, 38819
3340	3134  AFB20464             sw $18, 1124($29)
3341	3138  35F297A3             ori $18, $15, 38819
3342	313C  AFB20468             sw $18, 1128($29)
3343	3140  29F297A3             slti $18, $15, 38819
3344	3144  AFB2046C             sw $18, 1132($29)
3345	3148  29F297A3             sltiu $18, $15, 38819
3346	314C  AFB20470             sw $18, 1136($29)
3347	3150  39F297A3             xori $18, $15, 38819
3348	3154  AFB20474             sw $18, 1140($29)
3349	3158  0C002D3C             jal increment_offset
3350	315C  0C002D31             jal load_patterns
3351	3160  25F2718A             addiu $18, $15, 29066
3352	3164  AFB2047C             sw $18, 1148($29)
3353	3168  31F2718A             andi $18, $15, 29066
3354	316C  AFB20480             sw $18, 1152($29)
3355	3170  35F2718A             ori $18, $15, 29066
3356	3174  AFB20484             sw $18, 1156($29)
3357	3178  29F2718A             slti $18, $15, 29066
3358	317C  AFB20488             sw $18, 1160($29)
3359	3180  29F2718A             sltiu $18, $15, 29066
3360	3184  AFB2048C             sw $18, 1164($29)
3361	3188  39F2718A             xori $18, $15, 29066
3362	318C  AFB20490             sw $18, 1168($29)
3363	3190  0C002D3C             jal increment_offset
3364	3194  0C002D31             jal load_patterns
3365	3198  25F2E80D             addiu $18, $15, 59405
3366	319C  AFB20498             sw $18, 1176($29)
3367	31A0  31F2E80D             andi $18, $15, 59405
3368	31A4  AFB2049C             sw $18, 1180($29)
3369	31A8  35F2E80D             ori $18, $15, 59405
3370	31AC  AFB204A0             sw $18, 1184($29)
3371	31B0  29F2E80D             slti $18, $15, 59405
3372	31B4  AFB204A4             sw $18, 1188($29)
3373	31B8  29F2E80D             sltiu $18, $15, 59405
3374	31BC  AFB204A8             sw $18, 1192($29)
3375	31C0  39F2E80D             xori $18, $15, 59405
3376	31C4  AFB204AC             sw $18, 1196($29)
3377	31C8  0C002D3C             jal increment_offset
3378	31CC  0C002D31             jal load_patterns
3379	31D0  25F2514B             addiu $18, $15, 20811
3380	31D4  AFB204B4             sw $18, 1204($29)
3381	31D8  31F2514B             andi $18, $15, 20811
3382	31DC  AFB204B8             sw $18, 1208($29)
3383	31E0  35F2514B             ori $18, $15, 20811
3384	31E4  AFB204BC             sw $18, 1212($29)
3385	31E8  29F2514B             slti $18, $15, 20811
3386	31EC  AFB204C0             sw $18, 1216($29)
3387	31F0  29F2514B             sltiu $18, $15, 20811
3388	31F4  AFB204C4             sw $18, 1220($29)
3389	31F8  39F2514B             xori $18, $15, 20811
3390	31FC  AFB204C8             sw $18, 1224($29)
3391	3200  0C002D3C             jal increment_offset
3392	3204  0C002D31             jal load_patterns
3393	3208  25F2A44B             addiu $18, $15, 42059
3394	320C  AFB204D0             sw $18, 1232($29)
3395	3210  31F2A44B             andi $18, $15, 42059
3396	3214  AFB204D4             sw $18, 1236($29)
3397	3218  35F2A44B             ori $18, $15, 42059
3398	321C  AFB204D8             sw $18, 1240($29)
3399	3220  29F2A44B             slti $18, $15, 42059
3400	3224  AFB204DC             sw $18, 1244($29)
3401	3228  29F2A44B             sltiu $18, $15, 42059
3402	322C  AFB204E0             sw $18, 1248($29)
3403	3230  39F2A44B             xori $18, $15, 42059
3404	3234  AFB204E4             sw $18, 1252($29)
3405	3238  0C002D3C             jal increment_offset
3406	323C  0C002D31             jal load_patterns
3407	3240  25F2E758             addiu $18, $15, 59224
3408	3244  AFB204EC             sw $18, 1260($29)
3409	3248  31F2E758             andi $18, $15, 59224
3410	324C  AFB204F0             sw $18, 1264($29)
3411	3250  35F2E758             ori $18, $15, 59224
3412	3254  AFB204F4             sw $18, 1268($29)
3413	3258  29F2E758             slti $18, $15, 59224
3414	325C  AFB204F8             sw $18, 1272($29)
3415	3260  29F2E758             sltiu $18, $15, 59224
3416	3264  AFB204FC             sw $18, 1276($29)
3417	3268  39F2E758             xori $18, $15, 59224
3418	326C  AFB20500             sw $18, 1280($29)
3419	3270  0C002D3C             jal increment_offset
3420	3274  0C002D31             jal load_patterns
3421	3278  25F20FB8             addiu $18, $15, 4024
3422	327C  AFB20508             sw $18, 1288($29)
3423	3280  31F20FB8             andi $18, $15, 4024
3424	3284  AFB2050C             sw $18, 1292($29)
3425	3288  35F20FB8             ori $18, $15, 4024
3426	328C  AFB20510             sw $18, 1296($29)
3427	3290  29F20FB8             slti $18, $15, 4024
3428	3294  AFB20514             sw $18, 1300($29)
3429	3298  29F20FB8             sltiu $18, $15, 4024
3430	329C  AFB20518             sw $18, 1304($29)
3431	32A0  39F20FB8             xori $18, $15, 4024
3432	32A4  AFB2051C             sw $18, 1308($29)
3433	32A8  0C002D3C             jal increment_offset
3434	32AC  0C002D31             jal load_patterns
3435	32B0  25F25C1B             addiu $18, $15, 23579
3436	32B4  AFB20524             sw $18, 1316($29)
3437	32B8  31F25C1B             andi $18, $15, 23579
3438	32BC  AFB20528             sw $18, 1320($29)
3439	32C0  35F25C1B             ori $18, $15, 23579
3440	32C4  AFB2052C             sw $18, 1324($29)
3441	32C8  29F25C1B             slti $18, $15, 23579
3442	32CC  AFB20530             sw $18, 1328($29)
3443	32D0  29F25C1B             sltiu $18, $15, 23579
3444	32D4  AFB20534             sw $18, 1332($29)
3445	32D8  39F25C1B             xori $18, $15, 23579
3446	32DC  AFB20538             sw $18, 1336($29)
3447	32E0  0C002D3C             jal increment_offset
3448	32E4  0C002D31             jal load_patterns
3449	32E8  25F24474             addiu $18, $15, 17524
3450	32EC  AFB20540             sw $18, 1344($29)
3451	32F0  31F24474             andi $18, $15, 17524
3452	32F4  AFB20544             sw $18, 1348($29)
3453	32F8  35F24474             ori $18, $15, 17524
3454	32FC  AFB20548             sw $18, 1352($29)
3455	3300  29F24474             slti $18, $15, 17524
3456	3304  AFB2054C             sw $18, 1356($29)
3457	3308  29F24474             sltiu $18, $15, 17524
3458	330C  AFB20550             sw $18, 1360($29)
3459	3310  39F24474             xori $18, $15, 17524
3460	3314  AFB20554             sw $18, 1364($29)
3461	3318  0C002D3C             jal increment_offset
3462	331C  0C002D31             jal load_patterns
3463	3320  25F2EF1E             addiu $18, $15, 61214
3464	3324  AFB2055C             sw $18, 1372($29)
3465	3328  31F2EF1E             andi $18, $15, 61214
3466	332C  AFB20560             sw $18, 1376($29)
3467	3330  35F2EF1E             ori $18, $15, 61214
3468	3334  AFB20564             sw $18, 1380($29)
3469	3338  29F2EF1E             slti $18, $15, 61214
3470	333C  AFB20568             sw $18, 1384($29)
3471	3340  29F2EF1E             sltiu $18, $15, 61214
3472	3344  AFB2056C             sw $18, 1388($29)
3473	3348  39F2EF1E             xori $18, $15, 61214
3474	334C  AFB20570             sw $18, 1392($29)
3475	3350  0C002D3C             jal increment_offset
3476	3354  0C002D31             jal load_patterns
3477	3358  25F23BC4             addiu $18, $15, 15300
3478	335C  AFB20578             sw $18, 1400($29)
3479	3360  31F23BC4             andi $18, $15, 15300
3480	3364  AFB2057C             sw $18, 1404($29)
3481	3368  35F23BC4             ori $18, $15, 15300
3482	336C  AFB20580             sw $18, 1408($29)
3483	3370  29F23BC4             slti $18, $15, 15300
3484	3374  AFB20584             sw $18, 1412($29)
3485	3378  29F23BC4             sltiu $18, $15, 15300
3486	337C  AFB20588             sw $18, 1416($29)
3487	3380  39F23BC4             xori $18, $15, 15300
3488	3384  AFB2058C             sw $18, 1420($29)
3489	3388  0C002D3C             jal increment_offset
3490	338C  0C002D31             jal load_patterns
3491	3390  25F2FD41             addiu $18, $15, 64833
3492	3394  AFB20594             sw $18, 1428($29)
3493	3398  31F2FD41             andi $18, $15, 64833
3494	339C  AFB20598             sw $18, 1432($29)
3495	33A0  35F2FD41             ori $18, $15, 64833
3496	33A4  AFB2059C             sw $18, 1436($29)
3497	33A8  29F2FD41             slti $18, $15, 64833
3498	33AC  AFB205A0             sw $18, 1440($29)
3499	33B0  29F2FD41             sltiu $18, $15, 64833
3500	33B4  AFB205A4             sw $18, 1444($29)
3501	33B8  39F2FD41             xori $18, $15, 64833
3502	33BC  AFB205A8             sw $18, 1448($29)
3503	33C0  0C002D3C             jal increment_offset
3504	33C4  0C002D31             jal load_patterns
3505	33C8  25F2D65A             addiu $18, $15, 54874
3506	33CC  AFB205B0             sw $18, 1456($29)
3507	33D0  31F2D65A             andi $18, $15, 54874
3508	33D4  AFB205B4             sw $18, 1460($29)
3509	33D8  35F2D65A             ori $18, $15, 54874
3510	33DC  AFB205B8             sw $18, 1464($29)
3511	33E0  29F2D65A             slti $18, $15, 54874
3512	33E4  AFB205BC             sw $18, 1468($29)
3513	33E8  29F2D65A             sltiu $18, $15, 54874
3514	33EC  AFB205C0             sw $18, 1472($29)
3515	33F0  39F2D65A             xori $18, $15, 54874
3516	33F4  AFB205C4             sw $18, 1476($29)
3517	33F8  0C002D3C             jal increment_offset
3518	33FC  0C002D31             jal load_patterns
3519	3400  25F20487             addiu $18, $15, 1159
3520	3404  AFB205CC             sw $18, 1484($29)
3521	3408  31F20487             andi $18, $15, 1159
3522	340C  AFB205D0             sw $18, 1488($29)
3523	3410  35F20487             ori $18, $15, 1159
3524	3414  AFB205D4             sw $18, 1492($29)
3525	3418  29F20487             slti $18, $15, 1159
3526	341C  AFB205D8             sw $18, 1496($29)
3527	3420  29F20487             sltiu $18, $15, 1159
3528	3424  AFB205DC             sw $18, 1500($29)
3529	3428  39F20487             xori $18, $15, 1159
3530	342C  AFB205E0             sw $18, 1504($29)
3531	3430  0C002D3C             jal increment_offset
3532	3434  0C002D31             jal load_patterns
3533	3438  25F2EF65             addiu $18, $15, 61285
3534	343C  AFB205E8             sw $18, 1512($29)
3535	3440  31F2EF65             andi $18, $15, 61285
3536	3444  AFB205EC             sw $18, 1516($29)
3537	3448  35F2EF65             ori $18, $15, 61285
3538	344C  AFB205F0             sw $18, 1520($29)
3539	3450  29F2EF65             slti $18, $15, 61285
3540	3454  AFB205F4             sw $18, 1524($29)
3541	3458  29F2EF65             sltiu $18, $15, 61285
3542	345C  AFB205F8             sw $18, 1528($29)
3543	3460  39F2EF65             xori $18, $15, 61285
3544	3464  AFB205FC             sw $18, 1532($29)
3545	3468  0C002D3C             jal increment_offset
3546	346C  0C002D31             jal load_patterns
3547	3470  25F2F2C3             addiu $18, $15, 62147
3548	3474  AFB20604             sw $18, 1540($29)
3549	3478  31F2F2C3             andi $18, $15, 62147
3550	347C  AFB20608             sw $18, 1544($29)
3551	3480  35F2F2C3             ori $18, $15, 62147
3552	3484  AFB2060C             sw $18, 1548($29)
3553	3488  29F2F2C3             slti $18, $15, 62147
3554	348C  AFB20610             sw $18, 1552($29)
3555	3490  29F2F2C3             sltiu $18, $15, 62147
3556	3494  AFB20614             sw $18, 1556($29)
3557	3498  39F2F2C3             xori $18, $15, 62147
3558	349C  AFB20618             sw $18, 1560($29)
3559	34A0  0C002D3C             jal increment_offset
3560	34A4  0C002D31             jal load_patterns
3561	34A8  25F26076             addiu $18, $15, 24694
3562	34AC  AFB20620             sw $18, 1568($29)
3563	34B0  31F26076             andi $18, $15, 24694
3564	34B4  AFB20624             sw $18, 1572($29)
3565	34B8  35F26076             ori $18, $15, 24694
3566	34BC  AFB20628             sw $18, 1576($29)
3567	34C0  29F26076             slti $18, $15, 24694
3568	34C4  AFB2062C             sw $18, 1580($29)
3569	34C8  29F26076             sltiu $18, $15, 24694
3570	34CC  AFB20630             sw $18, 1584($29)
3571	34D0  39F26076             xori $18, $15, 24694
3572	34D4  AFB20634             sw $18, 1588($29)
3573	34D8  0C002D3C             jal increment_offset
3574	34DC  0C002D31             jal load_patterns
3575	34E0  25F2214A             addiu $18, $15, 8522
3576	34E4  AFB2063C             sw $18, 1596($29)
3577	34E8  31F2214A             andi $18, $15, 8522
3578	34EC  AFB20640             sw $18, 1600($29)
3579	34F0  35F2214A             ori $18, $15, 8522
3580	34F4  AFB20644             sw $18, 1604($29)
3581	34F8  29F2214A             slti $18, $15, 8522
3582	34FC  AFB20648             sw $18, 1608($29)
3583	3500  29F2214A             sltiu $18, $15, 8522
3584	3504  AFB2064C             sw $18, 1612($29)
3585	3508  39F2214A             xori $18, $15, 8522
3586	350C  AFB20650             sw $18, 1616($29)
3587	3510  0C002D3C             jal increment_offset
3588	3514  0C002D31             jal load_patterns
3589	3518  25F268D6             addiu $18, $15, 26838
3590	351C  AFB20658             sw $18, 1624($29)
3591	3520  31F268D6             andi $18, $15, 26838
3592	3524  AFB2065C             sw $18, 1628($29)
3593	3528  35F268D6             ori $18, $15, 26838
3594	352C  AFB20660             sw $18, 1632($29)
3595	3530  29F268D6             slti $18, $15, 26838
3596	3534  AFB20664             sw $18, 1636($29)
3597	3538  29F268D6             sltiu $18, $15, 26838
3598	353C  AFB20668             sw $18, 1640($29)
3599	3540  39F268D6             xori $18, $15, 26838
3600	3544  AFB2066C             sw $18, 1644($29)
3601	3548  0C002D3C             jal increment_offset
3602	354C  0C002D31             jal load_patterns
3603	3550  25F2E735             addiu $18, $15, 59189
3604	3554  AFB20674             sw $18, 1652($29)
3605	3558  31F2E735             andi $18, $15, 59189
3606	355C  AFB20678             sw $18, 1656($29)
3607	3560  35F2E735             ori $18, $15, 59189
3608	3564  AFB2067C             sw $18, 1660($29)
3609	3568  29F2E735             slti $18, $15, 59189
3610	356C  AFB20680             sw $18, 1664($29)
3611	3570  29F2E735             sltiu $18, $15, 59189
3612	3574  AFB20684             sw $18, 1668($29)
3613	3578  39F2E735             xori $18, $15, 59189
3614	357C  AFB20688             sw $18, 1672($29)
3615	3580  0C002D3C             jal increment_offset
3616	3584  0C002D31             jal load_patterns
3617	3588  25F2F756             addiu $18, $15, 63318
3618	358C  AFB20690             sw $18, 1680($29)
3619	3590  31F2F756             andi $18, $15, 63318
3620	3594  AFB20694             sw $18, 1684($29)
3621	3598  35F2F756             ori $18, $15, 63318
3622	359C  AFB20698             sw $18, 1688($29)
3623	35A0  29F2F756             slti $18, $15, 63318
3624	35A4  AFB2069C             sw $18, 1692($29)
3625	35A8  29F2F756             sltiu $18, $15, 63318
3626	35AC  AFB206A0             sw $18, 1696($29)
3627	35B0  39F2F756             xori $18, $15, 63318
3628	35B4  AFB206A4             sw $18, 1700($29)
3629	35B8  0C002D3C             jal increment_offset
3630	35BC  0C002D31             jal load_patterns
3631	35C0  25F2E52D             addiu $18, $15, 58669
3632	35C4  AFB206AC             sw $18, 1708($29)
3633	35C8  31F2E52D             andi $18, $15, 58669
3634	35CC  AFB206B0             sw $18, 1712($29)
3635	35D0  35F2E52D             ori $18, $15, 58669
3636	35D4  AFB206B4             sw $18, 1716($29)
3637	35D8  29F2E52D             slti $18, $15, 58669
3638	35DC  AFB206B8             sw $18, 1720($29)
3639	35E0  29F2E52D             sltiu $18, $15, 58669
3640	35E4  AFB206BC             sw $18, 1724($29)
3641	35E8  39F2E52D             xori $18, $15, 58669
3642	35EC  AFB206C0             sw $18, 1728($29)
3643	35F0  0C002D3C             jal increment_offset
3644	35F4  0C002D31             jal load_patterns
3645	35F8  25F22369             addiu $18, $15, 9065
3646	35FC  AFB206C8             sw $18, 1736($29)
3647	3600  31F22369             andi $18, $15, 9065
3648	3604  AFB206CC             sw $18, 1740($29)
3649	3608  35F22369             ori $18, $15, 9065
3650	360C  AFB206D0             sw $18, 1744($29)
3651	3610  29F22369             slti $18, $15, 9065
3652	3614  AFB206D4             sw $18, 1748($29)
3653	3618  29F22369             sltiu $18, $15, 9065
3654	361C  AFB206D8             sw $18, 1752($29)
3655	3620  39F22369             xori $18, $15, 9065
3656	3624  AFB206DC             sw $18, 1756($29)
3657	3628  0C002D3C             jal increment_offset
3658	362C  0C002D31             jal load_patterns
3659	3630  25F2DD91             addiu $18, $15, 56721
3660	3634  AFB206E4             sw $18, 1764($29)
3661	3638  31F2DD91             andi $18, $15, 56721
3662	363C  AFB206E8             sw $18, 1768($29)
3663	3640  35F2DD91             ori $18, $15, 56721
3664	3644  AFB206EC             sw $18, 1772($29)
3665	3648  29F2DD91             slti $18, $15, 56721
3666	364C  AFB206F0             sw $18, 1776($29)
3667	3650  29F2DD91             sltiu $18, $15, 56721
3668	3654  AFB206F4             sw $18, 1780($29)
3669	3658  39F2DD91             xori $18, $15, 56721
3670	365C  AFB206F8             sw $18, 1784($29)
3671	3660  0C002D3C             jal increment_offset
3672	3664  0C002D31             jal load_patterns
3673	3668  25F2D796             addiu $18, $15, 55190
3674	366C  AFB20700             sw $18, 1792($29)
3675	3670  31F2D796             andi $18, $15, 55190
3676	3674  AFB20704             sw $18, 1796($29)
3677	3678  35F2D796             ori $18, $15, 55190
3678	367C  AFB20708             sw $18, 1800($29)
3679	3680  29F2D796             slti $18, $15, 55190
3680	3684  AFB2070C             sw $18, 1804($29)
3681	3688  29F2D796             sltiu $18, $15, 55190
3682	368C  AFB20710             sw $18, 1808($29)
3683	3690  39F2D796             xori $18, $15, 55190
3684	3694  AFB20714             sw $18, 1812($29)
3685	3698  0C002D3C             jal increment_offset
3686	369C  0C002D31             jal load_patterns
3687	36A0  25F2243B             addiu $18, $15, 9275
3688	36A4  AFB2071C             sw $18, 1820($29)
3689	36A8  31F2243B             andi $18, $15, 9275
3690	36AC  AFB20720             sw $18, 1824($29)
3691	36B0  35F2243B             ori $18, $15, 9275
3692	36B4  AFB20724             sw $18, 1828($29)
3693	36B8  29F2243B             slti $18, $15, 9275
3694	36BC  AFB20728             sw $18, 1832($29)
3695	36C0  29F2243B             sltiu $18, $15, 9275
3696	36C4  AFB2072C             sw $18, 1836($29)
3697	36C8  39F2243B             xori $18, $15, 9275
3698	36CC  AFB20730             sw $18, 1840($29)
3699	36D0  0C002D3C             jal increment_offset
3700	36D4  0C002D31             jal load_patterns
3701	36D8  25F2EE83             addiu $18, $15, 61059
3702	36DC  AFB20738             sw $18, 1848($29)
3703	36E0  31F2EE83             andi $18, $15, 61059
3704	36E4  AFB2073C             sw $18, 1852($29)
3705	36E8  35F2EE83             ori $18, $15, 61059
3706	36EC  AFB20740             sw $18, 1856($29)
3707	36F0  29F2EE83             slti $18, $15, 61059
3708	36F4  AFB20744             sw $18, 1860($29)
3709	36F8  29F2EE83             sltiu $18, $15, 61059
3710	36FC  AFB20748             sw $18, 1864($29)
3711	3700  39F2EE83             xori $18, $15, 61059
3712	3704  AFB2074C             sw $18, 1868($29)
3713	3708  0C002D3C             jal increment_offset
3714	370C  0C002D31             jal load_patterns
3715	3710  25F22678             addiu $18, $15, 9848
3716	3714  AFB20754             sw $18, 1876($29)
3717	3718  31F22678             andi $18, $15, 9848
3718	371C  AFB20758             sw $18, 1880($29)
3719	3720  35F22678             ori $18, $15, 9848
3720	3724  AFB2075C             sw $18, 1884($29)
3721	3728  29F22678             slti $18, $15, 9848
3722	372C  AFB20760             sw $18, 1888($29)
3723	3730  29F22678             sltiu $18, $15, 9848
3724	3734  AFB20764             sw $18, 1892($29)
3725	3738  39F22678             xori $18, $15, 9848
3726	373C  AFB20768             sw $18, 1896($29)
3727	3740  0C002D3C             jal increment_offset
3728	3744  0C002D31             jal load_patterns
3729	3748  25F2F1A4             addiu $18, $15, 61860
3730	374C  AFB20770             sw $18, 1904($29)
3731	3750  31F2F1A4             andi $18, $15, 61860
3732	3754  AFB20774             sw $18, 1908($29)
3733	3758  35F2F1A4             ori $18, $15, 61860
3734	375C  AFB20778             sw $18, 1912($29)
3735	3760  29F2F1A4             slti $18, $15, 61860
3736	3764  AFB2077C             sw $18, 1916($29)
3737	3768  29F2F1A4             sltiu $18, $15, 61860
3738	376C  AFB20780             sw $18, 1920($29)
3739	3770  39F2F1A4             xori $18, $15, 61860
3740	3774  AFB20784             sw $18, 1924($29)
3741	3778  0C002D3C             jal increment_offset
3742	377C  0C002D31             jal load_patterns
3743	3780  25F20C78             addiu $18, $15, 3192
3744	3784  AFB2078C             sw $18, 1932($29)
3745	3788  31F20C78             andi $18, $15, 3192
3746	378C  AFB20790             sw $18, 1936($29)
3747	3790  35F20C78             ori $18, $15, 3192
3748	3794  AFB20794             sw $18, 1940($29)
3749	3798  29F20C78             slti $18, $15, 3192
3750	379C  AFB20798             sw $18, 1944($29)
3751	37A0  29F20C78             sltiu $18, $15, 3192
3752	37A4  AFB2079C             sw $18, 1948($29)
3753	37A8  39F20C78             xori $18, $15, 3192
3754	37AC  AFB207A0             sw $18, 1952($29)
3755	37B0  0C002D3C             jal increment_offset
3756	37B4  0C002D31             jal load_patterns
3757	37B8  25F216A0             addiu $18, $15, 5792
3758	37BC  AFB207A8             sw $18, 1960($29)
3759	37C0  31F216A0             andi $18, $15, 5792
3760	37C4  AFB207AC             sw $18, 1964($29)
3761	37C8  35F216A0             ori $18, $15, 5792
3762	37CC  AFB207B0             sw $18, 1968($29)
3763	37D0  29F216A0             slti $18, $15, 5792
3764	37D4  AFB207B4             sw $18, 1972($29)
3765	37D8  29F216A0             sltiu $18, $15, 5792
3766	37DC  AFB207B8             sw $18, 1976($29)
3767	37E0  39F216A0             xori $18, $15, 5792
3768	37E4  AFB207BC             sw $18, 1980($29)
3769	37E8  0C002D3C             jal increment_offset
3770	37EC  0C002D31             jal load_patterns
3771	37F0  25F247AE             addiu $18, $15, 18350
3772	37F4  AFB207C4             sw $18, 1988($29)
3773	37F8  31F247AE             andi $18, $15, 18350
3774	37FC  AFB207C8             sw $18, 1992($29)
3775	3800  35F247AE             ori $18, $15, 18350
3776	3804  AFB207CC             sw $18, 1996($29)
3777	3808  29F247AE             slti $18, $15, 18350
3778	380C  AFB207D0             sw $18, 2000($29)
3779	3810  29F247AE             sltiu $18, $15, 18350
3780	3814  AFB207D4             sw $18, 2004($29)
3781	3818  39F247AE             xori $18, $15, 18350
3782	381C  AFB207D8             sw $18, 2008($29)
3783	3820  0C002D3C             jal increment_offset
3784	3824  0C002D31             jal load_patterns
3785	3828  25F27FCF             addiu $18, $15, 32719
3786	382C  AFB207E0             sw $18, 2016($29)
3787	3830  31F27FCF             andi $18, $15, 32719
3788	3834  AFB207E4             sw $18, 2020($29)
3789	3838  35F27FCF             ori $18, $15, 32719
3790	383C  AFB207E8             sw $18, 2024($29)
3791	3840  29F27FCF             slti $18, $15, 32719
3792	3844  AFB207EC             sw $18, 2028($29)
3793	3848  29F27FCF             sltiu $18, $15, 32719
3794	384C  AFB207F0             sw $18, 2032($29)
3795	3850  39F27FCF             xori $18, $15, 32719
3796	3854  AFB207F4             sw $18, 2036($29)
3797	3858  0C002D3C             jal increment_offset
3798	385C  0C002D31             jal load_patterns
3799	3860  25F2B2CA             addiu $18, $15, 45770
3800	3864  AFB207FC             sw $18, 2044($29)
3801	3868  31F2B2CA             andi $18, $15, 45770
3802	386C  AFB20800             sw $18, 2048($29)
3803	3870  35F2B2CA             ori $18, $15, 45770
3804	3874  AFB20804             sw $18, 2052($29)
3805	3878  29F2B2CA             slti $18, $15, 45770
3806	387C  AFB20808             sw $18, 2056($29)
3807	3880  29F2B2CA             sltiu $18, $15, 45770
3808	3884  AFB2080C             sw $18, 2060($29)
3809	3888  39F2B2CA             xori $18, $15, 45770
3810	388C  AFB20810             sw $18, 2064($29)
3811	3890  0C002D3C             jal increment_offset
3812	3894  0C002D31             jal load_patterns
3813	3898  25F2D7C2             addiu $18, $15, 55234
3814	389C  AFB20818             sw $18, 2072($29)
3815	38A0  31F2D7C2             andi $18, $15, 55234
3816	38A4  AFB2081C             sw $18, 2076($29)
3817	38A8  35F2D7C2             ori $18, $15, 55234
3818	38AC  AFB20820             sw $18, 2080($29)
3819	38B0  29F2D7C2             slti $18, $15, 55234
3820	38B4  AFB20824             sw $18, 2084($29)
3821	38B8  29F2D7C2             sltiu $18, $15, 55234
3822	38BC  AFB20828             sw $18, 2088($29)
3823	38C0  39F2D7C2             xori $18, $15, 55234
3824	38C4  AFB2082C             sw $18, 2092($29)
3825	38C8  0C002D3C             jal increment_offset
3826	38CC  0C002D31             jal load_patterns
3827	38D0  25F2AB79             addiu $18, $15, 43897
3828	38D4  AFB20834             sw $18, 2100($29)
3829	38D8  31F2AB79             andi $18, $15, 43897
3830	38DC  AFB20838             sw $18, 2104($29)
3831	38E0  35F2AB79             ori $18, $15, 43897
3832	38E4  AFB2083C             sw $18, 2108($29)
3833	38E8  29F2AB79             slti $18, $15, 43897
3834	38EC  AFB20840             sw $18, 2112($29)
3835	38F0  29F2AB79             sltiu $18, $15, 43897
3836	38F4  AFB20844             sw $18, 2116($29)
3837	38F8  39F2AB79             xori $18, $15, 43897
3838	38FC  AFB20848             sw $18, 2120($29)
3839	3900  0C002D3C             jal increment_offset
3840	3904  0C002D31             jal load_patterns
3841	3908  25F21694             addiu $18, $15, 5780
3842	390C  AFB20850             sw $18, 2128($29)
3843	3910  31F21694             andi $18, $15, 5780
3844	3914  AFB20854             sw $18, 2132($29)
3845	3918  35F21694             ori $18, $15, 5780
3846	391C  AFB20858             sw $18, 2136($29)
3847	3920  29F21694             slti $18, $15, 5780
3848	3924  AFB2085C             sw $18, 2140($29)
3849	3928  29F21694             sltiu $18, $15, 5780
3850	392C  AFB20860             sw $18, 2144($29)
3851	3930  39F21694             xori $18, $15, 5780
3852	3934  AFB20864             sw $18, 2148($29)
3853	3938  0C002D3C             jal increment_offset
3854	393C  0C002D31             jal load_patterns
3855	3940  25F22705             addiu $18, $15, 9989
3856	3944  AFB2086C             sw $18, 2156($29)
3857	3948  31F22705             andi $18, $15, 9989
3858	394C  AFB20870             sw $18, 2160($29)
3859	3950  35F22705             ori $18, $15, 9989
3860	3954  AFB20874             sw $18, 2164($29)
3861	3958  29F22705             slti $18, $15, 9989
3862	395C  AFB20878             sw $18, 2168($29)
3863	3960  29F22705             sltiu $18, $15, 9989
3864	3964  AFB2087C             sw $18, 2172($29)
3865	3968  39F22705             xori $18, $15, 9989
3866	396C  AFB20880             sw $18, 2176($29)
3867	3970  0C002D3C             jal increment_offset
3868	3974  0C002D31             jal load_patterns
3869	3978  25F25A79             addiu $18, $15, 23161
3870	397C  AFB20888             sw $18, 2184($29)
3871	3980  31F25A79             andi $18, $15, 23161
3872	3984  AFB2088C             sw $18, 2188($29)
3873	3988  35F25A79             ori $18, $15, 23161
3874	398C  AFB20890             sw $18, 2192($29)
3875	3990  29F25A79             slti $18, $15, 23161
3876	3994  AFB20894             sw $18, 2196($29)
3877	3998  29F25A79             sltiu $18, $15, 23161
3878	399C  AFB20898             sw $18, 2200($29)
3879	39A0  39F25A79             xori $18, $15, 23161
3880	39A4  AFB2089C             sw $18, 2204($29)
3881	39A8  0C002D3C             jal increment_offset
3882	39AC  0C002D31             jal load_patterns
3883	39B0  25F20CA2             addiu $18, $15, 3234
3884	39B4  AFB208A4             sw $18, 2212($29)
3885	39B8  31F20CA2             andi $18, $15, 3234
3886	39BC  AFB208A8             sw $18, 2216($29)
3887	39C0  35F20CA2             ori $18, $15, 3234
3888	39C4  AFB208AC             sw $18, 2220($29)
3889	39C8  29F20CA2             slti $18, $15, 3234
3890	39CC  AFB208B0             sw $18, 2224($29)
3891	39D0  29F20CA2             sltiu $18, $15, 3234
3892	39D4  AFB208B4             sw $18, 2228($29)
3893	39D8  39F20CA2             xori $18, $15, 3234
3894	39DC  AFB208B8             sw $18, 2232($29)
3895	39E0  0C002D3C             jal increment_offset
3896	39E4  0C002D31             jal load_patterns
3897	39E8  25F25B63             addiu $18, $15, 23395
3898	39EC  AFB208C0             sw $18, 2240($29)
3899	39F0  31F25B63             andi $18, $15, 23395
3900	39F4  AFB208C4             sw $18, 2244($29)
3901	39F8  35F25B63             ori $18, $15, 23395
3902	39FC  AFB208C8             sw $18, 2248($29)
3903	3A00  29F25B63             slti $18, $15, 23395
3904	3A04  AFB208CC             sw $18, 2252($29)
3905	3A08  29F25B63             sltiu $18, $15, 23395
3906	3A0C  AFB208D0             sw $18, 2256($29)
3907	3A10  39F25B63             xori $18, $15, 23395
3908	3A14  AFB208D4             sw $18, 2260($29)
3909	3A18  0C002D3C             jal increment_offset
3910	3A1C  0C002D31             jal load_patterns
3911	3A20  25F21960             addiu $18, $15, 6496
3912	3A24  AFB208DC             sw $18, 2268($29)
3913	3A28  31F21960             andi $18, $15, 6496
3914	3A2C  AFB208E0             sw $18, 2272($29)
3915	3A30  35F21960             ori $18, $15, 6496
3916	3A34  AFB208E4             sw $18, 2276($29)
3917	3A38  29F21960             slti $18, $15, 6496
3918	3A3C  AFB208E8             sw $18, 2280($29)
3919	3A40  29F21960             sltiu $18, $15, 6496
3920	3A44  AFB208EC             sw $18, 2284($29)
3921	3A48  39F21960             xori $18, $15, 6496
3922	3A4C  AFB208F0             sw $18, 2288($29)
3923	3A50  0C002D3C             jal increment_offset
3924	3A54  0C002D31             jal load_patterns
3925	3A58  25F242B3             addiu $18, $15, 17075
3926	3A5C  AFB208F8             sw $18, 2296($29)
3927	3A60  31F242B3             andi $18, $15, 17075
3928	3A64  AFB208FC             sw $18, 2300($29)
3929	3A68  35F242B3             ori $18, $15, 17075
3930	3A6C  AFB20900             sw $18, 2304($29)
3931	3A70  29F242B3             slti $18, $15, 17075
3932	3A74  AFB20904             sw $18, 2308($29)
3933	3A78  29F242B3             sltiu $18, $15, 17075
3934	3A7C  AFB20908             sw $18, 2312($29)
3935	3A80  39F242B3             xori $18, $15, 17075
3936	3A84  AFB2090C             sw $18, 2316($29)
3937	3A88  0C002D3C             jal increment_offset
3938	3A8C  0C002D31             jal load_patterns
3939	3A90  25F209AE             addiu $18, $15, 2478
3940	3A94  AFB20914             sw $18, 2324($29)
3941	3A98  31F209AE             andi $18, $15, 2478
3942	3A9C  AFB20918             sw $18, 2328($29)
3943	3AA0  35F209AE             ori $18, $15, 2478
3944	3AA4  AFB2091C             sw $18, 2332($29)
3945	3AA8  29F209AE             slti $18, $15, 2478
3946	3AAC  AFB20920             sw $18, 2336($29)
3947	3AB0  29F209AE             sltiu $18, $15, 2478
3948	3AB4  AFB20924             sw $18, 2340($29)
3949	3AB8  39F209AE             xori $18, $15, 2478
3950	3ABC  AFB20928             sw $18, 2344($29)
3951	3AC0  0C002D3C             jal increment_offset
3952	3AC4  0C002D31             jal load_patterns
3953	3AC8  25F20AD1             addiu $18, $15, 2769
3954	3ACC  AFB20930             sw $18, 2352($29)
3955	3AD0  31F20AD1             andi $18, $15, 2769
3956	3AD4  AFB20934             sw $18, 2356($29)
3957	3AD8  35F20AD1             ori $18, $15, 2769
3958	3ADC  AFB20938             sw $18, 2360($29)
3959	3AE0  29F20AD1             slti $18, $15, 2769
3960	3AE4  AFB2093C             sw $18, 2364($29)
3961	3AE8  29F20AD1             sltiu $18, $15, 2769
3962	3AEC  AFB20940             sw $18, 2368($29)
3963	3AF0  39F20AD1             xori $18, $15, 2769
3964	3AF4  AFB20944             sw $18, 2372($29)
3965	3AF8  0C002D3C             jal increment_offset
3966	3AFC  0C002D31             jal load_patterns
3967	3B00  25F2862C             addiu $18, $15, 34348
3968	3B04  AFB2094C             sw $18, 2380($29)
3969	3B08  31F2862C             andi $18, $15, 34348
3970	3B0C  AFB20950             sw $18, 2384($29)
3971	3B10  35F2862C             ori $18, $15, 34348
3972	3B14  AFB20954             sw $18, 2388($29)
3973	3B18  29F2862C             slti $18, $15, 34348
3974	3B1C  AFB20958             sw $18, 2392($29)
3975	3B20  29F2862C             sltiu $18, $15, 34348
3976	3B24  AFB2095C             sw $18, 2396($29)
3977	3B28  39F2862C             xori $18, $15, 34348
3978	3B2C  AFB20960             sw $18, 2400($29)
3979	3B30  0C002D3C             jal increment_offset
3980	3B34  0C002D31             jal load_patterns
3981	3B38  25F2BC7A             addiu $18, $15, 48250
3982	3B3C  AFB20968             sw $18, 2408($29)
3983	3B40  31F2BC7A             andi $18, $15, 48250
3984	3B44  AFB2096C             sw $18, 2412($29)
3985	3B48  35F2BC7A             ori $18, $15, 48250
3986	3B4C  AFB20970             sw $18, 2416($29)
3987	3B50  29F2BC7A             slti $18, $15, 48250
3988	3B54  AFB20974             sw $18, 2420($29)
3989	3B58  29F2BC7A             sltiu $18, $15, 48250
3990	3B5C  AFB20978             sw $18, 2424($29)
3991	3B60  39F2BC7A             xori $18, $15, 48250
3992	3B64  AFB2097C             sw $18, 2428($29)
3993	3B68  0C002D3C             jal increment_offset
3994	3B6C  0C002D31             jal load_patterns
3995	3B70  25F20A38             addiu $18, $15, 2616
3996	3B74  AFB20984             sw $18, 2436($29)
3997	3B78  31F20A38             andi $18, $15, 2616
3998	3B7C  AFB20988             sw $18, 2440($29)
3999	3B80  35F20A38             ori $18, $15, 2616
4000	3B84  AFB2098C             sw $18, 2444($29)
4001	3B88  29F20A38             slti $18, $15, 2616
4002	3B8C  AFB20990             sw $18, 2448($29)
4003	3B90  29F20A38             sltiu $18, $15, 2616
4004	3B94  AFB20994             sw $18, 2452($29)
4005	3B98  39F20A38             xori $18, $15, 2616
4006	3B9C  AFB20998             sw $18, 2456($29)
4007	3BA0  0C002D3C             jal increment_offset
4008	3BA4  0C002D31             jal load_patterns
4009	3BA8  25F26C0C             addiu $18, $15, 27660
4010	3BAC  AFB209A0             sw $18, 2464($29)
4011	3BB0  31F26C0C             andi $18, $15, 27660
4012	3BB4  AFB209A4             sw $18, 2468($29)
4013	3BB8  35F26C0C             ori $18, $15, 27660
4014	3BBC  AFB209A8             sw $18, 2472($29)
4015	3BC0  29F26C0C             slti $18, $15, 27660
4016	3BC4  AFB209AC             sw $18, 2476($29)
4017	3BC8  29F26C0C             sltiu $18, $15, 27660
4018	3BCC  AFB209B0             sw $18, 2480($29)
4019	3BD0  39F26C0C             xori $18, $15, 27660
4020	3BD4  AFB209B4             sw $18, 2484($29)
4021	3BD8  0C002D3C             jal increment_offset
4022	3BDC  0C002D31             jal load_patterns
4023	3BE0  25F23752             addiu $18, $15, 14162
4024	3BE4  AFB209BC             sw $18, 2492($29)
4025	3BE8  31F23752             andi $18, $15, 14162
4026	3BEC  AFB209C0             sw $18, 2496($29)
4027	3BF0  35F23752             ori $18, $15, 14162
4028	3BF4  AFB209C4             sw $18, 2500($29)
4029	3BF8  29F23752             slti $18, $15, 14162
4030	3BFC  AFB209C8             sw $18, 2504($29)
4031	3C00  29F23752             sltiu $18, $15, 14162
4032	3C04  AFB209CC             sw $18, 2508($29)
4033	3C08  39F23752             xori $18, $15, 14162
4034	3C0C  AFB209D0             sw $18, 2512($29)
4035	3C10  0C002D3C             jal increment_offset
4036	3C14  0C002D31             jal load_patterns
4037	3C18  25F20B96             addiu $18, $15, 2966
4038	3C1C  AFB209D8             sw $18, 2520($29)
4039	3C20  31F20B96             andi $18, $15, 2966
4040	3C24  AFB209DC             sw $18, 2524($29)
4041	3C28  35F20B96             ori $18, $15, 2966
4042	3C2C  AFB209E0             sw $18, 2528($29)
4043	3C30  29F20B96             slti $18, $15, 2966
4044	3C34  AFB209E4             sw $18, 2532($29)
4045	3C38  29F20B96             sltiu $18, $15, 2966
4046	3C3C  AFB209E8             sw $18, 2536($29)
4047	3C40  39F20B96             xori $18, $15, 2966
4048	3C44  AFB209EC             sw $18, 2540($29)
4049	3C48  0C002D3C             jal increment_offset
4050	3C4C  0C002D31             jal load_patterns
4051	3C50  25F2FF35             addiu $18, $15, 65333
4052	3C54  AFB209F4             sw $18, 2548($29)
4053	3C58  31F2FF35             andi $18, $15, 65333
4054	3C5C  AFB209F8             sw $18, 2552($29)
4055	3C60  35F2FF35             ori $18, $15, 65333
4056	3C64  AFB209FC             sw $18, 2556($29)
4057	3C68  29F2FF35             slti $18, $15, 65333
4058	3C6C  AFB20A00             sw $18, 2560($29)
4059	3C70  29F2FF35             sltiu $18, $15, 65333
4060	3C74  AFB20A04             sw $18, 2564($29)
4061	3C78  39F2FF35             xori $18, $15, 65333
4062	3C7C  AFB20A08             sw $18, 2568($29)
4063	3C80  0C002D3C             jal increment_offset
4064	3C84  0C002D31             jal load_patterns
4065	3C88  25F2C583             addiu $18, $15, 50563
4066	3C8C  AFB20A10             sw $18, 2576($29)
4067	3C90  31F2C583             andi $18, $15, 50563
4068	3C94  AFB20A14             sw $18, 2580($29)
4069	3C98  35F2C583             ori $18, $15, 50563
4070	3C9C  AFB20A18             sw $18, 2584($29)
4071	3CA0  29F2C583             slti $18, $15, 50563
4072	3CA4  AFB20A1C             sw $18, 2588($29)
4073	3CA8  29F2C583             sltiu $18, $15, 50563
4074	3CAC  AFB20A20             sw $18, 2592($29)
4075	3CB0  39F2C583             xori $18, $15, 50563
4076	3CB4  AFB20A24             sw $18, 2596($29)
4077	3CB8  0C002D3C             jal increment_offset
4078	3CBC  0C002D31             jal load_patterns
4079	3CC0  25F28FC7             addiu $18, $15, 36807
4080	3CC4  AFB20A2C             sw $18, 2604($29)
4081	3CC8  31F28FC7             andi $18, $15, 36807
4082	3CCC  AFB20A30             sw $18, 2608($29)
4083	3CD0  35F28FC7             ori $18, $15, 36807
4084	3CD4  AFB20A34             sw $18, 2612($29)
4085	3CD8  29F28FC7             slti $18, $15, 36807
4086	3CDC  AFB20A38             sw $18, 2616($29)
4087	3CE0  29F28FC7             sltiu $18, $15, 36807
4088	3CE4  AFB20A3C             sw $18, 2620($29)
4089	3CE8  39F28FC7             xori $18, $15, 36807
4090	3CEC  AFB20A40             sw $18, 2624($29)
4091	3CF0  0C002D3C             jal increment_offset
4092	3CF4  0C002D31             jal load_patterns
4093	3CF8  25F2AF83             addiu $18, $15, 44931
4094	3CFC  AFB20A48             sw $18, 2632($29)
4095	3D00  31F2AF83             andi $18, $15, 44931
4096	3D04  AFB20A4C             sw $18, 2636($29)
4097	3D08  35F2AF83             ori $18, $15, 44931
4098	3D0C  AFB20A50             sw $18, 2640($29)
4099	3D10  29F2AF83             slti $18, $15, 44931
4100	3D14  AFB20A54             sw $18, 2644($29)
4101	3D18  29F2AF83             sltiu $18, $15, 44931
4102	3D1C  AFB20A58             sw $18, 2648($29)
4103	3D20  39F2AF83             xori $18, $15, 44931
4104	3D24  AFB20A5C             sw $18, 2652($29)
4105	3D28  0C002D3C             jal increment_offset
4106	3D2C  0C002D31             jal load_patterns
4107	3D30  25F20979             addiu $18, $15, 2425
4108	3D34  AFB20A64             sw $18, 2660($29)
4109	3D38  31F20979             andi $18, $15, 2425
4110	3D3C  AFB20A68             sw $18, 2664($29)
4111	3D40  35F20979             ori $18, $15, 2425
4112	3D44  AFB20A6C             sw $18, 2668($29)
4113	3D48  29F20979             slti $18, $15, 2425
4114	3D4C  AFB20A70             sw $18, 2672($29)
4115	3D50  29F20979             sltiu $18, $15, 2425
4116	3D54  AFB20A74             sw $18, 2676($29)
4117	3D58  39F20979             xori $18, $15, 2425
4118	3D5C  AFB20A78             sw $18, 2680($29)
4119	3D60  0C002D3C             jal increment_offset
4120	3D64  0C002D31             jal load_patterns
4121	3D68  25F283DF             addiu $18, $15, 33759
4122	3D6C  AFB20A80             sw $18, 2688($29)
4123	3D70  31F283DF             andi $18, $15, 33759
4124	3D74  AFB20A84             sw $18, 2692($29)
4125	3D78  35F283DF             ori $18, $15, 33759
4126	3D7C  AFB20A88             sw $18, 2696($29)
4127	3D80  29F283DF             slti $18, $15, 33759
4128	3D84  AFB20A8C             sw $18, 2700($29)
4129	3D88  29F283DF             sltiu $18, $15, 33759
4130	3D8C  AFB20A90             sw $18, 2704($29)
4131	3D90  39F283DF             xori $18, $15, 33759
4132	3D94  AFB20A94             sw $18, 2708($29)
4133	3D98  0C002D3C             jal increment_offset
4134	3D9C  0C002D31             jal load_patterns
4135	3DA0  25F220AB             addiu $18, $15, 8363
4136	3DA4  AFB20A9C             sw $18, 2716($29)
4137	3DA8  31F220AB             andi $18, $15, 8363
4138	3DAC  AFB20AA0             sw $18, 2720($29)
4139	3DB0  35F220AB             ori $18, $15, 8363
4140	3DB4  AFB20AA4             sw $18, 2724($29)
4141	3DB8  29F220AB             slti $18, $15, 8363
4142	3DBC  AFB20AA8             sw $18, 2728($29)
4143	3DC0  29F220AB             sltiu $18, $15, 8363
4144	3DC4  AFB20AAC             sw $18, 2732($29)
4145	3DC8  39F220AB             xori $18, $15, 8363
4146	3DCC  AFB20AB0             sw $18, 2736($29)
4147	3DD0  0C002D3C             jal increment_offset
4148	3DD4  0C002D31             jal load_patterns
4149	3DD8  25F241D2             addiu $18, $15, 16850
4150	3DDC  AFB20AB8             sw $18, 2744($29)
4151	3DE0  31F241D2             andi $18, $15, 16850
4152	3DE4  AFB20ABC             sw $18, 2748($29)
4153	3DE8  35F241D2             ori $18, $15, 16850
4154	3DEC  AFB20AC0             sw $18, 2752($29)
4155	3DF0  29F241D2             slti $18, $15, 16850
4156	3DF4  AFB20AC4             sw $18, 2756($29)
4157	3DF8  29F241D2             sltiu $18, $15, 16850
4158	3DFC  AFB20AC8             sw $18, 2760($29)
4159	3E00  39F241D2             xori $18, $15, 16850
4160	3E04  AFB20ACC             sw $18, 2764($29)
4161	3E08  0C002D3C             jal increment_offset
4162	3E0C  0C002D31             jal load_patterns
4163	3E10  25F2136F             addiu $18, $15, 4975
4164	3E14  AFB20AD4             sw $18, 2772($29)
4165	3E18  31F2136F             andi $18, $15, 4975
4166	3E1C  AFB20AD8             sw $18, 2776($29)
4167	3E20  35F2136F             ori $18, $15, 4975
4168	3E24  AFB20ADC             sw $18, 2780($29)
4169	3E28  29F2136F             slti $18, $15, 4975
4170	3E2C  AFB20AE0             sw $18, 2784($29)
4171	3E30  29F2136F             sltiu $18, $15, 4975
4172	3E34  AFB20AE4             sw $18, 2788($29)
4173	3E38  39F2136F             xori $18, $15, 4975
4174	3E3C  AFB20AE8             sw $18, 2792($29)
4175	3E40  0C002D3C             jal increment_offset
4176	3E44  0C002D31             jal load_patterns
4177	3E48  25F2C45C             addiu $18, $15, 50268
4178	3E4C  AFB20AF0             sw $18, 2800($29)
4179	3E50  31F2C45C             andi $18, $15, 50268
4180	3E54  AFB20AF4             sw $18, 2804($29)
4181	3E58  35F2C45C             ori $18, $15, 50268
4182	3E5C  AFB20AF8             sw $18, 2808($29)
4183	3E60  29F2C45C             slti $18, $15, 50268
4184	3E64  AFB20AFC             sw $18, 2812($29)
4185	3E68  29F2C45C             sltiu $18, $15, 50268
4186	3E6C  AFB20B00             sw $18, 2816($29)
4187	3E70  39F2C45C             xori $18, $15, 50268
4188	3E74  AFB20B04             sw $18, 2820($29)
4189	3E78  0C002D3C             jal increment_offset
4190	3E7C  0C002D31             jal load_patterns
4191	3E80  25F2F089             addiu $18, $15, 61577
4192	3E84  AFB20B0C             sw $18, 2828($29)
4193	3E88  31F2F089             andi $18, $15, 61577
4194	3E8C  AFB20B10             sw $18, 2832($29)
4195	3E90  35F2F089             ori $18, $15, 61577
4196	3E94  AFB20B14             sw $18, 2836($29)
4197	3E98  29F2F089             slti $18, $15, 61577
4198	3E9C  AFB20B18             sw $18, 2840($29)
4199	3EA0  29F2F089             sltiu $18, $15, 61577
4200	3EA4  AFB20B1C             sw $18, 2844($29)
4201	3EA8  39F2F089             xori $18, $15, 61577
4202	3EAC  AFB20B20             sw $18, 2848($29)
4203	3EB0  0C002D3C             jal increment_offset
4204	3EB4  0C002D31             jal load_patterns
4205	3EB8  25F221EF             addiu $18, $15, 8687
4206	3EBC  AFB20B28             sw $18, 2856($29)
4207	3EC0  31F221EF             andi $18, $15, 8687
4208	3EC4  AFB20B2C             sw $18, 2860($29)
4209	3EC8  35F221EF             ori $18, $15, 8687
4210	3ECC  AFB20B30             sw $18, 2864($29)
4211	3ED0  29F221EF             slti $18, $15, 8687
4212	3ED4  AFB20B34             sw $18, 2868($29)
4213	3ED8  29F221EF             sltiu $18, $15, 8687
4214	3EDC  AFB20B38             sw $18, 2872($29)
4215	3EE0  39F221EF             xori $18, $15, 8687
4216	3EE4  AFB20B3C             sw $18, 2876($29)
4217	3EE8  0C002D3C             jal increment_offset
4218	3EEC  0C002D31             jal load_patterns
4219	3EF0  25F289F7             addiu $18, $15, 35319
4220	3EF4  AFB20B44             sw $18, 2884($29)
4221	3EF8  31F289F7             andi $18, $15, 35319
4222	3EFC  AFB20B48             sw $18, 2888($29)
4223	3F00  35F289F7             ori $18, $15, 35319
4224	3F04  AFB20B4C             sw $18, 2892($29)
4225	3F08  29F289F7             slti $18, $15, 35319
4226	3F0C  AFB20B50             sw $18, 2896($29)
4227	3F10  29F289F7             sltiu $18, $15, 35319
4228	3F14  AFB20B54             sw $18, 2900($29)
4229	3F18  39F289F7             xori $18, $15, 35319
4230	3F1C  AFB20B58             sw $18, 2904($29)
4231	3F20  0C002D3C             jal increment_offset
4232	3F24  0C002D31             jal load_patterns
4233	3F28  25F2E4A8             addiu $18, $15, 58536
4234	3F2C  AFB20B60             sw $18, 2912($29)
4235	3F30  31F2E4A8             andi $18, $15, 58536
4236	3F34  AFB20B64             sw $18, 2916($29)
4237	3F38  35F2E4A8             ori $18, $15, 58536
4238	3F3C  AFB20B68             sw $18, 2920($29)
4239	3F40  29F2E4A8             slti $18, $15, 58536
4240	3F44  AFB20B6C             sw $18, 2924($29)
4241	3F48  29F2E4A8             sltiu $18, $15, 58536
4242	3F4C  AFB20B70             sw $18, 2928($29)
4243	3F50  39F2E4A8             xori $18, $15, 58536
4244	3F54  AFB20B74             sw $18, 2932($29)
4245	3F58  0C002D3C             jal increment_offset
4246	3F5C  0C002D31             jal load_patterns
4247	3F60  25F204C3             addiu $18, $15, 1219
4248	3F64  AFB20B7C             sw $18, 2940($29)
4249	3F68  31F204C3             andi $18, $15, 1219
4250	3F6C  AFB20B80             sw $18, 2944($29)
4251	3F70  35F204C3             ori $18, $15, 1219
4252	3F74  AFB20B84             sw $18, 2948($29)
4253	3F78  29F204C3             slti $18, $15, 1219
4254	3F7C  AFB20B88             sw $18, 2952($29)
4255	3F80  29F204C3             sltiu $18, $15, 1219
4256	3F84  AFB20B8C             sw $18, 2956($29)
4257	3F88  39F204C3             xori $18, $15, 1219
4258	3F8C  AFB20B90             sw $18, 2960($29)
4259	3F90  0C002D3C             jal increment_offset
4260	3F94  0C002D31             jal load_patterns
4261	3F98  25F2F64F             addiu $18, $15, 63055
4262	3F9C  AFB20B98             sw $18, 2968($29)
4263	3FA0  31F2F64F             andi $18, $15, 63055
4264	3FA4  AFB20B9C             sw $18, 2972($29)
4265	3FA8  35F2F64F             ori $18, $15, 63055
4266	3FAC  AFB20BA0             sw $18, 2976($29)
4267	3FB0  29F2F64F             slti $18, $15, 63055
4268	3FB4  AFB20BA4             sw $18, 2980($29)
4269	3FB8  29F2F64F             sltiu $18, $15, 63055
4270	3FBC  AFB20BA8             sw $18, 2984($29)
4271	3FC0  39F2F64F             xori $18, $15, 63055
4272	3FC4  AFB20BAC             sw $18, 2988($29)
4273	3FC8  0C002D3C             jal increment_offset
4274	3FCC  0C002D31             jal load_patterns
4275	3FD0  25F2BF22             addiu $18, $15, 48930
4276	3FD4  AFB20BB4             sw $18, 2996($29)
4277	3FD8  31F2BF22             andi $18, $15, 48930
4278	3FDC  AFB20BB8             sw $18, 3000($29)
4279	3FE0  35F2BF22             ori $18, $15, 48930
4280	3FE4  AFB20BBC             sw $18, 3004($29)
4281	3FE8  29F2BF22             slti $18, $15, 48930
4282	3FEC  AFB20BC0             sw $18, 3008($29)
4283	3FF0  29F2BF22             sltiu $18, $15, 48930
4284	3FF4  AFB20BC4             sw $18, 3012($29)
4285	3FF8  39F2BF22             xori $18, $15, 48930
4286	3FFC  AFB20BC8             sw $18, 3016($29)
4287	4000  0C002D3C             jal increment_offset
4288	4004  0C002D31             jal load_patterns
4289	4008  25F20E40             addiu $18, $15, 3648
4290	400C  AFB20BD0             sw $18, 3024($29)
4291	4010  31F20E40             andi $18, $15, 3648
4292	4014  AFB20BD4             sw $18, 3028($29)
4293	4018  35F20E40             ori $18, $15, 3648
4294	401C  AFB20BD8             sw $18, 3032($29)
4295	4020  29F20E40             slti $18, $15, 3648
4296	4024  AFB20BDC             sw $18, 3036($29)
4297	4028  29F20E40             sltiu $18, $15, 3648
4298	402C  AFB20BE0             sw $18, 3040($29)
4299	4030  39F20E40             xori $18, $15, 3648
4300	4034  AFB20BE4             sw $18, 3044($29)
4301	4038  0C002D3C             jal increment_offset
4302	403C  0C002D31             jal load_patterns
4303	4040  25F2FC4C             addiu $18, $15, 64588
4304	4044  AFB20BEC             sw $18, 3052($29)
4305	4048  31F2FC4C             andi $18, $15, 64588
4306	404C  AFB20BF0             sw $18, 3056($29)
4307	4050  35F2FC4C             ori $18, $15, 64588
4308	4054  AFB20BF4             sw $18, 3060($29)
4309	4058  29F2FC4C             slti $18, $15, 64588
4310	405C  AFB20BF8             sw $18, 3064($29)
4311	4060  29F2FC4C             sltiu $18, $15, 64588
4312	4064  AFB20BFC             sw $18, 3068($29)
4313	4068  39F2FC4C             xori $18, $15, 64588
4314	406C  AFB20C00             sw $18, 3072($29)
4315	4070  0C002D3C             jal increment_offset
4316	4074  0C002D31             jal load_patterns
4317	4078  25F2DFD6             addiu $18, $15, 57302
4318	407C  AFB20C08             sw $18, 3080($29)
4319	4080  31F2DFD6             andi $18, $15, 57302
4320	4084  AFB20C0C             sw $18, 3084($29)
4321	4088  35F2DFD6             ori $18, $15, 57302
4322	408C  AFB20C10             sw $18, 3088($29)
4323	4090  29F2DFD6             slti $18, $15, 57302
4324	4094  AFB20C14             sw $18, 3092($29)
4325	4098  29F2DFD6             sltiu $18, $15, 57302
4326	409C  AFB20C18             sw $18, 3096($29)
4327	40A0  39F2DFD6             xori $18, $15, 57302
4328	40A4  AFB20C1C             sw $18, 3100($29)
4329	40A8  0C002D3C             jal increment_offset
4330	40AC  0C002D31             jal load_patterns
4331	40B0  25F213F3             addiu $18, $15, 5107
4332	40B4  AFB20C24             sw $18, 3108($29)
4333	40B8  31F213F3             andi $18, $15, 5107
4334	40BC  AFB20C28             sw $18, 3112($29)
4335	40C0  35F213F3             ori $18, $15, 5107
4336	40C4  AFB20C2C             sw $18, 3116($29)
4337	40C8  29F213F3             slti $18, $15, 5107
4338	40CC  AFB20C30             sw $18, 3120($29)
4339	40D0  29F213F3             sltiu $18, $15, 5107
4340	40D4  AFB20C34             sw $18, 3124($29)
4341	40D8  39F213F3             xori $18, $15, 5107
4342	40DC  AFB20C38             sw $18, 3128($29)
4343	40E0  0C002D3C             jal increment_offset
4344	40E4  0C002D31             jal load_patterns
4345	40E8  25F2178C             addiu $18, $15, 6028
4346	40EC  AFB20C40             sw $18, 3136($29)
4347	40F0  31F2178C             andi $18, $15, 6028
4348	40F4  AFB20C44             sw $18, 3140($29)
4349	40F8  35F2178C             ori $18, $15, 6028
4350	40FC  AFB20C48             sw $18, 3144($29)
4351	4100  29F2178C             slti $18, $15, 6028
4352	4104  AFB20C4C             sw $18, 3148($29)
4353	4108  29F2178C             sltiu $18, $15, 6028
4354	410C  AFB20C50             sw $18, 3152($29)
4355	4110  39F2178C             xori $18, $15, 6028
4356	4114  AFB20C54             sw $18, 3156($29)
4357	4118  0C002D3C             jal increment_offset
4358	411C  0C002D31             jal load_patterns
4359	4120  25F22820             addiu $18, $15, 10272
4360	4124  AFB20C5C             sw $18, 3164($29)
4361	4128  31F22820             andi $18, $15, 10272
4362	412C  AFB20C60             sw $18, 3168($29)
4363	4130  35F22820             ori $18, $15, 10272
4364	4134  AFB20C64             sw $18, 3172($29)
4365	4138  29F22820             slti $18, $15, 10272
4366	413C  AFB20C68             sw $18, 3176($29)
4367	4140  29F22820             sltiu $18, $15, 10272
4368	4144  AFB20C6C             sw $18, 3180($29)
4369	4148  39F22820             xori $18, $15, 10272
4370	414C  AFB20C70             sw $18, 3184($29)
4371	4150  0C002D3C             jal increment_offset
4372	4154  0C002D31             jal load_patterns
4373	4158  25F231BA             addiu $18, $15, 12730
4374	415C  AFB20C78             sw $18, 3192($29)
4375	4160  31F231BA             andi $18, $15, 12730
4376	4164  AFB20C7C             sw $18, 3196($29)
4377	4168  35F231BA             ori $18, $15, 12730
4378	416C  AFB20C80             sw $18, 3200($29)
4379	4170  29F231BA             slti $18, $15, 12730
4380	4174  AFB20C84             sw $18, 3204($29)
4381	4178  29F231BA             sltiu $18, $15, 12730
4382	417C  AFB20C88             sw $18, 3208($29)
4383	4180  39F231BA             xori $18, $15, 12730
4384	4184  AFB20C8C             sw $18, 3212($29)
4385	4188  0C002D3C             jal increment_offset
4386	418C  0C002D31             jal load_patterns
4387	4190  25F235D9             addiu $18, $15, 13785
4388	4194  AFB20C94             sw $18, 3220($29)
4389	4198  31F235D9             andi $18, $15, 13785
4390	419C  AFB20C98             sw $18, 3224($29)
4391	41A0  35F235D9             ori $18, $15, 13785
4392	41A4  AFB20C9C             sw $18, 3228($29)
4393	41A8  29F235D9             slti $18, $15, 13785
4394	41AC  AFB20CA0             sw $18, 3232($29)
4395	41B0  29F235D9             sltiu $18, $15, 13785
4396	41B4  AFB20CA4             sw $18, 3236($29)
4397	41B8  39F235D9             xori $18, $15, 13785
4398	41BC  AFB20CA8             sw $18, 3240($29)
4399	41C0  0C002D3C             jal increment_offset
4400	41C4  0C002D31             jal load_patterns
4401	41C8  25F26840             addiu $18, $15, 26688
4402	41CC  AFB20CB0             sw $18, 3248($29)
4403	41D0  31F26840             andi $18, $15, 26688
4404	41D4  AFB20CB4             sw $18, 3252($29)
4405	41D8  35F26840             ori $18, $15, 26688
4406	41DC  AFB20CB8             sw $18, 3256($29)
4407	41E0  29F26840             slti $18, $15, 26688
4408	41E4  AFB20CBC             sw $18, 3260($29)
4409	41E8  29F26840             sltiu $18, $15, 26688
4410	41EC  AFB20CC0             sw $18, 3264($29)
4411	41F0  39F26840             xori $18, $15, 26688
4412	41F4  AFB20CC4             sw $18, 3268($29)
4413	41F8  0C002D3C             jal increment_offset
4414	41FC  0C002D31             jal load_patterns
4415	4200  25F241A4             addiu $18, $15, 16804
4416	4204  AFB20CCC             sw $18, 3276($29)
4417	4208  31F241A4             andi $18, $15, 16804
4418	420C  AFB20CD0             sw $18, 3280($29)
4419	4210  35F241A4             ori $18, $15, 16804
4420	4214  AFB20CD4             sw $18, 3284($29)
4421	4218  29F241A4             slti $18, $15, 16804
4422	421C  AFB20CD8             sw $18, 3288($29)
4423	4220  29F241A4             sltiu $18, $15, 16804
4424	4224  AFB20CDC             sw $18, 3292($29)
4425	4228  39F241A4             xori $18, $15, 16804
4426	422C  AFB20CE0             sw $18, 3296($29)
4427	4230  0C002D3C             jal increment_offset
4428	4234  0C002D31             jal load_patterns
4429	4238  25F209D8             addiu $18, $15, 2520
4430	423C  AFB20CE8             sw $18, 3304($29)
4431	4240  31F209D8             andi $18, $15, 2520
4432	4244  AFB20CEC             sw $18, 3308($29)
4433	4248  35F209D8             ori $18, $15, 2520
4434	424C  AFB20CF0             sw $18, 3312($29)
4435	4250  29F209D8             slti $18, $15, 2520
4436	4254  AFB20CF4             sw $18, 3316($29)
4437	4258  29F209D8             sltiu $18, $15, 2520
4438	425C  AFB20CF8             sw $18, 3320($29)
4439	4260  39F209D8             xori $18, $15, 2520
4440	4264  AFB20CFC             sw $18, 3324($29)
4441	4268  0C002D3C             jal increment_offset
4442	426C  0C002D31             jal load_patterns
4443	4270  25F2689A             addiu $18, $15, 26778
4444	4274  AFB20D04             sw $18, 3332($29)
4445	4278  31F2689A             andi $18, $15, 26778
4446	427C  AFB20D08             sw $18, 3336($29)
4447	4280  35F2689A             ori $18, $15, 26778
4448	4284  AFB20D0C             sw $18, 3340($29)
4449	4288  29F2689A             slti $18, $15, 26778
4450	428C  AFB20D10             sw $18, 3344($29)
4451	4290  29F2689A             sltiu $18, $15, 26778
4452	4294  AFB20D14             sw $18, 3348($29)
4453	4298  39F2689A             xori $18, $15, 26778
4454	429C  AFB20D18             sw $18, 3352($29)
4455	42A0  0C002D3C             jal increment_offset
4456	42A4  0C002D31             jal load_patterns
4457	42A8  25F23D60             addiu $18, $15, 15712
4458	42AC  AFB20D20             sw $18, 3360($29)
4459	42B0  31F23D60             andi $18, $15, 15712
4460	42B4  AFB20D24             sw $18, 3364($29)
4461	42B8  35F23D60             ori $18, $15, 15712
4462	42BC  AFB20D28             sw $18, 3368($29)
4463	42C0  29F23D60             slti $18, $15, 15712
4464	42C4  AFB20D2C             sw $18, 3372($29)
4465	42C8  29F23D60             sltiu $18, $15, 15712
4466	42CC  AFB20D30             sw $18, 3376($29)
4467	42D0  39F23D60             xori $18, $15, 15712
4468	42D4  AFB20D34             sw $18, 3380($29)
4469	42D8  0C002D3C             jal increment_offset
4470	42DC  0C002D31             jal load_patterns
4471	42E0  25F23C13             addiu $18, $15, 15379
4472	42E4  AFB20D3C             sw $18, 3388($29)
4473	42E8  31F23C13             andi $18, $15, 15379
4474	42EC  AFB20D40             sw $18, 3392($29)
4475	42F0  35F23C13             ori $18, $15, 15379
4476	42F4  AFB20D44             sw $18, 3396($29)
4477	42F8  29F23C13             slti $18, $15, 15379
4478	42FC  AFB20D48             sw $18, 3400($29)
4479	4300  29F23C13             sltiu $18, $15, 15379
4480	4304  AFB20D4C             sw $18, 3404($29)
4481	4308  39F23C13             xori $18, $15, 15379
4482	430C  AFB20D50             sw $18, 3408($29)
4483	4310  0C002D3C             jal increment_offset
4484	4314  0C002D31             jal load_patterns
4485	4318  25F2327E             addiu $18, $15, 12926
4486	431C  AFB20D58             sw $18, 3416($29)
4487	4320  31F2327E             andi $18, $15, 12926
4488	4324  AFB20D5C             sw $18, 3420($29)
4489	4328  35F2327E             ori $18, $15, 12926
4490	432C  AFB20D60             sw $18, 3424($29)
4491	4330  29F2327E             slti $18, $15, 12926
4492	4334  AFB20D64             sw $18, 3428($29)
4493	4338  29F2327E             sltiu $18, $15, 12926
4494	433C  AFB20D68             sw $18, 3432($29)
4495	4340  39F2327E             xori $18, $15, 12926
4496	4344  AFB20D6C             sw $18, 3436($29)
4497	4348  0C002D3C             jal increment_offset
4498	434C  0C002D31             jal load_patterns
4499	4350  25F2AC2A             addiu $18, $15, 44074
4500	4354  AFB20D74             sw $18, 3444($29)
4501	4358  31F2AC2A             andi $18, $15, 44074
4502	435C  AFB20D78             sw $18, 3448($29)
4503	4360  35F2AC2A             ori $18, $15, 44074
4504	4364  AFB20D7C             sw $18, 3452($29)
4505	4368  29F2AC2A             slti $18, $15, 44074
4506	436C  AFB20D80             sw $18, 3456($29)
4507	4370  29F2AC2A             sltiu $18, $15, 44074
4508	4374  AFB20D84             sw $18, 3460($29)
4509	4378  39F2AC2A             xori $18, $15, 44074
4510	437C  AFB20D88             sw $18, 3464($29)
4511	4380  0C002D3C             jal increment_offset
4512	4384  0C002D31             jal load_patterns
4513	4388  25F28AB0             addiu $18, $15, 35504
4514	438C  AFB20D90             sw $18, 3472($29)
4515	4390  31F28AB0             andi $18, $15, 35504
4516	4394  AFB20D94             sw $18, 3476($29)
4517	4398  35F28AB0             ori $18, $15, 35504
4518	439C  AFB20D98             sw $18, 3480($29)
4519	43A0  29F28AB0             slti $18, $15, 35504
4520	43A4  AFB20D9C             sw $18, 3484($29)
4521	43A8  29F28AB0             sltiu $18, $15, 35504
4522	43AC  AFB20DA0             sw $18, 3488($29)
4523	43B0  39F28AB0             xori $18, $15, 35504
4524	43B4  AFB20DA4             sw $18, 3492($29)
4525	43B8  0C002D3C             jal increment_offset
4526	43BC  0C002D31             jal load_patterns
4527	43C0  25F267F0             addiu $18, $15, 26608
4528	43C4  AFB20DAC             sw $18, 3500($29)
4529	43C8  31F267F0             andi $18, $15, 26608
4530	43CC  AFB20DB0             sw $18, 3504($29)
4531	43D0  35F267F0             ori $18, $15, 26608
4532	43D4  AFB20DB4             sw $18, 3508($29)
4533	43D8  29F267F0             slti $18, $15, 26608
4534	43DC  AFB20DB8             sw $18, 3512($29)
4535	43E0  29F267F0             sltiu $18, $15, 26608
4536	43E4  AFB20DBC             sw $18, 3516($29)
4537	43E8  39F267F0             xori $18, $15, 26608
4538	43EC  AFB20DC0             sw $18, 3520($29)
4539	43F0  0C002D3C             jal increment_offset
4540	43F4  0C002D31             jal load_patterns
4541	43F8  25F2E0BC             addiu $18, $15, 57532
4542	43FC  AFB20DC8             sw $18, 3528($29)
4543	4400  31F2E0BC             andi $18, $15, 57532
4544	4404  AFB20DCC             sw $18, 3532($29)
4545	4408  35F2E0BC             ori $18, $15, 57532
4546	440C  AFB20DD0             sw $18, 3536($29)
4547	4410  29F2E0BC             slti $18, $15, 57532
4548	4414  AFB20DD4             sw $18, 3540($29)
4549	4418  29F2E0BC             sltiu $18, $15, 57532
4550	441C  AFB20DD8             sw $18, 3544($29)
4551	4420  39F2E0BC             xori $18, $15, 57532
4552	4424  AFB20DDC             sw $18, 3548($29)
4553	4428  0C002D3C             jal increment_offset
4554	442C  0C002D31             jal load_patterns
4555	4430  25F2F069             addiu $18, $15, 61545
4556	4434  AFB20DE4             sw $18, 3556($29)
4557	4438  31F2F069             andi $18, $15, 61545
4558	443C  AFB20DE8             sw $18, 3560($29)
4559	4440  35F2F069             ori $18, $15, 61545
4560	4444  AFB20DEC             sw $18, 3564($29)
4561	4448  29F2F069             slti $18, $15, 61545
4562	444C  AFB20DF0             sw $18, 3568($29)
4563	4450  29F2F069             sltiu $18, $15, 61545
4564	4454  AFB20DF4             sw $18, 3572($29)
4565	4458  39F2F069             xori $18, $15, 61545
4566	445C  AFB20DF8             sw $18, 3576($29)
4567	4460  0C002D3C             jal increment_offset
4568	4464  0C002D31             jal load_patterns
4569	4468  25F2A7C4             addiu $18, $15, 42948
4570	446C  AFB20E00             sw $18, 3584($29)
4571	4470  31F2A7C4             andi $18, $15, 42948
4572	4474  AFB20E04             sw $18, 3588($29)
4573	4478  35F2A7C4             ori $18, $15, 42948
4574	447C  AFB20E08             sw $18, 3592($29)
4575	4480  29F2A7C4             slti $18, $15, 42948
4576	4484  AFB20E0C             sw $18, 3596($29)
4577	4488  29F2A7C4             sltiu $18, $15, 42948
4578	448C  AFB20E10             sw $18, 3600($29)
4579	4490  39F2A7C4             xori $18, $15, 42948
4580	4494  AFB20E14             sw $18, 3604($29)
4581	4498  0C002D3C             jal increment_offset
4582	449C  0C002D31             jal load_patterns
4583	44A0  25F2962D             addiu $18, $15, 38445
4584	44A4  AFB20E1C             sw $18, 3612($29)
4585	44A8  31F2962D             andi $18, $15, 38445
4586	44AC  AFB20E20             sw $18, 3616($29)
4587	44B0  35F2962D             ori $18, $15, 38445
4588	44B4  AFB20E24             sw $18, 3620($29)
4589	44B8  29F2962D             slti $18, $15, 38445
4590	44BC  AFB20E28             sw $18, 3624($29)
4591	44C0  29F2962D             sltiu $18, $15, 38445
4592	44C4  AFB20E2C             sw $18, 3628($29)
4593	44C8  39F2962D             xori $18, $15, 38445
4594	44CC  AFB20E30             sw $18, 3632($29)
4595	44D0  0C002D3C             jal increment_offset
4596	44D4  0C002D31             jal load_patterns
4597	44D8  25F25F66             addiu $18, $15, 24422
4598	44DC  AFB20E38             sw $18, 3640($29)
4599	44E0  31F25F66             andi $18, $15, 24422
4600	44E4  AFB20E3C             sw $18, 3644($29)
4601	44E8  35F25F66             ori $18, $15, 24422
4602	44EC  AFB20E40             sw $18, 3648($29)
4603	44F0  29F25F66             slti $18, $15, 24422
4604	44F4  AFB20E44             sw $18, 3652($29)
4605	44F8  29F25F66             sltiu $18, $15, 24422
4606	44FC  AFB20E48             sw $18, 3656($29)
4607	4500  39F25F66             xori $18, $15, 24422
4608	4504  AFB20E4C             sw $18, 3660($29)
4609	4508  0C002D3C             jal increment_offset
4610	450C  0C002D31             jal load_patterns
4611	4510  25F27D0A             addiu $18, $15, 32010
4612	4514  AFB20E54             sw $18, 3668($29)
4613	4518  31F27D0A             andi $18, $15, 32010
4614	451C  AFB20E58             sw $18, 3672($29)
4615	4520  35F27D0A             ori $18, $15, 32010
4616	4524  AFB20E5C             sw $18, 3676($29)
4617	4528  29F27D0A             slti $18, $15, 32010
4618	452C  AFB20E60             sw $18, 3680($29)
4619	4530  29F27D0A             sltiu $18, $15, 32010
4620	4534  AFB20E64             sw $18, 3684($29)
4621	4538  39F27D0A             xori $18, $15, 32010
4622	453C  AFB20E68             sw $18, 3688($29)
4623	4540  0C002D3C             jal increment_offset
4624	4544  0C002D31             jal load_patterns
4625	4548  25F26877             addiu $18, $15, 26743
4626	454C  AFB20E70             sw $18, 3696($29)
4627	4550  31F26877             andi $18, $15, 26743
4628	4554  AFB20E74             sw $18, 3700($29)
4629	4558  35F26877             ori $18, $15, 26743
4630	455C  AFB20E78             sw $18, 3704($29)
4631	4560  29F26877             slti $18, $15, 26743
4632	4564  AFB20E7C             sw $18, 3708($29)
4633	4568  29F26877             sltiu $18, $15, 26743
4634	456C  AFB20E80             sw $18, 3712($29)
4635	4570  39F26877             xori $18, $15, 26743
4636	4574  AFB20E84             sw $18, 3716($29)
4637	4578  0C002D3C             jal increment_offset
4638	457C  0C002D31             jal load_patterns
4639	4580  25F20F02             addiu $18, $15, 3842
4640	4584  AFB20E8C             sw $18, 3724($29)
4641	4588  31F20F02             andi $18, $15, 3842
4642	458C  AFB20E90             sw $18, 3728($29)
4643	4590  35F20F02             ori $18, $15, 3842
4644	4594  AFB20E94             sw $18, 3732($29)
4645	4598  29F20F02             slti $18, $15, 3842
4646	459C  AFB20E98             sw $18, 3736($29)
4647	45A0  29F20F02             sltiu $18, $15, 3842
4648	45A4  AFB20E9C             sw $18, 3740($29)
4649	45A8  39F20F02             xori $18, $15, 3842
4650	45AC  AFB20EA0             sw $18, 3744($29)
4651	45B0  0C002D3C             jal increment_offset
4652	45B4  0C002D31             jal load_patterns
4653	45B8  25F2C9FF             addiu $18, $15, 51711
4654	45BC  AFB20EA8             sw $18, 3752($29)
4655	45C0  31F2C9FF             andi $18, $15, 51711
4656	45C4  AFB20EAC             sw $18, 3756($29)
4657	45C8  35F2C9FF             ori $18, $15, 51711
4658	45CC  AFB20EB0             sw $18, 3760($29)
4659	45D0  29F2C9FF             slti $18, $15, 51711
4660	45D4  AFB20EB4             sw $18, 3764($29)
4661	45D8  29F2C9FF             sltiu $18, $15, 51711
4662	45DC  AFB20EB8             sw $18, 3768($29)
4663	45E0  39F2C9FF             xori $18, $15, 51711
4664	45E4  AFB20EBC             sw $18, 3772($29)
4665	45E8  0C002D3C             jal increment_offset
4666	45EC  0C002D31             jal load_patterns
4667	45F0  25F2CCC9             addiu $18, $15, 52425
4668	45F4  AFB20EC4             sw $18, 3780($29)
4669	45F8  31F2CCC9             andi $18, $15, 52425
4670	45FC  AFB20EC8             sw $18, 3784($29)
4671	4600  35F2CCC9             ori $18, $15, 52425
4672	4604  AFB20ECC             sw $18, 3788($29)
4673	4608  29F2CCC9             slti $18, $15, 52425
4674	460C  AFB20ED0             sw $18, 3792($29)
4675	4610  29F2CCC9             sltiu $18, $15, 52425
4676	4614  AFB20ED4             sw $18, 3796($29)
4677	4618  39F2CCC9             xori $18, $15, 52425
4678	461C  AFB20ED8             sw $18, 3800($29)
4679	4620  0C002D3C             jal increment_offset
4680	4624  0C002D31             jal load_patterns
4681	4628  25F276A5             addiu $18, $15, 30373
4682	462C  AFB20EE0             sw $18, 3808($29)
4683	4630  31F276A5             andi $18, $15, 30373
4684	4634  AFB20EE4             sw $18, 3812($29)
4685	4638  35F276A5             ori $18, $15, 30373
4686	463C  AFB20EE8             sw $18, 3816($29)
4687	4640  29F276A5             slti $18, $15, 30373
4688	4644  AFB20EEC             sw $18, 3820($29)
4689	4648  29F276A5             sltiu $18, $15, 30373
4690	464C  AFB20EF0             sw $18, 3824($29)
4691	4650  39F276A5             xori $18, $15, 30373
4692	4654  AFB20EF4             sw $18, 3828($29)
4693	4658  0C002D3C             jal increment_offset
4694	465C  0C002D31             jal load_patterns
4695	4660  25F2481D             addiu $18, $15, 18461
4696	4664  AFB20EFC             sw $18, 3836($29)
4697	4668  31F2481D             andi $18, $15, 18461
4698	466C  AFB20F00             sw $18, 3840($29)
4699	4670  35F2481D             ori $18, $15, 18461
4700	4674  AFB20F04             sw $18, 3844($29)
4701	4678  29F2481D             slti $18, $15, 18461
4702	467C  AFB20F08             sw $18, 3848($29)
4703	4680  29F2481D             sltiu $18, $15, 18461
4704	4684  AFB20F0C             sw $18, 3852($29)
4705	4688  39F2481D             xori $18, $15, 18461
4706	468C  AFB20F10             sw $18, 3856($29)
4707	4690  0C002D3C             jal increment_offset
4708	4694  0C002D31             jal load_patterns
4709	4698  25F27869             addiu $18, $15, 30825
4710	469C  AFB20F18             sw $18, 3864($29)
4711	46A0  31F27869             andi $18, $15, 30825
4712	46A4  AFB20F1C             sw $18, 3868($29)
4713	46A8  35F27869             ori $18, $15, 30825
4714	46AC  AFB20F20             sw $18, 3872($29)
4715	46B0  29F27869             slti $18, $15, 30825
4716	46B4  AFB20F24             sw $18, 3876($29)
4717	46B8  29F27869             sltiu $18, $15, 30825
4718	46BC  AFB20F28             sw $18, 3880($29)
4719	46C0  39F27869             xori $18, $15, 30825
4720	46C4  AFB20F2C             sw $18, 3884($29)
4721	46C8  0C002D3C             jal increment_offset
4722	46CC  0C002D31             jal load_patterns
4723	46D0  25F2B7FC             addiu $18, $15, 47100
4724	46D4  AFB20F34             sw $18, 3892($29)
4725	46D8  31F2B7FC             andi $18, $15, 47100
4726	46DC  AFB20F38             sw $18, 3896($29)
4727	46E0  35F2B7FC             ori $18, $15, 47100
4728	46E4  AFB20F3C             sw $18, 3900($29)
4729	46E8  29F2B7FC             slti $18, $15, 47100
4730	46EC  AFB20F40             sw $18, 3904($29)
4731	46F0  29F2B7FC             sltiu $18, $15, 47100
4732	46F4  AFB20F44             sw $18, 3908($29)
4733	46F8  39F2B7FC             xori $18, $15, 47100
4734	46FC  AFB20F48             sw $18, 3912($29)
4735	4700  0C002D3C             jal increment_offset
4736	4704  0C002D31             jal load_patterns
4737	4708  25F222E0             addiu $18, $15, 8928
4738	470C  AFB20F50             sw $18, 3920($29)
4739	4710  31F222E0             andi $18, $15, 8928
4740	4714  AFB20F54             sw $18, 3924($29)
4741	4718  35F222E0             ori $18, $15, 8928
4742	471C  AFB20F58             sw $18, 3928($29)
4743	4720  29F222E0             slti $18, $15, 8928
4744	4724  AFB20F5C             sw $18, 3932($29)
4745	4728  29F222E0             sltiu $18, $15, 8928
4746	472C  AFB20F60             sw $18, 3936($29)
4747	4730  39F222E0             xori $18, $15, 8928
4748	4734  AFB20F64             sw $18, 3940($29)
4749	4738  0C002D3C             jal increment_offset
4750	473C  0C002D31             jal load_patterns
4751	4740  25F24F3B             addiu $18, $15, 20283
4752	4744  AFB20F6C             sw $18, 3948($29)
4753	4748  31F24F3B             andi $18, $15, 20283
4754	474C  AFB20F70             sw $18, 3952($29)
4755	4750  35F24F3B             ori $18, $15, 20283
4756	4754  AFB20F74             sw $18, 3956($29)
4757	4758  29F24F3B             slti $18, $15, 20283
4758	475C  AFB20F78             sw $18, 3960($29)
4759	4760  29F24F3B             sltiu $18, $15, 20283
4760	4764  AFB20F7C             sw $18, 3964($29)
4761	4768  39F24F3B             xori $18, $15, 20283
4762	476C  AFB20F80             sw $18, 3968($29)
4763	4770  0C002D3C             jal increment_offset
4764	4774  0C002D31             jal load_patterns
4765	4778  25F207A7             addiu $18, $15, 1959
4766	477C  AFB20F88             sw $18, 3976($29)
4767	4780  31F207A7             andi $18, $15, 1959
4768	4784  AFB20F8C             sw $18, 3980($29)
4769	4788  35F207A7             ori $18, $15, 1959
4770	478C  AFB20F90             sw $18, 3984($29)
4771	4790  29F207A7             slti $18, $15, 1959
4772	4794  AFB20F94             sw $18, 3988($29)
4773	4798  29F207A7             sltiu $18, $15, 1959
4774	479C  AFB20F98             sw $18, 3992($29)
4775	47A0  39F207A7             xori $18, $15, 1959
4776	47A4  AFB20F9C             sw $18, 3996($29)
4777	47A8  0C002D3C             jal increment_offset
4778	47AC  0C002D31             jal load_patterns
4779	47B0  25F2C18E             addiu $18, $15, 49550
4780	47B4  AFB20FA4             sw $18, 4004($29)
4781	47B8  31F2C18E             andi $18, $15, 49550
4782	47BC  AFB20FA8             sw $18, 4008($29)
4783	47C0  35F2C18E             ori $18, $15, 49550
4784	47C4  AFB20FAC             sw $18, 4012($29)
4785	47C8  29F2C18E             slti $18, $15, 49550
4786	47CC  AFB20FB0             sw $18, 4016($29)
4787	47D0  29F2C18E             sltiu $18, $15, 49550
4788	47D4  AFB20FB4             sw $18, 4020($29)
4789	47D8  39F2C18E             xori $18, $15, 49550
4790	47DC  AFB20FB8             sw $18, 4024($29)
4791	47E0  0C002D3C             jal increment_offset
4792	47E4  0C002D31             jal load_patterns
4793	47E8  25F2EDEF             addiu $18, $15, 60911
4794	47EC  AFB20FC0             sw $18, 4032($29)
4795	47F0  31F2EDEF             andi $18, $15, 60911
4796	47F4  AFB20FC4             sw $18, 4036($29)
4797	47F8  35F2EDEF             ori $18, $15, 60911
4798	47FC  AFB20FC8             sw $18, 4040($29)
4799	4800  29F2EDEF             slti $18, $15, 60911
4800	4804  AFB20FCC             sw $18, 4044($29)
4801	4808  29F2EDEF             sltiu $18, $15, 60911
4802	480C  AFB20FD0             sw $18, 4048($29)
4803	4810  39F2EDEF             xori $18, $15, 60911
4804	4814  AFB20FD4             sw $18, 4052($29)
4805	4818  0C002D3C             jal increment_offset
4806	481C  0C002D31             jal load_patterns
4807	4820  25F2143C             addiu $18, $15, 5180
4808	4824  AFB20FDC             sw $18, 4060($29)
4809	4828  31F2143C             andi $18, $15, 5180
4810	482C  AFB20FE0             sw $18, 4064($29)
4811	4830  35F2143C             ori $18, $15, 5180
4812	4834  AFB20FE4             sw $18, 4068($29)
4813	4838  29F2143C             slti $18, $15, 5180
4814	483C  AFB20FE8             sw $18, 4072($29)
4815	4840  29F2143C             sltiu $18, $15, 5180
4816	4844  AFB20FEC             sw $18, 4076($29)
4817	4848  39F2143C             xori $18, $15, 5180
4818	484C  AFB20FF0             sw $18, 4080($29)
4819	4850  0C002D3C             jal increment_offset
4820	4854  0C002D31             jal load_patterns
4821	4858  25F24F69             addiu $18, $15, 20329
4822	485C  AFB20FF8             sw $18, 4088($29)
4823	4860  31F24F69             andi $18, $15, 20329
4824	4864  AFB20FFC             sw $18, 4092($29)
4825	4868  35F24F69             ori $18, $15, 20329
4826	486C  AFB21000             sw $18, 4096($29)
4827	4870  29F24F69             slti $18, $15, 20329
4828	4874  AFB21004             sw $18, 4100($29)
4829	4878  29F24F69             sltiu $18, $15, 20329
4830	487C  AFB21008             sw $18, 4104($29)
4831	4880  39F24F69             xori $18, $15, 20329
4832	4884  AFB2100C             sw $18, 4108($29)
4833	4888  0C002D3C             jal increment_offset
4834	488C  0C002D31             jal load_patterns
4835	4890  25F257D7             addiu $18, $15, 22487
4836	4894  AFB21014             sw $18, 4116($29)
4837	4898  31F257D7             andi $18, $15, 22487
4838	489C  AFB21018             sw $18, 4120($29)
4839	48A0  35F257D7             ori $18, $15, 22487
4840	48A4  AFB2101C             sw $18, 4124($29)
4841	48A8  29F257D7             slti $18, $15, 22487
4842	48AC  AFB21020             sw $18, 4128($29)
4843	48B0  29F257D7             sltiu $18, $15, 22487
4844	48B4  AFB21024             sw $18, 4132($29)
4845	48B8  39F257D7             xori $18, $15, 22487
4846	48BC  AFB21028             sw $18, 4136($29)
4847	48C0  0C002D3C             jal increment_offset
4848	48C4  0C002D31             jal load_patterns
4849	48C8  25F2ED98             addiu $18, $15, 60824
4850	48CC  AFB21030             sw $18, 4144($29)
4851	48D0  31F2ED98             andi $18, $15, 60824
4852	48D4  AFB21034             sw $18, 4148($29)
4853	48D8  35F2ED98             ori $18, $15, 60824
4854	48DC  AFB21038             sw $18, 4152($29)
4855	48E0  29F2ED98             slti $18, $15, 60824
4856	48E4  AFB2103C             sw $18, 4156($29)
4857	48E8  29F2ED98             sltiu $18, $15, 60824
4858	48EC  AFB21040             sw $18, 4160($29)
4859	48F0  39F2ED98             xori $18, $15, 60824
4860	48F4  AFB21044             sw $18, 4164($29)
4861	48F8  0C002D3C             jal increment_offset
4862	48FC  0C002D31             jal load_patterns
4863	4900  25F2E7A5             addiu $18, $15, 59301
4864	4904  AFB2104C             sw $18, 4172($29)
4865	4908  31F2E7A5             andi $18, $15, 59301
4866	490C  AFB21050             sw $18, 4176($29)
4867	4910  35F2E7A5             ori $18, $15, 59301
4868	4914  AFB21054             sw $18, 4180($29)
4869	4918  29F2E7A5             slti $18, $15, 59301
4870	491C  AFB21058             sw $18, 4184($29)
4871	4920  29F2E7A5             sltiu $18, $15, 59301
4872	4924  AFB2105C             sw $18, 4188($29)
4873	4928  39F2E7A5             xori $18, $15, 59301
4874	492C  AFB21060             sw $18, 4192($29)
4875	4930  0C002D3C             jal increment_offset
4876	4934  0C002D31             jal load_patterns
4877	4938  25F27B4F             addiu $18, $15, 31567
4878	493C  AFB21068             sw $18, 4200($29)
4879	4940  31F27B4F             andi $18, $15, 31567
4880	4944  AFB2106C             sw $18, 4204($29)
4881	4948  35F27B4F             ori $18, $15, 31567
4882	494C  AFB21070             sw $18, 4208($29)
4883	4950  29F27B4F             slti $18, $15, 31567
4884	4954  AFB21074             sw $18, 4212($29)
4885	4958  29F27B4F             sltiu $18, $15, 31567
4886	495C  AFB21078             sw $18, 4216($29)
4887	4960  39F27B4F             xori $18, $15, 31567
4888	4964  AFB2107C             sw $18, 4220($29)
4889	4968  0C002D3C             jal increment_offset
4890	496C  0C002D31             jal load_patterns
4891	4970  25F22E95             addiu $18, $15, 11925
4892	4974  AFB21084             sw $18, 4228($29)
4893	4978  31F22E95             andi $18, $15, 11925
4894	497C  AFB21088             sw $18, 4232($29)
4895	4980  35F22E95             ori $18, $15, 11925
4896	4984  AFB2108C             sw $18, 4236($29)
4897	4988  29F22E95             slti $18, $15, 11925
4898	498C  AFB21090             sw $18, 4240($29)
4899	4990  29F22E95             sltiu $18, $15, 11925
4900	4994  AFB21094             sw $18, 4244($29)
4901	4998  39F22E95             xori $18, $15, 11925
4902	499C  AFB21098             sw $18, 4248($29)
4903	49A0  0C002D3C             jal increment_offset
4904	49A4  0C002D31             jal load_patterns
4905	49A8  25F273CF             addiu $18, $15, 29647
4906	49AC  AFB210A0             sw $18, 4256($29)
4907	49B0  31F273CF             andi $18, $15, 29647
4908	49B4  AFB210A4             sw $18, 4260($29)
4909	49B8  35F273CF             ori $18, $15, 29647
4910	49BC  AFB210A8             sw $18, 4264($29)
4911	49C0  29F273CF             slti $18, $15, 29647
4912	49C4  AFB210AC             sw $18, 4268($29)
4913	49C8  29F273CF             sltiu $18, $15, 29647
4914	49CC  AFB210B0             sw $18, 4272($29)
4915	49D0  39F273CF             xori $18, $15, 29647
4916	49D4  AFB210B4             sw $18, 4276($29)
4917	49D8  0C002D3C             jal increment_offset
4918	49DC  0C002D31             jal load_patterns
4919	49E0  25F26E7C             addiu $18, $15, 28284
4920	49E4  AFB210BC             sw $18, 4284($29)
4921	49E8  31F26E7C             andi $18, $15, 28284
4922	49EC  AFB210C0             sw $18, 4288($29)
4923	49F0  35F26E7C             ori $18, $15, 28284
4924	49F4  AFB210C4             sw $18, 4292($29)
4925	49F8  29F26E7C             slti $18, $15, 28284
4926	49FC  AFB210C8             sw $18, 4296($29)
4927	4A00  29F26E7C             sltiu $18, $15, 28284
4928	4A04  AFB210CC             sw $18, 4300($29)
4929	4A08  39F26E7C             xori $18, $15, 28284
4930	4A0C  AFB210D0             sw $18, 4304($29)
4931	4A10  0C002D3C             jal increment_offset
4932	4A14  0C002D31             jal load_patterns
4933	4A18  25F2DAE7             addiu $18, $15, 56039
4934	4A1C  AFB210D8             sw $18, 4312($29)
4935	4A20  31F2DAE7             andi $18, $15, 56039
4936	4A24  AFB210DC             sw $18, 4316($29)
4937	4A28  35F2DAE7             ori $18, $15, 56039
4938	4A2C  AFB210E0             sw $18, 4320($29)
4939	4A30  29F2DAE7             slti $18, $15, 56039
4940	4A34  AFB210E4             sw $18, 4324($29)
4941	4A38  29F2DAE7             sltiu $18, $15, 56039
4942	4A3C  AFB210E8             sw $18, 4328($29)
4943	4A40  39F2DAE7             xori $18, $15, 56039
4944	4A44  AFB210EC             sw $18, 4332($29)
4945	4A48  0C002D3C             jal increment_offset
4946	4A4C  0C002D31             jal load_patterns
4947	4A50  25F24CC2             addiu $18, $15, 19650
4948	4A54  AFB210F4             sw $18, 4340($29)
4949	4A58  31F24CC2             andi $18, $15, 19650
4950	4A5C  AFB210F8             sw $18, 4344($29)
4951	4A60  35F24CC2             ori $18, $15, 19650
4952	4A64  AFB210FC             sw $18, 4348($29)
4953	4A68  29F24CC2             slti $18, $15, 19650
4954	4A6C  AFB21100             sw $18, 4352($29)
4955	4A70  29F24CC2             sltiu $18, $15, 19650
4956	4A74  AFB21104             sw $18, 4356($29)
4957	4A78  39F24CC2             xori $18, $15, 19650
4958	4A7C  AFB21108             sw $18, 4360($29)
4959	4A80  0C002D3C             jal increment_offset
4960	4A84  0C002D31             jal load_patterns
4961	4A88  25F24112             addiu $18, $15, 16658
4962	4A8C  AFB21110             sw $18, 4368($29)
4963	4A90  31F24112             andi $18, $15, 16658
4964	4A94  AFB21114             sw $18, 4372($29)
4965	4A98  35F24112             ori $18, $15, 16658
4966	4A9C  AFB21118             sw $18, 4376($29)
4967	4AA0  29F24112             slti $18, $15, 16658
4968	4AA4  AFB2111C             sw $18, 4380($29)
4969	4AA8  29F24112             sltiu $18, $15, 16658
4970	4AAC  AFB21120             sw $18, 4384($29)
4971	4AB0  39F24112             xori $18, $15, 16658
4972	4AB4  AFB21124             sw $18, 4388($29)
4973	4AB8  0C002D3C             jal increment_offset
4974	4ABC  0C002D31             jal load_patterns
4975	4AC0  25F2CDD5             addiu $18, $15, 52693
4976	4AC4  AFB2112C             sw $18, 4396($29)
4977	4AC8  31F2CDD5             andi $18, $15, 52693
4978	4ACC  AFB21130             sw $18, 4400($29)
4979	4AD0  35F2CDD5             ori $18, $15, 52693
4980	4AD4  AFB21134             sw $18, 4404($29)
4981	4AD8  29F2CDD5             slti $18, $15, 52693
4982	4ADC  AFB21138             sw $18, 4408($29)
4983	4AE0  29F2CDD5             sltiu $18, $15, 52693
4984	4AE4  AFB2113C             sw $18, 4412($29)
4985	4AE8  39F2CDD5             xori $18, $15, 52693
4986	4AEC  AFB21140             sw $18, 4416($29)
4987	4AF0  0C002D3C             jal increment_offset
4988	4AF4  0C002D31             jal load_patterns
4989	4AF8  25F29EA8             addiu $18, $15, 40616
4990	4AFC  AFB21148             sw $18, 4424($29)
4991	4B00  31F29EA8             andi $18, $15, 40616
4992	4B04  AFB2114C             sw $18, 4428($29)
4993	4B08  35F29EA8             ori $18, $15, 40616
4994	4B0C  AFB21150             sw $18, 4432($29)
4995	4B10  29F29EA8             slti $18, $15, 40616
4996	4B14  AFB21154             sw $18, 4436($29)
4997	4B18  29F29EA8             sltiu $18, $15, 40616
4998	4B1C  AFB21158             sw $18, 4440($29)
4999	4B20  39F29EA8             xori $18, $15, 40616
5000	4B24  AFB2115C             sw $18, 4444($29)
5001	4B28  0C002D3C             jal increment_offset
5002	4B2C  0C002D31             jal load_patterns
5003	4B30  25F28FD0             addiu $18, $15, 36816
5004	4B34  AFB21164             sw $18, 4452($29)
5005	4B38  31F28FD0             andi $18, $15, 36816
5006	4B3C  AFB21168             sw $18, 4456($29)
5007	4B40  35F28FD0             ori $18, $15, 36816
5008	4B44  AFB2116C             sw $18, 4460($29)
5009	4B48  29F28FD0             slti $18, $15, 36816
5010	4B4C  AFB21170             sw $18, 4464($29)
5011	4B50  29F28FD0             sltiu $18, $15, 36816
5012	4B54  AFB21174             sw $18, 4468($29)
5013	4B58  39F28FD0             xori $18, $15, 36816
5014	4B5C  AFB21178             sw $18, 4472($29)
5015	4B60  0C002D3C             jal increment_offset
5016	4B64  0C002D31             jal load_patterns
5017	4B68  25F23149             addiu $18, $15, 12617
5018	4B6C  AFB21180             sw $18, 4480($29)
5019	4B70  31F23149             andi $18, $15, 12617
5020	4B74  AFB21184             sw $18, 4484($29)
5021	4B78  35F23149             ori $18, $15, 12617
5022	4B7C  AFB21188             sw $18, 4488($29)
5023	4B80  29F23149             slti $18, $15, 12617
5024	4B84  AFB2118C             sw $18, 4492($29)
5025	4B88  29F23149             sltiu $18, $15, 12617
5026	4B8C  AFB21190             sw $18, 4496($29)
5027	4B90  39F23149             xori $18, $15, 12617
5028	4B94  AFB21194             sw $18, 4500($29)
5029	4B98  0C002D3C             jal increment_offset
5030	4B9C  0C002D31             jal load_patterns
5031	4BA0  25F2B261             addiu $18, $15, 45665
5032	4BA4  AFB2119C             sw $18, 4508($29)
5033	4BA8  31F2B261             andi $18, $15, 45665
5034	4BAC  AFB211A0             sw $18, 4512($29)
5035	4BB0  35F2B261             ori $18, $15, 45665
5036	4BB4  AFB211A4             sw $18, 4516($29)
5037	4BB8  29F2B261             slti $18, $15, 45665
5038	4BBC  AFB211A8             sw $18, 4520($29)
5039	4BC0  29F2B261             sltiu $18, $15, 45665
5040	4BC4  AFB211AC             sw $18, 4524($29)
5041	4BC8  39F2B261             xori $18, $15, 45665
5042	4BCC  AFB211B0             sw $18, 4528($29)
5043	4BD0  0C002D3C             jal increment_offset
5044	4BD4  0C002D31             jal load_patterns
5045	4BD8  25F2E219             addiu $18, $15, 57881
5046	4BDC  AFB211B8             sw $18, 4536($29)
5047	4BE0  31F2E219             andi $18, $15, 57881
5048	4BE4  AFB211BC             sw $18, 4540($29)
5049	4BE8  35F2E219             ori $18, $15, 57881
5050	4BEC  AFB211C0             sw $18, 4544($29)
5051	4BF0  29F2E219             slti $18, $15, 57881
5052	4BF4  AFB211C4             sw $18, 4548($29)
5053	4BF8  29F2E219             sltiu $18, $15, 57881
5054	4BFC  AFB211C8             sw $18, 4552($29)
5055	4C00  39F2E219             xori $18, $15, 57881
5056	4C04  AFB211CC             sw $18, 4556($29)
5057	4C08  0C002D3C             jal increment_offset
5058	4C0C  0C002D31             jal load_patterns
5059	4C10  25F2A337             addiu $18, $15, 41783
5060	4C14  AFB211D4             sw $18, 4564($29)
5061	4C18  31F2A337             andi $18, $15, 41783
5062	4C1C  AFB211D8             sw $18, 4568($29)
5063	4C20  35F2A337             ori $18, $15, 41783
5064	4C24  AFB211DC             sw $18, 4572($29)
5065	4C28  29F2A337             slti $18, $15, 41783
5066	4C2C  AFB211E0             sw $18, 4576($29)
5067	4C30  29F2A337             sltiu $18, $15, 41783
5068	4C34  AFB211E4             sw $18, 4580($29)
5069	4C38  39F2A337             xori $18, $15, 41783
5070	4C3C  AFB211E8             sw $18, 4584($29)
5071	4C40  0C002D3C             jal increment_offset
5072	4C44  0C002D31             jal load_patterns
5073	4C48  25F2B60E             addiu $18, $15, 46606
5074	4C4C  AFB211F0             sw $18, 4592($29)
5075	4C50  31F2B60E             andi $18, $15, 46606
5076	4C54  AFB211F4             sw $18, 4596($29)
5077	4C58  35F2B60E             ori $18, $15, 46606
5078	4C5C  AFB211F8             sw $18, 4600($29)
5079	4C60  29F2B60E             slti $18, $15, 46606
5080	4C64  AFB211FC             sw $18, 4604($29)
5081	4C68  29F2B60E             sltiu $18, $15, 46606
5082	4C6C  AFB21200             sw $18, 4608($29)
5083	4C70  39F2B60E             xori $18, $15, 46606
5084	4C74  AFB21204             sw $18, 4612($29)
5085	4C78  0C002D3C             jal increment_offset
5086	4C7C  0C002D31             jal load_patterns
5087	4C80  25F27FBD             addiu $18, $15, 32701
5088	4C84  AFB2120C             sw $18, 4620($29)
5089	4C88  31F27FBD             andi $18, $15, 32701
5090	4C8C  AFB21210             sw $18, 4624($29)
5091	4C90  35F27FBD             ori $18, $15, 32701
5092	4C94  AFB21214             sw $18, 4628($29)
5093	4C98  29F27FBD             slti $18, $15, 32701
5094	4C9C  AFB21218             sw $18, 4632($29)
5095	4CA0  29F27FBD             sltiu $18, $15, 32701
5096	4CA4  AFB2121C             sw $18, 4636($29)
5097	4CA8  39F27FBD             xori $18, $15, 32701
5098	4CAC  AFB21220             sw $18, 4640($29)
5099	4CB0  0C002D3C             jal increment_offset
5100	                          
5101	4CB4  0C002D4A            jal init_cp
5102	4CB8  0800132F            j syscalls
5103	                          
5104	                          syscalls:
5105	4CBC  0000000C             syscall
5106	                          
5107	                          ;..........data-path test..........;
5108	4CC0  3C1D0001            lui $29, 1
5109	4CC4  37BD2710            ori $29, $29, 10000
5110	                          
5111	4CC8  0C002D34            jal reset_offsets
5112	4CCC  0C002D4A            jal init_cp
5113	                          operation_add_psuedo:
5114	4CD0  3C020000             lui $2, 0
5115	4CD4  34420000             ori $2, $2, 0
5116	4CD8  3C030000             lui $3, 0
5117	4CDC  34630000             ori $3, $3, 0
5118	4CE0  00439020             add $18, $2, $3
5119	4CE4  AFB20000             sw $18, 0($29)
5120	4CE8  0C002D43             jal increment
5121	4CEC  3C020000             lui $2, 0
5122	4CF0  34420000             ori $2, $2, 0
5123	4CF4  3C03FFFF             lui $3, 65535
5124	4CF8  3463FFFF             ori $3, $3, 65535
5125	4CFC  00439020             add $18, $2, $3
5126	4D00  AFB20000             sw $18, 0($29)
5127	4D04  0C002D43             jal increment
5128	4D08  3C02FFFF             lui $2, 65535
5129	4D0C  3442FFFF             ori $2, $2, 65535
5130	4D10  3C030000             lui $3, 0
5131	4D14  34630000             ori $3, $3, 0
5132	4D18  00439020             add $18, $2, $3
5133	4D1C  AFB20000             sw $18, 0($29)
5134	4D20  0C002D43             jal increment
5135	4D24  3C025555             lui $2, 21845
5136	4D28  34425555             ori $2, $2, 21845
5137	4D2C  3C035555             lui $3, 21845
5138	4D30  34635555             ori $3, $3, 21845
5139	4D34  00439020             add $18, $2, $3
5140	4D38  AFB20000             sw $18, 0($29)
5141	4D3C  0C002D43             jal increment
5142	4D40  3C02AAAA             lui $2, 43690
5143	4D44  3442AAAA             ori $2, $2, 43690
5144	4D48  3C03AAAA             lui $3, 43690
5145	4D4C  3463AAAA             ori $3, $3, 43690
5146	4D50  00439020             add $18, $2, $3
5147	4D54  AFB20000             sw $18, 0($29)
5148	4D58  0C002D43             jal increment
5149	4D5C  3C020000             lui $2, 0
5150	4D60  34420001             ori $2, $2, 1
5151	4D64  3C03FFFF             lui $3, 65535
5152	4D68  3463FFFF             ori $3, $3, 65535
5153	4D6C  00439020             add $18, $2, $3
5154	4D70  AFB20000             sw $18, 0($29)
5155	4D74  0C002D43             jal increment
5156	4D78  3C02FFFF             lui $2, 65535
5157	4D7C  3442FFFF             ori $2, $2, 65535
5158	4D80  3C030000             lui $3, 0
5159	4D84  34630001             ori $3, $3, 1
5160	4D88  00439020             add $18, $2, $3
5161	4D8C  AFB20000             sw $18, 0($29)
5162	4D90  0C002D43             jal increment
5163	4D94  3C02FFFF             lui $2, 65535
5164	4D98  3442FFFF             ori $2, $2, 65535
5165	4D9C  3C03FFFF             lui $3, 65535
5166	4DA0  3463FFFF             ori $3, $3, 65535
5167	4DA4  00439020             add $18, $2, $3
5168	4DA8  AFB20000             sw $18, 0($29)
5169	4DAC  0C002D43             jal increment
5170	4DB0  3C026666             lui $2, 26214
5171	4DB4  34426666             ori $2, $2, 26214
5172	4DB8  3C035555             lui $3, 21845
5173	4DBC  34635555             ori $3, $3, 21845
5174	4DC0  00439020             add $18, $2, $3
5175	4DC4  AFB20000             sw $18, 0($29)
5176	4DC8  0C002D43             jal increment
5177	                          
5178	4DCC  0C002D34            jal reset_offsets
5179	4DD0  0C002D4A            jal init_cp
5180	                          operation_sub_psuedo:
5181	4DD4  3C020000             lui $2, 0
5182	4DD8  34420000             ori $2, $2, 0
5183	4DDC  3C030000             lui $3, 0
5184	4DE0  34630000             ori $3, $3, 0
5185	4DE4  00439022             sub $18, $2, $3
5186	4DE8  AFB20000             sw $18, 0($29)
5187	4DEC  0C002D43             jal increment
5188	4DF0  3C020000             lui $2, 0
5189	4DF4  34420000             ori $2, $2, 0
5190	4DF8  3C030000             lui $3, 0
5191	4DFC  34630001             ori $3, $3, 1
5192	4E00  00439022             sub $18, $2, $3
5193	4E04  AFB20000             sw $18, 0($29)
5194	4E08  0C002D43             jal increment
5195	4E0C  3C020000             lui $2, 0
5196	4E10  34420000             ori $2, $2, 0
5197	4E14  3C03FFFF             lui $3, 65535
5198	4E18  3463FFFF             ori $3, $3, 65535
5199	4E1C  00439022             sub $18, $2, $3
5200	4E20  AFB20000             sw $18, 0($29)
5201	4E24  0C002D43             jal increment
5202	4E28  3C025555             lui $2, 21845
5203	4E2C  34425555             ori $2, $2, 21845
5204	4E30  3C03AAAA             lui $3, 43690
5205	4E34  3463AAAA             ori $3, $3, 43690
5206	4E38  00439022             sub $18, $2, $3
5207	4E3C  AFB20000             sw $18, 0($29)
5208	4E40  0C002D43             jal increment
5209	4E44  3C02AAAA             lui $2, 43690
5210	4E48  3442AAAA             ori $2, $2, 43690
5211	4E4C  3C035555             lui $3, 21845
5212	4E50  34635555             ori $3, $3, 21845
5213	4E54  00439022             sub $18, $2, $3
5214	4E58  AFB20000             sw $18, 0($29)
5215	4E5C  0C002D43             jal increment
5216	4E60  3C02FFFF             lui $2, 65535
5217	4E64  3442FFFF             ori $2, $2, 65535
5218	4E68  3C030000             lui $3, 0
5219	4E6C  34630001             ori $3, $3, 1
5220	4E70  00439022             sub $18, $2, $3
5221	4E74  AFB20000             sw $18, 0($29)
5222	4E78  0C002D43             jal increment
5223	4E7C  3C02FFFF             lui $2, 65535
5224	4E80  3442FFFE             ori $2, $2, 65534
5225	4E84  3C03FFFF             lui $3, 65535
5226	4E88  3463FFFE             ori $3, $3, 65534
5227	4E8C  00439022             sub $18, $2, $3
5228	4E90  AFB20000             sw $18, 0($29)
5229	4E94  0C002D43             jal increment
5230	4E98  3C02FFFF             lui $2, 65535
5231	4E9C  3442FFFE             ori $2, $2, 65534
5232	4EA0  3C03FFFF             lui $3, 65535
5233	4EA4  3463FFFF             ori $3, $3, 65535
5234	4EA8  00439022             sub $18, $2, $3
5235	4EAC  AFB20000             sw $18, 0($29)
5236	4EB0  0C002D43             jal increment
5237	4EB4  3C026666             lui $2, 26214
5238	4EB8  34426666             ori $2, $2, 26214
5239	4EBC  3C035555             lui $3, 21845
5240	4EC0  34635555             ori $3, $3, 21845
5241	4EC4  00439022             sub $18, $2, $3
5242	4EC8  AFB20000             sw $18, 0($29)
5243	4ECC  0C002D43             jal increment
5244	                          
5245	4ED0  0C002D34            jal reset_offsets
5246	                          operation_addu_psuedo:
5247	4ED4  3C020000             lui $2, 0
5248	4ED8  34420000             ori $2, $2, 0
5249	4EDC  3C030000             lui $3, 0
5250	4EE0  34630000             ori $3, $3, 0
5251	4EE4  00439021             addu $18, $2, $3
5252	4EE8  AFB20000             sw $18, 0($29)
5253	4EEC  0C002D43             jal increment
5254	4EF0  3C020000             lui $2, 0
5255	4EF4  34420000             ori $2, $2, 0
5256	4EF8  3C03FFFF             lui $3, 65535
5257	4EFC  3463FFFF             ori $3, $3, 65535
5258	4F00  00439021             addu $18, $2, $3
5259	4F04  AFB20000             sw $18, 0($29)
5260	4F08  0C002D43             jal increment
5261	4F0C  3C02FFFF             lui $2, 65535
5262	4F10  3442FFFF             ori $2, $2, 65535
5263	4F14  3C030000             lui $3, 0
5264	4F18  34630000             ori $3, $3, 0
5265	4F1C  00439021             addu $18, $2, $3
5266	4F20  AFB20000             sw $18, 0($29)
5267	4F24  0C002D43             jal increment
5268	4F28  3C025555             lui $2, 21845
5269	4F2C  34425555             ori $2, $2, 21845
5270	4F30  3C035555             lui $3, 21845
5271	4F34  34635555             ori $3, $3, 21845
5272	4F38  00439021             addu $18, $2, $3
5273	4F3C  AFB20000             sw $18, 0($29)
5274	4F40  0C002D43             jal increment
5275	4F44  3C02AAAA             lui $2, 43690
5276	4F48  3442AAAA             ori $2, $2, 43690
5277	4F4C  3C03AAAA             lui $3, 43690
5278	4F50  3463AAAA             ori $3, $3, 43690
5279	4F54  00439021             addu $18, $2, $3
5280	4F58  AFB20000             sw $18, 0($29)
5281	4F5C  0C002D43             jal increment
5282	4F60  3C020000             lui $2, 0
5283	4F64  34420001             ori $2, $2, 1
5284	4F68  3C03FFFF             lui $3, 65535
5285	4F6C  3463FFFF             ori $3, $3, 65535
5286	4F70  00439021             addu $18, $2, $3
5287	4F74  AFB20000             sw $18, 0($29)
5288	4F78  0C002D43             jal increment
5289	4F7C  3C02FFFF             lui $2, 65535
5290	4F80  3442FFFF             ori $2, $2, 65535
5291	4F84  3C030000             lui $3, 0
5292	4F88  34630001             ori $3, $3, 1
5293	4F8C  00439021             addu $18, $2, $3
5294	4F90  AFB20000             sw $18, 0($29)
5295	4F94  0C002D43             jal increment
5296	4F98  3C02FFFF             lui $2, 65535
5297	4F9C  3442FFFF             ori $2, $2, 65535
5298	4FA0  3C03FFFF             lui $3, 65535
5299	4FA4  3463FFFF             ori $3, $3, 65535
5300	4FA8  00439021             addu $18, $2, $3
5301	4FAC  AFB20000             sw $18, 0($29)
5302	4FB0  0C002D43             jal increment
5303	4FB4  3C026666             lui $2, 26214
5304	4FB8  34426666             ori $2, $2, 26214
5305	4FBC  3C035555             lui $3, 21845
5306	4FC0  34635555             ori $3, $3, 21845
5307	4FC4  00439021             addu $18, $2, $3
5308	4FC8  AFB20000             sw $18, 0($29)
5309	4FCC  0C002D43             jal increment
5310	                          
5311	4FD0  0C002D34            jal reset_offsets
5312	                          operation_subu_psuedo:
5313	4FD4  3C020000             lui $2, 0
5314	4FD8  34420000             ori $2, $2, 0
5315	4FDC  3C030000             lui $3, 0
5316	4FE0  34630000             ori $3, $3, 0
5317	4FE4  00439023             subu $18, $2, $3
5318	4FE8  AFB20000             sw $18, 0($29)
5319	4FEC  0C002D43             jal increment
5320	4FF0  3C020000             lui $2, 0
5321	4FF4  34420000             ori $2, $2, 0
5322	4FF8  3C030000             lui $3, 0
5323	4FFC  34630001             ori $3, $3, 1
5324	5000  00439023             subu $18, $2, $3
5325	5004  AFB20000             sw $18, 0($29)
5326	5008  0C002D43             jal increment
5327	500C  3C020000             lui $2, 0
5328	5010  34420000             ori $2, $2, 0
5329	5014  3C03FFFF             lui $3, 65535
5330	5018  3463FFFF             ori $3, $3, 65535
5331	501C  00439023             subu $18, $2, $3
5332	5020  AFB20000             sw $18, 0($29)
5333	5024  0C002D43             jal increment
5334	5028  3C025555             lui $2, 21845
5335	502C  34425555             ori $2, $2, 21845
5336	5030  3C03AAAA             lui $3, 43690
5337	5034  3463AAAA             ori $3, $3, 43690
5338	5038  00439023             subu $18, $2, $3
5339	503C  AFB20000             sw $18, 0($29)
5340	5040  0C002D43             jal increment
5341	5044  3C02AAAA             lui $2, 43690
5342	5048  3442AAAA             ori $2, $2, 43690
5343	504C  3C035555             lui $3, 21845
5344	5050  34635555             ori $3, $3, 21845
5345	5054  00439023             subu $18, $2, $3
5346	5058  AFB20000             sw $18, 0($29)
5347	505C  0C002D43             jal increment
5348	5060  3C02FFFF             lui $2, 65535
5349	5064  3442FFFF             ori $2, $2, 65535
5350	5068  3C030000             lui $3, 0
5351	506C  34630001             ori $3, $3, 1
5352	5070  00439023             subu $18, $2, $3
5353	5074  AFB20000             sw $18, 0($29)
5354	5078  0C002D43             jal increment
5355	507C  3C02FFFF             lui $2, 65535
5356	5080  3442FFFE             ori $2, $2, 65534
5357	5084  3C03FFFF             lui $3, 65535
5358	5088  3463FFFE             ori $3, $3, 65534
5359	508C  00439023             subu $18, $2, $3
5360	5090  AFB20000             sw $18, 0($29)
5361	5094  0C002D43             jal increment
5362	5098  3C02FFFF             lui $2, 65535
5363	509C  3442FFFE             ori $2, $2, 65534
5364	50A0  3C03FFFF             lui $3, 65535
5365	50A4  3463FFFF             ori $3, $3, 65535
5366	50A8  00439023             subu $18, $2, $3
5367	50AC  AFB20000             sw $18, 0($29)
5368	50B0  0C002D43             jal increment
5369	50B4  3C026666             lui $2, 26214
5370	50B8  34426666             ori $2, $2, 26214
5371	50BC  3C035555             lui $3, 21845
5372	50C0  34635555             ori $3, $3, 21845
5373	50C4  00439023             subu $18, $2, $3
5374	50C8  AFB20000             sw $18, 0($29)
5375	50CC  0C002D43             jal increment
5376	                          
5377	50D0  0C002D34            jal reset_offsets
5378	                          operation_and_psuedo:
5379	50D4  3C020000             lui $2, 0
5380	50D8  34420000             ori $2, $2, 0
5381	50DC  3C030000             lui $3, 0
5382	50E0  34630000             ori $3, $3, 0
5383	50E4  00439024             and $18, $2, $3
5384	50E8  AFB20000             sw $18, 0($29)
5385	50EC  0C002D43             jal increment
5386	50F0  3C020000             lui $2, 0
5387	50F4  34420000             ori $2, $2, 0
5388	50F8  3C03FFFF             lui $3, 65535
5389	50FC  3463FFFF             ori $3, $3, 65535
5390	5100  00439024             and $18, $2, $3
5391	5104  AFB20000             sw $18, 0($29)
5392	5108  0C002D43             jal increment
5393	510C  3C02FFFF             lui $2, 65535
5394	5110  3442FFFF             ori $2, $2, 65535
5395	5114  3C030000             lui $3, 0
5396	5118  34630000             ori $3, $3, 0
5397	511C  00439024             and $18, $2, $3
5398	5120  AFB20000             sw $18, 0($29)
5399	5124  0C002D43             jal increment
5400	5128  3C02FFFF             lui $2, 65535
5401	512C  3442FFFF             ori $2, $2, 65535
5402	5130  3C03FFFF             lui $3, 65535
5403	5134  3463FFFF             ori $3, $3, 65535
5404	5138  00439024             and $18, $2, $3
5405	513C  AFB20000             sw $18, 0($29)
5406	5140  0C002D43             jal increment
5407	                          
5408	5144  0C002D34            jal reset_offsets
5409	                          operation_or_psuedo:
5410	5148  3C020000             lui $2, 0
5411	514C  34420000             ori $2, $2, 0
5412	5150  3C030000             lui $3, 0
5413	5154  34630000             ori $3, $3, 0
5414	5158  00439025             or $18, $2, $3
5415	515C  AFB20000             sw $18, 0($29)
5416	5160  0C002D43             jal increment
5417	5164  3C020000             lui $2, 0
5418	5168  34420000             ori $2, $2, 0
5419	516C  3C03FFFF             lui $3, 65535
5420	5170  3463FFFF             ori $3, $3, 65535
5421	5174  00439025             or $18, $2, $3
5422	5178  AFB20000             sw $18, 0($29)
5423	517C  0C002D43             jal increment
5424	5180  3C02FFFF             lui $2, 65535
5425	5184  3442FFFF             ori $2, $2, 65535
5426	5188  3C030000             lui $3, 0
5427	518C  34630000             ori $3, $3, 0
5428	5190  00439025             or $18, $2, $3
5429	5194  AFB20000             sw $18, 0($29)
5430	5198  0C002D43             jal increment
5431	519C  3C02FFFF             lui $2, 65535
5432	51A0  3442FFFF             ori $2, $2, 65535
5433	51A4  3C03FFFF             lui $3, 65535
5434	51A8  3463FFFF             ori $3, $3, 65535
5435	51AC  00439025             or $18, $2, $3
5436	51B0  AFB20000             sw $18, 0($29)
5437	51B4  0C002D43             jal increment
5438	                          
5439	51B8  0C002D34            jal reset_offsets
5440	                          operation_xor_psuedo:
5441	51BC  3C020000             lui $2, 0
5442	51C0  34420000             ori $2, $2, 0
5443	51C4  3C030000             lui $3, 0
5444	51C8  34630000             ori $3, $3, 0
5445	51CC  00439026             xor $18, $2, $3
5446	51D0  AFB20000             sw $18, 0($29)
5447	51D4  0C002D43             jal increment
5448	51D8  3C020000             lui $2, 0
5449	51DC  34420000             ori $2, $2, 0
5450	51E0  3C03FFFF             lui $3, 65535
5451	51E4  3463FFFF             ori $3, $3, 65535
5452	51E8  00439026             xor $18, $2, $3
5453	51EC  AFB20000             sw $18, 0($29)
5454	51F0  0C002D43             jal increment
5455	51F4  3C02FFFF             lui $2, 65535
5456	51F8  3442FFFF             ori $2, $2, 65535
5457	51FC  3C030000             lui $3, 0
5458	5200  34630000             ori $3, $3, 0
5459	5204  00439026             xor $18, $2, $3
5460	5208  AFB20000             sw $18, 0($29)
5461	520C  0C002D43             jal increment
5462	5210  3C02FFFF             lui $2, 65535
5463	5214  3442FFFF             ori $2, $2, 65535
5464	5218  3C03FFFF             lui $3, 65535
5465	521C  3463FFFF             ori $3, $3, 65535
5466	5220  00439026             xor $18, $2, $3
5467	5224  AFB20000             sw $18, 0($29)
5468	5228  0C002D43             jal increment
5469	                          
5470	522C  0C002D34            jal reset_offsets
5471	                          operation_nor_psuedo:
5472	5230  3C020000             lui $2, 0
5473	5234  34420000             ori $2, $2, 0
5474	5238  3C030000             lui $3, 0
5475	523C  34630000             ori $3, $3, 0
5476	5240  00439027             nor $18, $2, $3
5477	5244  AFB20000             sw $18, 0($29)
5478	5248  0C002D43             jal increment
5479	524C  3C020000             lui $2, 0
5480	5250  34420000             ori $2, $2, 0
5481	5254  3C03FFFF             lui $3, 65535
5482	5258  3463FFFF             ori $3, $3, 65535
5483	525C  00439027             nor $18, $2, $3
5484	5260  AFB20000             sw $18, 0($29)
5485	5264  0C002D43             jal increment
5486	5268  3C02FFFF             lui $2, 65535
5487	526C  3442FFFF             ori $2, $2, 65535
5488	5270  3C030000             lui $3, 0
5489	5274  34630000             ori $3, $3, 0
5490	5278  00439027             nor $18, $2, $3
5491	527C  AFB20000             sw $18, 0($29)
5492	5280  0C002D43             jal increment
5493	5284  3C02FFFF             lui $2, 65535
5494	5288  3442FFFF             ori $2, $2, 65535
5495	528C  3C03FFFF             lui $3, 65535
5496	5290  3463FFFF             ori $3, $3, 65535
5497	5294  00439027             nor $18, $2, $3
5498	5298  AFB20000             sw $18, 0($29)
5499	529C  0C002D43             jal increment
5500	                          
5501	52A0  0C002D34            jal reset_offsets
5502	                          operation_sll_psuedo:
5503	52A4  3C020000             lui $2, 0
5504	52A8  34420001             ori $2, $2, 1
5505	52AC  00029140             sll $18, $2, 5
5506	52B0  AFB20000             sw $18, 0($29)
5507	52B4  0C002D43             jal increment
5508	52B8  3C020000             lui $2, 0
5509	52BC  34420001             ori $2, $2, 1
5510	52C0  00029140             sll $18, $2, 5
5511	52C4  AFB20000             sw $18, 0($29)
5512	52C8  0C002D43             jal increment
5513	                          
5514	52CC  0C002D34            jal reset_offsets
5515	                          operation_srl_psuedo:
5516	52D0  3C020000             lui $2, 0
5517	52D4  34420001             ori $2, $2, 1
5518	52D8  00029142             srl $18, $2, 5
5519	52DC  AFB20000             sw $18, 0($29)
5520	52E0  0C002D43             jal increment
5521	52E4  3C020000             lui $2, 0
5522	52E8  34420001             ori $2, $2, 1
5523	52EC  00029142             srl $18, $2, 5
5524	52F0  AFB20000             sw $18, 0($29)
5525	52F4  0C002D43             jal increment
5526	                          
5527	52F8  0C002D34            jal reset_offsets
5528	                          operation_sra_psuedo:
5529	52FC  3C020000             lui $2, 0
5530	5300  34420001             ori $2, $2, 1
5531	5304  00029143             sra $18, $2, 5
5532	5308  AFB20000             sw $18, 0($29)
5533	530C  0C002D43             jal increment
5534	5310  3C020000             lui $2, 0
5535	5314  34420001             ori $2, $2, 1
5536	5318  00029143             sra $18, $2, 5
5537	531C  AFB20000             sw $18, 0($29)
5538	5320  0C002D43             jal increment
5539	                          
5540	5324  0C002D34            jal reset_offsets
5541	                          operation_slt_psuedo:
5542	5328  3C025555             lui $2, 21845
5543	532C  34425555             ori $2, $2, 21845
5544	5330  3C030000             lui $3, 0
5545	5334  34630001             ori $3, $3, 1
5546	5338  0043902A             slt $18, $2, $3
5547	533C  AFB20000             sw $18, 0($29)
5548	5340  0C002D43             jal increment
5549	5344  3C02AAAA             lui $2, 43690
5550	5348  3442AAAA             ori $2, $2, 43690
5551	534C  3C030000             lui $3, 0
5552	5350  34630001             ori $3, $3, 1
5553	5354  0043902A             slt $18, $2, $3
5554	5358  AFB20000             sw $18, 0($29)
5555	535C  0C002D43             jal increment
5556	                          
5557	5360  0C002D34            jal reset_offsets
5558	                          operation_sltu_psuedo:
5559	5364  3C025555             lui $2, 21845
5560	5368  34425555             ori $2, $2, 21845
5561	536C  3C030000             lui $3, 0
5562	5370  34630001             ori $3, $3, 1
5563	5374  0043902B             sltu $18, $2, $3
5564	5378  AFB20000             sw $18, 0($29)
5565	537C  0C002D43             jal increment
5566	5380  3C02AAAA             lui $2, 43690
5567	5384  3442AAAA             ori $2, $2, 43690
5568	5388  3C030000             lui $3, 0
5569	538C  34630001             ori $3, $3, 1
5570	5390  0043902B             sltu $18, $2, $3
5571	5394  AFB20000             sw $18, 0($29)
5572	5398  0C002D43             jal increment
5573	                          
5574	539C  0C002D34            jal reset_offsets
5575	                          operation_mult_psuedo:
5576	53A0  3C020000             lui $2, 0
5577	53A4  34420000             ori $2, $2, 0
5578	53A8  3C030000             lui $3, 0
5579	53AC  34630003             ori $3, $3, 3
5580	53B0  00430018             mult $2, $3
5581	53B4  00009012             mflo $18
5582	53B8  AFB20000             sw $18, 0($29)
5583	53BC  00009010             mfhi $18
5584	53C0  AFB20000             sw $18, 0($29)
5585	53C4  0C002D43             jal increment
5586	53C8  3C02AAAA             lui $2, 43690
5587	53CC  3442AAAA             ori $2, $2, 43690
5588	53D0  3C030000             lui $3, 0
5589	53D4  34630003             ori $3, $3, 3
5590	53D8  00430018             mult $2, $3
5591	53DC  00009012             mflo $18
5592	53E0  AFB20000             sw $18, 0($29)
5593	53E4  00009010             mfhi $18
5594	53E8  AFB20000             sw $18, 0($29)
5595	53EC  0C002D43             jal increment
5596	53F0  3C02D34D             lui $2, 54093
5597	53F4  34425555             ori $2, $2, 21845
5598	53F8  3C030000             lui $3, 0
5599	53FC  34630003             ori $3, $3, 3
5600	5400  00430018             mult $2, $3
5601	5404  00009012             mflo $18
5602	5408  AFB20000             sw $18, 0($29)
5603	540C  00009010             mfhi $18
5604	5410  AFB20000             sw $18, 0($29)
5605	5414  0C002D43             jal increment
5606	5418  3C021999             lui $2, 6553
5607	541C  3442999A             ori $2, $2, 39322
5608	5420  3C030000             lui $3, 0
5609	5424  34630003             ori $3, $3, 3
5610	5428  00430018             mult $2, $3
5611	542C  00009012             mflo $18
5612	5430  AFB20000             sw $18, 0($29)
5613	5434  00009010             mfhi $18
5614	5438  AFB20000             sw $18, 0($29)
5615	543C  0C002D43             jal increment
5616	5440  3C023536             lui $2, 13622
5617	5444  34426666             ori $2, $2, 26214
5618	5448  3C030000             lui $3, 0
5619	544C  34630003             ori $3, $3, 3
5620	5450  00430018             mult $2, $3
5621	5454  00009012             mflo $18
5622	5458  AFB20000             sw $18, 0($29)
5623	545C  00009010             mfhi $18
5624	5460  AFB20000             sw $18, 0($29)
5625	5464  0C002D43             jal increment
5626	5468  3C024CD4             lui $2, 19668
5627	546C  3442CCCB             ori $2, $2, 52427
5628	5470  3C030000             lui $3, 0
5629	5474  34630003             ori $3, $3, 3
5630	5478  00430018             mult $2, $3
5631	547C  00009012             mflo $18
5632	5480  AFB20000             sw $18, 0($29)
5633	5484  00009010             mfhi $18
5634	5488  AFB20000             sw $18, 0($29)
5635	548C  0C002D43             jal increment
5636	5490  3C026773             lui $2, 26483
5637	5494  3442F337             ori $2, $2, 62263
5638	5498  3C030000             lui $3, 0
5639	549C  34630003             ori $3, $3, 3
5640	54A0  00430018             mult $2, $3
5641	54A4  00009012             mflo $18
5642	54A8  AFB20000             sw $18, 0($29)
5643	54AC  00009010             mfhi $18
5644	54B0  AFB20000             sw $18, 0($29)
5645	54B4  0C002D43             jal increment
5646	54B8  3C02FDDD             lui $2, 64989
5647	54BC  34425EDF             ori $2, $2, 24287
5648	54C0  3C030000             lui $3, 0
5649	54C4  34630003             ori $3, $3, 3
5650	54C8  00430018             mult $2, $3
5651	54CC  00009012             mflo $18
5652	54D0  AFB20000             sw $18, 0($29)
5653	54D4  00009010             mfhi $18
5654	54D8  AFB20000             sw $18, 0($29)
5655	54DC  0C002D43             jal increment
5656	54E0  3C025666             lui $2, 22118
5657	54E4  3442BB6C             ori $2, $2, 47980
5658	54E8  3C030000             lui $3, 0
5659	54EC  34630003             ori $3, $3, 3
5660	54F0  00430018             mult $2, $3
5661	54F4  00009012             mflo $18
5662	54F8  AFB20000             sw $18, 0($29)
5663	54FC  00009010             mfhi $18
5664	5500  AFB20000             sw $18, 0($29)
5665	5504  0C002D43             jal increment
5666	5508  3C02AAAB             lui $2, 43691
5667	550C  344215B3             ori $2, $2, 5555
5668	5510  3C030000             lui $3, 0
5669	5514  34630003             ori $3, $3, 3
5670	5518  00430018             mult $2, $3
5671	551C  00009012             mflo $18
5672	5520  AFB20000             sw $18, 0($29)
5673	5524  00009010             mfhi $18
5674	5528  AFB20000             sw $18, 0($29)
5675	552C  0C002D43             jal increment
5676	5530  3C020000             lui $2, 0
5677	5534  34420000             ori $2, $2, 0
5678	5538  3C030000             lui $3, 0
5679	553C  34630006             ori $3, $3, 6
5680	5540  00430018             mult $2, $3
5681	5544  00009012             mflo $18
5682	5548  AFB20000             sw $18, 0($29)
5683	554C  00009010             mfhi $18
5684	5550  AFB20000             sw $18, 0($29)
5685	5554  0C002D43             jal increment
5686	5558  3C02AAAA             lui $2, 43690
5687	555C  3442AAAA             ori $2, $2, 43690
5688	5560  3C030000             lui $3, 0
5689	5564  34630006             ori $3, $3, 6
5690	5568  00430018             mult $2, $3
5691	556C  00009012             mflo $18
5692	5570  AFB20000             sw $18, 0($29)
5693	5574  00009010             mfhi $18
5694	5578  AFB20000             sw $18, 0($29)
5695	557C  0C002D43             jal increment
5696	5580  3C02D34D             lui $2, 54093
5697	5584  34425555             ori $2, $2, 21845
5698	5588  3C030000             lui $3, 0
5699	558C  34630006             ori $3, $3, 6
5700	5590  00430018             mult $2, $3
5701	5594  00009012             mflo $18
5702	5598  AFB20000             sw $18, 0($29)
5703	559C  00009010             mfhi $18
5704	55A0  AFB20000             sw $18, 0($29)
5705	55A4  0C002D43             jal increment
5706	55A8  3C021999             lui $2, 6553
5707	55AC  3442999A             ori $2, $2, 39322
5708	55B0  3C030000             lui $3, 0
5709	55B4  34630006             ori $3, $3, 6
5710	55B8  00430018             mult $2, $3
5711	55BC  00009012             mflo $18
5712	55C0  AFB20000             sw $18, 0($29)
5713	55C4  00009010             mfhi $18
5714	55C8  AFB20000             sw $18, 0($29)
5715	55CC  0C002D43             jal increment
5716	55D0  3C023536             lui $2, 13622
5717	55D4  34426666             ori $2, $2, 26214
5718	55D8  3C030000             lui $3, 0
5719	55DC  34630006             ori $3, $3, 6
5720	55E0  00430018             mult $2, $3
5721	55E4  00009012             mflo $18
5722	55E8  AFB20000             sw $18, 0($29)
5723	55EC  00009010             mfhi $18
5724	55F0  AFB20000             sw $18, 0($29)
5725	55F4  0C002D43             jal increment
5726	55F8  3C024CD4             lui $2, 19668
5727	55FC  3442CCCB             ori $2, $2, 52427
5728	5600  3C030000             lui $3, 0
5729	5604  34630006             ori $3, $3, 6
5730	5608  00430018             mult $2, $3
5731	560C  00009012             mflo $18
5732	5610  AFB20000             sw $18, 0($29)
5733	5614  00009010             mfhi $18
5734	5618  AFB20000             sw $18, 0($29)
5735	561C  0C002D43             jal increment
5736	5620  3C026773             lui $2, 26483
5737	5624  3442F337             ori $2, $2, 62263
5738	5628  3C030000             lui $3, 0
5739	562C  34630006             ori $3, $3, 6
5740	5630  00430018             mult $2, $3
5741	5634  00009012             mflo $18
5742	5638  AFB20000             sw $18, 0($29)
5743	563C  00009010             mfhi $18
5744	5640  AFB20000             sw $18, 0($29)
5745	5644  0C002D43             jal increment
5746	5648  3C02FDDD             lui $2, 64989
5747	564C  34425EDF             ori $2, $2, 24287
5748	5650  3C030000             lui $3, 0
5749	5654  34630006             ori $3, $3, 6
5750	5658  00430018             mult $2, $3
5751	565C  00009012             mflo $18
5752	5660  AFB20000             sw $18, 0($29)
5753	5664  00009010             mfhi $18
5754	5668  AFB20000             sw $18, 0($29)
5755	566C  0C002D43             jal increment
5756	5670  3C025666             lui $2, 22118
5757	5674  3442BB6C             ori $2, $2, 47980
5758	5678  3C030000             lui $3, 0
5759	567C  34630006             ori $3, $3, 6
5760	5680  00430018             mult $2, $3
5761	5684  00009012             mflo $18
5762	5688  AFB20000             sw $18, 0($29)
5763	568C  00009010             mfhi $18
5764	5690  AFB20000             sw $18, 0($29)
5765	5694  0C002D43             jal increment
5766	5698  3C02AAAB             lui $2, 43691
5767	569C  344215B3             ori $2, $2, 5555
5768	56A0  3C030000             lui $3, 0
5769	56A4  34630006             ori $3, $3, 6
5770	56A8  00430018             mult $2, $3
5771	56AC  00009012             mflo $18
5772	56B0  AFB20000             sw $18, 0($29)
5773	56B4  00009010             mfhi $18
5774	56B8  AFB20000             sw $18, 0($29)
5775	56BC  0C002D43             jal increment
5776	56C0  3C020000             lui $2, 0
5777	56C4  34420000             ori $2, $2, 0
5778	56C8  3C030000             lui $3, 0
5779	56CC  3463000C             ori $3, $3, 12
5780	56D0  00430018             mult $2, $3
5781	56D4  00009012             mflo $18
5782	56D8  AFB20000             sw $18, 0($29)
5783	56DC  00009010             mfhi $18
5784	56E0  AFB20000             sw $18, 0($29)
5785	56E4  0C002D43             jal increment
5786	56E8  3C02AAAA             lui $2, 43690
5787	56EC  3442AAAA             ori $2, $2, 43690
5788	56F0  3C030000             lui $3, 0
5789	56F4  3463000C             ori $3, $3, 12
5790	56F8  00430018             mult $2, $3
5791	56FC  00009012             mflo $18
5792	5700  AFB20000             sw $18, 0($29)
5793	5704  00009010             mfhi $18
5794	5708  AFB20000             sw $18, 0($29)
5795	570C  0C002D43             jal increment
5796	5710  3C02D34D             lui $2, 54093
5797	5714  34425555             ori $2, $2, 21845
5798	5718  3C030000             lui $3, 0
5799	571C  3463000C             ori $3, $3, 12
5800	5720  00430018             mult $2, $3
5801	5724  00009012             mflo $18
5802	5728  AFB20000             sw $18, 0($29)
5803	572C  00009010             mfhi $18
5804	5730  AFB20000             sw $18, 0($29)
5805	5734  0C002D43             jal increment
5806	5738  3C021999             lui $2, 6553
5807	573C  3442999A             ori $2, $2, 39322
5808	5740  3C030000             lui $3, 0
5809	5744  3463000C             ori $3, $3, 12
5810	5748  00430018             mult $2, $3
5811	574C  00009012             mflo $18
5812	5750  AFB20000             sw $18, 0($29)
5813	5754  00009010             mfhi $18
5814	5758  AFB20000             sw $18, 0($29)
5815	575C  0C002D43             jal increment
5816	5760  3C023536             lui $2, 13622
5817	5764  34426666             ori $2, $2, 26214
5818	5768  3C030000             lui $3, 0
5819	576C  3463000C             ori $3, $3, 12
5820	5770  00430018             mult $2, $3
5821	5774  00009012             mflo $18
5822	5778  AFB20000             sw $18, 0($29)
5823	577C  00009010             mfhi $18
5824	5780  AFB20000             sw $18, 0($29)
5825	5784  0C002D43             jal increment
5826	5788  3C024CD4             lui $2, 19668
5827	578C  3442CCCB             ori $2, $2, 52427
5828	5790  3C030000             lui $3, 0
5829	5794  3463000C             ori $3, $3, 12
5830	5798  00430018             mult $2, $3
5831	579C  00009012             mflo $18
5832	57A0  AFB20000             sw $18, 0($29)
5833	57A4  00009010             mfhi $18
5834	57A8  AFB20000             sw $18, 0($29)
5835	57AC  0C002D43             jal increment
5836	57B0  3C026773             lui $2, 26483
5837	57B4  3442F337             ori $2, $2, 62263
5838	57B8  3C030000             lui $3, 0
5839	57BC  3463000C             ori $3, $3, 12
5840	57C0  00430018             mult $2, $3
5841	57C4  00009012             mflo $18
5842	57C8  AFB20000             sw $18, 0($29)
5843	57CC  00009010             mfhi $18
5844	57D0  AFB20000             sw $18, 0($29)
5845	57D4  0C002D43             jal increment
5846	57D8  3C02FDDD             lui $2, 64989
5847	57DC  34425EDF             ori $2, $2, 24287
5848	57E0  3C030000             lui $3, 0
5849	57E4  3463000C             ori $3, $3, 12
5850	57E8  00430018             mult $2, $3
5851	57EC  00009012             mflo $18
5852	57F0  AFB20000             sw $18, 0($29)
5853	57F4  00009010             mfhi $18
5854	57F8  AFB20000             sw $18, 0($29)
5855	57FC  0C002D43             jal increment
5856	5800  3C025666             lui $2, 22118
5857	5804  3442BB6C             ori $2, $2, 47980
5858	5808  3C030000             lui $3, 0
5859	580C  3463000C             ori $3, $3, 12
5860	5810  00430018             mult $2, $3
5861	5814  00009012             mflo $18
5862	5818  AFB20000             sw $18, 0($29)
5863	581C  00009010             mfhi $18
5864	5820  AFB20000             sw $18, 0($29)
5865	5824  0C002D43             jal increment
5866	5828  3C02AAAB             lui $2, 43691
5867	582C  344215B3             ori $2, $2, 5555
5868	5830  3C030000             lui $3, 0
5869	5834  3463000C             ori $3, $3, 12
5870	5838  00430018             mult $2, $3
5871	583C  00009012             mflo $18
5872	5840  AFB20000             sw $18, 0($29)
5873	5844  00009010             mfhi $18
5874	5848  AFB20000             sw $18, 0($29)
5875	584C  0C002D43             jal increment
5876	5850  3C020000             lui $2, 0
5877	5854  34420000             ori $2, $2, 0
5878	5858  3C030000             lui $3, 0
5879	585C  34630018             ori $3, $3, 24
5880	5860  00430018             mult $2, $3
5881	5864  00009012             mflo $18
5882	5868  AFB20000             sw $18, 0($29)
5883	586C  00009010             mfhi $18
5884	5870  AFB20000             sw $18, 0($29)
5885	5874  0C002D43             jal increment
5886	5878  3C02AAAA             lui $2, 43690
5887	587C  3442AAAA             ori $2, $2, 43690
5888	5880  3C030000             lui $3, 0
5889	5884  34630018             ori $3, $3, 24
5890	5888  00430018             mult $2, $3
5891	588C  00009012             mflo $18
5892	5890  AFB20000             sw $18, 0($29)
5893	5894  00009010             mfhi $18
5894	5898  AFB20000             sw $18, 0($29)
5895	589C  0C002D43             jal increment
5896	58A0  3C02D34D             lui $2, 54093
5897	58A4  34425555             ori $2, $2, 21845
5898	58A8  3C030000             lui $3, 0
5899	58AC  34630018             ori $3, $3, 24
5900	58B0  00430018             mult $2, $3
5901	58B4  00009012             mflo $18
5902	58B8  AFB20000             sw $18, 0($29)
5903	58BC  00009010             mfhi $18
5904	58C0  AFB20000             sw $18, 0($29)
5905	58C4  0C002D43             jal increment
5906	58C8  3C021999             lui $2, 6553
5907	58CC  3442999A             ori $2, $2, 39322
5908	58D0  3C030000             lui $3, 0
5909	58D4  34630018             ori $3, $3, 24
5910	58D8  00430018             mult $2, $3
5911	58DC  00009012             mflo $18
5912	58E0  AFB20000             sw $18, 0($29)
5913	58E4  00009010             mfhi $18
5914	58E8  AFB20000             sw $18, 0($29)
5915	58EC  0C002D43             jal increment
5916	58F0  3C023536             lui $2, 13622
5917	58F4  34426666             ori $2, $2, 26214
5918	58F8  3C030000             lui $3, 0
5919	58FC  34630018             ori $3, $3, 24
5920	5900  00430018             mult $2, $3
5921	5904  00009012             mflo $18
5922	5908  AFB20000             sw $18, 0($29)
5923	590C  00009010             mfhi $18
5924	5910  AFB20000             sw $18, 0($29)
5925	5914  0C002D43             jal increment
5926	5918  3C024CD4             lui $2, 19668
5927	591C  3442CCCB             ori $2, $2, 52427
5928	5920  3C030000             lui $3, 0
5929	5924  34630018             ori $3, $3, 24
5930	5928  00430018             mult $2, $3
5931	592C  00009012             mflo $18
5932	5930  AFB20000             sw $18, 0($29)
5933	5934  00009010             mfhi $18
5934	5938  AFB20000             sw $18, 0($29)
5935	593C  0C002D43             jal increment
5936	5940  3C026773             lui $2, 26483
5937	5944  3442F337             ori $2, $2, 62263
5938	5948  3C030000             lui $3, 0
5939	594C  34630018             ori $3, $3, 24
5940	5950  00430018             mult $2, $3
5941	5954  00009012             mflo $18
5942	5958  AFB20000             sw $18, 0($29)
5943	595C  00009010             mfhi $18
5944	5960  AFB20000             sw $18, 0($29)
5945	5964  0C002D43             jal increment
5946	5968  3C02FDDD             lui $2, 64989
5947	596C  34425EDF             ori $2, $2, 24287
5948	5970  3C030000             lui $3, 0
5949	5974  34630018             ori $3, $3, 24
5950	5978  00430018             mult $2, $3
5951	597C  00009012             mflo $18
5952	5980  AFB20000             sw $18, 0($29)
5953	5984  00009010             mfhi $18
5954	5988  AFB20000             sw $18, 0($29)
5955	598C  0C002D43             jal increment
5956	5990  3C025666             lui $2, 22118
5957	5994  3442BB6C             ori $2, $2, 47980
5958	5998  3C030000             lui $3, 0
5959	599C  34630018             ori $3, $3, 24
5960	59A0  00430018             mult $2, $3
5961	59A4  00009012             mflo $18
5962	59A8  AFB20000             sw $18, 0($29)
5963	59AC  00009010             mfhi $18
5964	59B0  AFB20000             sw $18, 0($29)
5965	59B4  0C002D43             jal increment
5966	59B8  3C02AAAB             lui $2, 43691
5967	59BC  344215B3             ori $2, $2, 5555
5968	59C0  3C030000             lui $3, 0
5969	59C4  34630018             ori $3, $3, 24
5970	59C8  00430018             mult $2, $3
5971	59CC  00009012             mflo $18
5972	59D0  AFB20000             sw $18, 0($29)
5973	59D4  00009010             mfhi $18
5974	59D8  AFB20000             sw $18, 0($29)
5975	59DC  0C002D43             jal increment
5976	59E0  3C020000             lui $2, 0
5977	59E4  34420000             ori $2, $2, 0
5978	59E8  3C030000             lui $3, 0
5979	59EC  34630030             ori $3, $3, 48
5980	59F0  00430018             mult $2, $3
5981	59F4  00009012             mflo $18
5982	59F8  AFB20000             sw $18, 0($29)
5983	59FC  00009010             mfhi $18
5984	5A00  AFB20000             sw $18, 0($29)
5985	5A04  0C002D43             jal increment
5986	5A08  3C02AAAA             lui $2, 43690
5987	5A0C  3442AAAA             ori $2, $2, 43690
5988	5A10  3C030000             lui $3, 0
5989	5A14  34630030             ori $3, $3, 48
5990	5A18  00430018             mult $2, $3
5991	5A1C  00009012             mflo $18
5992	5A20  AFB20000             sw $18, 0($29)
5993	5A24  00009010             mfhi $18
5994	5A28  AFB20000             sw $18, 0($29)
5995	5A2C  0C002D43             jal increment
5996	5A30  3C02D34D             lui $2, 54093
5997	5A34  34425555             ori $2, $2, 21845
5998	5A38  3C030000             lui $3, 0
5999	5A3C  34630030             ori $3, $3, 48
6000	5A40  00430018             mult $2, $3
6001	5A44  00009012             mflo $18
6002	5A48  AFB20000             sw $18, 0($29)
6003	5A4C  00009010             mfhi $18
6004	5A50  AFB20000             sw $18, 0($29)
6005	5A54  0C002D43             jal increment
6006	5A58  3C021999             lui $2, 6553
6007	5A5C  3442999A             ori $2, $2, 39322
6008	5A60  3C030000             lui $3, 0
6009	5A64  34630030             ori $3, $3, 48
6010	5A68  00430018             mult $2, $3
6011	5A6C  00009012             mflo $18
6012	5A70  AFB20000             sw $18, 0($29)
6013	5A74  00009010             mfhi $18
6014	5A78  AFB20000             sw $18, 0($29)
6015	5A7C  0C002D43             jal increment
6016	5A80  3C023536             lui $2, 13622
6017	5A84  34426666             ori $2, $2, 26214
6018	5A88  3C030000             lui $3, 0
6019	5A8C  34630030             ori $3, $3, 48
6020	5A90  00430018             mult $2, $3
6021	5A94  00009012             mflo $18
6022	5A98  AFB20000             sw $18, 0($29)
6023	5A9C  00009010             mfhi $18
6024	5AA0  AFB20000             sw $18, 0($29)
6025	5AA4  0C002D43             jal increment
6026	5AA8  3C024CD4             lui $2, 19668
6027	5AAC  3442CCCB             ori $2, $2, 52427
6028	5AB0  3C030000             lui $3, 0
6029	5AB4  34630030             ori $3, $3, 48
6030	5AB8  00430018             mult $2, $3
6031	5ABC  00009012             mflo $18
6032	5AC0  AFB20000             sw $18, 0($29)
6033	5AC4  00009010             mfhi $18
6034	5AC8  AFB20000             sw $18, 0($29)
6035	5ACC  0C002D43             jal increment
6036	5AD0  3C026773             lui $2, 26483
6037	5AD4  3442F337             ori $2, $2, 62263
6038	5AD8  3C030000             lui $3, 0
6039	5ADC  34630030             ori $3, $3, 48
6040	5AE0  00430018             mult $2, $3
6041	5AE4  00009012             mflo $18
6042	5AE8  AFB20000             sw $18, 0($29)
6043	5AEC  00009010             mfhi $18
6044	5AF0  AFB20000             sw $18, 0($29)
6045	5AF4  0C002D43             jal increment
6046	5AF8  3C02FDDD             lui $2, 64989
6047	5AFC  34425EDF             ori $2, $2, 24287
6048	5B00  3C030000             lui $3, 0
6049	5B04  34630030             ori $3, $3, 48
6050	5B08  00430018             mult $2, $3
6051	5B0C  00009012             mflo $18
6052	5B10  AFB20000             sw $18, 0($29)
6053	5B14  00009010             mfhi $18
6054	5B18  AFB20000             sw $18, 0($29)
6055	5B1C  0C002D43             jal increment
6056	5B20  3C025666             lui $2, 22118
6057	5B24  3442BB6C             ori $2, $2, 47980
6058	5B28  3C030000             lui $3, 0
6059	5B2C  34630030             ori $3, $3, 48
6060	5B30  00430018             mult $2, $3
6061	5B34  00009012             mflo $18
6062	5B38  AFB20000             sw $18, 0($29)
6063	5B3C  00009010             mfhi $18
6064	5B40  AFB20000             sw $18, 0($29)
6065	5B44  0C002D43             jal increment
6066	5B48  3C02AAAB             lui $2, 43691
6067	5B4C  344215B3             ori $2, $2, 5555
6068	5B50  3C030000             lui $3, 0
6069	5B54  34630030             ori $3, $3, 48
6070	5B58  00430018             mult $2, $3
6071	5B5C  00009012             mflo $18
6072	5B60  AFB20000             sw $18, 0($29)
6073	5B64  00009010             mfhi $18
6074	5B68  AFB20000             sw $18, 0($29)
6075	5B6C  0C002D43             jal increment
6076	5B70  3C020000             lui $2, 0
6077	5B74  34420000             ori $2, $2, 0
6078	5B78  3C030000             lui $3, 0
6079	5B7C  34630060             ori $3, $3, 96
6080	5B80  00430018             mult $2, $3
6081	5B84  00009012             mflo $18
6082	5B88  AFB20000             sw $18, 0($29)
6083	5B8C  00009010             mfhi $18
6084	5B90  AFB20000             sw $18, 0($29)
6085	5B94  0C002D43             jal increment
6086	5B98  3C02AAAA             lui $2, 43690
6087	5B9C  3442AAAA             ori $2, $2, 43690
6088	5BA0  3C030000             lui $3, 0
6089	5BA4  34630060             ori $3, $3, 96
6090	5BA8  00430018             mult $2, $3
6091	5BAC  00009012             mflo $18
6092	5BB0  AFB20000             sw $18, 0($29)
6093	5BB4  00009010             mfhi $18
6094	5BB8  AFB20000             sw $18, 0($29)
6095	5BBC  0C002D43             jal increment
6096	5BC0  3C02D34D             lui $2, 54093
6097	5BC4  34425555             ori $2, $2, 21845
6098	5BC8  3C030000             lui $3, 0
6099	5BCC  34630060             ori $3, $3, 96
6100	5BD0  00430018             mult $2, $3
6101	5BD4  00009012             mflo $18
6102	5BD8  AFB20000             sw $18, 0($29)
6103	5BDC  00009010             mfhi $18
6104	5BE0  AFB20000             sw $18, 0($29)
6105	5BE4  0C002D43             jal increment
6106	5BE8  3C021999             lui $2, 6553
6107	5BEC  3442999A             ori $2, $2, 39322
6108	5BF0  3C030000             lui $3, 0
6109	5BF4  34630060             ori $3, $3, 96
6110	5BF8  00430018             mult $2, $3
6111	5BFC  00009012             mflo $18
6112	5C00  AFB20000             sw $18, 0($29)
6113	5C04  00009010             mfhi $18
6114	5C08  AFB20000             sw $18, 0($29)
6115	5C0C  0C002D43             jal increment
6116	5C10  3C023536             lui $2, 13622
6117	5C14  34426666             ori $2, $2, 26214
6118	5C18  3C030000             lui $3, 0
6119	5C1C  34630060             ori $3, $3, 96
6120	5C20  00430018             mult $2, $3
6121	5C24  00009012             mflo $18
6122	5C28  AFB20000             sw $18, 0($29)
6123	5C2C  00009010             mfhi $18
6124	5C30  AFB20000             sw $18, 0($29)
6125	5C34  0C002D43             jal increment
6126	5C38  3C024CD4             lui $2, 19668
6127	5C3C  3442CCCB             ori $2, $2, 52427
6128	5C40  3C030000             lui $3, 0
6129	5C44  34630060             ori $3, $3, 96
6130	5C48  00430018             mult $2, $3
6131	5C4C  00009012             mflo $18
6132	5C50  AFB20000             sw $18, 0($29)
6133	5C54  00009010             mfhi $18
6134	5C58  AFB20000             sw $18, 0($29)
6135	5C5C  0C002D43             jal increment
6136	5C60  3C026773             lui $2, 26483
6137	5C64  3442F337             ori $2, $2, 62263
6138	5C68  3C030000             lui $3, 0
6139	5C6C  34630060             ori $3, $3, 96
6140	5C70  00430018             mult $2, $3
6141	5C74  00009012             mflo $18
6142	5C78  AFB20000             sw $18, 0($29)
6143	5C7C  00009010             mfhi $18
6144	5C80  AFB20000             sw $18, 0($29)
6145	5C84  0C002D43             jal increment
6146	5C88  3C02FDDD             lui $2, 64989
6147	5C8C  34425EDF             ori $2, $2, 24287
6148	5C90  3C030000             lui $3, 0
6149	5C94  34630060             ori $3, $3, 96
6150	5C98  00430018             mult $2, $3
6151	5C9C  00009012             mflo $18
6152	5CA0  AFB20000             sw $18, 0($29)
6153	5CA4  00009010             mfhi $18
6154	5CA8  AFB20000             sw $18, 0($29)
6155	5CAC  0C002D43             jal increment
6156	5CB0  3C025666             lui $2, 22118
6157	5CB4  3442BB6C             ori $2, $2, 47980
6158	5CB8  3C030000             lui $3, 0
6159	5CBC  34630060             ori $3, $3, 96
6160	5CC0  00430018             mult $2, $3
6161	5CC4  00009012             mflo $18
6162	5CC8  AFB20000             sw $18, 0($29)
6163	5CCC  00009010             mfhi $18
6164	5CD0  AFB20000             sw $18, 0($29)
6165	5CD4  0C002D43             jal increment
6166	5CD8  3C02AAAB             lui $2, 43691
6167	5CDC  344215B3             ori $2, $2, 5555
6168	5CE0  3C030000             lui $3, 0
6169	5CE4  34630060             ori $3, $3, 96
6170	5CE8  00430018             mult $2, $3
6171	5CEC  00009012             mflo $18
6172	5CF0  AFB20000             sw $18, 0($29)
6173	5CF4  00009010             mfhi $18
6174	5CF8  AFB20000             sw $18, 0($29)
6175	5CFC  0C002D43             jal increment
6176	5D00  3C020000             lui $2, 0
6177	5D04  34420000             ori $2, $2, 0
6178	5D08  3C030000             lui $3, 0
6179	5D0C  346300C0             ori $3, $3, 192
6180	5D10  00430018             mult $2, $3
6181	5D14  00009012             mflo $18
6182	5D18  AFB20000             sw $18, 0($29)
6183	5D1C  00009010             mfhi $18
6184	5D20  AFB20000             sw $18, 0($29)
6185	5D24  0C002D43             jal increment
6186	5D28  3C02AAAA             lui $2, 43690
6187	5D2C  3442AAAA             ori $2, $2, 43690
6188	5D30  3C030000             lui $3, 0
6189	5D34  346300C0             ori $3, $3, 192
6190	5D38  00430018             mult $2, $3
6191	5D3C  00009012             mflo $18
6192	5D40  AFB20000             sw $18, 0($29)
6193	5D44  00009010             mfhi $18
6194	5D48  AFB20000             sw $18, 0($29)
6195	5D4C  0C002D43             jal increment
6196	5D50  3C02D34D             lui $2, 54093
6197	5D54  34425555             ori $2, $2, 21845
6198	5D58  3C030000             lui $3, 0
6199	5D5C  346300C0             ori $3, $3, 192
6200	5D60  00430018             mult $2, $3
6201	5D64  00009012             mflo $18
6202	5D68  AFB20000             sw $18, 0($29)
6203	5D6C  00009010             mfhi $18
6204	5D70  AFB20000             sw $18, 0($29)
6205	5D74  0C002D43             jal increment
6206	5D78  3C021999             lui $2, 6553
6207	5D7C  3442999A             ori $2, $2, 39322
6208	5D80  3C030000             lui $3, 0
6209	5D84  346300C0             ori $3, $3, 192
6210	5D88  00430018             mult $2, $3
6211	5D8C  00009012             mflo $18
6212	5D90  AFB20000             sw $18, 0($29)
6213	5D94  00009010             mfhi $18
6214	5D98  AFB20000             sw $18, 0($29)
6215	5D9C  0C002D43             jal increment
6216	5DA0  3C023536             lui $2, 13622
6217	5DA4  34426666             ori $2, $2, 26214
6218	5DA8  3C030000             lui $3, 0
6219	5DAC  346300C0             ori $3, $3, 192
6220	5DB0  00430018             mult $2, $3
6221	5DB4  00009012             mflo $18
6222	5DB8  AFB20000             sw $18, 0($29)
6223	5DBC  00009010             mfhi $18
6224	5DC0  AFB20000             sw $18, 0($29)
6225	5DC4  0C002D43             jal increment
6226	5DC8  3C024CD4             lui $2, 19668
6227	5DCC  3442CCCB             ori $2, $2, 52427
6228	5DD0  3C030000             lui $3, 0
6229	5DD4  346300C0             ori $3, $3, 192
6230	5DD8  00430018             mult $2, $3
6231	5DDC  00009012             mflo $18
6232	5DE0  AFB20000             sw $18, 0($29)
6233	5DE4  00009010             mfhi $18
6234	5DE8  AFB20000             sw $18, 0($29)
6235	5DEC  0C002D43             jal increment
6236	5DF0  3C026773             lui $2, 26483
6237	5DF4  3442F337             ori $2, $2, 62263
6238	5DF8  3C030000             lui $3, 0
6239	5DFC  346300C0             ori $3, $3, 192
6240	5E00  00430018             mult $2, $3
6241	5E04  00009012             mflo $18
6242	5E08  AFB20000             sw $18, 0($29)
6243	5E0C  00009010             mfhi $18
6244	5E10  AFB20000             sw $18, 0($29)
6245	5E14  0C002D43             jal increment
6246	5E18  3C02FDDD             lui $2, 64989
6247	5E1C  34425EDF             ori $2, $2, 24287
6248	5E20  3C030000             lui $3, 0
6249	5E24  346300C0             ori $3, $3, 192
6250	5E28  00430018             mult $2, $3
6251	5E2C  00009012             mflo $18
6252	5E30  AFB20000             sw $18, 0($29)
6253	5E34  00009010             mfhi $18
6254	5E38  AFB20000             sw $18, 0($29)
6255	5E3C  0C002D43             jal increment
6256	5E40  3C025666             lui $2, 22118
6257	5E44  3442BB6C             ori $2, $2, 47980
6258	5E48  3C030000             lui $3, 0
6259	5E4C  346300C0             ori $3, $3, 192
6260	5E50  00430018             mult $2, $3
6261	5E54  00009012             mflo $18
6262	5E58  AFB20000             sw $18, 0($29)
6263	5E5C  00009010             mfhi $18
6264	5E60  AFB20000             sw $18, 0($29)
6265	5E64  0C002D43             jal increment
6266	5E68  3C02AAAB             lui $2, 43691
6267	5E6C  344215B3             ori $2, $2, 5555
6268	5E70  3C030000             lui $3, 0
6269	5E74  346300C0             ori $3, $3, 192
6270	5E78  00430018             mult $2, $3
6271	5E7C  00009012             mflo $18
6272	5E80  AFB20000             sw $18, 0($29)
6273	5E84  00009010             mfhi $18
6274	5E88  AFB20000             sw $18, 0($29)
6275	5E8C  0C002D43             jal increment
6276	5E90  3C020000             lui $2, 0
6277	5E94  34420000             ori $2, $2, 0
6278	5E98  3C030000             lui $3, 0
6279	5E9C  34630180             ori $3, $3, 384
6280	5EA0  00430018             mult $2, $3
6281	5EA4  00009012             mflo $18
6282	5EA8  AFB20000             sw $18, 0($29)
6283	5EAC  00009010             mfhi $18
6284	5EB0  AFB20000             sw $18, 0($29)
6285	5EB4  0C002D43             jal increment
6286	5EB8  3C02AAAA             lui $2, 43690
6287	5EBC  3442AAAA             ori $2, $2, 43690
6288	5EC0  3C030000             lui $3, 0
6289	5EC4  34630180             ori $3, $3, 384
6290	5EC8  00430018             mult $2, $3
6291	5ECC  00009012             mflo $18
6292	5ED0  AFB20000             sw $18, 0($29)
6293	5ED4  00009010             mfhi $18
6294	5ED8  AFB20000             sw $18, 0($29)
6295	5EDC  0C002D43             jal increment
6296	5EE0  3C02D34D             lui $2, 54093
6297	5EE4  34425555             ori $2, $2, 21845
6298	5EE8  3C030000             lui $3, 0
6299	5EEC  34630180             ori $3, $3, 384
6300	5EF0  00430018             mult $2, $3
6301	5EF4  00009012             mflo $18
6302	5EF8  AFB20000             sw $18, 0($29)
6303	5EFC  00009010             mfhi $18
6304	5F00  AFB20000             sw $18, 0($29)
6305	5F04  0C002D43             jal increment
6306	5F08  3C021999             lui $2, 6553
6307	5F0C  3442999A             ori $2, $2, 39322
6308	5F10  3C030000             lui $3, 0
6309	5F14  34630180             ori $3, $3, 384
6310	5F18  00430018             mult $2, $3
6311	5F1C  00009012             mflo $18
6312	5F20  AFB20000             sw $18, 0($29)
6313	5F24  00009010             mfhi $18
6314	5F28  AFB20000             sw $18, 0($29)
6315	5F2C  0C002D43             jal increment
6316	5F30  3C023536             lui $2, 13622
6317	5F34  34426666             ori $2, $2, 26214
6318	5F38  3C030000             lui $3, 0
6319	5F3C  34630180             ori $3, $3, 384
6320	5F40  00430018             mult $2, $3
6321	5F44  00009012             mflo $18
6322	5F48  AFB20000             sw $18, 0($29)
6323	5F4C  00009010             mfhi $18
6324	5F50  AFB20000             sw $18, 0($29)
6325	5F54  0C002D43             jal increment
6326	5F58  3C024CD4             lui $2, 19668
6327	5F5C  3442CCCB             ori $2, $2, 52427
6328	5F60  3C030000             lui $3, 0
6329	5F64  34630180             ori $3, $3, 384
6330	5F68  00430018             mult $2, $3
6331	5F6C  00009012             mflo $18
6332	5F70  AFB20000             sw $18, 0($29)
6333	5F74  00009010             mfhi $18
6334	5F78  AFB20000             sw $18, 0($29)
6335	5F7C  0C002D43             jal increment
6336	5F80  3C026773             lui $2, 26483
6337	5F84  3442F337             ori $2, $2, 62263
6338	5F88  3C030000             lui $3, 0
6339	5F8C  34630180             ori $3, $3, 384
6340	5F90  00430018             mult $2, $3
6341	5F94  00009012             mflo $18
6342	5F98  AFB20000             sw $18, 0($29)
6343	5F9C  00009010             mfhi $18
6344	5FA0  AFB20000             sw $18, 0($29)
6345	5FA4  0C002D43             jal increment
6346	5FA8  3C02FDDD             lui $2, 64989
6347	5FAC  34425EDF             ori $2, $2, 24287
6348	5FB0  3C030000             lui $3, 0
6349	5FB4  34630180             ori $3, $3, 384
6350	5FB8  00430018             mult $2, $3
6351	5FBC  00009012             mflo $18
6352	5FC0  AFB20000             sw $18, 0($29)
6353	5FC4  00009010             mfhi $18
6354	5FC8  AFB20000             sw $18, 0($29)
6355	5FCC  0C002D43             jal increment
6356	5FD0  3C025666             lui $2, 22118
6357	5FD4  3442BB6C             ori $2, $2, 47980
6358	5FD8  3C030000             lui $3, 0
6359	5FDC  34630180             ori $3, $3, 384
6360	5FE0  00430018             mult $2, $3
6361	5FE4  00009012             mflo $18
6362	5FE8  AFB20000             sw $18, 0($29)
6363	5FEC  00009010             mfhi $18
6364	5FF0  AFB20000             sw $18, 0($29)
6365	5FF4  0C002D43             jal increment
6366	5FF8  3C02AAAB             lui $2, 43691
6367	5FFC  344215B3             ori $2, $2, 5555
6368	6000  3C030000             lui $3, 0
6369	6004  34630180             ori $3, $3, 384
6370	6008  00430018             mult $2, $3
6371	600C  00009012             mflo $18
6372	6010  AFB20000             sw $18, 0($29)
6373	6014  00009010             mfhi $18
6374	6018  AFB20000             sw $18, 0($29)
6375	601C  0C002D43             jal increment
6376	6020  3C020000             lui $2, 0
6377	6024  34420000             ori $2, $2, 0
6378	6028  3C030000             lui $3, 0
6379	602C  34630300             ori $3, $3, 768
6380	6030  00430018             mult $2, $3
6381	6034  00009012             mflo $18
6382	6038  AFB20000             sw $18, 0($29)
6383	603C  00009010             mfhi $18
6384	6040  AFB20000             sw $18, 0($29)
6385	6044  0C002D43             jal increment
6386	6048  3C02AAAA             lui $2, 43690
6387	604C  3442AAAA             ori $2, $2, 43690
6388	6050  3C030000             lui $3, 0
6389	6054  34630300             ori $3, $3, 768
6390	6058  00430018             mult $2, $3
6391	605C  00009012             mflo $18
6392	6060  AFB20000             sw $18, 0($29)
6393	6064  00009010             mfhi $18
6394	6068  AFB20000             sw $18, 0($29)
6395	606C  0C002D43             jal increment
6396	6070  3C02D34D             lui $2, 54093
6397	6074  34425555             ori $2, $2, 21845
6398	6078  3C030000             lui $3, 0
6399	607C  34630300             ori $3, $3, 768
6400	6080  00430018             mult $2, $3
6401	6084  00009012             mflo $18
6402	6088  AFB20000             sw $18, 0($29)
6403	608C  00009010             mfhi $18
6404	6090  AFB20000             sw $18, 0($29)
6405	6094  0C002D43             jal increment
6406	6098  3C021999             lui $2, 6553
6407	609C  3442999A             ori $2, $2, 39322
6408	60A0  3C030000             lui $3, 0
6409	60A4  34630300             ori $3, $3, 768
6410	60A8  00430018             mult $2, $3
6411	60AC  00009012             mflo $18
6412	60B0  AFB20000             sw $18, 0($29)
6413	60B4  00009010             mfhi $18
6414	60B8  AFB20000             sw $18, 0($29)
6415	60BC  0C002D43             jal increment
6416	60C0  3C023536             lui $2, 13622
6417	60C4  34426666             ori $2, $2, 26214
6418	60C8  3C030000             lui $3, 0
6419	60CC  34630300             ori $3, $3, 768
6420	60D0  00430018             mult $2, $3
6421	60D4  00009012             mflo $18
6422	60D8  AFB20000             sw $18, 0($29)
6423	60DC  00009010             mfhi $18
6424	60E0  AFB20000             sw $18, 0($29)
6425	60E4  0C002D43             jal increment
6426	60E8  3C024CD4             lui $2, 19668
6427	60EC  3442CCCB             ori $2, $2, 52427
6428	60F0  3C030000             lui $3, 0
6429	60F4  34630300             ori $3, $3, 768
6430	60F8  00430018             mult $2, $3
6431	60FC  00009012             mflo $18
6432	6100  AFB20000             sw $18, 0($29)
6433	6104  00009010             mfhi $18
6434	6108  AFB20000             sw $18, 0($29)
6435	610C  0C002D43             jal increment
6436	6110  3C026773             lui $2, 26483
6437	6114  3442F337             ori $2, $2, 62263
6438	6118  3C030000             lui $3, 0
6439	611C  34630300             ori $3, $3, 768
6440	6120  00430018             mult $2, $3
6441	6124  00009012             mflo $18
6442	6128  AFB20000             sw $18, 0($29)
6443	612C  00009010             mfhi $18
6444	6130  AFB20000             sw $18, 0($29)
6445	6134  0C002D43             jal increment
6446	6138  3C02FDDD             lui $2, 64989
6447	613C  34425EDF             ori $2, $2, 24287
6448	6140  3C030000             lui $3, 0
6449	6144  34630300             ori $3, $3, 768
6450	6148  00430018             mult $2, $3
6451	614C  00009012             mflo $18
6452	6150  AFB20000             sw $18, 0($29)
6453	6154  00009010             mfhi $18
6454	6158  AFB20000             sw $18, 0($29)
6455	615C  0C002D43             jal increment
6456	6160  3C025666             lui $2, 22118
6457	6164  3442BB6C             ori $2, $2, 47980
6458	6168  3C030000             lui $3, 0
6459	616C  34630300             ori $3, $3, 768
6460	6170  00430018             mult $2, $3
6461	6174  00009012             mflo $18
6462	6178  AFB20000             sw $18, 0($29)
6463	617C  00009010             mfhi $18
6464	6180  AFB20000             sw $18, 0($29)
6465	6184  0C002D43             jal increment
6466	6188  3C02AAAB             lui $2, 43691
6467	618C  344215B3             ori $2, $2, 5555
6468	6190  3C030000             lui $3, 0
6469	6194  34630300             ori $3, $3, 768
6470	6198  00430018             mult $2, $3
6471	619C  00009012             mflo $18
6472	61A0  AFB20000             sw $18, 0($29)
6473	61A4  00009010             mfhi $18
6474	61A8  AFB20000             sw $18, 0($29)
6475	61AC  0C002D43             jal increment
6476	61B0  3C020000             lui $2, 0
6477	61B4  34420000             ori $2, $2, 0
6478	61B8  3C030000             lui $3, 0
6479	61BC  34630600             ori $3, $3, 1536
6480	61C0  00430018             mult $2, $3
6481	61C4  00009012             mflo $18
6482	61C8  AFB20000             sw $18, 0($29)
6483	61CC  00009010             mfhi $18
6484	61D0  AFB20000             sw $18, 0($29)
6485	61D4  0C002D43             jal increment
6486	61D8  3C02AAAA             lui $2, 43690
6487	61DC  3442AAAA             ori $2, $2, 43690
6488	61E0  3C030000             lui $3, 0
6489	61E4  34630600             ori $3, $3, 1536
6490	61E8  00430018             mult $2, $3
6491	61EC  00009012             mflo $18
6492	61F0  AFB20000             sw $18, 0($29)
6493	61F4  00009010             mfhi $18
6494	61F8  AFB20000             sw $18, 0($29)
6495	61FC  0C002D43             jal increment
6496	6200  3C02D34D             lui $2, 54093
6497	6204  34425555             ori $2, $2, 21845
6498	6208  3C030000             lui $3, 0
6499	620C  34630600             ori $3, $3, 1536
6500	6210  00430018             mult $2, $3
6501	6214  00009012             mflo $18
6502	6218  AFB20000             sw $18, 0($29)
6503	621C  00009010             mfhi $18
6504	6220  AFB20000             sw $18, 0($29)
6505	6224  0C002D43             jal increment
6506	6228  3C021999             lui $2, 6553
6507	622C  3442999A             ori $2, $2, 39322
6508	6230  3C030000             lui $3, 0
6509	6234  34630600             ori $3, $3, 1536
6510	6238  00430018             mult $2, $3
6511	623C  00009012             mflo $18
6512	6240  AFB20000             sw $18, 0($29)
6513	6244  00009010             mfhi $18
6514	6248  AFB20000             sw $18, 0($29)
6515	624C  0C002D43             jal increment
6516	6250  3C023536             lui $2, 13622
6517	6254  34426666             ori $2, $2, 26214
6518	6258  3C030000             lui $3, 0
6519	625C  34630600             ori $3, $3, 1536
6520	6260  00430018             mult $2, $3
6521	6264  00009012             mflo $18
6522	6268  AFB20000             sw $18, 0($29)
6523	626C  00009010             mfhi $18
6524	6270  AFB20000             sw $18, 0($29)
6525	6274  0C002D43             jal increment
6526	6278  3C024CD4             lui $2, 19668
6527	627C  3442CCCB             ori $2, $2, 52427
6528	6280  3C030000             lui $3, 0
6529	6284  34630600             ori $3, $3, 1536
6530	6288  00430018             mult $2, $3
6531	628C  00009012             mflo $18
6532	6290  AFB20000             sw $18, 0($29)
6533	6294  00009010             mfhi $18
6534	6298  AFB20000             sw $18, 0($29)
6535	629C  0C002D43             jal increment
6536	62A0  3C026773             lui $2, 26483
6537	62A4  3442F337             ori $2, $2, 62263
6538	62A8  3C030000             lui $3, 0
6539	62AC  34630600             ori $3, $3, 1536
6540	62B0  00430018             mult $2, $3
6541	62B4  00009012             mflo $18
6542	62B8  AFB20000             sw $18, 0($29)
6543	62BC  00009010             mfhi $18
6544	62C0  AFB20000             sw $18, 0($29)
6545	62C4  0C002D43             jal increment
6546	62C8  3C02FDDD             lui $2, 64989
6547	62CC  34425EDF             ori $2, $2, 24287
6548	62D0  3C030000             lui $3, 0
6549	62D4  34630600             ori $3, $3, 1536
6550	62D8  00430018             mult $2, $3
6551	62DC  00009012             mflo $18
6552	62E0  AFB20000             sw $18, 0($29)
6553	62E4  00009010             mfhi $18
6554	62E8  AFB20000             sw $18, 0($29)
6555	62EC  0C002D43             jal increment
6556	62F0  3C025666             lui $2, 22118
6557	62F4  3442BB6C             ori $2, $2, 47980
6558	62F8  3C030000             lui $3, 0
6559	62FC  34630600             ori $3, $3, 1536
6560	6300  00430018             mult $2, $3
6561	6304  00009012             mflo $18
6562	6308  AFB20000             sw $18, 0($29)
6563	630C  00009010             mfhi $18
6564	6310  AFB20000             sw $18, 0($29)
6565	6314  0C002D43             jal increment
6566	6318  3C02AAAB             lui $2, 43691
6567	631C  344215B3             ori $2, $2, 5555
6568	6320  3C030000             lui $3, 0
6569	6324  34630600             ori $3, $3, 1536
6570	6328  00430018             mult $2, $3
6571	632C  00009012             mflo $18
6572	6330  AFB20000             sw $18, 0($29)
6573	6334  00009010             mfhi $18
6574	6338  AFB20000             sw $18, 0($29)
6575	633C  0C002D43             jal increment
6576	6340  3C020000             lui $2, 0
6577	6344  34420000             ori $2, $2, 0
6578	6348  3C030000             lui $3, 0
6579	634C  34630C00             ori $3, $3, 3072
6580	6350  00430018             mult $2, $3
6581	6354  00009012             mflo $18
6582	6358  AFB20000             sw $18, 0($29)
6583	635C  00009010             mfhi $18
6584	6360  AFB20000             sw $18, 0($29)
6585	6364  0C002D43             jal increment
6586	6368  3C02AAAA             lui $2, 43690
6587	636C  3442AAAA             ori $2, $2, 43690
6588	6370  3C030000             lui $3, 0
6589	6374  34630C00             ori $3, $3, 3072
6590	6378  00430018             mult $2, $3
6591	637C  00009012             mflo $18
6592	6380  AFB20000             sw $18, 0($29)
6593	6384  00009010             mfhi $18
6594	6388  AFB20000             sw $18, 0($29)
6595	638C  0C002D43             jal increment
6596	6390  3C02D34D             lui $2, 54093
6597	6394  34425555             ori $2, $2, 21845
6598	6398  3C030000             lui $3, 0
6599	639C  34630C00             ori $3, $3, 3072
6600	63A0  00430018             mult $2, $3
6601	63A4  00009012             mflo $18
6602	63A8  AFB20000             sw $18, 0($29)
6603	63AC  00009010             mfhi $18
6604	63B0  AFB20000             sw $18, 0($29)
6605	63B4  0C002D43             jal increment
6606	63B8  3C021999             lui $2, 6553
6607	63BC  3442999A             ori $2, $2, 39322
6608	63C0  3C030000             lui $3, 0
6609	63C4  34630C00             ori $3, $3, 3072
6610	63C8  00430018             mult $2, $3
6611	63CC  00009012             mflo $18
6612	63D0  AFB20000             sw $18, 0($29)
6613	63D4  00009010             mfhi $18
6614	63D8  AFB20000             sw $18, 0($29)
6615	63DC  0C002D43             jal increment
6616	63E0  3C023536             lui $2, 13622
6617	63E4  34426666             ori $2, $2, 26214
6618	63E8  3C030000             lui $3, 0
6619	63EC  34630C00             ori $3, $3, 3072
6620	63F0  00430018             mult $2, $3
6621	63F4  00009012             mflo $18
6622	63F8  AFB20000             sw $18, 0($29)
6623	63FC  00009010             mfhi $18
6624	6400  AFB20000             sw $18, 0($29)
6625	6404  0C002D43             jal increment
6626	6408  3C024CD4             lui $2, 19668
6627	640C  3442CCCB             ori $2, $2, 52427
6628	6410  3C030000             lui $3, 0
6629	6414  34630C00             ori $3, $3, 3072
6630	6418  00430018             mult $2, $3
6631	641C  00009012             mflo $18
6632	6420  AFB20000             sw $18, 0($29)
6633	6424  00009010             mfhi $18
6634	6428  AFB20000             sw $18, 0($29)
6635	642C  0C002D43             jal increment
6636	6430  3C026773             lui $2, 26483
6637	6434  3442F337             ori $2, $2, 62263
6638	6438  3C030000             lui $3, 0
6639	643C  34630C00             ori $3, $3, 3072
6640	6440  00430018             mult $2, $3
6641	6444  00009012             mflo $18
6642	6448  AFB20000             sw $18, 0($29)
6643	644C  00009010             mfhi $18
6644	6450  AFB20000             sw $18, 0($29)
6645	6454  0C002D43             jal increment
6646	6458  3C02FDDD             lui $2, 64989
6647	645C  34425EDF             ori $2, $2, 24287
6648	6460  3C030000             lui $3, 0
6649	6464  34630C00             ori $3, $3, 3072
6650	6468  00430018             mult $2, $3
6651	646C  00009012             mflo $18
6652	6470  AFB20000             sw $18, 0($29)
6653	6474  00009010             mfhi $18
6654	6478  AFB20000             sw $18, 0($29)
6655	647C  0C002D43             jal increment
6656	6480  3C025666             lui $2, 22118
6657	6484  3442BB6C             ori $2, $2, 47980
6658	6488  3C030000             lui $3, 0
6659	648C  34630C00             ori $3, $3, 3072
6660	6490  00430018             mult $2, $3
6661	6494  00009012             mflo $18
6662	6498  AFB20000             sw $18, 0($29)
6663	649C  00009010             mfhi $18
6664	64A0  AFB20000             sw $18, 0($29)
6665	64A4  0C002D43             jal increment
6666	64A8  3C02AAAB             lui $2, 43691
6667	64AC  344215B3             ori $2, $2, 5555
6668	64B0  3C030000             lui $3, 0
6669	64B4  34630C00             ori $3, $3, 3072
6670	64B8  00430018             mult $2, $3
6671	64BC  00009012             mflo $18
6672	64C0  AFB20000             sw $18, 0($29)
6673	64C4  00009010             mfhi $18
6674	64C8  AFB20000             sw $18, 0($29)
6675	64CC  0C002D43             jal increment
6676	64D0  3C020000             lui $2, 0
6677	64D4  34420000             ori $2, $2, 0
6678	64D8  3C030000             lui $3, 0
6679	64DC  34631800             ori $3, $3, 6144
6680	64E0  00430018             mult $2, $3
6681	64E4  00009012             mflo $18
6682	64E8  AFB20000             sw $18, 0($29)
6683	64EC  00009010             mfhi $18
6684	64F0  AFB20000             sw $18, 0($29)
6685	64F4  0C002D43             jal increment
6686	64F8  3C02AAAA             lui $2, 43690
6687	64FC  3442AAAA             ori $2, $2, 43690
6688	6500  3C030000             lui $3, 0
6689	6504  34631800             ori $3, $3, 6144
6690	6508  00430018             mult $2, $3
6691	650C  00009012             mflo $18
6692	6510  AFB20000             sw $18, 0($29)
6693	6514  00009010             mfhi $18
6694	6518  AFB20000             sw $18, 0($29)
6695	651C  0C002D43             jal increment
6696	6520  3C02D34D             lui $2, 54093
6697	6524  34425555             ori $2, $2, 21845
6698	6528  3C030000             lui $3, 0
6699	652C  34631800             ori $3, $3, 6144
6700	6530  00430018             mult $2, $3
6701	6534  00009012             mflo $18
6702	6538  AFB20000             sw $18, 0($29)
6703	653C  00009010             mfhi $18
6704	6540  AFB20000             sw $18, 0($29)
6705	6544  0C002D43             jal increment
6706	6548  3C021999             lui $2, 6553
6707	654C  3442999A             ori $2, $2, 39322
6708	6550  3C030000             lui $3, 0
6709	6554  34631800             ori $3, $3, 6144
6710	6558  00430018             mult $2, $3
6711	655C  00009012             mflo $18
6712	6560  AFB20000             sw $18, 0($29)
6713	6564  00009010             mfhi $18
6714	6568  AFB20000             sw $18, 0($29)
6715	656C  0C002D43             jal increment
6716	6570  3C023536             lui $2, 13622
6717	6574  34426666             ori $2, $2, 26214
6718	6578  3C030000             lui $3, 0
6719	657C  34631800             ori $3, $3, 6144
6720	6580  00430018             mult $2, $3
6721	6584  00009012             mflo $18
6722	6588  AFB20000             sw $18, 0($29)
6723	658C  00009010             mfhi $18
6724	6590  AFB20000             sw $18, 0($29)
6725	6594  0C002D43             jal increment
6726	6598  3C024CD4             lui $2, 19668
6727	659C  3442CCCB             ori $2, $2, 52427
6728	65A0  3C030000             lui $3, 0
6729	65A4  34631800             ori $3, $3, 6144
6730	65A8  00430018             mult $2, $3
6731	65AC  00009012             mflo $18
6732	65B0  AFB20000             sw $18, 0($29)
6733	65B4  00009010             mfhi $18
6734	65B8  AFB20000             sw $18, 0($29)
6735	65BC  0C002D43             jal increment
6736	65C0  3C026773             lui $2, 26483
6737	65C4  3442F337             ori $2, $2, 62263
6738	65C8  3C030000             lui $3, 0
6739	65CC  34631800             ori $3, $3, 6144
6740	65D0  00430018             mult $2, $3
6741	65D4  00009012             mflo $18
6742	65D8  AFB20000             sw $18, 0($29)
6743	65DC  00009010             mfhi $18
6744	65E0  AFB20000             sw $18, 0($29)
6745	65E4  0C002D43             jal increment
6746	65E8  3C02FDDD             lui $2, 64989
6747	65EC  34425EDF             ori $2, $2, 24287
6748	65F0  3C030000             lui $3, 0
6749	65F4  34631800             ori $3, $3, 6144
6750	65F8  00430018             mult $2, $3
6751	65FC  00009012             mflo $18
6752	6600  AFB20000             sw $18, 0($29)
6753	6604  00009010             mfhi $18
6754	6608  AFB20000             sw $18, 0($29)
6755	660C  0C002D43             jal increment
6756	6610  3C025666             lui $2, 22118
6757	6614  3442BB6C             ori $2, $2, 47980
6758	6618  3C030000             lui $3, 0
6759	661C  34631800             ori $3, $3, 6144
6760	6620  00430018             mult $2, $3
6761	6624  00009012             mflo $18
6762	6628  AFB20000             sw $18, 0($29)
6763	662C  00009010             mfhi $18
6764	6630  AFB20000             sw $18, 0($29)
6765	6634  0C002D43             jal increment
6766	6638  3C02AAAB             lui $2, 43691
6767	663C  344215B3             ori $2, $2, 5555
6768	6640  3C030000             lui $3, 0
6769	6644  34631800             ori $3, $3, 6144
6770	6648  00430018             mult $2, $3
6771	664C  00009012             mflo $18
6772	6650  AFB20000             sw $18, 0($29)
6773	6654  00009010             mfhi $18
6774	6658  AFB20000             sw $18, 0($29)
6775	665C  0C002D43             jal increment
6776	6660  3C020000             lui $2, 0
6777	6664  34420000             ori $2, $2, 0
6778	6668  3C030000             lui $3, 0
6779	666C  34633000             ori $3, $3, 12288
6780	6670  00430018             mult $2, $3
6781	6674  00009012             mflo $18
6782	6678  AFB20000             sw $18, 0($29)
6783	667C  00009010             mfhi $18
6784	6680  AFB20000             sw $18, 0($29)
6785	6684  0C002D43             jal increment
6786	6688  3C02AAAA             lui $2, 43690
6787	668C  3442AAAA             ori $2, $2, 43690
6788	6690  3C030000             lui $3, 0
6789	6694  34633000             ori $3, $3, 12288
6790	6698  00430018             mult $2, $3
6791	669C  00009012             mflo $18
6792	66A0  AFB20000             sw $18, 0($29)
6793	66A4  00009010             mfhi $18
6794	66A8  AFB20000             sw $18, 0($29)
6795	66AC  0C002D43             jal increment
6796	66B0  3C02D34D             lui $2, 54093
6797	66B4  34425555             ori $2, $2, 21845
6798	66B8  3C030000             lui $3, 0
6799	66BC  34633000             ori $3, $3, 12288
6800	66C0  00430018             mult $2, $3
6801	66C4  00009012             mflo $18
6802	66C8  AFB20000             sw $18, 0($29)
6803	66CC  00009010             mfhi $18
6804	66D0  AFB20000             sw $18, 0($29)
6805	66D4  0C002D43             jal increment
6806	66D8  3C021999             lui $2, 6553
6807	66DC  3442999A             ori $2, $2, 39322
6808	66E0  3C030000             lui $3, 0
6809	66E4  34633000             ori $3, $3, 12288
6810	66E8  00430018             mult $2, $3
6811	66EC  00009012             mflo $18
6812	66F0  AFB20000             sw $18, 0($29)
6813	66F4  00009010             mfhi $18
6814	66F8  AFB20000             sw $18, 0($29)
6815	66FC  0C002D43             jal increment
6816	6700  3C023536             lui $2, 13622
6817	6704  34426666             ori $2, $2, 26214
6818	6708  3C030000             lui $3, 0
6819	670C  34633000             ori $3, $3, 12288
6820	6710  00430018             mult $2, $3
6821	6714  00009012             mflo $18
6822	6718  AFB20000             sw $18, 0($29)
6823	671C  00009010             mfhi $18
6824	6720  AFB20000             sw $18, 0($29)
6825	6724  0C002D43             jal increment
6826	6728  3C024CD4             lui $2, 19668
6827	672C  3442CCCB             ori $2, $2, 52427
6828	6730  3C030000             lui $3, 0
6829	6734  34633000             ori $3, $3, 12288
6830	6738  00430018             mult $2, $3
6831	673C  00009012             mflo $18
6832	6740  AFB20000             sw $18, 0($29)
6833	6744  00009010             mfhi $18
6834	6748  AFB20000             sw $18, 0($29)
6835	674C  0C002D43             jal increment
6836	6750  3C026773             lui $2, 26483
6837	6754  3442F337             ori $2, $2, 62263
6838	6758  3C030000             lui $3, 0
6839	675C  34633000             ori $3, $3, 12288
6840	6760  00430018             mult $2, $3
6841	6764  00009012             mflo $18
6842	6768  AFB20000             sw $18, 0($29)
6843	676C  00009010             mfhi $18
6844	6770  AFB20000             sw $18, 0($29)
6845	6774  0C002D43             jal increment
6846	6778  3C02FDDD             lui $2, 64989
6847	677C  34425EDF             ori $2, $2, 24287
6848	6780  3C030000             lui $3, 0
6849	6784  34633000             ori $3, $3, 12288
6850	6788  00430018             mult $2, $3
6851	678C  00009012             mflo $18
6852	6790  AFB20000             sw $18, 0($29)
6853	6794  00009010             mfhi $18
6854	6798  AFB20000             sw $18, 0($29)
6855	679C  0C002D43             jal increment
6856	67A0  3C025666             lui $2, 22118
6857	67A4  3442BB6C             ori $2, $2, 47980
6858	67A8  3C030000             lui $3, 0
6859	67AC  34633000             ori $3, $3, 12288
6860	67B0  00430018             mult $2, $3
6861	67B4  00009012             mflo $18
6862	67B8  AFB20000             sw $18, 0($29)
6863	67BC  00009010             mfhi $18
6864	67C0  AFB20000             sw $18, 0($29)
6865	67C4  0C002D43             jal increment
6866	67C8  3C02AAAB             lui $2, 43691
6867	67CC  344215B3             ori $2, $2, 5555
6868	67D0  3C030000             lui $3, 0
6869	67D4  34633000             ori $3, $3, 12288
6870	67D8  00430018             mult $2, $3
6871	67DC  00009012             mflo $18
6872	67E0  AFB20000             sw $18, 0($29)
6873	67E4  00009010             mfhi $18
6874	67E8  AFB20000             sw $18, 0($29)
6875	67EC  0C002D43             jal increment
6876	67F0  3C020000             lui $2, 0
6877	67F4  34420000             ori $2, $2, 0
6878	67F8  3C030000             lui $3, 0
6879	67FC  34636000             ori $3, $3, 24576
6880	6800  00430018             mult $2, $3
6881	6804  00009012             mflo $18
6882	6808  AFB20000             sw $18, 0($29)
6883	680C  00009010             mfhi $18
6884	6810  AFB20000             sw $18, 0($29)
6885	6814  0C002D43             jal increment
6886	6818  3C02AAAA             lui $2, 43690
6887	681C  3442AAAA             ori $2, $2, 43690
6888	6820  3C030000             lui $3, 0
6889	6824  34636000             ori $3, $3, 24576
6890	6828  00430018             mult $2, $3
6891	682C  00009012             mflo $18
6892	6830  AFB20000             sw $18, 0($29)
6893	6834  00009010             mfhi $18
6894	6838  AFB20000             sw $18, 0($29)
6895	683C  0C002D43             jal increment
6896	6840  3C02D34D             lui $2, 54093
6897	6844  34425555             ori $2, $2, 21845
6898	6848  3C030000             lui $3, 0
6899	684C  34636000             ori $3, $3, 24576
6900	6850  00430018             mult $2, $3
6901	6854  00009012             mflo $18
6902	6858  AFB20000             sw $18, 0($29)
6903	685C  00009010             mfhi $18
6904	6860  AFB20000             sw $18, 0($29)
6905	6864  0C002D43             jal increment
6906	6868  3C021999             lui $2, 6553
6907	686C  3442999A             ori $2, $2, 39322
6908	6870  3C030000             lui $3, 0
6909	6874  34636000             ori $3, $3, 24576
6910	6878  00430018             mult $2, $3
6911	687C  00009012             mflo $18
6912	6880  AFB20000             sw $18, 0($29)
6913	6884  00009010             mfhi $18
6914	6888  AFB20000             sw $18, 0($29)
6915	688C  0C002D43             jal increment
6916	6890  3C023536             lui $2, 13622
6917	6894  34426666             ori $2, $2, 26214
6918	6898  3C030000             lui $3, 0
6919	689C  34636000             ori $3, $3, 24576
6920	68A0  00430018             mult $2, $3
6921	68A4  00009012             mflo $18
6922	68A8  AFB20000             sw $18, 0($29)
6923	68AC  00009010             mfhi $18
6924	68B0  AFB20000             sw $18, 0($29)
6925	68B4  0C002D43             jal increment
6926	68B8  3C024CD4             lui $2, 19668
6927	68BC  3442CCCB             ori $2, $2, 52427
6928	68C0  3C030000             lui $3, 0
6929	68C4  34636000             ori $3, $3, 24576
6930	68C8  00430018             mult $2, $3
6931	68CC  00009012             mflo $18
6932	68D0  AFB20000             sw $18, 0($29)
6933	68D4  00009010             mfhi $18
6934	68D8  AFB20000             sw $18, 0($29)
6935	68DC  0C002D43             jal increment
6936	68E0  3C026773             lui $2, 26483
6937	68E4  3442F337             ori $2, $2, 62263
6938	68E8  3C030000             lui $3, 0
6939	68EC  34636000             ori $3, $3, 24576
6940	68F0  00430018             mult $2, $3
6941	68F4  00009012             mflo $18
6942	68F8  AFB20000             sw $18, 0($29)
6943	68FC  00009010             mfhi $18
6944	6900  AFB20000             sw $18, 0($29)
6945	6904  0C002D43             jal increment
6946	6908  3C02FDDD             lui $2, 64989
6947	690C  34425EDF             ori $2, $2, 24287
6948	6910  3C030000             lui $3, 0
6949	6914  34636000             ori $3, $3, 24576
6950	6918  00430018             mult $2, $3
6951	691C  00009012             mflo $18
6952	6920  AFB20000             sw $18, 0($29)
6953	6924  00009010             mfhi $18
6954	6928  AFB20000             sw $18, 0($29)
6955	692C  0C002D43             jal increment
6956	6930  3C025666             lui $2, 22118
6957	6934  3442BB6C             ori $2, $2, 47980
6958	6938  3C030000             lui $3, 0
6959	693C  34636000             ori $3, $3, 24576
6960	6940  00430018             mult $2, $3
6961	6944  00009012             mflo $18
6962	6948  AFB20000             sw $18, 0($29)
6963	694C  00009010             mfhi $18
6964	6950  AFB20000             sw $18, 0($29)
6965	6954  0C002D43             jal increment
6966	6958  3C02AAAB             lui $2, 43691
6967	695C  344215B3             ori $2, $2, 5555
6968	6960  3C030000             lui $3, 0
6969	6964  34636000             ori $3, $3, 24576
6970	6968  00430018             mult $2, $3
6971	696C  00009012             mflo $18
6972	6970  AFB20000             sw $18, 0($29)
6973	6974  00009010             mfhi $18
6974	6978  AFB20000             sw $18, 0($29)
6975	697C  0C002D43             jal increment
6976	6980  3C020000             lui $2, 0
6977	6984  34420000             ori $2, $2, 0
6978	6988  3C030000             lui $3, 0
6979	698C  3463C000             ori $3, $3, 49152
6980	6990  00430018             mult $2, $3
6981	6994  00009012             mflo $18
6982	6998  AFB20000             sw $18, 0($29)
6983	699C  00009010             mfhi $18
6984	69A0  AFB20000             sw $18, 0($29)
6985	69A4  0C002D43             jal increment
6986	69A8  3C02AAAA             lui $2, 43690
6987	69AC  3442AAAA             ori $2, $2, 43690
6988	69B0  3C030000             lui $3, 0
6989	69B4  3463C000             ori $3, $3, 49152
6990	69B8  00430018             mult $2, $3
6991	69BC  00009012             mflo $18
6992	69C0  AFB20000             sw $18, 0($29)
6993	69C4  00009010             mfhi $18
6994	69C8  AFB20000             sw $18, 0($29)
6995	69CC  0C002D43             jal increment
6996	69D0  3C02D34D             lui $2, 54093
6997	69D4  34425555             ori $2, $2, 21845
6998	69D8  3C030000             lui $3, 0
6999	69DC  3463C000             ori $3, $3, 49152
7000	69E0  00430018             mult $2, $3
7001	69E4  00009012             mflo $18
7002	69E8  AFB20000             sw $18, 0($29)
7003	69EC  00009010             mfhi $18
7004	69F0  AFB20000             sw $18, 0($29)
7005	69F4  0C002D43             jal increment
7006	69F8  3C021999             lui $2, 6553
7007	69FC  3442999A             ori $2, $2, 39322
7008	6A00  3C030000             lui $3, 0
7009	6A04  3463C000             ori $3, $3, 49152
7010	6A08  00430018             mult $2, $3
7011	6A0C  00009012             mflo $18
7012	6A10  AFB20000             sw $18, 0($29)
7013	6A14  00009010             mfhi $18
7014	6A18  AFB20000             sw $18, 0($29)
7015	6A1C  0C002D43             jal increment
7016	6A20  3C023536             lui $2, 13622
7017	6A24  34426666             ori $2, $2, 26214
7018	6A28  3C030000             lui $3, 0
7019	6A2C  3463C000             ori $3, $3, 49152
7020	6A30  00430018             mult $2, $3
7021	6A34  00009012             mflo $18
7022	6A38  AFB20000             sw $18, 0($29)
7023	6A3C  00009010             mfhi $18
7024	6A40  AFB20000             sw $18, 0($29)
7025	6A44  0C002D43             jal increment
7026	6A48  3C024CD4             lui $2, 19668
7027	6A4C  3442CCCB             ori $2, $2, 52427
7028	6A50  3C030000             lui $3, 0
7029	6A54  3463C000             ori $3, $3, 49152
7030	6A58  00430018             mult $2, $3
7031	6A5C  00009012             mflo $18
7032	6A60  AFB20000             sw $18, 0($29)
7033	6A64  00009010             mfhi $18
7034	6A68  AFB20000             sw $18, 0($29)
7035	6A6C  0C002D43             jal increment
7036	6A70  3C026773             lui $2, 26483
7037	6A74  3442F337             ori $2, $2, 62263
7038	6A78  3C030000             lui $3, 0
7039	6A7C  3463C000             ori $3, $3, 49152
7040	6A80  00430018             mult $2, $3
7041	6A84  00009012             mflo $18
7042	6A88  AFB20000             sw $18, 0($29)
7043	6A8C  00009010             mfhi $18
7044	6A90  AFB20000             sw $18, 0($29)
7045	6A94  0C002D43             jal increment
7046	6A98  3C02FDDD             lui $2, 64989
7047	6A9C  34425EDF             ori $2, $2, 24287
7048	6AA0  3C030000             lui $3, 0
7049	6AA4  3463C000             ori $3, $3, 49152
7050	6AA8  00430018             mult $2, $3
7051	6AAC  00009012             mflo $18
7052	6AB0  AFB20000             sw $18, 0($29)
7053	6AB4  00009010             mfhi $18
7054	6AB8  AFB20000             sw $18, 0($29)
7055	6ABC  0C002D43             jal increment
7056	6AC0  3C025666             lui $2, 22118
7057	6AC4  3442BB6C             ori $2, $2, 47980
7058	6AC8  3C030000             lui $3, 0
7059	6ACC  3463C000             ori $3, $3, 49152
7060	6AD0  00430018             mult $2, $3
7061	6AD4  00009012             mflo $18
7062	6AD8  AFB20000             sw $18, 0($29)
7063	6ADC  00009010             mfhi $18
7064	6AE0  AFB20000             sw $18, 0($29)
7065	6AE4  0C002D43             jal increment
7066	6AE8  3C02AAAB             lui $2, 43691
7067	6AEC  344215B3             ori $2, $2, 5555
7068	6AF0  3C030000             lui $3, 0
7069	6AF4  3463C000             ori $3, $3, 49152
7070	6AF8  00430018             mult $2, $3
7071	6AFC  00009012             mflo $18
7072	6B00  AFB20000             sw $18, 0($29)
7073	6B04  00009010             mfhi $18
7074	6B08  AFB20000             sw $18, 0($29)
7075	6B0C  0C002D43             jal increment
7076	6B10  3C020000             lui $2, 0
7077	6B14  34420000             ori $2, $2, 0
7078	6B18  3C030001             lui $3, 1
7079	6B1C  34638000             ori $3, $3, 32768
7080	6B20  00430018             mult $2, $3
7081	6B24  00009012             mflo $18
7082	6B28  AFB20000             sw $18, 0($29)
7083	6B2C  00009010             mfhi $18
7084	6B30  AFB20000             sw $18, 0($29)
7085	6B34  0C002D43             jal increment
7086	6B38  3C02AAAA             lui $2, 43690
7087	6B3C  3442AAAA             ori $2, $2, 43690
7088	6B40  3C030001             lui $3, 1
7089	6B44  34638000             ori $3, $3, 32768
7090	6B48  00430018             mult $2, $3
7091	6B4C  00009012             mflo $18
7092	6B50  AFB20000             sw $18, 0($29)
7093	6B54  00009010             mfhi $18
7094	6B58  AFB20000             sw $18, 0($29)
7095	6B5C  0C002D43             jal increment
7096	6B60  3C02D34D             lui $2, 54093
7097	6B64  34425555             ori $2, $2, 21845
7098	6B68  3C030001             lui $3, 1
7099	6B6C  34638000             ori $3, $3, 32768
7100	6B70  00430018             mult $2, $3
7101	6B74  00009012             mflo $18
7102	6B78  AFB20000             sw $18, 0($29)
7103	6B7C  00009010             mfhi $18
7104	6B80  AFB20000             sw $18, 0($29)
7105	6B84  0C002D43             jal increment
7106	6B88  3C021999             lui $2, 6553
7107	6B8C  3442999A             ori $2, $2, 39322
7108	6B90  3C030001             lui $3, 1
7109	6B94  34638000             ori $3, $3, 32768
7110	6B98  00430018             mult $2, $3
7111	6B9C  00009012             mflo $18
7112	6BA0  AFB20000             sw $18, 0($29)
7113	6BA4  00009010             mfhi $18
7114	6BA8  AFB20000             sw $18, 0($29)
7115	6BAC  0C002D43             jal increment
7116	6BB0  3C023536             lui $2, 13622
7117	6BB4  34426666             ori $2, $2, 26214
7118	6BB8  3C030001             lui $3, 1
7119	6BBC  34638000             ori $3, $3, 32768
7120	6BC0  00430018             mult $2, $3
7121	6BC4  00009012             mflo $18
7122	6BC8  AFB20000             sw $18, 0($29)
7123	6BCC  00009010             mfhi $18
7124	6BD0  AFB20000             sw $18, 0($29)
7125	6BD4  0C002D43             jal increment
7126	6BD8  3C024CD4             lui $2, 19668
7127	6BDC  3442CCCB             ori $2, $2, 52427
7128	6BE0  3C030001             lui $3, 1
7129	6BE4  34638000             ori $3, $3, 32768
7130	6BE8  00430018             mult $2, $3
7131	6BEC  00009012             mflo $18
7132	6BF0  AFB20000             sw $18, 0($29)
7133	6BF4  00009010             mfhi $18
7134	6BF8  AFB20000             sw $18, 0($29)
7135	6BFC  0C002D43             jal increment
7136	6C00  3C026773             lui $2, 26483
7137	6C04  3442F337             ori $2, $2, 62263
7138	6C08  3C030001             lui $3, 1
7139	6C0C  34638000             ori $3, $3, 32768
7140	6C10  00430018             mult $2, $3
7141	6C14  00009012             mflo $18
7142	6C18  AFB20000             sw $18, 0($29)
7143	6C1C  00009010             mfhi $18
7144	6C20  AFB20000             sw $18, 0($29)
7145	6C24  0C002D43             jal increment
7146	6C28  3C02FDDD             lui $2, 64989
7147	6C2C  34425EDF             ori $2, $2, 24287
7148	6C30  3C030001             lui $3, 1
7149	6C34  34638000             ori $3, $3, 32768
7150	6C38  00430018             mult $2, $3
7151	6C3C  00009012             mflo $18
7152	6C40  AFB20000             sw $18, 0($29)
7153	6C44  00009010             mfhi $18
7154	6C48  AFB20000             sw $18, 0($29)
7155	6C4C  0C002D43             jal increment
7156	6C50  3C025666             lui $2, 22118
7157	6C54  3442BB6C             ori $2, $2, 47980
7158	6C58  3C030001             lui $3, 1
7159	6C5C  34638000             ori $3, $3, 32768
7160	6C60  00430018             mult $2, $3
7161	6C64  00009012             mflo $18
7162	6C68  AFB20000             sw $18, 0($29)
7163	6C6C  00009010             mfhi $18
7164	6C70  AFB20000             sw $18, 0($29)
7165	6C74  0C002D43             jal increment
7166	6C78  3C02AAAB             lui $2, 43691
7167	6C7C  344215B3             ori $2, $2, 5555
7168	6C80  3C030001             lui $3, 1
7169	6C84  34638000             ori $3, $3, 32768
7170	6C88  00430018             mult $2, $3
7171	6C8C  00009012             mflo $18
7172	6C90  AFB20000             sw $18, 0($29)
7173	6C94  00009010             mfhi $18
7174	6C98  AFB20000             sw $18, 0($29)
7175	6C9C  0C002D43             jal increment
7176	6CA0  3C020000             lui $2, 0
7177	6CA4  34420000             ori $2, $2, 0
7178	6CA8  3C030003             lui $3, 3
7179	6CAC  34630000             ori $3, $3, 0
7180	6CB0  00430018             mult $2, $3
7181	6CB4  00009012             mflo $18
7182	6CB8  AFB20000             sw $18, 0($29)
7183	6CBC  00009010             mfhi $18
7184	6CC0  AFB20000             sw $18, 0($29)
7185	6CC4  0C002D43             jal increment
7186	6CC8  3C02AAAA             lui $2, 43690
7187	6CCC  3442AAAA             ori $2, $2, 43690
7188	6CD0  3C030003             lui $3, 3
7189	6CD4  34630000             ori $3, $3, 0
7190	6CD8  00430018             mult $2, $3
7191	6CDC  00009012             mflo $18
7192	6CE0  AFB20000             sw $18, 0($29)
7193	6CE4  00009010             mfhi $18
7194	6CE8  AFB20000             sw $18, 0($29)
7195	6CEC  0C002D43             jal increment
7196	6CF0  3C02D34D             lui $2, 54093
7197	6CF4  34425555             ori $2, $2, 21845
7198	6CF8  3C030003             lui $3, 3
7199	6CFC  34630000             ori $3, $3, 0
7200	6D00  00430018             mult $2, $3
7201	6D04  00009012             mflo $18
7202	6D08  AFB20000             sw $18, 0($29)
7203	6D0C  00009010             mfhi $18
7204	6D10  AFB20000             sw $18, 0($29)
7205	6D14  0C002D43             jal increment
7206	6D18  3C021999             lui $2, 6553
7207	6D1C  3442999A             ori $2, $2, 39322
7208	6D20  3C030003             lui $3, 3
7209	6D24  34630000             ori $3, $3, 0
7210	6D28  00430018             mult $2, $3
7211	6D2C  00009012             mflo $18
7212	6D30  AFB20000             sw $18, 0($29)
7213	6D34  00009010             mfhi $18
7214	6D38  AFB20000             sw $18, 0($29)
7215	6D3C  0C002D43             jal increment
7216	6D40  3C023536             lui $2, 13622
7217	6D44  34426666             ori $2, $2, 26214
7218	6D48  3C030003             lui $3, 3
7219	6D4C  34630000             ori $3, $3, 0
7220	6D50  00430018             mult $2, $3
7221	6D54  00009012             mflo $18
7222	6D58  AFB20000             sw $18, 0($29)
7223	6D5C  00009010             mfhi $18
7224	6D60  AFB20000             sw $18, 0($29)
7225	6D64  0C002D43             jal increment
7226	6D68  3C024CD4             lui $2, 19668
7227	6D6C  3442CCCB             ori $2, $2, 52427
7228	6D70  3C030003             lui $3, 3
7229	6D74  34630000             ori $3, $3, 0
7230	6D78  00430018             mult $2, $3
7231	6D7C  00009012             mflo $18
7232	6D80  AFB20000             sw $18, 0($29)
7233	6D84  00009010             mfhi $18
7234	6D88  AFB20000             sw $18, 0($29)
7235	6D8C  0C002D43             jal increment
7236	6D90  3C026773             lui $2, 26483
7237	6D94  3442F337             ori $2, $2, 62263
7238	6D98  3C030003             lui $3, 3
7239	6D9C  34630000             ori $3, $3, 0
7240	6DA0  00430018             mult $2, $3
7241	6DA4  00009012             mflo $18
7242	6DA8  AFB20000             sw $18, 0($29)
7243	6DAC  00009010             mfhi $18
7244	6DB0  AFB20000             sw $18, 0($29)
7245	6DB4  0C002D43             jal increment
7246	6DB8  3C02FDDD             lui $2, 64989
7247	6DBC  34425EDF             ori $2, $2, 24287
7248	6DC0  3C030003             lui $3, 3
7249	6DC4  34630000             ori $3, $3, 0
7250	6DC8  00430018             mult $2, $3
7251	6DCC  00009012             mflo $18
7252	6DD0  AFB20000             sw $18, 0($29)
7253	6DD4  00009010             mfhi $18
7254	6DD8  AFB20000             sw $18, 0($29)
7255	6DDC  0C002D43             jal increment
7256	6DE0  3C025666             lui $2, 22118
7257	6DE4  3442BB6C             ori $2, $2, 47980
7258	6DE8  3C030003             lui $3, 3
7259	6DEC  34630000             ori $3, $3, 0
7260	6DF0  00430018             mult $2, $3
7261	6DF4  00009012             mflo $18
7262	6DF8  AFB20000             sw $18, 0($29)
7263	6DFC  00009010             mfhi $18
7264	6E00  AFB20000             sw $18, 0($29)
7265	6E04  0C002D43             jal increment
7266	6E08  3C02AAAB             lui $2, 43691
7267	6E0C  344215B3             ori $2, $2, 5555
7268	6E10  3C030003             lui $3, 3
7269	6E14  34630000             ori $3, $3, 0
7270	6E18  00430018             mult $2, $3
7271	6E1C  00009012             mflo $18
7272	6E20  AFB20000             sw $18, 0($29)
7273	6E24  00009010             mfhi $18
7274	6E28  AFB20000             sw $18, 0($29)
7275	6E2C  0C002D43             jal increment
7276	6E30  3C020000             lui $2, 0
7277	6E34  34420000             ori $2, $2, 0
7278	6E38  3C030006             lui $3, 6
7279	6E3C  34630000             ori $3, $3, 0
7280	6E40  00430018             mult $2, $3
7281	6E44  00009012             mflo $18
7282	6E48  AFB20000             sw $18, 0($29)
7283	6E4C  00009010             mfhi $18
7284	6E50  AFB20000             sw $18, 0($29)
7285	6E54  0C002D43             jal increment
7286	6E58  3C02AAAA             lui $2, 43690
7287	6E5C  3442AAAA             ori $2, $2, 43690
7288	6E60  3C030006             lui $3, 6
7289	6E64  34630000             ori $3, $3, 0
7290	6E68  00430018             mult $2, $3
7291	6E6C  00009012             mflo $18
7292	6E70  AFB20000             sw $18, 0($29)
7293	6E74  00009010             mfhi $18
7294	6E78  AFB20000             sw $18, 0($29)
7295	6E7C  0C002D43             jal increment
7296	6E80  3C02D34D             lui $2, 54093
7297	6E84  34425555             ori $2, $2, 21845
7298	6E88  3C030006             lui $3, 6
7299	6E8C  34630000             ori $3, $3, 0
7300	6E90  00430018             mult $2, $3
7301	6E94  00009012             mflo $18
7302	6E98  AFB20000             sw $18, 0($29)
7303	6E9C  00009010             mfhi $18
7304	6EA0  AFB20000             sw $18, 0($29)
7305	6EA4  0C002D43             jal increment
7306	6EA8  3C021999             lui $2, 6553
7307	6EAC  3442999A             ori $2, $2, 39322
7308	6EB0  3C030006             lui $3, 6
7309	6EB4  34630000             ori $3, $3, 0
7310	6EB8  00430018             mult $2, $3
7311	6EBC  00009012             mflo $18
7312	6EC0  AFB20000             sw $18, 0($29)
7313	6EC4  00009010             mfhi $18
7314	6EC8  AFB20000             sw $18, 0($29)
7315	6ECC  0C002D43             jal increment
7316	6ED0  3C023536             lui $2, 13622
7317	6ED4  34426666             ori $2, $2, 26214
7318	6ED8  3C030006             lui $3, 6
7319	6EDC  34630000             ori $3, $3, 0
7320	6EE0  00430018             mult $2, $3
7321	6EE4  00009012             mflo $18
7322	6EE8  AFB20000             sw $18, 0($29)
7323	6EEC  00009010             mfhi $18
7324	6EF0  AFB20000             sw $18, 0($29)
7325	6EF4  0C002D43             jal increment
7326	6EF8  3C024CD4             lui $2, 19668
7327	6EFC  3442CCCB             ori $2, $2, 52427
7328	6F00  3C030006             lui $3, 6
7329	6F04  34630000             ori $3, $3, 0
7330	6F08  00430018             mult $2, $3
7331	6F0C  00009012             mflo $18
7332	6F10  AFB20000             sw $18, 0($29)
7333	6F14  00009010             mfhi $18
7334	6F18  AFB20000             sw $18, 0($29)
7335	6F1C  0C002D43             jal increment
7336	6F20  3C026773             lui $2, 26483
7337	6F24  3442F337             ori $2, $2, 62263
7338	6F28  3C030006             lui $3, 6
7339	6F2C  34630000             ori $3, $3, 0
7340	6F30  00430018             mult $2, $3
7341	6F34  00009012             mflo $18
7342	6F38  AFB20000             sw $18, 0($29)
7343	6F3C  00009010             mfhi $18
7344	6F40  AFB20000             sw $18, 0($29)
7345	6F44  0C002D43             jal increment
7346	6F48  3C02FDDD             lui $2, 64989
7347	6F4C  34425EDF             ori $2, $2, 24287
7348	6F50  3C030006             lui $3, 6
7349	6F54  34630000             ori $3, $3, 0
7350	6F58  00430018             mult $2, $3
7351	6F5C  00009012             mflo $18
7352	6F60  AFB20000             sw $18, 0($29)
7353	6F64  00009010             mfhi $18
7354	6F68  AFB20000             sw $18, 0($29)
7355	6F6C  0C002D43             jal increment
7356	6F70  3C025666             lui $2, 22118
7357	6F74  3442BB6C             ori $2, $2, 47980
7358	6F78  3C030006             lui $3, 6
7359	6F7C  34630000             ori $3, $3, 0
7360	6F80  00430018             mult $2, $3
7361	6F84  00009012             mflo $18
7362	6F88  AFB20000             sw $18, 0($29)
7363	6F8C  00009010             mfhi $18
7364	6F90  AFB20000             sw $18, 0($29)
7365	6F94  0C002D43             jal increment
7366	6F98  3C02AAAB             lui $2, 43691
7367	6F9C  344215B3             ori $2, $2, 5555
7368	6FA0  3C030006             lui $3, 6
7369	6FA4  34630000             ori $3, $3, 0
7370	6FA8  00430018             mult $2, $3
7371	6FAC  00009012             mflo $18
7372	6FB0  AFB20000             sw $18, 0($29)
7373	6FB4  00009010             mfhi $18
7374	6FB8  AFB20000             sw $18, 0($29)
7375	6FBC  0C002D43             jal increment
7376	6FC0  3C020000             lui $2, 0
7377	6FC4  34420000             ori $2, $2, 0
7378	6FC8  3C03000C             lui $3, 12
7379	6FCC  34630000             ori $3, $3, 0
7380	6FD0  00430018             mult $2, $3
7381	6FD4  00009012             mflo $18
7382	6FD8  AFB20000             sw $18, 0($29)
7383	6FDC  00009010             mfhi $18
7384	6FE0  AFB20000             sw $18, 0($29)
7385	6FE4  0C002D43             jal increment
7386	6FE8  3C02AAAA             lui $2, 43690
7387	6FEC  3442AAAA             ori $2, $2, 43690
7388	6FF0  3C03000C             lui $3, 12
7389	6FF4  34630000             ori $3, $3, 0
7390	6FF8  00430018             mult $2, $3
7391	6FFC  00009012             mflo $18
7392	7000  AFB20000             sw $18, 0($29)
7393	7004  00009010             mfhi $18
7394	7008  AFB20000             sw $18, 0($29)
7395	700C  0C002D43             jal increment
7396	7010  3C02D34D             lui $2, 54093
7397	7014  34425555             ori $2, $2, 21845
7398	7018  3C03000C             lui $3, 12
7399	701C  34630000             ori $3, $3, 0
7400	7020  00430018             mult $2, $3
7401	7024  00009012             mflo $18
7402	7028  AFB20000             sw $18, 0($29)
7403	702C  00009010             mfhi $18
7404	7030  AFB20000             sw $18, 0($29)
7405	7034  0C002D43             jal increment
7406	7038  3C021999             lui $2, 6553
7407	703C  3442999A             ori $2, $2, 39322
7408	7040  3C03000C             lui $3, 12
7409	7044  34630000             ori $3, $3, 0
7410	7048  00430018             mult $2, $3
7411	704C  00009012             mflo $18
7412	7050  AFB20000             sw $18, 0($29)
7413	7054  00009010             mfhi $18
7414	7058  AFB20000             sw $18, 0($29)
7415	705C  0C002D43             jal increment
7416	7060  3C023536             lui $2, 13622
7417	7064  34426666             ori $2, $2, 26214
7418	7068  3C03000C             lui $3, 12
7419	706C  34630000             ori $3, $3, 0
7420	7070  00430018             mult $2, $3
7421	7074  00009012             mflo $18
7422	7078  AFB20000             sw $18, 0($29)
7423	707C  00009010             mfhi $18
7424	7080  AFB20000             sw $18, 0($29)
7425	7084  0C002D43             jal increment
7426	7088  3C024CD4             lui $2, 19668
7427	708C  3442CCCB             ori $2, $2, 52427
7428	7090  3C03000C             lui $3, 12
7429	7094  34630000             ori $3, $3, 0
7430	7098  00430018             mult $2, $3
7431	709C  00009012             mflo $18
7432	70A0  AFB20000             sw $18, 0($29)
7433	70A4  00009010             mfhi $18
7434	70A8  AFB20000             sw $18, 0($29)
7435	70AC  0C002D43             jal increment
7436	70B0  3C026773             lui $2, 26483
7437	70B4  3442F337             ori $2, $2, 62263
7438	70B8  3C03000C             lui $3, 12
7439	70BC  34630000             ori $3, $3, 0
7440	70C0  00430018             mult $2, $3
7441	70C4  00009012             mflo $18
7442	70C8  AFB20000             sw $18, 0($29)
7443	70CC  00009010             mfhi $18
7444	70D0  AFB20000             sw $18, 0($29)
7445	70D4  0C002D43             jal increment
7446	70D8  3C02FDDD             lui $2, 64989
7447	70DC  34425EDF             ori $2, $2, 24287
7448	70E0  3C03000C             lui $3, 12
7449	70E4  34630000             ori $3, $3, 0
7450	70E8  00430018             mult $2, $3
7451	70EC  00009012             mflo $18
7452	70F0  AFB20000             sw $18, 0($29)
7453	70F4  00009010             mfhi $18
7454	70F8  AFB20000             sw $18, 0($29)
7455	70FC  0C002D43             jal increment
7456	7100  3C025666             lui $2, 22118
7457	7104  3442BB6C             ori $2, $2, 47980
7458	7108  3C03000C             lui $3, 12
7459	710C  34630000             ori $3, $3, 0
7460	7110  00430018             mult $2, $3
7461	7114  00009012             mflo $18
7462	7118  AFB20000             sw $18, 0($29)
7463	711C  00009010             mfhi $18
7464	7120  AFB20000             sw $18, 0($29)
7465	7124  0C002D43             jal increment
7466	7128  3C02AAAB             lui $2, 43691
7467	712C  344215B3             ori $2, $2, 5555
7468	7130  3C03000C             lui $3, 12
7469	7134  34630000             ori $3, $3, 0
7470	7138  00430018             mult $2, $3
7471	713C  00009012             mflo $18
7472	7140  AFB20000             sw $18, 0($29)
7473	7144  00009010             mfhi $18
7474	7148  AFB20000             sw $18, 0($29)
7475	714C  0C002D43             jal increment
7476	7150  3C020000             lui $2, 0
7477	7154  34420000             ori $2, $2, 0
7478	7158  3C030018             lui $3, 24
7479	715C  34630000             ori $3, $3, 0
7480	7160  00430018             mult $2, $3
7481	7164  00009012             mflo $18
7482	7168  AFB20000             sw $18, 0($29)
7483	716C  00009010             mfhi $18
7484	7170  AFB20000             sw $18, 0($29)
7485	7174  0C002D43             jal increment
7486	7178  3C02AAAA             lui $2, 43690
7487	717C  3442AAAA             ori $2, $2, 43690
7488	7180  3C030018             lui $3, 24
7489	7184  34630000             ori $3, $3, 0
7490	7188  00430018             mult $2, $3
7491	718C  00009012             mflo $18
7492	7190  AFB20000             sw $18, 0($29)
7493	7194  00009010             mfhi $18
7494	7198  AFB20000             sw $18, 0($29)
7495	719C  0C002D43             jal increment
7496	71A0  3C02D34D             lui $2, 54093
7497	71A4  34425555             ori $2, $2, 21845
7498	71A8  3C030018             lui $3, 24
7499	71AC  34630000             ori $3, $3, 0
7500	71B0  00430018             mult $2, $3
7501	71B4  00009012             mflo $18
7502	71B8  AFB20000             sw $18, 0($29)
7503	71BC  00009010             mfhi $18
7504	71C0  AFB20000             sw $18, 0($29)
7505	71C4  0C002D43             jal increment
7506	71C8  3C021999             lui $2, 6553
7507	71CC  3442999A             ori $2, $2, 39322
7508	71D0  3C030018             lui $3, 24
7509	71D4  34630000             ori $3, $3, 0
7510	71D8  00430018             mult $2, $3
7511	71DC  00009012             mflo $18
7512	71E0  AFB20000             sw $18, 0($29)
7513	71E4  00009010             mfhi $18
7514	71E8  AFB20000             sw $18, 0($29)
7515	71EC  0C002D43             jal increment
7516	71F0  3C023536             lui $2, 13622
7517	71F4  34426666             ori $2, $2, 26214
7518	71F8  3C030018             lui $3, 24
7519	71FC  34630000             ori $3, $3, 0
7520	7200  00430018             mult $2, $3
7521	7204  00009012             mflo $18
7522	7208  AFB20000             sw $18, 0($29)
7523	720C  00009010             mfhi $18
7524	7210  AFB20000             sw $18, 0($29)
7525	7214  0C002D43             jal increment
7526	7218  3C024CD4             lui $2, 19668
7527	721C  3442CCCB             ori $2, $2, 52427
7528	7220  3C030018             lui $3, 24
7529	7224  34630000             ori $3, $3, 0
7530	7228  00430018             mult $2, $3
7531	722C  00009012             mflo $18
7532	7230  AFB20000             sw $18, 0($29)
7533	7234  00009010             mfhi $18
7534	7238  AFB20000             sw $18, 0($29)
7535	723C  0C002D43             jal increment
7536	7240  3C026773             lui $2, 26483
7537	7244  3442F337             ori $2, $2, 62263
7538	7248  3C030018             lui $3, 24
7539	724C  34630000             ori $3, $3, 0
7540	7250  00430018             mult $2, $3
7541	7254  00009012             mflo $18
7542	7258  AFB20000             sw $18, 0($29)
7543	725C  00009010             mfhi $18
7544	7260  AFB20000             sw $18, 0($29)
7545	7264  0C002D43             jal increment
7546	7268  3C02FDDD             lui $2, 64989
7547	726C  34425EDF             ori $2, $2, 24287
7548	7270  3C030018             lui $3, 24
7549	7274  34630000             ori $3, $3, 0
7550	7278  00430018             mult $2, $3
7551	727C  00009012             mflo $18
7552	7280  AFB20000             sw $18, 0($29)
7553	7284  00009010             mfhi $18
7554	7288  AFB20000             sw $18, 0($29)
7555	728C  0C002D43             jal increment
7556	7290  3C025666             lui $2, 22118
7557	7294  3442BB6C             ori $2, $2, 47980
7558	7298  3C030018             lui $3, 24
7559	729C  34630000             ori $3, $3, 0
7560	72A0  00430018             mult $2, $3
7561	72A4  00009012             mflo $18
7562	72A8  AFB20000             sw $18, 0($29)
7563	72AC  00009010             mfhi $18
7564	72B0  AFB20000             sw $18, 0($29)
7565	72B4  0C002D43             jal increment
7566	72B8  3C02AAAB             lui $2, 43691
7567	72BC  344215B3             ori $2, $2, 5555
7568	72C0  3C030018             lui $3, 24
7569	72C4  34630000             ori $3, $3, 0
7570	72C8  00430018             mult $2, $3
7571	72CC  00009012             mflo $18
7572	72D0  AFB20000             sw $18, 0($29)
7573	72D4  00009010             mfhi $18
7574	72D8  AFB20000             sw $18, 0($29)
7575	72DC  0C002D43             jal increment
7576	72E0  3C020000             lui $2, 0
7577	72E4  34420000             ori $2, $2, 0
7578	72E8  3C030030             lui $3, 48
7579	72EC  34630000             ori $3, $3, 0
7580	72F0  00430018             mult $2, $3
7581	72F4  00009012             mflo $18
7582	72F8  AFB20000             sw $18, 0($29)
7583	72FC  00009010             mfhi $18
7584	7300  AFB20000             sw $18, 0($29)
7585	7304  0C002D43             jal increment
7586	7308  3C02AAAA             lui $2, 43690
7587	730C  3442AAAA             ori $2, $2, 43690
7588	7310  3C030030             lui $3, 48
7589	7314  34630000             ori $3, $3, 0
7590	7318  00430018             mult $2, $3
7591	731C  00009012             mflo $18
7592	7320  AFB20000             sw $18, 0($29)
7593	7324  00009010             mfhi $18
7594	7328  AFB20000             sw $18, 0($29)
7595	732C  0C002D43             jal increment
7596	7330  3C02D34D             lui $2, 54093
7597	7334  34425555             ori $2, $2, 21845
7598	7338  3C030030             lui $3, 48
7599	733C  34630000             ori $3, $3, 0
7600	7340  00430018             mult $2, $3
7601	7344  00009012             mflo $18
7602	7348  AFB20000             sw $18, 0($29)
7603	734C  00009010             mfhi $18
7604	7350  AFB20000             sw $18, 0($29)
7605	7354  0C002D43             jal increment
7606	7358  3C021999             lui $2, 6553
7607	735C  3442999A             ori $2, $2, 39322
7608	7360  3C030030             lui $3, 48
7609	7364  34630000             ori $3, $3, 0
7610	7368  00430018             mult $2, $3
7611	736C  00009012             mflo $18
7612	7370  AFB20000             sw $18, 0($29)
7613	7374  00009010             mfhi $18
7614	7378  AFB20000             sw $18, 0($29)
7615	737C  0C002D43             jal increment
7616	7380  3C023536             lui $2, 13622
7617	7384  34426666             ori $2, $2, 26214
7618	7388  3C030030             lui $3, 48
7619	738C  34630000             ori $3, $3, 0
7620	7390  00430018             mult $2, $3
7621	7394  00009012             mflo $18
7622	7398  AFB20000             sw $18, 0($29)
7623	739C  00009010             mfhi $18
7624	73A0  AFB20000             sw $18, 0($29)
7625	73A4  0C002D43             jal increment
7626	73A8  3C024CD4             lui $2, 19668
7627	73AC  3442CCCB             ori $2, $2, 52427
7628	73B0  3C030030             lui $3, 48
7629	73B4  34630000             ori $3, $3, 0
7630	73B8  00430018             mult $2, $3
7631	73BC  00009012             mflo $18
7632	73C0  AFB20000             sw $18, 0($29)
7633	73C4  00009010             mfhi $18
7634	73C8  AFB20000             sw $18, 0($29)
7635	73CC  0C002D43             jal increment
7636	73D0  3C026773             lui $2, 26483
7637	73D4  3442F337             ori $2, $2, 62263
7638	73D8  3C030030             lui $3, 48
7639	73DC  34630000             ori $3, $3, 0
7640	73E0  00430018             mult $2, $3
7641	73E4  00009012             mflo $18
7642	73E8  AFB20000             sw $18, 0($29)
7643	73EC  00009010             mfhi $18
7644	73F0  AFB20000             sw $18, 0($29)
7645	73F4  0C002D43             jal increment
7646	73F8  3C02FDDD             lui $2, 64989
7647	73FC  34425EDF             ori $2, $2, 24287
7648	7400  3C030030             lui $3, 48
7649	7404  34630000             ori $3, $3, 0
7650	7408  00430018             mult $2, $3
7651	740C  00009012             mflo $18
7652	7410  AFB20000             sw $18, 0($29)
7653	7414  00009010             mfhi $18
7654	7418  AFB20000             sw $18, 0($29)
7655	741C  0C002D43             jal increment
7656	7420  3C025666             lui $2, 22118
7657	7424  3442BB6C             ori $2, $2, 47980
7658	7428  3C030030             lui $3, 48
7659	742C  34630000             ori $3, $3, 0
7660	7430  00430018             mult $2, $3
7661	7434  00009012             mflo $18
7662	7438  AFB20000             sw $18, 0($29)
7663	743C  00009010             mfhi $18
7664	7440  AFB20000             sw $18, 0($29)
7665	7444  0C002D43             jal increment
7666	7448  3C02AAAB             lui $2, 43691
7667	744C  344215B3             ori $2, $2, 5555
7668	7450  3C030030             lui $3, 48
7669	7454  34630000             ori $3, $3, 0
7670	7458  00430018             mult $2, $3
7671	745C  00009012             mflo $18
7672	7460  AFB20000             sw $18, 0($29)
7673	7464  00009010             mfhi $18
7674	7468  AFB20000             sw $18, 0($29)
7675	746C  0C002D43             jal increment
7676	7470  3C020000             lui $2, 0
7677	7474  34420000             ori $2, $2, 0
7678	7478  3C030060             lui $3, 96
7679	747C  34630000             ori $3, $3, 0
7680	7480  00430018             mult $2, $3
7681	7484  00009012             mflo $18
7682	7488  AFB20000             sw $18, 0($29)
7683	748C  00009010             mfhi $18
7684	7490  AFB20000             sw $18, 0($29)
7685	7494  0C002D43             jal increment
7686	7498  3C02AAAA             lui $2, 43690
7687	749C  3442AAAA             ori $2, $2, 43690
7688	74A0  3C030060             lui $3, 96
7689	74A4  34630000             ori $3, $3, 0
7690	74A8  00430018             mult $2, $3
7691	74AC  00009012             mflo $18
7692	74B0  AFB20000             sw $18, 0($29)
7693	74B4  00009010             mfhi $18
7694	74B8  AFB20000             sw $18, 0($29)
7695	74BC  0C002D43             jal increment
7696	74C0  3C02D34D             lui $2, 54093
7697	74C4  34425555             ori $2, $2, 21845
7698	74C8  3C030060             lui $3, 96
7699	74CC  34630000             ori $3, $3, 0
7700	74D0  00430018             mult $2, $3
7701	74D4  00009012             mflo $18
7702	74D8  AFB20000             sw $18, 0($29)
7703	74DC  00009010             mfhi $18
7704	74E0  AFB20000             sw $18, 0($29)
7705	74E4  0C002D43             jal increment
7706	74E8  3C021999             lui $2, 6553
7707	74EC  3442999A             ori $2, $2, 39322
7708	74F0  3C030060             lui $3, 96
7709	74F4  34630000             ori $3, $3, 0
7710	74F8  00430018             mult $2, $3
7711	74FC  00009012             mflo $18
7712	7500  AFB20000             sw $18, 0($29)
7713	7504  00009010             mfhi $18
7714	7508  AFB20000             sw $18, 0($29)
7715	750C  0C002D43             jal increment
7716	7510  3C023536             lui $2, 13622
7717	7514  34426666             ori $2, $2, 26214
7718	7518  3C030060             lui $3, 96
7719	751C  34630000             ori $3, $3, 0
7720	7520  00430018             mult $2, $3
7721	7524  00009012             mflo $18
7722	7528  AFB20000             sw $18, 0($29)
7723	752C  00009010             mfhi $18
7724	7530  AFB20000             sw $18, 0($29)
7725	7534  0C002D43             jal increment
7726	7538  3C024CD4             lui $2, 19668
7727	753C  3442CCCB             ori $2, $2, 52427
7728	7540  3C030060             lui $3, 96
7729	7544  34630000             ori $3, $3, 0
7730	7548  00430018             mult $2, $3
7731	754C  00009012             mflo $18
7732	7550  AFB20000             sw $18, 0($29)
7733	7554  00009010             mfhi $18
7734	7558  AFB20000             sw $18, 0($29)
7735	755C  0C002D43             jal increment
7736	7560  3C026773             lui $2, 26483
7737	7564  3442F337             ori $2, $2, 62263
7738	7568  3C030060             lui $3, 96
7739	756C  34630000             ori $3, $3, 0
7740	7570  00430018             mult $2, $3
7741	7574  00009012             mflo $18
7742	7578  AFB20000             sw $18, 0($29)
7743	757C  00009010             mfhi $18
7744	7580  AFB20000             sw $18, 0($29)
7745	7584  0C002D43             jal increment
7746	7588  3C02FDDD             lui $2, 64989
7747	758C  34425EDF             ori $2, $2, 24287
7748	7590  3C030060             lui $3, 96
7749	7594  34630000             ori $3, $3, 0
7750	7598  00430018             mult $2, $3
7751	759C  00009012             mflo $18
7752	75A0  AFB20000             sw $18, 0($29)
7753	75A4  00009010             mfhi $18
7754	75A8  AFB20000             sw $18, 0($29)
7755	75AC  0C002D43             jal increment
7756	75B0  3C025666             lui $2, 22118
7757	75B4  3442BB6C             ori $2, $2, 47980
7758	75B8  3C030060             lui $3, 96
7759	75BC  34630000             ori $3, $3, 0
7760	75C0  00430018             mult $2, $3
7761	75C4  00009012             mflo $18
7762	75C8  AFB20000             sw $18, 0($29)
7763	75CC  00009010             mfhi $18
7764	75D0  AFB20000             sw $18, 0($29)
7765	75D4  0C002D43             jal increment
7766	75D8  3C02AAAB             lui $2, 43691
7767	75DC  344215B3             ori $2, $2, 5555
7768	75E0  3C030060             lui $3, 96
7769	75E4  34630000             ori $3, $3, 0
7770	75E8  00430018             mult $2, $3
7771	75EC  00009012             mflo $18
7772	75F0  AFB20000             sw $18, 0($29)
7773	75F4  00009010             mfhi $18
7774	75F8  AFB20000             sw $18, 0($29)
7775	75FC  0C002D43             jal increment
7776	7600  3C020000             lui $2, 0
7777	7604  34420000             ori $2, $2, 0
7778	7608  3C0300C0             lui $3, 192
7779	760C  34630000             ori $3, $3, 0
7780	7610  00430018             mult $2, $3
7781	7614  00009012             mflo $18
7782	7618  AFB20000             sw $18, 0($29)
7783	761C  00009010             mfhi $18
7784	7620  AFB20000             sw $18, 0($29)
7785	7624  0C002D43             jal increment
7786	7628  3C02AAAA             lui $2, 43690
7787	762C  3442AAAA             ori $2, $2, 43690
7788	7630  3C0300C0             lui $3, 192
7789	7634  34630000             ori $3, $3, 0
7790	7638  00430018             mult $2, $3
7791	763C  00009012             mflo $18
7792	7640  AFB20000             sw $18, 0($29)
7793	7644  00009010             mfhi $18
7794	7648  AFB20000             sw $18, 0($29)
7795	764C  0C002D43             jal increment
7796	7650  3C02D34D             lui $2, 54093
7797	7654  34425555             ori $2, $2, 21845
7798	7658  3C0300C0             lui $3, 192
7799	765C  34630000             ori $3, $3, 0
7800	7660  00430018             mult $2, $3
7801	7664  00009012             mflo $18
7802	7668  AFB20000             sw $18, 0($29)
7803	766C  00009010             mfhi $18
7804	7670  AFB20000             sw $18, 0($29)
7805	7674  0C002D43             jal increment
7806	7678  3C021999             lui $2, 6553
7807	767C  3442999A             ori $2, $2, 39322
7808	7680  3C0300C0             lui $3, 192
7809	7684  34630000             ori $3, $3, 0
7810	7688  00430018             mult $2, $3
7811	768C  00009012             mflo $18
7812	7690  AFB20000             sw $18, 0($29)
7813	7694  00009010             mfhi $18
7814	7698  AFB20000             sw $18, 0($29)
7815	769C  0C002D43             jal increment
7816	76A0  3C023536             lui $2, 13622
7817	76A4  34426666             ori $2, $2, 26214
7818	76A8  3C0300C0             lui $3, 192
7819	76AC  34630000             ori $3, $3, 0
7820	76B0  00430018             mult $2, $3
7821	76B4  00009012             mflo $18
7822	76B8  AFB20000             sw $18, 0($29)
7823	76BC  00009010             mfhi $18
7824	76C0  AFB20000             sw $18, 0($29)
7825	76C4  0C002D43             jal increment
7826	76C8  3C024CD4             lui $2, 19668
7827	76CC  3442CCCB             ori $2, $2, 52427
7828	76D0  3C0300C0             lui $3, 192
7829	76D4  34630000             ori $3, $3, 0
7830	76D8  00430018             mult $2, $3
7831	76DC  00009012             mflo $18
7832	76E0  AFB20000             sw $18, 0($29)
7833	76E4  00009010             mfhi $18
7834	76E8  AFB20000             sw $18, 0($29)
7835	76EC  0C002D43             jal increment
7836	76F0  3C026773             lui $2, 26483
7837	76F4  3442F337             ori $2, $2, 62263
7838	76F8  3C0300C0             lui $3, 192
7839	76FC  34630000             ori $3, $3, 0
7840	7700  00430018             mult $2, $3
7841	7704  00009012             mflo $18
7842	7708  AFB20000             sw $18, 0($29)
7843	770C  00009010             mfhi $18
7844	7710  AFB20000             sw $18, 0($29)
7845	7714  0C002D43             jal increment
7846	7718  3C02FDDD             lui $2, 64989
7847	771C  34425EDF             ori $2, $2, 24287
7848	7720  3C0300C0             lui $3, 192
7849	7724  34630000             ori $3, $3, 0
7850	7728  00430018             mult $2, $3
7851	772C  00009012             mflo $18
7852	7730  AFB20000             sw $18, 0($29)
7853	7734  00009010             mfhi $18
7854	7738  AFB20000             sw $18, 0($29)
7855	773C  0C002D43             jal increment
7856	7740  3C025666             lui $2, 22118
7857	7744  3442BB6C             ori $2, $2, 47980
7858	7748  3C0300C0             lui $3, 192
7859	774C  34630000             ori $3, $3, 0
7860	7750  00430018             mult $2, $3
7861	7754  00009012             mflo $18
7862	7758  AFB20000             sw $18, 0($29)
7863	775C  00009010             mfhi $18
7864	7760  AFB20000             sw $18, 0($29)
7865	7764  0C002D43             jal increment
7866	7768  3C02AAAB             lui $2, 43691
7867	776C  344215B3             ori $2, $2, 5555
7868	7770  3C0300C0             lui $3, 192
7869	7774  34630000             ori $3, $3, 0
7870	7778  00430018             mult $2, $3
7871	777C  00009012             mflo $18
7872	7780  AFB20000             sw $18, 0($29)
7873	7784  00009010             mfhi $18
7874	7788  AFB20000             sw $18, 0($29)
7875	778C  0C002D43             jal increment
7876	7790  3C020000             lui $2, 0
7877	7794  34420000             ori $2, $2, 0
7878	7798  3C030180             lui $3, 384
7879	779C  34630000             ori $3, $3, 0
7880	77A0  00430018             mult $2, $3
7881	77A4  00009012             mflo $18
7882	77A8  AFB20000             sw $18, 0($29)
7883	77AC  00009010             mfhi $18
7884	77B0  AFB20000             sw $18, 0($29)
7885	77B4  0C002D43             jal increment
7886	77B8  3C02AAAA             lui $2, 43690
7887	77BC  3442AAAA             ori $2, $2, 43690
7888	77C0  3C030180             lui $3, 384
7889	77C4  34630000             ori $3, $3, 0
7890	77C8  00430018             mult $2, $3
7891	77CC  00009012             mflo $18
7892	77D0  AFB20000             sw $18, 0($29)
7893	77D4  00009010             mfhi $18
7894	77D8  AFB20000             sw $18, 0($29)
7895	77DC  0C002D43             jal increment
7896	77E0  3C02D34D             lui $2, 54093
7897	77E4  34425555             ori $2, $2, 21845
7898	77E8  3C030180             lui $3, 384
7899	77EC  34630000             ori $3, $3, 0
7900	77F0  00430018             mult $2, $3
7901	77F4  00009012             mflo $18
7902	77F8  AFB20000             sw $18, 0($29)
7903	77FC  00009010             mfhi $18
7904	7800  AFB20000             sw $18, 0($29)
7905	7804  0C002D43             jal increment
7906	7808  3C021999             lui $2, 6553
7907	780C  3442999A             ori $2, $2, 39322
7908	7810  3C030180             lui $3, 384
7909	7814  34630000             ori $3, $3, 0
7910	7818  00430018             mult $2, $3
7911	781C  00009012             mflo $18
7912	7820  AFB20000             sw $18, 0($29)
7913	7824  00009010             mfhi $18
7914	7828  AFB20000             sw $18, 0($29)
7915	782C  0C002D43             jal increment
7916	7830  3C023536             lui $2, 13622
7917	7834  34426666             ori $2, $2, 26214
7918	7838  3C030180             lui $3, 384
7919	783C  34630000             ori $3, $3, 0
7920	7840  00430018             mult $2, $3
7921	7844  00009012             mflo $18
7922	7848  AFB20000             sw $18, 0($29)
7923	784C  00009010             mfhi $18
7924	7850  AFB20000             sw $18, 0($29)
7925	7854  0C002D43             jal increment
7926	7858  3C024CD4             lui $2, 19668
7927	785C  3442CCCB             ori $2, $2, 52427
7928	7860  3C030180             lui $3, 384
7929	7864  34630000             ori $3, $3, 0
7930	7868  00430018             mult $2, $3
7931	786C  00009012             mflo $18
7932	7870  AFB20000             sw $18, 0($29)
7933	7874  00009010             mfhi $18
7934	7878  AFB20000             sw $18, 0($29)
7935	787C  0C002D43             jal increment
7936	7880  3C026773             lui $2, 26483
7937	7884  3442F337             ori $2, $2, 62263
7938	7888  3C030180             lui $3, 384
7939	788C  34630000             ori $3, $3, 0
7940	7890  00430018             mult $2, $3
7941	7894  00009012             mflo $18
7942	7898  AFB20000             sw $18, 0($29)
7943	789C  00009010             mfhi $18
7944	78A0  AFB20000             sw $18, 0($29)
7945	78A4  0C002D43             jal increment
7946	78A8  3C02FDDD             lui $2, 64989
7947	78AC  34425EDF             ori $2, $2, 24287
7948	78B0  3C030180             lui $3, 384
7949	78B4  34630000             ori $3, $3, 0
7950	78B8  00430018             mult $2, $3
7951	78BC  00009012             mflo $18
7952	78C0  AFB20000             sw $18, 0($29)
7953	78C4  00009010             mfhi $18
7954	78C8  AFB20000             sw $18, 0($29)
7955	78CC  0C002D43             jal increment
7956	78D0  3C025666             lui $2, 22118
7957	78D4  3442BB6C             ori $2, $2, 47980
7958	78D8  3C030180             lui $3, 384
7959	78DC  34630000             ori $3, $3, 0
7960	78E0  00430018             mult $2, $3
7961	78E4  00009012             mflo $18
7962	78E8  AFB20000             sw $18, 0($29)
7963	78EC  00009010             mfhi $18
7964	78F0  AFB20000             sw $18, 0($29)
7965	78F4  0C002D43             jal increment
7966	78F8  3C02AAAB             lui $2, 43691
7967	78FC  344215B3             ori $2, $2, 5555
7968	7900  3C030180             lui $3, 384
7969	7904  34630000             ori $3, $3, 0
7970	7908  00430018             mult $2, $3
7971	790C  00009012             mflo $18
7972	7910  AFB20000             sw $18, 0($29)
7973	7914  00009010             mfhi $18
7974	7918  AFB20000             sw $18, 0($29)
7975	791C  0C002D43             jal increment
7976	7920  3C020000             lui $2, 0
7977	7924  34420000             ori $2, $2, 0
7978	7928  3C030300             lui $3, 768
7979	792C  34630000             ori $3, $3, 0
7980	7930  00430018             mult $2, $3
7981	7934  00009012             mflo $18
7982	7938  AFB20000             sw $18, 0($29)
7983	793C  00009010             mfhi $18
7984	7940  AFB20000             sw $18, 0($29)
7985	7944  0C002D43             jal increment
7986	7948  3C02AAAA             lui $2, 43690
7987	794C  3442AAAA             ori $2, $2, 43690
7988	7950  3C030300             lui $3, 768
7989	7954  34630000             ori $3, $3, 0
7990	7958  00430018             mult $2, $3
7991	795C  00009012             mflo $18
7992	7960  AFB20000             sw $18, 0($29)
7993	7964  00009010             mfhi $18
7994	7968  AFB20000             sw $18, 0($29)
7995	796C  0C002D43             jal increment
7996	7970  3C02D34D             lui $2, 54093
7997	7974  34425555             ori $2, $2, 21845
7998	7978  3C030300             lui $3, 768
7999	797C  34630000             ori $3, $3, 0
8000	7980  00430018             mult $2, $3
8001	7984  00009012             mflo $18
8002	7988  AFB20000             sw $18, 0($29)
8003	798C  00009010             mfhi $18
8004	7990  AFB20000             sw $18, 0($29)
8005	7994  0C002D43             jal increment
8006	7998  3C021999             lui $2, 6553
8007	799C  3442999A             ori $2, $2, 39322
8008	79A0  3C030300             lui $3, 768
8009	79A4  34630000             ori $3, $3, 0
8010	79A8  00430018             mult $2, $3
8011	79AC  00009012             mflo $18
8012	79B0  AFB20000             sw $18, 0($29)
8013	79B4  00009010             mfhi $18
8014	79B8  AFB20000             sw $18, 0($29)
8015	79BC  0C002D43             jal increment
8016	79C0  3C023536             lui $2, 13622
8017	79C4  34426666             ori $2, $2, 26214
8018	79C8  3C030300             lui $3, 768
8019	79CC  34630000             ori $3, $3, 0
8020	79D0  00430018             mult $2, $3
8021	79D4  00009012             mflo $18
8022	79D8  AFB20000             sw $18, 0($29)
8023	79DC  00009010             mfhi $18
8024	79E0  AFB20000             sw $18, 0($29)
8025	79E4  0C002D43             jal increment
8026	79E8  3C024CD4             lui $2, 19668
8027	79EC  3442CCCB             ori $2, $2, 52427
8028	79F0  3C030300             lui $3, 768
8029	79F4  34630000             ori $3, $3, 0
8030	79F8  00430018             mult $2, $3
8031	79FC  00009012             mflo $18
8032	7A00  AFB20000             sw $18, 0($29)
8033	7A04  00009010             mfhi $18
8034	7A08  AFB20000             sw $18, 0($29)
8035	7A0C  0C002D43             jal increment
8036	7A10  3C026773             lui $2, 26483
8037	7A14  3442F337             ori $2, $2, 62263
8038	7A18  3C030300             lui $3, 768
8039	7A1C  34630000             ori $3, $3, 0
8040	7A20  00430018             mult $2, $3
8041	7A24  00009012             mflo $18
8042	7A28  AFB20000             sw $18, 0($29)
8043	7A2C  00009010             mfhi $18
8044	7A30  AFB20000             sw $18, 0($29)
8045	7A34  0C002D43             jal increment
8046	7A38  3C02FDDD             lui $2, 64989
8047	7A3C  34425EDF             ori $2, $2, 24287
8048	7A40  3C030300             lui $3, 768
8049	7A44  34630000             ori $3, $3, 0
8050	7A48  00430018             mult $2, $3
8051	7A4C  00009012             mflo $18
8052	7A50  AFB20000             sw $18, 0($29)
8053	7A54  00009010             mfhi $18
8054	7A58  AFB20000             sw $18, 0($29)
8055	7A5C  0C002D43             jal increment
8056	7A60  3C025666             lui $2, 22118
8057	7A64  3442BB6C             ori $2, $2, 47980
8058	7A68  3C030300             lui $3, 768
8059	7A6C  34630000             ori $3, $3, 0
8060	7A70  00430018             mult $2, $3
8061	7A74  00009012             mflo $18
8062	7A78  AFB20000             sw $18, 0($29)
8063	7A7C  00009010             mfhi $18
8064	7A80  AFB20000             sw $18, 0($29)
8065	7A84  0C002D43             jal increment
8066	7A88  3C02AAAB             lui $2, 43691
8067	7A8C  344215B3             ori $2, $2, 5555
8068	7A90  3C030300             lui $3, 768
8069	7A94  34630000             ori $3, $3, 0
8070	7A98  00430018             mult $2, $3
8071	7A9C  00009012             mflo $18
8072	7AA0  AFB20000             sw $18, 0($29)
8073	7AA4  00009010             mfhi $18
8074	7AA8  AFB20000             sw $18, 0($29)
8075	7AAC  0C002D43             jal increment
8076	7AB0  3C020000             lui $2, 0
8077	7AB4  34420000             ori $2, $2, 0
8078	7AB8  3C030600             lui $3, 1536
8079	7ABC  34630000             ori $3, $3, 0
8080	7AC0  00430018             mult $2, $3
8081	7AC4  00009012             mflo $18
8082	7AC8  AFB20000             sw $18, 0($29)
8083	7ACC  00009010             mfhi $18
8084	7AD0  AFB20000             sw $18, 0($29)
8085	7AD4  0C002D43             jal increment
8086	7AD8  3C02AAAA             lui $2, 43690
8087	7ADC  3442AAAA             ori $2, $2, 43690
8088	7AE0  3C030600             lui $3, 1536
8089	7AE4  34630000             ori $3, $3, 0
8090	7AE8  00430018             mult $2, $3
8091	7AEC  00009012             mflo $18
8092	7AF0  AFB20000             sw $18, 0($29)
8093	7AF4  00009010             mfhi $18
8094	7AF8  AFB20000             sw $18, 0($29)
8095	7AFC  0C002D43             jal increment
8096	7B00  3C02D34D             lui $2, 54093
8097	7B04  34425555             ori $2, $2, 21845
8098	7B08  3C030600             lui $3, 1536
8099	7B0C  34630000             ori $3, $3, 0
8100	7B10  00430018             mult $2, $3
8101	7B14  00009012             mflo $18
8102	7B18  AFB20000             sw $18, 0($29)
8103	7B1C  00009010             mfhi $18
8104	7B20  AFB20000             sw $18, 0($29)
8105	7B24  0C002D43             jal increment
8106	7B28  3C021999             lui $2, 6553
8107	7B2C  3442999A             ori $2, $2, 39322
8108	7B30  3C030600             lui $3, 1536
8109	7B34  34630000             ori $3, $3, 0
8110	7B38  00430018             mult $2, $3
8111	7B3C  00009012             mflo $18
8112	7B40  AFB20000             sw $18, 0($29)
8113	7B44  00009010             mfhi $18
8114	7B48  AFB20000             sw $18, 0($29)
8115	7B4C  0C002D43             jal increment
8116	7B50  3C023536             lui $2, 13622
8117	7B54  34426666             ori $2, $2, 26214
8118	7B58  3C030600             lui $3, 1536
8119	7B5C  34630000             ori $3, $3, 0
8120	7B60  00430018             mult $2, $3
8121	7B64  00009012             mflo $18
8122	7B68  AFB20000             sw $18, 0($29)
8123	7B6C  00009010             mfhi $18
8124	7B70  AFB20000             sw $18, 0($29)
8125	7B74  0C002D43             jal increment
8126	7B78  3C024CD4             lui $2, 19668
8127	7B7C  3442CCCB             ori $2, $2, 52427
8128	7B80  3C030600             lui $3, 1536
8129	7B84  34630000             ori $3, $3, 0
8130	7B88  00430018             mult $2, $3
8131	7B8C  00009012             mflo $18
8132	7B90  AFB20000             sw $18, 0($29)
8133	7B94  00009010             mfhi $18
8134	7B98  AFB20000             sw $18, 0($29)
8135	7B9C  0C002D43             jal increment
8136	7BA0  3C026773             lui $2, 26483
8137	7BA4  3442F337             ori $2, $2, 62263
8138	7BA8  3C030600             lui $3, 1536
8139	7BAC  34630000             ori $3, $3, 0
8140	7BB0  00430018             mult $2, $3
8141	7BB4  00009012             mflo $18
8142	7BB8  AFB20000             sw $18, 0($29)
8143	7BBC  00009010             mfhi $18
8144	7BC0  AFB20000             sw $18, 0($29)
8145	7BC4  0C002D43             jal increment
8146	7BC8  3C02FDDD             lui $2, 64989
8147	7BCC  34425EDF             ori $2, $2, 24287
8148	7BD0  3C030600             lui $3, 1536
8149	7BD4  34630000             ori $3, $3, 0
8150	7BD8  00430018             mult $2, $3
8151	7BDC  00009012             mflo $18
8152	7BE0  AFB20000             sw $18, 0($29)
8153	7BE4  00009010             mfhi $18
8154	7BE8  AFB20000             sw $18, 0($29)
8155	7BEC  0C002D43             jal increment
8156	7BF0  3C025666             lui $2, 22118
8157	7BF4  3442BB6C             ori $2, $2, 47980
8158	7BF8  3C030600             lui $3, 1536
8159	7BFC  34630000             ori $3, $3, 0
8160	7C00  00430018             mult $2, $3
8161	7C04  00009012             mflo $18
8162	7C08  AFB20000             sw $18, 0($29)
8163	7C0C  00009010             mfhi $18
8164	7C10  AFB20000             sw $18, 0($29)
8165	7C14  0C002D43             jal increment
8166	7C18  3C02AAAB             lui $2, 43691
8167	7C1C  344215B3             ori $2, $2, 5555
8168	7C20  3C030600             lui $3, 1536
8169	7C24  34630000             ori $3, $3, 0
8170	7C28  00430018             mult $2, $3
8171	7C2C  00009012             mflo $18
8172	7C30  AFB20000             sw $18, 0($29)
8173	7C34  00009010             mfhi $18
8174	7C38  AFB20000             sw $18, 0($29)
8175	7C3C  0C002D43             jal increment
8176	7C40  3C020000             lui $2, 0
8177	7C44  34420000             ori $2, $2, 0
8178	7C48  3C030C00             lui $3, 3072
8179	7C4C  34630000             ori $3, $3, 0
8180	7C50  00430018             mult $2, $3
8181	7C54  00009012             mflo $18
8182	7C58  AFB20000             sw $18, 0($29)
8183	7C5C  00009010             mfhi $18
8184	7C60  AFB20000             sw $18, 0($29)
8185	7C64  0C002D43             jal increment
8186	7C68  3C02AAAA             lui $2, 43690
8187	7C6C  3442AAAA             ori $2, $2, 43690
8188	7C70  3C030C00             lui $3, 3072
8189	7C74  34630000             ori $3, $3, 0
8190	7C78  00430018             mult $2, $3
8191	7C7C  00009012             mflo $18
8192	7C80  AFB20000             sw $18, 0($29)
8193	7C84  00009010             mfhi $18
8194	7C88  AFB20000             sw $18, 0($29)
8195	7C8C  0C002D43             jal increment
8196	7C90  3C02D34D             lui $2, 54093
8197	7C94  34425555             ori $2, $2, 21845
8198	7C98  3C030C00             lui $3, 3072
8199	7C9C  34630000             ori $3, $3, 0
8200	7CA0  00430018             mult $2, $3
8201	7CA4  00009012             mflo $18
8202	7CA8  AFB20000             sw $18, 0($29)
8203	7CAC  00009010             mfhi $18
8204	7CB0  AFB20000             sw $18, 0($29)
8205	7CB4  0C002D43             jal increment
8206	7CB8  3C021999             lui $2, 6553
8207	7CBC  3442999A             ori $2, $2, 39322
8208	7CC0  3C030C00             lui $3, 3072
8209	7CC4  34630000             ori $3, $3, 0
8210	7CC8  00430018             mult $2, $3
8211	7CCC  00009012             mflo $18
8212	7CD0  AFB20000             sw $18, 0($29)
8213	7CD4  00009010             mfhi $18
8214	7CD8  AFB20000             sw $18, 0($29)
8215	7CDC  0C002D43             jal increment
8216	7CE0  3C023536             lui $2, 13622
8217	7CE4  34426666             ori $2, $2, 26214
8218	7CE8  3C030C00             lui $3, 3072
8219	7CEC  34630000             ori $3, $3, 0
8220	7CF0  00430018             mult $2, $3
8221	7CF4  00009012             mflo $18
8222	7CF8  AFB20000             sw $18, 0($29)
8223	7CFC  00009010             mfhi $18
8224	7D00  AFB20000             sw $18, 0($29)
8225	7D04  0C002D43             jal increment
8226	7D08  3C024CD4             lui $2, 19668
8227	7D0C  3442CCCB             ori $2, $2, 52427
8228	7D10  3C030C00             lui $3, 3072
8229	7D14  34630000             ori $3, $3, 0
8230	7D18  00430018             mult $2, $3
8231	7D1C  00009012             mflo $18
8232	7D20  AFB20000             sw $18, 0($29)
8233	7D24  00009010             mfhi $18
8234	7D28  AFB20000             sw $18, 0($29)
8235	7D2C  0C002D43             jal increment
8236	7D30  3C026773             lui $2, 26483
8237	7D34  3442F337             ori $2, $2, 62263
8238	7D38  3C030C00             lui $3, 3072
8239	7D3C  34630000             ori $3, $3, 0
8240	7D40  00430018             mult $2, $3
8241	7D44  00009012             mflo $18
8242	7D48  AFB20000             sw $18, 0($29)
8243	7D4C  00009010             mfhi $18
8244	7D50  AFB20000             sw $18, 0($29)
8245	7D54  0C002D43             jal increment
8246	7D58  3C02FDDD             lui $2, 64989
8247	7D5C  34425EDF             ori $2, $2, 24287
8248	7D60  3C030C00             lui $3, 3072
8249	7D64  34630000             ori $3, $3, 0
8250	7D68  00430018             mult $2, $3
8251	7D6C  00009012             mflo $18
8252	7D70  AFB20000             sw $18, 0($29)
8253	7D74  00009010             mfhi $18
8254	7D78  AFB20000             sw $18, 0($29)
8255	7D7C  0C002D43             jal increment
8256	7D80  3C025666             lui $2, 22118
8257	7D84  3442BB6C             ori $2, $2, 47980
8258	7D88  3C030C00             lui $3, 3072
8259	7D8C  34630000             ori $3, $3, 0
8260	7D90  00430018             mult $2, $3
8261	7D94  00009012             mflo $18
8262	7D98  AFB20000             sw $18, 0($29)
8263	7D9C  00009010             mfhi $18
8264	7DA0  AFB20000             sw $18, 0($29)
8265	7DA4  0C002D43             jal increment
8266	7DA8  3C02AAAB             lui $2, 43691
8267	7DAC  344215B3             ori $2, $2, 5555
8268	7DB0  3C030C00             lui $3, 3072
8269	7DB4  34630000             ori $3, $3, 0
8270	7DB8  00430018             mult $2, $3
8271	7DBC  00009012             mflo $18
8272	7DC0  AFB20000             sw $18, 0($29)
8273	7DC4  00009010             mfhi $18
8274	7DC8  AFB20000             sw $18, 0($29)
8275	7DCC  0C002D43             jal increment
8276	7DD0  3C020000             lui $2, 0
8277	7DD4  34420000             ori $2, $2, 0
8278	7DD8  3C031800             lui $3, 6144
8279	7DDC  34630000             ori $3, $3, 0
8280	7DE0  00430018             mult $2, $3
8281	7DE4  00009012             mflo $18
8282	7DE8  AFB20000             sw $18, 0($29)
8283	7DEC  00009010             mfhi $18
8284	7DF0  AFB20000             sw $18, 0($29)
8285	7DF4  0C002D43             jal increment
8286	7DF8  3C02AAAA             lui $2, 43690
8287	7DFC  3442AAAA             ori $2, $2, 43690
8288	7E00  3C031800             lui $3, 6144
8289	7E04  34630000             ori $3, $3, 0
8290	7E08  00430018             mult $2, $3
8291	7E0C  00009012             mflo $18
8292	7E10  AFB20000             sw $18, 0($29)
8293	7E14  00009010             mfhi $18
8294	7E18  AFB20000             sw $18, 0($29)
8295	7E1C  0C002D43             jal increment
8296	7E20  3C02D34D             lui $2, 54093
8297	7E24  34425555             ori $2, $2, 21845
8298	7E28  3C031800             lui $3, 6144
8299	7E2C  34630000             ori $3, $3, 0
8300	7E30  00430018             mult $2, $3
8301	7E34  00009012             mflo $18
8302	7E38  AFB20000             sw $18, 0($29)
8303	7E3C  00009010             mfhi $18
8304	7E40  AFB20000             sw $18, 0($29)
8305	7E44  0C002D43             jal increment
8306	7E48  3C021999             lui $2, 6553
8307	7E4C  3442999A             ori $2, $2, 39322
8308	7E50  3C031800             lui $3, 6144
8309	7E54  34630000             ori $3, $3, 0
8310	7E58  00430018             mult $2, $3
8311	7E5C  00009012             mflo $18
8312	7E60  AFB20000             sw $18, 0($29)
8313	7E64  00009010             mfhi $18
8314	7E68  AFB20000             sw $18, 0($29)
8315	7E6C  0C002D43             jal increment
8316	7E70  3C023536             lui $2, 13622
8317	7E74  34426666             ori $2, $2, 26214
8318	7E78  3C031800             lui $3, 6144
8319	7E7C  34630000             ori $3, $3, 0
8320	7E80  00430018             mult $2, $3
8321	7E84  00009012             mflo $18
8322	7E88  AFB20000             sw $18, 0($29)
8323	7E8C  00009010             mfhi $18
8324	7E90  AFB20000             sw $18, 0($29)
8325	7E94  0C002D43             jal increment
8326	7E98  3C024CD4             lui $2, 19668
8327	7E9C  3442CCCB             ori $2, $2, 52427
8328	7EA0  3C031800             lui $3, 6144
8329	7EA4  34630000             ori $3, $3, 0
8330	7EA8  00430018             mult $2, $3
8331	7EAC  00009012             mflo $18
8332	7EB0  AFB20000             sw $18, 0($29)
8333	7EB4  00009010             mfhi $18
8334	7EB8  AFB20000             sw $18, 0($29)
8335	7EBC  0C002D43             jal increment
8336	7EC0  3C026773             lui $2, 26483
8337	7EC4  3442F337             ori $2, $2, 62263
8338	7EC8  3C031800             lui $3, 6144
8339	7ECC  34630000             ori $3, $3, 0
8340	7ED0  00430018             mult $2, $3
8341	7ED4  00009012             mflo $18
8342	7ED8  AFB20000             sw $18, 0($29)
8343	7EDC  00009010             mfhi $18
8344	7EE0  AFB20000             sw $18, 0($29)
8345	7EE4  0C002D43             jal increment
8346	7EE8  3C02FDDD             lui $2, 64989
8347	7EEC  34425EDF             ori $2, $2, 24287
8348	7EF0  3C031800             lui $3, 6144
8349	7EF4  34630000             ori $3, $3, 0
8350	7EF8  00430018             mult $2, $3
8351	7EFC  00009012             mflo $18
8352	7F00  AFB20000             sw $18, 0($29)
8353	7F04  00009010             mfhi $18
8354	7F08  AFB20000             sw $18, 0($29)
8355	7F0C  0C002D43             jal increment
8356	7F10  3C025666             lui $2, 22118
8357	7F14  3442BB6C             ori $2, $2, 47980
8358	7F18  3C031800             lui $3, 6144
8359	7F1C  34630000             ori $3, $3, 0
8360	7F20  00430018             mult $2, $3
8361	7F24  00009012             mflo $18
8362	7F28  AFB20000             sw $18, 0($29)
8363	7F2C  00009010             mfhi $18
8364	7F30  AFB20000             sw $18, 0($29)
8365	7F34  0C002D43             jal increment
8366	7F38  3C02AAAB             lui $2, 43691
8367	7F3C  344215B3             ori $2, $2, 5555
8368	7F40  3C031800             lui $3, 6144
8369	7F44  34630000             ori $3, $3, 0
8370	7F48  00430018             mult $2, $3
8371	7F4C  00009012             mflo $18
8372	7F50  AFB20000             sw $18, 0($29)
8373	7F54  00009010             mfhi $18
8374	7F58  AFB20000             sw $18, 0($29)
8375	7F5C  0C002D43             jal increment
8376	7F60  3C020000             lui $2, 0
8377	7F64  34420000             ori $2, $2, 0
8378	7F68  3C033000             lui $3, 12288
8379	7F6C  34630000             ori $3, $3, 0
8380	7F70  00430018             mult $2, $3
8381	7F74  00009012             mflo $18
8382	7F78  AFB20000             sw $18, 0($29)
8383	7F7C  00009010             mfhi $18
8384	7F80  AFB20000             sw $18, 0($29)
8385	7F84  0C002D43             jal increment
8386	7F88  3C02AAAA             lui $2, 43690
8387	7F8C  3442AAAA             ori $2, $2, 43690
8388	7F90  3C033000             lui $3, 12288
8389	7F94  34630000             ori $3, $3, 0
8390	7F98  00430018             mult $2, $3
8391	7F9C  00009012             mflo $18
8392	7FA0  AFB20000             sw $18, 0($29)
8393	7FA4  00009010             mfhi $18
8394	7FA8  AFB20000             sw $18, 0($29)
8395	7FAC  0C002D43             jal increment
8396	7FB0  3C02D34D             lui $2, 54093
8397	7FB4  34425555             ori $2, $2, 21845
8398	7FB8  3C033000             lui $3, 12288
8399	7FBC  34630000             ori $3, $3, 0
8400	7FC0  00430018             mult $2, $3
8401	7FC4  00009012             mflo $18
8402	7FC8  AFB20000             sw $18, 0($29)
8403	7FCC  00009010             mfhi $18
8404	7FD0  AFB20000             sw $18, 0($29)
8405	7FD4  0C002D43             jal increment
8406	7FD8  3C021999             lui $2, 6553
8407	7FDC  3442999A             ori $2, $2, 39322
8408	7FE0  3C033000             lui $3, 12288
8409	7FE4  34630000             ori $3, $3, 0
8410	7FE8  00430018             mult $2, $3
8411	7FEC  00009012             mflo $18
8412	7FF0  AFB20000             sw $18, 0($29)
8413	7FF4  00009010             mfhi $18
8414	7FF8  AFB20000             sw $18, 0($29)
8415	7FFC  0C002D43             jal increment
8416	8000  3C023536             lui $2, 13622
8417	8004  34426666             ori $2, $2, 26214
8418	8008  3C033000             lui $3, 12288
8419	800C  34630000             ori $3, $3, 0
8420	8010  00430018             mult $2, $3
8421	8014  00009012             mflo $18
8422	8018  AFB20000             sw $18, 0($29)
8423	801C  00009010             mfhi $18
8424	8020  AFB20000             sw $18, 0($29)
8425	8024  0C002D43             jal increment
8426	8028  3C024CD4             lui $2, 19668
8427	802C  3442CCCB             ori $2, $2, 52427
8428	8030  3C033000             lui $3, 12288
8429	8034  34630000             ori $3, $3, 0
8430	8038  00430018             mult $2, $3
8431	803C  00009012             mflo $18
8432	8040  AFB20000             sw $18, 0($29)
8433	8044  00009010             mfhi $18
8434	8048  AFB20000             sw $18, 0($29)
8435	804C  0C002D43             jal increment
8436	8050  3C026773             lui $2, 26483
8437	8054  3442F337             ori $2, $2, 62263
8438	8058  3C033000             lui $3, 12288
8439	805C  34630000             ori $3, $3, 0
8440	8060  00430018             mult $2, $3
8441	8064  00009012             mflo $18
8442	8068  AFB20000             sw $18, 0($29)
8443	806C  00009010             mfhi $18
8444	8070  AFB20000             sw $18, 0($29)
8445	8074  0C002D43             jal increment
8446	8078  3C02FDDD             lui $2, 64989
8447	807C  34425EDF             ori $2, $2, 24287
8448	8080  3C033000             lui $3, 12288
8449	8084  34630000             ori $3, $3, 0
8450	8088  00430018             mult $2, $3
8451	808C  00009012             mflo $18
8452	8090  AFB20000             sw $18, 0($29)
8453	8094  00009010             mfhi $18
8454	8098  AFB20000             sw $18, 0($29)
8455	809C  0C002D43             jal increment
8456	80A0  3C025666             lui $2, 22118
8457	80A4  3442BB6C             ori $2, $2, 47980
8458	80A8  3C033000             lui $3, 12288
8459	80AC  34630000             ori $3, $3, 0
8460	80B0  00430018             mult $2, $3
8461	80B4  00009012             mflo $18
8462	80B8  AFB20000             sw $18, 0($29)
8463	80BC  00009010             mfhi $18
8464	80C0  AFB20000             sw $18, 0($29)
8465	80C4  0C002D43             jal increment
8466	80C8  3C02AAAB             lui $2, 43691
8467	80CC  344215B3             ori $2, $2, 5555
8468	80D0  3C033000             lui $3, 12288
8469	80D4  34630000             ori $3, $3, 0
8470	80D8  00430018             mult $2, $3
8471	80DC  00009012             mflo $18
8472	80E0  AFB20000             sw $18, 0($29)
8473	80E4  00009010             mfhi $18
8474	80E8  AFB20000             sw $18, 0($29)
8475	80EC  0C002D43             jal increment
8476	80F0  3C020000             lui $2, 0
8477	80F4  34420000             ori $2, $2, 0
8478	80F8  3C036000             lui $3, 24576
8479	80FC  34630000             ori $3, $3, 0
8480	8100  00430018             mult $2, $3
8481	8104  00009012             mflo $18
8482	8108  AFB20000             sw $18, 0($29)
8483	810C  00009010             mfhi $18
8484	8110  AFB20000             sw $18, 0($29)
8485	8114  0C002D43             jal increment
8486	8118  3C02AAAA             lui $2, 43690
8487	811C  3442AAAA             ori $2, $2, 43690
8488	8120  3C036000             lui $3, 24576
8489	8124  34630000             ori $3, $3, 0
8490	8128  00430018             mult $2, $3
8491	812C  00009012             mflo $18
8492	8130  AFB20000             sw $18, 0($29)
8493	8134  00009010             mfhi $18
8494	8138  AFB20000             sw $18, 0($29)
8495	813C  0C002D43             jal increment
8496	8140  3C02D34D             lui $2, 54093
8497	8144  34425555             ori $2, $2, 21845
8498	8148  3C036000             lui $3, 24576
8499	814C  34630000             ori $3, $3, 0
8500	8150  00430018             mult $2, $3
8501	8154  00009012             mflo $18
8502	8158  AFB20000             sw $18, 0($29)
8503	815C  00009010             mfhi $18
8504	8160  AFB20000             sw $18, 0($29)
8505	8164  0C002D43             jal increment
8506	8168  3C021999             lui $2, 6553
8507	816C  3442999A             ori $2, $2, 39322
8508	8170  3C036000             lui $3, 24576
8509	8174  34630000             ori $3, $3, 0
8510	8178  00430018             mult $2, $3
8511	817C  00009012             mflo $18
8512	8180  AFB20000             sw $18, 0($29)
8513	8184  00009010             mfhi $18
8514	8188  AFB20000             sw $18, 0($29)
8515	818C  0C002D43             jal increment
8516	8190  3C023536             lui $2, 13622
8517	8194  34426666             ori $2, $2, 26214
8518	8198  3C036000             lui $3, 24576
8519	819C  34630000             ori $3, $3, 0
8520	81A0  00430018             mult $2, $3
8521	81A4  00009012             mflo $18
8522	81A8  AFB20000             sw $18, 0($29)
8523	81AC  00009010             mfhi $18
8524	81B0  AFB20000             sw $18, 0($29)
8525	81B4  0C002D43             jal increment
8526	81B8  3C024CD4             lui $2, 19668
8527	81BC  3442CCCB             ori $2, $2, 52427
8528	81C0  3C036000             lui $3, 24576
8529	81C4  34630000             ori $3, $3, 0
8530	81C8  00430018             mult $2, $3
8531	81CC  00009012             mflo $18
8532	81D0  AFB20000             sw $18, 0($29)
8533	81D4  00009010             mfhi $18
8534	81D8  AFB20000             sw $18, 0($29)
8535	81DC  0C002D43             jal increment
8536	81E0  3C026773             lui $2, 26483
8537	81E4  3442F337             ori $2, $2, 62263
8538	81E8  3C036000             lui $3, 24576
8539	81EC  34630000             ori $3, $3, 0
8540	81F0  00430018             mult $2, $3
8541	81F4  00009012             mflo $18
8542	81F8  AFB20000             sw $18, 0($29)
8543	81FC  00009010             mfhi $18
8544	8200  AFB20000             sw $18, 0($29)
8545	8204  0C002D43             jal increment
8546	8208  3C02FDDD             lui $2, 64989
8547	820C  34425EDF             ori $2, $2, 24287
8548	8210  3C036000             lui $3, 24576
8549	8214  34630000             ori $3, $3, 0
8550	8218  00430018             mult $2, $3
8551	821C  00009012             mflo $18
8552	8220  AFB20000             sw $18, 0($29)
8553	8224  00009010             mfhi $18
8554	8228  AFB20000             sw $18, 0($29)
8555	822C  0C002D43             jal increment
8556	8230  3C025666             lui $2, 22118
8557	8234  3442BB6C             ori $2, $2, 47980
8558	8238  3C036000             lui $3, 24576
8559	823C  34630000             ori $3, $3, 0
8560	8240  00430018             mult $2, $3
8561	8244  00009012             mflo $18
8562	8248  AFB20000             sw $18, 0($29)
8563	824C  00009010             mfhi $18
8564	8250  AFB20000             sw $18, 0($29)
8565	8254  0C002D43             jal increment
8566	8258  3C02AAAB             lui $2, 43691
8567	825C  344215B3             ori $2, $2, 5555
8568	8260  3C036000             lui $3, 24576
8569	8264  34630000             ori $3, $3, 0
8570	8268  00430018             mult $2, $3
8571	826C  00009012             mflo $18
8572	8270  AFB20000             sw $18, 0($29)
8573	8274  00009010             mfhi $18
8574	8278  AFB20000             sw $18, 0($29)
8575	827C  0C002D43             jal increment
8576	8280  3C020000             lui $2, 0
8577	8284  34420000             ori $2, $2, 0
8578	8288  3C03C000             lui $3, 49152
8579	828C  34630000             ori $3, $3, 0
8580	8290  00430018             mult $2, $3
8581	8294  00009012             mflo $18
8582	8298  AFB20000             sw $18, 0($29)
8583	829C  00009010             mfhi $18
8584	82A0  AFB20000             sw $18, 0($29)
8585	82A4  0C002D43             jal increment
8586	82A8  3C02AAAA             lui $2, 43690
8587	82AC  3442AAAA             ori $2, $2, 43690
8588	82B0  3C03C000             lui $3, 49152
8589	82B4  34630000             ori $3, $3, 0
8590	82B8  00430018             mult $2, $3
8591	82BC  00009012             mflo $18
8592	82C0  AFB20000             sw $18, 0($29)
8593	82C4  00009010             mfhi $18
8594	82C8  AFB20000             sw $18, 0($29)
8595	82CC  0C002D43             jal increment
8596	82D0  3C02D34D             lui $2, 54093
8597	82D4  34425555             ori $2, $2, 21845
8598	82D8  3C03C000             lui $3, 49152
8599	82DC  34630000             ori $3, $3, 0
8600	82E0  00430018             mult $2, $3
8601	82E4  00009012             mflo $18
8602	82E8  AFB20000             sw $18, 0($29)
8603	82EC  00009010             mfhi $18
8604	82F0  AFB20000             sw $18, 0($29)
8605	82F4  0C002D43             jal increment
8606	82F8  3C021999             lui $2, 6553
8607	82FC  3442999A             ori $2, $2, 39322
8608	8300  3C03C000             lui $3, 49152
8609	8304  34630000             ori $3, $3, 0
8610	8308  00430018             mult $2, $3
8611	830C  00009012             mflo $18
8612	8310  AFB20000             sw $18, 0($29)
8613	8314  00009010             mfhi $18
8614	8318  AFB20000             sw $18, 0($29)
8615	831C  0C002D43             jal increment
8616	8320  3C023536             lui $2, 13622
8617	8324  34426666             ori $2, $2, 26214
8618	8328  3C03C000             lui $3, 49152
8619	832C  34630000             ori $3, $3, 0
8620	8330  00430018             mult $2, $3
8621	8334  00009012             mflo $18
8622	8338  AFB20000             sw $18, 0($29)
8623	833C  00009010             mfhi $18
8624	8340  AFB20000             sw $18, 0($29)
8625	8344  0C002D43             jal increment
8626	8348  3C024CD4             lui $2, 19668
8627	834C  3442CCCB             ori $2, $2, 52427
8628	8350  3C03C000             lui $3, 49152
8629	8354  34630000             ori $3, $3, 0
8630	8358  00430018             mult $2, $3
8631	835C  00009012             mflo $18
8632	8360  AFB20000             sw $18, 0($29)
8633	8364  00009010             mfhi $18
8634	8368  AFB20000             sw $18, 0($29)
8635	836C  0C002D43             jal increment
8636	8370  3C026773             lui $2, 26483
8637	8374  3442F337             ori $2, $2, 62263
8638	8378  3C03C000             lui $3, 49152
8639	837C  34630000             ori $3, $3, 0
8640	8380  00430018             mult $2, $3
8641	8384  00009012             mflo $18
8642	8388  AFB20000             sw $18, 0($29)
8643	838C  00009010             mfhi $18
8644	8390  AFB20000             sw $18, 0($29)
8645	8394  0C002D43             jal increment
8646	8398  3C02FDDD             lui $2, 64989
8647	839C  34425EDF             ori $2, $2, 24287
8648	83A0  3C03C000             lui $3, 49152
8649	83A4  34630000             ori $3, $3, 0
8650	83A8  00430018             mult $2, $3
8651	83AC  00009012             mflo $18
8652	83B0  AFB20000             sw $18, 0($29)
8653	83B4  00009010             mfhi $18
8654	83B8  AFB20000             sw $18, 0($29)
8655	83BC  0C002D43             jal increment
8656	83C0  3C025666             lui $2, 22118
8657	83C4  3442BB6C             ori $2, $2, 47980
8658	83C8  3C03C000             lui $3, 49152
8659	83CC  34630000             ori $3, $3, 0
8660	83D0  00430018             mult $2, $3
8661	83D4  00009012             mflo $18
8662	83D8  AFB20000             sw $18, 0($29)
8663	83DC  00009010             mfhi $18
8664	83E0  AFB20000             sw $18, 0($29)
8665	83E4  0C002D43             jal increment
8666	83E8  3C02AAAB             lui $2, 43691
8667	83EC  344215B3             ori $2, $2, 5555
8668	83F0  3C03C000             lui $3, 49152
8669	83F4  34630000             ori $3, $3, 0
8670	83F8  00430018             mult $2, $3
8671	83FC  00009012             mflo $18
8672	8400  AFB20000             sw $18, 0($29)
8673	8404  00009010             mfhi $18
8674	8408  AFB20000             sw $18, 0($29)
8675	840C  0C002D43             jal increment
8676	                          
8677	8410  0C002D34            jal reset_offsets
8678	                          operation_multu_psuedo:
8679	8414  3C020000             lui $2, 0
8680	8418  34420000             ori $2, $2, 0
8681	841C  3C030000             lui $3, 0
8682	8420  34630003             ori $3, $3, 3
8683	8424  00430019             multu $2, $3
8684	8428  00009012             mflo $18
8685	842C  AFB20000             sw $18, 0($29)
8686	8430  00009010             mfhi $18
8687	8434  AFB20000             sw $18, 0($29)
8688	8438  0C002D43             jal increment
8689	843C  3C02AAAA             lui $2, 43690
8690	8440  3442AAAA             ori $2, $2, 43690
8691	8444  3C030000             lui $3, 0
8692	8448  34630003             ori $3, $3, 3
8693	844C  00430019             multu $2, $3
8694	8450  00009012             mflo $18
8695	8454  AFB20000             sw $18, 0($29)
8696	8458  00009010             mfhi $18
8697	845C  AFB20000             sw $18, 0($29)
8698	8460  0C002D43             jal increment
8699	8464  3C02D34D             lui $2, 54093
8700	8468  34425555             ori $2, $2, 21845
8701	846C  3C030000             lui $3, 0
8702	8470  34630003             ori $3, $3, 3
8703	8474  00430019             multu $2, $3
8704	8478  00009012             mflo $18
8705	847C  AFB20000             sw $18, 0($29)
8706	8480  00009010             mfhi $18
8707	8484  AFB20000             sw $18, 0($29)
8708	8488  0C002D43             jal increment
8709	848C  3C021999             lui $2, 6553
8710	8490  3442999A             ori $2, $2, 39322
8711	8494  3C030000             lui $3, 0
8712	8498  34630003             ori $3, $3, 3
8713	849C  00430019             multu $2, $3
8714	84A0  00009012             mflo $18
8715	84A4  AFB20000             sw $18, 0($29)
8716	84A8  00009010             mfhi $18
8717	84AC  AFB20000             sw $18, 0($29)
8718	84B0  0C002D43             jal increment
8719	84B4  3C023536             lui $2, 13622
8720	84B8  34426666             ori $2, $2, 26214
8721	84BC  3C030000             lui $3, 0
8722	84C0  34630003             ori $3, $3, 3
8723	84C4  00430019             multu $2, $3
8724	84C8  00009012             mflo $18
8725	84CC  AFB20000             sw $18, 0($29)
8726	84D0  00009010             mfhi $18
8727	84D4  AFB20000             sw $18, 0($29)
8728	84D8  0C002D43             jal increment
8729	84DC  3C024CD4             lui $2, 19668
8730	84E0  3442CCCB             ori $2, $2, 52427
8731	84E4  3C030000             lui $3, 0
8732	84E8  34630003             ori $3, $3, 3
8733	84EC  00430019             multu $2, $3
8734	84F0  00009012             mflo $18
8735	84F4  AFB20000             sw $18, 0($29)
8736	84F8  00009010             mfhi $18
8737	84FC  AFB20000             sw $18, 0($29)
8738	8500  0C002D43             jal increment
8739	8504  3C026773             lui $2, 26483
8740	8508  3442F337             ori $2, $2, 62263
8741	850C  3C030000             lui $3, 0
8742	8510  34630003             ori $3, $3, 3
8743	8514  00430019             multu $2, $3
8744	8518  00009012             mflo $18
8745	851C  AFB20000             sw $18, 0($29)
8746	8520  00009010             mfhi $18
8747	8524  AFB20000             sw $18, 0($29)
8748	8528  0C002D43             jal increment
8749	852C  3C02FDDD             lui $2, 64989
8750	8530  34425EDF             ori $2, $2, 24287
8751	8534  3C030000             lui $3, 0
8752	8538  34630003             ori $3, $3, 3
8753	853C  00430019             multu $2, $3
8754	8540  00009012             mflo $18
8755	8544  AFB20000             sw $18, 0($29)
8756	8548  00009010             mfhi $18
8757	854C  AFB20000             sw $18, 0($29)
8758	8550  0C002D43             jal increment
8759	8554  3C025666             lui $2, 22118
8760	8558  3442BB6C             ori $2, $2, 47980
8761	855C  3C030000             lui $3, 0
8762	8560  34630003             ori $3, $3, 3
8763	8564  00430019             multu $2, $3
8764	8568  00009012             mflo $18
8765	856C  AFB20000             sw $18, 0($29)
8766	8570  00009010             mfhi $18
8767	8574  AFB20000             sw $18, 0($29)
8768	8578  0C002D43             jal increment
8769	857C  3C02AAAB             lui $2, 43691
8770	8580  344215B3             ori $2, $2, 5555
8771	8584  3C030000             lui $3, 0
8772	8588  34630003             ori $3, $3, 3
8773	858C  00430019             multu $2, $3
8774	8590  00009012             mflo $18
8775	8594  AFB20000             sw $18, 0($29)
8776	8598  00009010             mfhi $18
8777	859C  AFB20000             sw $18, 0($29)
8778	85A0  0C002D43             jal increment
8779	85A4  3C020000             lui $2, 0
8780	85A8  34420000             ori $2, $2, 0
8781	85AC  3C030000             lui $3, 0
8782	85B0  34630006             ori $3, $3, 6
8783	85B4  00430019             multu $2, $3
8784	85B8  00009012             mflo $18
8785	85BC  AFB20000             sw $18, 0($29)
8786	85C0  00009010             mfhi $18
8787	85C4  AFB20000             sw $18, 0($29)
8788	85C8  0C002D43             jal increment
8789	85CC  3C02AAAA             lui $2, 43690
8790	85D0  3442AAAA             ori $2, $2, 43690
8791	85D4  3C030000             lui $3, 0
8792	85D8  34630006             ori $3, $3, 6
8793	85DC  00430019             multu $2, $3
8794	85E0  00009012             mflo $18
8795	85E4  AFB20000             sw $18, 0($29)
8796	85E8  00009010             mfhi $18
8797	85EC  AFB20000             sw $18, 0($29)
8798	85F0  0C002D43             jal increment
8799	85F4  3C02D34D             lui $2, 54093
8800	85F8  34425555             ori $2, $2, 21845
8801	85FC  3C030000             lui $3, 0
8802	8600  34630006             ori $3, $3, 6
8803	8604  00430019             multu $2, $3
8804	8608  00009012             mflo $18
8805	860C  AFB20000             sw $18, 0($29)
8806	8610  00009010             mfhi $18
8807	8614  AFB20000             sw $18, 0($29)
8808	8618  0C002D43             jal increment
8809	861C  3C021999             lui $2, 6553
8810	8620  3442999A             ori $2, $2, 39322
8811	8624  3C030000             lui $3, 0
8812	8628  34630006             ori $3, $3, 6
8813	862C  00430019             multu $2, $3
8814	8630  00009012             mflo $18
8815	8634  AFB20000             sw $18, 0($29)
8816	8638  00009010             mfhi $18
8817	863C  AFB20000             sw $18, 0($29)
8818	8640  0C002D43             jal increment
8819	8644  3C023536             lui $2, 13622
8820	8648  34426666             ori $2, $2, 26214
8821	864C  3C030000             lui $3, 0
8822	8650  34630006             ori $3, $3, 6
8823	8654  00430019             multu $2, $3
8824	8658  00009012             mflo $18
8825	865C  AFB20000             sw $18, 0($29)
8826	8660  00009010             mfhi $18
8827	8664  AFB20000             sw $18, 0($29)
8828	8668  0C002D43             jal increment
8829	866C  3C024CD4             lui $2, 19668
8830	8670  3442CCCB             ori $2, $2, 52427
8831	8674  3C030000             lui $3, 0
8832	8678  34630006             ori $3, $3, 6
8833	867C  00430019             multu $2, $3
8834	8680  00009012             mflo $18
8835	8684  AFB20000             sw $18, 0($29)
8836	8688  00009010             mfhi $18
8837	868C  AFB20000             sw $18, 0($29)
8838	8690  0C002D43             jal increment
8839	8694  3C026773             lui $2, 26483
8840	8698  3442F337             ori $2, $2, 62263
8841	869C  3C030000             lui $3, 0
8842	86A0  34630006             ori $3, $3, 6
8843	86A4  00430019             multu $2, $3
8844	86A8  00009012             mflo $18
8845	86AC  AFB20000             sw $18, 0($29)
8846	86B0  00009010             mfhi $18
8847	86B4  AFB20000             sw $18, 0($29)
8848	86B8  0C002D43             jal increment
8849	86BC  3C02FDDD             lui $2, 64989
8850	86C0  34425EDF             ori $2, $2, 24287
8851	86C4  3C030000             lui $3, 0
8852	86C8  34630006             ori $3, $3, 6
8853	86CC  00430019             multu $2, $3
8854	86D0  00009012             mflo $18
8855	86D4  AFB20000             sw $18, 0($29)
8856	86D8  00009010             mfhi $18
8857	86DC  AFB20000             sw $18, 0($29)
8858	86E0  0C002D43             jal increment
8859	86E4  3C025666             lui $2, 22118
8860	86E8  3442BB6C             ori $2, $2, 47980
8861	86EC  3C030000             lui $3, 0
8862	86F0  34630006             ori $3, $3, 6
8863	86F4  00430019             multu $2, $3
8864	86F8  00009012             mflo $18
8865	86FC  AFB20000             sw $18, 0($29)
8866	8700  00009010             mfhi $18
8867	8704  AFB20000             sw $18, 0($29)
8868	8708  0C002D43             jal increment
8869	870C  3C02AAAB             lui $2, 43691
8870	8710  344215B3             ori $2, $2, 5555
8871	8714  3C030000             lui $3, 0
8872	8718  34630006             ori $3, $3, 6
8873	871C  00430019             multu $2, $3
8874	8720  00009012             mflo $18
8875	8724  AFB20000             sw $18, 0($29)
8876	8728  00009010             mfhi $18
8877	872C  AFB20000             sw $18, 0($29)
8878	8730  0C002D43             jal increment
8879	8734  3C020000             lui $2, 0
8880	8738  34420000             ori $2, $2, 0
8881	873C  3C030000             lui $3, 0
8882	8740  3463000C             ori $3, $3, 12
8883	8744  00430019             multu $2, $3
8884	8748  00009012             mflo $18
8885	874C  AFB20000             sw $18, 0($29)
8886	8750  00009010             mfhi $18
8887	8754  AFB20000             sw $18, 0($29)
8888	8758  0C002D43             jal increment
8889	875C  3C02AAAA             lui $2, 43690
8890	8760  3442AAAA             ori $2, $2, 43690
8891	8764  3C030000             lui $3, 0
8892	8768  3463000C             ori $3, $3, 12
8893	876C  00430019             multu $2, $3
8894	8770  00009012             mflo $18
8895	8774  AFB20000             sw $18, 0($29)
8896	8778  00009010             mfhi $18
8897	877C  AFB20000             sw $18, 0($29)
8898	8780  0C002D43             jal increment
8899	8784  3C02D34D             lui $2, 54093
8900	8788  34425555             ori $2, $2, 21845
8901	878C  3C030000             lui $3, 0
8902	8790  3463000C             ori $3, $3, 12
8903	8794  00430019             multu $2, $3
8904	8798  00009012             mflo $18
8905	879C  AFB20000             sw $18, 0($29)
8906	87A0  00009010             mfhi $18
8907	87A4  AFB20000             sw $18, 0($29)
8908	87A8  0C002D43             jal increment
8909	87AC  3C021999             lui $2, 6553
8910	87B0  3442999A             ori $2, $2, 39322
8911	87B4  3C030000             lui $3, 0
8912	87B8  3463000C             ori $3, $3, 12
8913	87BC  00430019             multu $2, $3
8914	87C0  00009012             mflo $18
8915	87C4  AFB20000             sw $18, 0($29)
8916	87C8  00009010             mfhi $18
8917	87CC  AFB20000             sw $18, 0($29)
8918	87D0  0C002D43             jal increment
8919	87D4  3C023536             lui $2, 13622
8920	87D8  34426666             ori $2, $2, 26214
8921	87DC  3C030000             lui $3, 0
8922	87E0  3463000C             ori $3, $3, 12
8923	87E4  00430019             multu $2, $3
8924	87E8  00009012             mflo $18
8925	87EC  AFB20000             sw $18, 0($29)
8926	87F0  00009010             mfhi $18
8927	87F4  AFB20000             sw $18, 0($29)
8928	87F8  0C002D43             jal increment
8929	87FC  3C024CD4             lui $2, 19668
8930	8800  3442CCCB             ori $2, $2, 52427
8931	8804  3C030000             lui $3, 0
8932	8808  3463000C             ori $3, $3, 12
8933	880C  00430019             multu $2, $3
8934	8810  00009012             mflo $18
8935	8814  AFB20000             sw $18, 0($29)
8936	8818  00009010             mfhi $18
8937	881C  AFB20000             sw $18, 0($29)
8938	8820  0C002D43             jal increment
8939	8824  3C026773             lui $2, 26483
8940	8828  3442F337             ori $2, $2, 62263
8941	882C  3C030000             lui $3, 0
8942	8830  3463000C             ori $3, $3, 12
8943	8834  00430019             multu $2, $3
8944	8838  00009012             mflo $18
8945	883C  AFB20000             sw $18, 0($29)
8946	8840  00009010             mfhi $18
8947	8844  AFB20000             sw $18, 0($29)
8948	8848  0C002D43             jal increment
8949	884C  3C02FDDD             lui $2, 64989
8950	8850  34425EDF             ori $2, $2, 24287
8951	8854  3C030000             lui $3, 0
8952	8858  3463000C             ori $3, $3, 12
8953	885C  00430019             multu $2, $3
8954	8860  00009012             mflo $18
8955	8864  AFB20000             sw $18, 0($29)
8956	8868  00009010             mfhi $18
8957	886C  AFB20000             sw $18, 0($29)
8958	8870  0C002D43             jal increment
8959	8874  3C025666             lui $2, 22118
8960	8878  3442BB6C             ori $2, $2, 47980
8961	887C  3C030000             lui $3, 0
8962	8880  3463000C             ori $3, $3, 12
8963	8884  00430019             multu $2, $3
8964	8888  00009012             mflo $18
8965	888C  AFB20000             sw $18, 0($29)
8966	8890  00009010             mfhi $18
8967	8894  AFB20000             sw $18, 0($29)
8968	8898  0C002D43             jal increment
8969	889C  3C02AAAB             lui $2, 43691
8970	88A0  344215B3             ori $2, $2, 5555
8971	88A4  3C030000             lui $3, 0
8972	88A8  3463000C             ori $3, $3, 12
8973	88AC  00430019             multu $2, $3
8974	88B0  00009012             mflo $18
8975	88B4  AFB20000             sw $18, 0($29)
8976	88B8  00009010             mfhi $18
8977	88BC  AFB20000             sw $18, 0($29)
8978	88C0  0C002D43             jal increment
8979	88C4  3C020000             lui $2, 0
8980	88C8  34420000             ori $2, $2, 0
8981	88CC  3C030000             lui $3, 0
8982	88D0  34630018             ori $3, $3, 24
8983	88D4  00430019             multu $2, $3
8984	88D8  00009012             mflo $18
8985	88DC  AFB20000             sw $18, 0($29)
8986	88E0  00009010             mfhi $18
8987	88E4  AFB20000             sw $18, 0($29)
8988	88E8  0C002D43             jal increment
8989	88EC  3C02AAAA             lui $2, 43690
8990	88F0  3442AAAA             ori $2, $2, 43690
8991	88F4  3C030000             lui $3, 0
8992	88F8  34630018             ori $3, $3, 24
8993	88FC  00430019             multu $2, $3
8994	8900  00009012             mflo $18
8995	8904  AFB20000             sw $18, 0($29)
8996	8908  00009010             mfhi $18
8997	890C  AFB20000             sw $18, 0($29)
8998	8910  0C002D43             jal increment
8999	8914  3C02D34D             lui $2, 54093
9000	8918  34425555             ori $2, $2, 21845
9001	891C  3C030000             lui $3, 0
9002	8920  34630018             ori $3, $3, 24
9003	8924  00430019             multu $2, $3
9004	8928  00009012             mflo $18
9005	892C  AFB20000             sw $18, 0($29)
9006	8930  00009010             mfhi $18
9007	8934  AFB20000             sw $18, 0($29)
9008	8938  0C002D43             jal increment
9009	893C  3C021999             lui $2, 6553
9010	8940  3442999A             ori $2, $2, 39322
9011	8944  3C030000             lui $3, 0
9012	8948  34630018             ori $3, $3, 24
9013	894C  00430019             multu $2, $3
9014	8950  00009012             mflo $18
9015	8954  AFB20000             sw $18, 0($29)
9016	8958  00009010             mfhi $18
9017	895C  AFB20000             sw $18, 0($29)
9018	8960  0C002D43             jal increment
9019	8964  3C023536             lui $2, 13622
9020	8968  34426666             ori $2, $2, 26214
9021	896C  3C030000             lui $3, 0
9022	8970  34630018             ori $3, $3, 24
9023	8974  00430019             multu $2, $3
9024	8978  00009012             mflo $18
9025	897C  AFB20000             sw $18, 0($29)
9026	8980  00009010             mfhi $18
9027	8984  AFB20000             sw $18, 0($29)
9028	8988  0C002D43             jal increment
9029	898C  3C024CD4             lui $2, 19668
9030	8990  3442CCCB             ori $2, $2, 52427
9031	8994  3C030000             lui $3, 0
9032	8998  34630018             ori $3, $3, 24
9033	899C  00430019             multu $2, $3
9034	89A0  00009012             mflo $18
9035	89A4  AFB20000             sw $18, 0($29)
9036	89A8  00009010             mfhi $18
9037	89AC  AFB20000             sw $18, 0($29)
9038	89B0  0C002D43             jal increment
9039	89B4  3C026773             lui $2, 26483
9040	89B8  3442F337             ori $2, $2, 62263
9041	89BC  3C030000             lui $3, 0
9042	89C0  34630018             ori $3, $3, 24
9043	89C4  00430019             multu $2, $3
9044	89C8  00009012             mflo $18
9045	89CC  AFB20000             sw $18, 0($29)
9046	89D0  00009010             mfhi $18
9047	89D4  AFB20000             sw $18, 0($29)
9048	89D8  0C002D43             jal increment
9049	89DC  3C02FDDD             lui $2, 64989
9050	89E0  34425EDF             ori $2, $2, 24287
9051	89E4  3C030000             lui $3, 0
9052	89E8  34630018             ori $3, $3, 24
9053	89EC  00430019             multu $2, $3
9054	89F0  00009012             mflo $18
9055	89F4  AFB20000             sw $18, 0($29)
9056	89F8  00009010             mfhi $18
9057	89FC  AFB20000             sw $18, 0($29)
9058	8A00  0C002D43             jal increment
9059	8A04  3C025666             lui $2, 22118
9060	8A08  3442BB6C             ori $2, $2, 47980
9061	8A0C  3C030000             lui $3, 0
9062	8A10  34630018             ori $3, $3, 24
9063	8A14  00430019             multu $2, $3
9064	8A18  00009012             mflo $18
9065	8A1C  AFB20000             sw $18, 0($29)
9066	8A20  00009010             mfhi $18
9067	8A24  AFB20000             sw $18, 0($29)
9068	8A28  0C002D43             jal increment
9069	8A2C  3C02AAAB             lui $2, 43691
9070	8A30  344215B3             ori $2, $2, 5555
9071	8A34  3C030000             lui $3, 0
9072	8A38  34630018             ori $3, $3, 24
9073	8A3C  00430019             multu $2, $3
9074	8A40  00009012             mflo $18
9075	8A44  AFB20000             sw $18, 0($29)
9076	8A48  00009010             mfhi $18
9077	8A4C  AFB20000             sw $18, 0($29)
9078	8A50  0C002D43             jal increment
9079	8A54  3C020000             lui $2, 0
9080	8A58  34420000             ori $2, $2, 0
9081	8A5C  3C030000             lui $3, 0
9082	8A60  34630030             ori $3, $3, 48
9083	8A64  00430019             multu $2, $3
9084	8A68  00009012             mflo $18
9085	8A6C  AFB20000             sw $18, 0($29)
9086	8A70  00009010             mfhi $18
9087	8A74  AFB20000             sw $18, 0($29)
9088	8A78  0C002D43             jal increment
9089	8A7C  3C02AAAA             lui $2, 43690
9090	8A80  3442AAAA             ori $2, $2, 43690
9091	8A84  3C030000             lui $3, 0
9092	8A88  34630030             ori $3, $3, 48
9093	8A8C  00430019             multu $2, $3
9094	8A90  00009012             mflo $18
9095	8A94  AFB20000             sw $18, 0($29)
9096	8A98  00009010             mfhi $18
9097	8A9C  AFB20000             sw $18, 0($29)
9098	8AA0  0C002D43             jal increment
9099	8AA4  3C02D34D             lui $2, 54093
9100	8AA8  34425555             ori $2, $2, 21845
9101	8AAC  3C030000             lui $3, 0
9102	8AB0  34630030             ori $3, $3, 48
9103	8AB4  00430019             multu $2, $3
9104	8AB8  00009012             mflo $18
9105	8ABC  AFB20000             sw $18, 0($29)
9106	8AC0  00009010             mfhi $18
9107	8AC4  AFB20000             sw $18, 0($29)
9108	8AC8  0C002D43             jal increment
9109	8ACC  3C021999             lui $2, 6553
9110	8AD0  3442999A             ori $2, $2, 39322
9111	8AD4  3C030000             lui $3, 0
9112	8AD8  34630030             ori $3, $3, 48
9113	8ADC  00430019             multu $2, $3
9114	8AE0  00009012             mflo $18
9115	8AE4  AFB20000             sw $18, 0($29)
9116	8AE8  00009010             mfhi $18
9117	8AEC  AFB20000             sw $18, 0($29)
9118	8AF0  0C002D43             jal increment
9119	8AF4  3C023536             lui $2, 13622
9120	8AF8  34426666             ori $2, $2, 26214
9121	8AFC  3C030000             lui $3, 0
9122	8B00  34630030             ori $3, $3, 48
9123	8B04  00430019             multu $2, $3
9124	8B08  00009012             mflo $18
9125	8B0C  AFB20000             sw $18, 0($29)
9126	8B10  00009010             mfhi $18
9127	8B14  AFB20000             sw $18, 0($29)
9128	8B18  0C002D43             jal increment
9129	8B1C  3C024CD4             lui $2, 19668
9130	8B20  3442CCCB             ori $2, $2, 52427
9131	8B24  3C030000             lui $3, 0
9132	8B28  34630030             ori $3, $3, 48
9133	8B2C  00430019             multu $2, $3
9134	8B30  00009012             mflo $18
9135	8B34  AFB20000             sw $18, 0($29)
9136	8B38  00009010             mfhi $18
9137	8B3C  AFB20000             sw $18, 0($29)
9138	8B40  0C002D43             jal increment
9139	8B44  3C026773             lui $2, 26483
9140	8B48  3442F337             ori $2, $2, 62263
9141	8B4C  3C030000             lui $3, 0
9142	8B50  34630030             ori $3, $3, 48
9143	8B54  00430019             multu $2, $3
9144	8B58  00009012             mflo $18
9145	8B5C  AFB20000             sw $18, 0($29)
9146	8B60  00009010             mfhi $18
9147	8B64  AFB20000             sw $18, 0($29)
9148	8B68  0C002D43             jal increment
9149	8B6C  3C02FDDD             lui $2, 64989
9150	8B70  34425EDF             ori $2, $2, 24287
9151	8B74  3C030000             lui $3, 0
9152	8B78  34630030             ori $3, $3, 48
9153	8B7C  00430019             multu $2, $3
9154	8B80  00009012             mflo $18
9155	8B84  AFB20000             sw $18, 0($29)
9156	8B88  00009010             mfhi $18
9157	8B8C  AFB20000             sw $18, 0($29)
9158	8B90  0C002D43             jal increment
9159	8B94  3C025666             lui $2, 22118
9160	8B98  3442BB6C             ori $2, $2, 47980
9161	8B9C  3C030000             lui $3, 0
9162	8BA0  34630030             ori $3, $3, 48
9163	8BA4  00430019             multu $2, $3
9164	8BA8  00009012             mflo $18
9165	8BAC  AFB20000             sw $18, 0($29)
9166	8BB0  00009010             mfhi $18
9167	8BB4  AFB20000             sw $18, 0($29)
9168	8BB8  0C002D43             jal increment
9169	8BBC  3C02AAAB             lui $2, 43691
9170	8BC0  344215B3             ori $2, $2, 5555
9171	8BC4  3C030000             lui $3, 0
9172	8BC8  34630030             ori $3, $3, 48
9173	8BCC  00430019             multu $2, $3
9174	8BD0  00009012             mflo $18
9175	8BD4  AFB20000             sw $18, 0($29)
9176	8BD8  00009010             mfhi $18
9177	8BDC  AFB20000             sw $18, 0($29)
9178	8BE0  0C002D43             jal increment
9179	8BE4  3C020000             lui $2, 0
9180	8BE8  34420000             ori $2, $2, 0
9181	8BEC  3C030000             lui $3, 0
9182	8BF0  34630060             ori $3, $3, 96
9183	8BF4  00430019             multu $2, $3
9184	8BF8  00009012             mflo $18
9185	8BFC  AFB20000             sw $18, 0($29)
9186	8C00  00009010             mfhi $18
9187	8C04  AFB20000             sw $18, 0($29)
9188	8C08  0C002D43             jal increment
9189	8C0C  3C02AAAA             lui $2, 43690
9190	8C10  3442AAAA             ori $2, $2, 43690
9191	8C14  3C030000             lui $3, 0
9192	8C18  34630060             ori $3, $3, 96
9193	8C1C  00430019             multu $2, $3
9194	8C20  00009012             mflo $18
9195	8C24  AFB20000             sw $18, 0($29)
9196	8C28  00009010             mfhi $18
9197	8C2C  AFB20000             sw $18, 0($29)
9198	8C30  0C002D43             jal increment
9199	8C34  3C02D34D             lui $2, 54093
9200	8C38  34425555             ori $2, $2, 21845
9201	8C3C  3C030000             lui $3, 0
9202	8C40  34630060             ori $3, $3, 96
9203	8C44  00430019             multu $2, $3
9204	8C48  00009012             mflo $18
9205	8C4C  AFB20000             sw $18, 0($29)
9206	8C50  00009010             mfhi $18
9207	8C54  AFB20000             sw $18, 0($29)
9208	8C58  0C002D43             jal increment
9209	8C5C  3C021999             lui $2, 6553
9210	8C60  3442999A             ori $2, $2, 39322
9211	8C64  3C030000             lui $3, 0
9212	8C68  34630060             ori $3, $3, 96
9213	8C6C  00430019             multu $2, $3
9214	8C70  00009012             mflo $18
9215	8C74  AFB20000             sw $18, 0($29)
9216	8C78  00009010             mfhi $18
9217	8C7C  AFB20000             sw $18, 0($29)
9218	8C80  0C002D43             jal increment
9219	8C84  3C023536             lui $2, 13622
9220	8C88  34426666             ori $2, $2, 26214
9221	8C8C  3C030000             lui $3, 0
9222	8C90  34630060             ori $3, $3, 96
9223	8C94  00430019             multu $2, $3
9224	8C98  00009012             mflo $18
9225	8C9C  AFB20000             sw $18, 0($29)
9226	8CA0  00009010             mfhi $18
9227	8CA4  AFB20000             sw $18, 0($29)
9228	8CA8  0C002D43             jal increment
9229	8CAC  3C024CD4             lui $2, 19668
9230	8CB0  3442CCCB             ori $2, $2, 52427
9231	8CB4  3C030000             lui $3, 0
9232	8CB8  34630060             ori $3, $3, 96
9233	8CBC  00430019             multu $2, $3
9234	8CC0  00009012             mflo $18
9235	8CC4  AFB20000             sw $18, 0($29)
9236	8CC8  00009010             mfhi $18
9237	8CCC  AFB20000             sw $18, 0($29)
9238	8CD0  0C002D43             jal increment
9239	8CD4  3C026773             lui $2, 26483
9240	8CD8  3442F337             ori $2, $2, 62263
9241	8CDC  3C030000             lui $3, 0
9242	8CE0  34630060             ori $3, $3, 96
9243	8CE4  00430019             multu $2, $3
9244	8CE8  00009012             mflo $18
9245	8CEC  AFB20000             sw $18, 0($29)
9246	8CF0  00009010             mfhi $18
9247	8CF4  AFB20000             sw $18, 0($29)
9248	8CF8  0C002D43             jal increment
9249	8CFC  3C02FDDD             lui $2, 64989
9250	8D00  34425EDF             ori $2, $2, 24287
9251	8D04  3C030000             lui $3, 0
9252	8D08  34630060             ori $3, $3, 96
9253	8D0C  00430019             multu $2, $3
9254	8D10  00009012             mflo $18
9255	8D14  AFB20000             sw $18, 0($29)
9256	8D18  00009010             mfhi $18
9257	8D1C  AFB20000             sw $18, 0($29)
9258	8D20  0C002D43             jal increment
9259	8D24  3C025666             lui $2, 22118
9260	8D28  3442BB6C             ori $2, $2, 47980
9261	8D2C  3C030000             lui $3, 0
9262	8D30  34630060             ori $3, $3, 96
9263	8D34  00430019             multu $2, $3
9264	8D38  00009012             mflo $18
9265	8D3C  AFB20000             sw $18, 0($29)
9266	8D40  00009010             mfhi $18
9267	8D44  AFB20000             sw $18, 0($29)
9268	8D48  0C002D43             jal increment
9269	8D4C  3C02AAAB             lui $2, 43691
9270	8D50  344215B3             ori $2, $2, 5555
9271	8D54  3C030000             lui $3, 0
9272	8D58  34630060             ori $3, $3, 96
9273	8D5C  00430019             multu $2, $3
9274	8D60  00009012             mflo $18
9275	8D64  AFB20000             sw $18, 0($29)
9276	8D68  00009010             mfhi $18
9277	8D6C  AFB20000             sw $18, 0($29)
9278	8D70  0C002D43             jal increment
9279	8D74  3C020000             lui $2, 0
9280	8D78  34420000             ori $2, $2, 0
9281	8D7C  3C030000             lui $3, 0
9282	8D80  346300C0             ori $3, $3, 192
9283	8D84  00430019             multu $2, $3
9284	8D88  00009012             mflo $18
9285	8D8C  AFB20000             sw $18, 0($29)
9286	8D90  00009010             mfhi $18
9287	8D94  AFB20000             sw $18, 0($29)
9288	8D98  0C002D43             jal increment
9289	8D9C  3C02AAAA             lui $2, 43690
9290	8DA0  3442AAAA             ori $2, $2, 43690
9291	8DA4  3C030000             lui $3, 0
9292	8DA8  346300C0             ori $3, $3, 192
9293	8DAC  00430019             multu $2, $3
9294	8DB0  00009012             mflo $18
9295	8DB4  AFB20000             sw $18, 0($29)
9296	8DB8  00009010             mfhi $18
9297	8DBC  AFB20000             sw $18, 0($29)
9298	8DC0  0C002D43             jal increment
9299	8DC4  3C02D34D             lui $2, 54093
9300	8DC8  34425555             ori $2, $2, 21845
9301	8DCC  3C030000             lui $3, 0
9302	8DD0  346300C0             ori $3, $3, 192
9303	8DD4  00430019             multu $2, $3
9304	8DD8  00009012             mflo $18
9305	8DDC  AFB20000             sw $18, 0($29)
9306	8DE0  00009010             mfhi $18
9307	8DE4  AFB20000             sw $18, 0($29)
9308	8DE8  0C002D43             jal increment
9309	8DEC  3C021999             lui $2, 6553
9310	8DF0  3442999A             ori $2, $2, 39322
9311	8DF4  3C030000             lui $3, 0
9312	8DF8  346300C0             ori $3, $3, 192
9313	8DFC  00430019             multu $2, $3
9314	8E00  00009012             mflo $18
9315	8E04  AFB20000             sw $18, 0($29)
9316	8E08  00009010             mfhi $18
9317	8E0C  AFB20000             sw $18, 0($29)
9318	8E10  0C002D43             jal increment
9319	8E14  3C023536             lui $2, 13622
9320	8E18  34426666             ori $2, $2, 26214
9321	8E1C  3C030000             lui $3, 0
9322	8E20  346300C0             ori $3, $3, 192
9323	8E24  00430019             multu $2, $3
9324	8E28  00009012             mflo $18
9325	8E2C  AFB20000             sw $18, 0($29)
9326	8E30  00009010             mfhi $18
9327	8E34  AFB20000             sw $18, 0($29)
9328	8E38  0C002D43             jal increment
9329	8E3C  3C024CD4             lui $2, 19668
9330	8E40  3442CCCB             ori $2, $2, 52427
9331	8E44  3C030000             lui $3, 0
9332	8E48  346300C0             ori $3, $3, 192
9333	8E4C  00430019             multu $2, $3
9334	8E50  00009012             mflo $18
9335	8E54  AFB20000             sw $18, 0($29)
9336	8E58  00009010             mfhi $18
9337	8E5C  AFB20000             sw $18, 0($29)
9338	8E60  0C002D43             jal increment
9339	8E64  3C026773             lui $2, 26483
9340	8E68  3442F337             ori $2, $2, 62263
9341	8E6C  3C030000             lui $3, 0
9342	8E70  346300C0             ori $3, $3, 192
9343	8E74  00430019             multu $2, $3
9344	8E78  00009012             mflo $18
9345	8E7C  AFB20000             sw $18, 0($29)
9346	8E80  00009010             mfhi $18
9347	8E84  AFB20000             sw $18, 0($29)
9348	8E88  0C002D43             jal increment
9349	8E8C  3C02FDDD             lui $2, 64989
9350	8E90  34425EDF             ori $2, $2, 24287
9351	8E94  3C030000             lui $3, 0
9352	8E98  346300C0             ori $3, $3, 192
9353	8E9C  00430019             multu $2, $3
9354	8EA0  00009012             mflo $18
9355	8EA4  AFB20000             sw $18, 0($29)
9356	8EA8  00009010             mfhi $18
9357	8EAC  AFB20000             sw $18, 0($29)
9358	8EB0  0C002D43             jal increment
9359	8EB4  3C025666             lui $2, 22118
9360	8EB8  3442BB6C             ori $2, $2, 47980
9361	8EBC  3C030000             lui $3, 0
9362	8EC0  346300C0             ori $3, $3, 192
9363	8EC4  00430019             multu $2, $3
9364	8EC8  00009012             mflo $18
9365	8ECC  AFB20000             sw $18, 0($29)
9366	8ED0  00009010             mfhi $18
9367	8ED4  AFB20000             sw $18, 0($29)
9368	8ED8  0C002D43             jal increment
9369	8EDC  3C02AAAB             lui $2, 43691
9370	8EE0  344215B3             ori $2, $2, 5555
9371	8EE4  3C030000             lui $3, 0
9372	8EE8  346300C0             ori $3, $3, 192
9373	8EEC  00430019             multu $2, $3
9374	8EF0  00009012             mflo $18
9375	8EF4  AFB20000             sw $18, 0($29)
9376	8EF8  00009010             mfhi $18
9377	8EFC  AFB20000             sw $18, 0($29)
9378	8F00  0C002D43             jal increment
9379	8F04  3C020000             lui $2, 0
9380	8F08  34420000             ori $2, $2, 0
9381	8F0C  3C030000             lui $3, 0
9382	8F10  34630180             ori $3, $3, 384
9383	8F14  00430019             multu $2, $3
9384	8F18  00009012             mflo $18
9385	8F1C  AFB20000             sw $18, 0($29)
9386	8F20  00009010             mfhi $18
9387	8F24  AFB20000             sw $18, 0($29)
9388	8F28  0C002D43             jal increment
9389	8F2C  3C02AAAA             lui $2, 43690
9390	8F30  3442AAAA             ori $2, $2, 43690
9391	8F34  3C030000             lui $3, 0
9392	8F38  34630180             ori $3, $3, 384
9393	8F3C  00430019             multu $2, $3
9394	8F40  00009012             mflo $18
9395	8F44  AFB20000             sw $18, 0($29)
9396	8F48  00009010             mfhi $18
9397	8F4C  AFB20000             sw $18, 0($29)
9398	8F50  0C002D43             jal increment
9399	8F54  3C02D34D             lui $2, 54093
9400	8F58  34425555             ori $2, $2, 21845
9401	8F5C  3C030000             lui $3, 0
9402	8F60  34630180             ori $3, $3, 384
9403	8F64  00430019             multu $2, $3
9404	8F68  00009012             mflo $18
9405	8F6C  AFB20000             sw $18, 0($29)
9406	8F70  00009010             mfhi $18
9407	8F74  AFB20000             sw $18, 0($29)
9408	8F78  0C002D43             jal increment
9409	8F7C  3C021999             lui $2, 6553
9410	8F80  3442999A             ori $2, $2, 39322
9411	8F84  3C030000             lui $3, 0
9412	8F88  34630180             ori $3, $3, 384
9413	8F8C  00430019             multu $2, $3
9414	8F90  00009012             mflo $18
9415	8F94  AFB20000             sw $18, 0($29)
9416	8F98  00009010             mfhi $18
9417	8F9C  AFB20000             sw $18, 0($29)
9418	8FA0  0C002D43             jal increment
9419	8FA4  3C023536             lui $2, 13622
9420	8FA8  34426666             ori $2, $2, 26214
9421	8FAC  3C030000             lui $3, 0
9422	8FB0  34630180             ori $3, $3, 384
9423	8FB4  00430019             multu $2, $3
9424	8FB8  00009012             mflo $18
9425	8FBC  AFB20000             sw $18, 0($29)
9426	8FC0  00009010             mfhi $18
9427	8FC4  AFB20000             sw $18, 0($29)
9428	8FC8  0C002D43             jal increment
9429	8FCC  3C024CD4             lui $2, 19668
9430	8FD0  3442CCCB             ori $2, $2, 52427
9431	8FD4  3C030000             lui $3, 0
9432	8FD8  34630180             ori $3, $3, 384
9433	8FDC  00430019             multu $2, $3
9434	8FE0  00009012             mflo $18
9435	8FE4  AFB20000             sw $18, 0($29)
9436	8FE8  00009010             mfhi $18
9437	8FEC  AFB20000             sw $18, 0($29)
9438	8FF0  0C002D43             jal increment
9439	8FF4  3C026773             lui $2, 26483
9440	8FF8  3442F337             ori $2, $2, 62263
9441	8FFC  3C030000             lui $3, 0
9442	9000  34630180             ori $3, $3, 384
9443	9004  00430019             multu $2, $3
9444	9008  00009012             mflo $18
9445	900C  AFB20000             sw $18, 0($29)
9446	9010  00009010             mfhi $18
9447	9014  AFB20000             sw $18, 0($29)
9448	9018  0C002D43             jal increment
9449	901C  3C02FDDD             lui $2, 64989
9450	9020  34425EDF             ori $2, $2, 24287
9451	9024  3C030000             lui $3, 0
9452	9028  34630180             ori $3, $3, 384
9453	902C  00430019             multu $2, $3
9454	9030  00009012             mflo $18
9455	9034  AFB20000             sw $18, 0($29)
9456	9038  00009010             mfhi $18
9457	903C  AFB20000             sw $18, 0($29)
9458	9040  0C002D43             jal increment
9459	9044  3C025666             lui $2, 22118
9460	9048  3442BB6C             ori $2, $2, 47980
9461	904C  3C030000             lui $3, 0
9462	9050  34630180             ori $3, $3, 384
9463	9054  00430019             multu $2, $3
9464	9058  00009012             mflo $18
9465	905C  AFB20000             sw $18, 0($29)
9466	9060  00009010             mfhi $18
9467	9064  AFB20000             sw $18, 0($29)
9468	9068  0C002D43             jal increment
9469	906C  3C02AAAB             lui $2, 43691
9470	9070  344215B3             ori $2, $2, 5555
9471	9074  3C030000             lui $3, 0
9472	9078  34630180             ori $3, $3, 384
9473	907C  00430019             multu $2, $3
9474	9080  00009012             mflo $18
9475	9084  AFB20000             sw $18, 0($29)
9476	9088  00009010             mfhi $18
9477	908C  AFB20000             sw $18, 0($29)
9478	9090  0C002D43             jal increment
9479	9094  3C020000             lui $2, 0
9480	9098  34420000             ori $2, $2, 0
9481	909C  3C030000             lui $3, 0
9482	90A0  34630300             ori $3, $3, 768
9483	90A4  00430019             multu $2, $3
9484	90A8  00009012             mflo $18
9485	90AC  AFB20000             sw $18, 0($29)
9486	90B0  00009010             mfhi $18
9487	90B4  AFB20000             sw $18, 0($29)
9488	90B8  0C002D43             jal increment
9489	90BC  3C02AAAA             lui $2, 43690
9490	90C0  3442AAAA             ori $2, $2, 43690
9491	90C4  3C030000             lui $3, 0
9492	90C8  34630300             ori $3, $3, 768
9493	90CC  00430019             multu $2, $3
9494	90D0  00009012             mflo $18
9495	90D4  AFB20000             sw $18, 0($29)
9496	90D8  00009010             mfhi $18
9497	90DC  AFB20000             sw $18, 0($29)
9498	90E0  0C002D43             jal increment
9499	90E4  3C02D34D             lui $2, 54093
9500	90E8  34425555             ori $2, $2, 21845
9501	90EC  3C030000             lui $3, 0
9502	90F0  34630300             ori $3, $3, 768
9503	90F4  00430019             multu $2, $3
9504	90F8  00009012             mflo $18
9505	90FC  AFB20000             sw $18, 0($29)
9506	9100  00009010             mfhi $18
9507	9104  AFB20000             sw $18, 0($29)
9508	9108  0C002D43             jal increment
9509	910C  3C021999             lui $2, 6553
9510	9110  3442999A             ori $2, $2, 39322
9511	9114  3C030000             lui $3, 0
9512	9118  34630300             ori $3, $3, 768
9513	911C  00430019             multu $2, $3
9514	9120  00009012             mflo $18
9515	9124  AFB20000             sw $18, 0($29)
9516	9128  00009010             mfhi $18
9517	912C  AFB20000             sw $18, 0($29)
9518	9130  0C002D43             jal increment
9519	9134  3C023536             lui $2, 13622
9520	9138  34426666             ori $2, $2, 26214
9521	913C  3C030000             lui $3, 0
9522	9140  34630300             ori $3, $3, 768
9523	9144  00430019             multu $2, $3
9524	9148  00009012             mflo $18
9525	914C  AFB20000             sw $18, 0($29)
9526	9150  00009010             mfhi $18
9527	9154  AFB20000             sw $18, 0($29)
9528	9158  0C002D43             jal increment
9529	915C  3C024CD4             lui $2, 19668
9530	9160  3442CCCB             ori $2, $2, 52427
9531	9164  3C030000             lui $3, 0
9532	9168  34630300             ori $3, $3, 768
9533	916C  00430019             multu $2, $3
9534	9170  00009012             mflo $18
9535	9174  AFB20000             sw $18, 0($29)
9536	9178  00009010             mfhi $18
9537	917C  AFB20000             sw $18, 0($29)
9538	9180  0C002D43             jal increment
9539	9184  3C026773             lui $2, 26483
9540	9188  3442F337             ori $2, $2, 62263
9541	918C  3C030000             lui $3, 0
9542	9190  34630300             ori $3, $3, 768
9543	9194  00430019             multu $2, $3
9544	9198  00009012             mflo $18
9545	919C  AFB20000             sw $18, 0($29)
9546	91A0  00009010             mfhi $18
9547	91A4  AFB20000             sw $18, 0($29)
9548	91A8  0C002D43             jal increment
9549	91AC  3C02FDDD             lui $2, 64989
9550	91B0  34425EDF             ori $2, $2, 24287
9551	91B4  3C030000             lui $3, 0
9552	91B8  34630300             ori $3, $3, 768
9553	91BC  00430019             multu $2, $3
9554	91C0  00009012             mflo $18
9555	91C4  AFB20000             sw $18, 0($29)
9556	91C8  00009010             mfhi $18
9557	91CC  AFB20000             sw $18, 0($29)
9558	91D0  0C002D43             jal increment
9559	91D4  3C025666             lui $2, 22118
9560	91D8  3442BB6C             ori $2, $2, 47980
9561	91DC  3C030000             lui $3, 0
9562	91E0  34630300             ori $3, $3, 768
9563	91E4  00430019             multu $2, $3
9564	91E8  00009012             mflo $18
9565	91EC  AFB20000             sw $18, 0($29)
9566	91F0  00009010             mfhi $18
9567	91F4  AFB20000             sw $18, 0($29)
9568	91F8  0C002D43             jal increment
9569	91FC  3C02AAAB             lui $2, 43691
9570	9200  344215B3             ori $2, $2, 5555
9571	9204  3C030000             lui $3, 0
9572	9208  34630300             ori $3, $3, 768
9573	920C  00430019             multu $2, $3
9574	9210  00009012             mflo $18
9575	9214  AFB20000             sw $18, 0($29)
9576	9218  00009010             mfhi $18
9577	921C  AFB20000             sw $18, 0($29)
9578	9220  0C002D43             jal increment
9579	9224  3C020000             lui $2, 0
9580	9228  34420000             ori $2, $2, 0
9581	922C  3C030000             lui $3, 0
9582	9230  34630600             ori $3, $3, 1536
9583	9234  00430019             multu $2, $3
9584	9238  00009012             mflo $18
9585	923C  AFB20000             sw $18, 0($29)
9586	9240  00009010             mfhi $18
9587	9244  AFB20000             sw $18, 0($29)
9588	9248  0C002D43             jal increment
9589	924C  3C02AAAA             lui $2, 43690
9590	9250  3442AAAA             ori $2, $2, 43690
9591	9254  3C030000             lui $3, 0
9592	9258  34630600             ori $3, $3, 1536
9593	925C  00430019             multu $2, $3
9594	9260  00009012             mflo $18
9595	9264  AFB20000             sw $18, 0($29)
9596	9268  00009010             mfhi $18
9597	926C  AFB20000             sw $18, 0($29)
9598	9270  0C002D43             jal increment
9599	9274  3C02D34D             lui $2, 54093
9600	9278  34425555             ori $2, $2, 21845
9601	927C  3C030000             lui $3, 0
9602	9280  34630600             ori $3, $3, 1536
9603	9284  00430019             multu $2, $3
9604	9288  00009012             mflo $18
9605	928C  AFB20000             sw $18, 0($29)
9606	9290  00009010             mfhi $18
9607	9294  AFB20000             sw $18, 0($29)
9608	9298  0C002D43             jal increment
9609	929C  3C021999             lui $2, 6553
9610	92A0  3442999A             ori $2, $2, 39322
9611	92A4  3C030000             lui $3, 0
9612	92A8  34630600             ori $3, $3, 1536
9613	92AC  00430019             multu $2, $3
9614	92B0  00009012             mflo $18
9615	92B4  AFB20000             sw $18, 0($29)
9616	92B8  00009010             mfhi $18
9617	92BC  AFB20000             sw $18, 0($29)
9618	92C0  0C002D43             jal increment
9619	92C4  3C023536             lui $2, 13622
9620	92C8  34426666             ori $2, $2, 26214
9621	92CC  3C030000             lui $3, 0
9622	92D0  34630600             ori $3, $3, 1536
9623	92D4  00430019             multu $2, $3
9624	92D8  00009012             mflo $18
9625	92DC  AFB20000             sw $18, 0($29)
9626	92E0  00009010             mfhi $18
9627	92E4  AFB20000             sw $18, 0($29)
9628	92E8  0C002D43             jal increment
9629	92EC  3C024CD4             lui $2, 19668
9630	92F0  3442CCCB             ori $2, $2, 52427
9631	92F4  3C030000             lui $3, 0
9632	92F8  34630600             ori $3, $3, 1536
9633	92FC  00430019             multu $2, $3
9634	9300  00009012             mflo $18
9635	9304  AFB20000             sw $18, 0($29)
9636	9308  00009010             mfhi $18
9637	930C  AFB20000             sw $18, 0($29)
9638	9310  0C002D43             jal increment
9639	9314  3C026773             lui $2, 26483
9640	9318  3442F337             ori $2, $2, 62263
9641	931C  3C030000             lui $3, 0
9642	9320  34630600             ori $3, $3, 1536
9643	9324  00430019             multu $2, $3
9644	9328  00009012             mflo $18
9645	932C  AFB20000             sw $18, 0($29)
9646	9330  00009010             mfhi $18
9647	9334  AFB20000             sw $18, 0($29)
9648	9338  0C002D43             jal increment
9649	933C  3C02FDDD             lui $2, 64989
9650	9340  34425EDF             ori $2, $2, 24287
9651	9344  3C030000             lui $3, 0
9652	9348  34630600             ori $3, $3, 1536
9653	934C  00430019             multu $2, $3
9654	9350  00009012             mflo $18
9655	9354  AFB20000             sw $18, 0($29)
9656	9358  00009010             mfhi $18
9657	935C  AFB20000             sw $18, 0($29)
9658	9360  0C002D43             jal increment
9659	9364  3C025666             lui $2, 22118
9660	9368  3442BB6C             ori $2, $2, 47980
9661	936C  3C030000             lui $3, 0
9662	9370  34630600             ori $3, $3, 1536
9663	9374  00430019             multu $2, $3
9664	9378  00009012             mflo $18
9665	937C  AFB20000             sw $18, 0($29)
9666	9380  00009010             mfhi $18
9667	9384  AFB20000             sw $18, 0($29)
9668	9388  0C002D43             jal increment
9669	938C  3C02AAAB             lui $2, 43691
9670	9390  344215B3             ori $2, $2, 5555
9671	9394  3C030000             lui $3, 0
9672	9398  34630600             ori $3, $3, 1536
9673	939C  00430019             multu $2, $3
9674	93A0  00009012             mflo $18
9675	93A4  AFB20000             sw $18, 0($29)
9676	93A8  00009010             mfhi $18
9677	93AC  AFB20000             sw $18, 0($29)
9678	93B0  0C002D43             jal increment
9679	93B4  3C020000             lui $2, 0
9680	93B8  34420000             ori $2, $2, 0
9681	93BC  3C030000             lui $3, 0
9682	93C0  34630C00             ori $3, $3, 3072
9683	93C4  00430019             multu $2, $3
9684	93C8  00009012             mflo $18
9685	93CC  AFB20000             sw $18, 0($29)
9686	93D0  00009010             mfhi $18
9687	93D4  AFB20000             sw $18, 0($29)
9688	93D8  0C002D43             jal increment
9689	93DC  3C02AAAA             lui $2, 43690
9690	93E0  3442AAAA             ori $2, $2, 43690
9691	93E4  3C030000             lui $3, 0
9692	93E8  34630C00             ori $3, $3, 3072
9693	93EC  00430019             multu $2, $3
9694	93F0  00009012             mflo $18
9695	93F4  AFB20000             sw $18, 0($29)
9696	93F8  00009010             mfhi $18
9697	93FC  AFB20000             sw $18, 0($29)
9698	9400  0C002D43             jal increment
9699	9404  3C02D34D             lui $2, 54093
9700	9408  34425555             ori $2, $2, 21845
9701	940C  3C030000             lui $3, 0
9702	9410  34630C00             ori $3, $3, 3072
9703	9414  00430019             multu $2, $3
9704	9418  00009012             mflo $18
9705	941C  AFB20000             sw $18, 0($29)
9706	9420  00009010             mfhi $18
9707	9424  AFB20000             sw $18, 0($29)
9708	9428  0C002D43             jal increment
9709	942C  3C021999             lui $2, 6553
9710	9430  3442999A             ori $2, $2, 39322
9711	9434  3C030000             lui $3, 0
9712	9438  34630C00             ori $3, $3, 3072
9713	943C  00430019             multu $2, $3
9714	9440  00009012             mflo $18
9715	9444  AFB20000             sw $18, 0($29)
9716	9448  00009010             mfhi $18
9717	944C  AFB20000             sw $18, 0($29)
9718	9450  0C002D43             jal increment
9719	9454  3C023536             lui $2, 13622
9720	9458  34426666             ori $2, $2, 26214
9721	945C  3C030000             lui $3, 0
9722	9460  34630C00             ori $3, $3, 3072
9723	9464  00430019             multu $2, $3
9724	9468  00009012             mflo $18
9725	946C  AFB20000             sw $18, 0($29)
9726	9470  00009010             mfhi $18
9727	9474  AFB20000             sw $18, 0($29)
9728	9478  0C002D43             jal increment
9729	947C  3C024CD4             lui $2, 19668
9730	9480  3442CCCB             ori $2, $2, 52427
9731	9484  3C030000             lui $3, 0
9732	9488  34630C00             ori $3, $3, 3072
9733	948C  00430019             multu $2, $3
9734	9490  00009012             mflo $18
9735	9494  AFB20000             sw $18, 0($29)
9736	9498  00009010             mfhi $18
9737	949C  AFB20000             sw $18, 0($29)
9738	94A0  0C002D43             jal increment
9739	94A4  3C026773             lui $2, 26483
9740	94A8  3442F337             ori $2, $2, 62263
9741	94AC  3C030000             lui $3, 0
9742	94B0  34630C00             ori $3, $3, 3072
9743	94B4  00430019             multu $2, $3
9744	94B8  00009012             mflo $18
9745	94BC  AFB20000             sw $18, 0($29)
9746	94C0  00009010             mfhi $18
9747	94C4  AFB20000             sw $18, 0($29)
9748	94C8  0C002D43             jal increment
9749	94CC  3C02FDDD             lui $2, 64989
9750	94D0  34425EDF             ori $2, $2, 24287
9751	94D4  3C030000             lui $3, 0
9752	94D8  34630C00             ori $3, $3, 3072
9753	94DC  00430019             multu $2, $3
9754	94E0  00009012             mflo $18
9755	94E4  AFB20000             sw $18, 0($29)
9756	94E8  00009010             mfhi $18
9757	94EC  AFB20000             sw $18, 0($29)
9758	94F0  0C002D43             jal increment
9759	94F4  3C025666             lui $2, 22118
9760	94F8  3442BB6C             ori $2, $2, 47980
9761	94FC  3C030000             lui $3, 0
9762	9500  34630C00             ori $3, $3, 3072
9763	9504  00430019             multu $2, $3
9764	9508  00009012             mflo $18
9765	950C  AFB20000             sw $18, 0($29)
9766	9510  00009010             mfhi $18
9767	9514  AFB20000             sw $18, 0($29)
9768	9518  0C002D43             jal increment
9769	951C  3C02AAAB             lui $2, 43691
9770	9520  344215B3             ori $2, $2, 5555
9771	9524  3C030000             lui $3, 0
9772	9528  34630C00             ori $3, $3, 3072
9773	952C  00430019             multu $2, $3
9774	9530  00009012             mflo $18
9775	9534  AFB20000             sw $18, 0($29)
9776	9538  00009010             mfhi $18
9777	953C  AFB20000             sw $18, 0($29)
9778	9540  0C002D43             jal increment
9779	9544  3C020000             lui $2, 0
9780	9548  34420000             ori $2, $2, 0
9781	954C  3C030000             lui $3, 0
9782	9550  34631800             ori $3, $3, 6144
9783	9554  00430019             multu $2, $3
9784	9558  00009012             mflo $18
9785	955C  AFB20000             sw $18, 0($29)
9786	9560  00009010             mfhi $18
9787	9564  AFB20000             sw $18, 0($29)
9788	9568  0C002D43             jal increment
9789	956C  3C02AAAA             lui $2, 43690
9790	9570  3442AAAA             ori $2, $2, 43690
9791	9574  3C030000             lui $3, 0
9792	9578  34631800             ori $3, $3, 6144
9793	957C  00430019             multu $2, $3
9794	9580  00009012             mflo $18
9795	9584  AFB20000             sw $18, 0($29)
9796	9588  00009010             mfhi $18
9797	958C  AFB20000             sw $18, 0($29)
9798	9590  0C002D43             jal increment
9799	9594  3C02D34D             lui $2, 54093
9800	9598  34425555             ori $2, $2, 21845
9801	959C  3C030000             lui $3, 0
9802	95A0  34631800             ori $3, $3, 6144
9803	95A4  00430019             multu $2, $3
9804	95A8  00009012             mflo $18
9805	95AC  AFB20000             sw $18, 0($29)
9806	95B0  00009010             mfhi $18
9807	95B4  AFB20000             sw $18, 0($29)
9808	95B8  0C002D43             jal increment
9809	95BC  3C021999             lui $2, 6553
9810	95C0  3442999A             ori $2, $2, 39322
9811	95C4  3C030000             lui $3, 0
9812	95C8  34631800             ori $3, $3, 6144
9813	95CC  00430019             multu $2, $3
9814	95D0  00009012             mflo $18
9815	95D4  AFB20000             sw $18, 0($29)
9816	95D8  00009010             mfhi $18
9817	95DC  AFB20000             sw $18, 0($29)
9818	95E0  0C002D43             jal increment
9819	95E4  3C023536             lui $2, 13622
9820	95E8  34426666             ori $2, $2, 26214
9821	95EC  3C030000             lui $3, 0
9822	95F0  34631800             ori $3, $3, 6144
9823	95F4  00430019             multu $2, $3
9824	95F8  00009012             mflo $18
9825	95FC  AFB20000             sw $18, 0($29)
9826	9600  00009010             mfhi $18
9827	9604  AFB20000             sw $18, 0($29)
9828	9608  0C002D43             jal increment
9829	960C  3C024CD4             lui $2, 19668
9830	9610  3442CCCB             ori $2, $2, 52427
9831	9614  3C030000             lui $3, 0
9832	9618  34631800             ori $3, $3, 6144
9833	961C  00430019             multu $2, $3
9834	9620  00009012             mflo $18
9835	9624  AFB20000             sw $18, 0($29)
9836	9628  00009010             mfhi $18
9837	962C  AFB20000             sw $18, 0($29)
9838	9630  0C002D43             jal increment
9839	9634  3C026773             lui $2, 26483
9840	9638  3442F337             ori $2, $2, 62263
9841	963C  3C030000             lui $3, 0
9842	9640  34631800             ori $3, $3, 6144
9843	9644  00430019             multu $2, $3
9844	9648  00009012             mflo $18
9845	964C  AFB20000             sw $18, 0($29)
9846	9650  00009010             mfhi $18
9847	9654  AFB20000             sw $18, 0($29)
9848	9658  0C002D43             jal increment
9849	965C  3C02FDDD             lui $2, 64989
9850	9660  34425EDF             ori $2, $2, 24287
9851	9664  3C030000             lui $3, 0
9852	9668  34631800             ori $3, $3, 6144
9853	966C  00430019             multu $2, $3
9854	9670  00009012             mflo $18
9855	9674  AFB20000             sw $18, 0($29)
9856	9678  00009010             mfhi $18
9857	967C  AFB20000             sw $18, 0($29)
9858	9680  0C002D43             jal increment
9859	9684  3C025666             lui $2, 22118
9860	9688  3442BB6C             ori $2, $2, 47980
9861	968C  3C030000             lui $3, 0
9862	9690  34631800             ori $3, $3, 6144
9863	9694  00430019             multu $2, $3
9864	9698  00009012             mflo $18
9865	969C  AFB20000             sw $18, 0($29)
9866	96A0  00009010             mfhi $18
9867	96A4  AFB20000             sw $18, 0($29)
9868	96A8  0C002D43             jal increment
9869	96AC  3C02AAAB             lui $2, 43691
9870	96B0  344215B3             ori $2, $2, 5555
9871	96B4  3C030000             lui $3, 0
9872	96B8  34631800             ori $3, $3, 6144
9873	96BC  00430019             multu $2, $3
9874	96C0  00009012             mflo $18
9875	96C4  AFB20000             sw $18, 0($29)
9876	96C8  00009010             mfhi $18
9877	96CC  AFB20000             sw $18, 0($29)
9878	96D0  0C002D43             jal increment
9879	96D4  3C020000             lui $2, 0
9880	96D8  34420000             ori $2, $2, 0
9881	96DC  3C030000             lui $3, 0
9882	96E0  34633000             ori $3, $3, 12288
9883	96E4  00430019             multu $2, $3
9884	96E8  00009012             mflo $18
9885	96EC  AFB20000             sw $18, 0($29)
9886	96F0  00009010             mfhi $18
9887	96F4  AFB20000             sw $18, 0($29)
9888	96F8  0C002D43             jal increment
9889	96FC  3C02AAAA             lui $2, 43690
9890	9700  3442AAAA             ori $2, $2, 43690
9891	9704  3C030000             lui $3, 0
9892	9708  34633000             ori $3, $3, 12288
9893	970C  00430019             multu $2, $3
9894	9710  00009012             mflo $18
9895	9714  AFB20000             sw $18, 0($29)
9896	9718  00009010             mfhi $18
9897	971C  AFB20000             sw $18, 0($29)
9898	9720  0C002D43             jal increment
9899	9724  3C02D34D             lui $2, 54093
9900	9728  34425555             ori $2, $2, 21845
9901	972C  3C030000             lui $3, 0
9902	9730  34633000             ori $3, $3, 12288
9903	9734  00430019             multu $2, $3
9904	9738  00009012             mflo $18
9905	973C  AFB20000             sw $18, 0($29)
9906	9740  00009010             mfhi $18
9907	9744  AFB20000             sw $18, 0($29)
9908	9748  0C002D43             jal increment
9909	974C  3C021999             lui $2, 6553
9910	9750  3442999A             ori $2, $2, 39322
9911	9754  3C030000             lui $3, 0
9912	9758  34633000             ori $3, $3, 12288
9913	975C  00430019             multu $2, $3
9914	9760  00009012             mflo $18
9915	9764  AFB20000             sw $18, 0($29)
9916	9768  00009010             mfhi $18
9917	976C  AFB20000             sw $18, 0($29)
9918	9770  0C002D43             jal increment
9919	9774  3C023536             lui $2, 13622
9920	9778  34426666             ori $2, $2, 26214
9921	977C  3C030000             lui $3, 0
9922	9780  34633000             ori $3, $3, 12288
9923	9784  00430019             multu $2, $3
9924	9788  00009012             mflo $18
9925	978C  AFB20000             sw $18, 0($29)
9926	9790  00009010             mfhi $18
9927	9794  AFB20000             sw $18, 0($29)
9928	9798  0C002D43             jal increment
9929	979C  3C024CD4             lui $2, 19668
9930	97A0  3442CCCB             ori $2, $2, 52427
9931	97A4  3C030000             lui $3, 0
9932	97A8  34633000             ori $3, $3, 12288
9933	97AC  00430019             multu $2, $3
9934	97B0  00009012             mflo $18
9935	97B4  AFB20000             sw $18, 0($29)
9936	97B8  00009010             mfhi $18
9937	97BC  AFB20000             sw $18, 0($29)
9938	97C0  0C002D43             jal increment
9939	97C4  3C026773             lui $2, 26483
9940	97C8  3442F337             ori $2, $2, 62263
9941	97CC  3C030000             lui $3, 0
9942	97D0  34633000             ori $3, $3, 12288
9943	97D4  00430019             multu $2, $3
9944	97D8  00009012             mflo $18
9945	97DC  AFB20000             sw $18, 0($29)
9946	97E0  00009010             mfhi $18
9947	97E4  AFB20000             sw $18, 0($29)
9948	97E8  0C002D43             jal increment
9949	97EC  3C02FDDD             lui $2, 64989
9950	97F0  34425EDF             ori $2, $2, 24287
9951	97F4  3C030000             lui $3, 0
9952	97F8  34633000             ori $3, $3, 12288
9953	97FC  00430019             multu $2, $3
9954	9800  00009012             mflo $18
9955	9804  AFB20000             sw $18, 0($29)
9956	9808  00009010             mfhi $18
9957	980C  AFB20000             sw $18, 0($29)
9958	9810  0C002D43             jal increment
9959	9814  3C025666             lui $2, 22118
9960	9818  3442BB6C             ori $2, $2, 47980
9961	981C  3C030000             lui $3, 0
9962	9820  34633000             ori $3, $3, 12288
9963	9824  00430019             multu $2, $3
9964	9828  00009012             mflo $18
9965	982C  AFB20000             sw $18, 0($29)
9966	9830  00009010             mfhi $18
9967	9834  AFB20000             sw $18, 0($29)
9968	9838  0C002D43             jal increment
9969	983C  3C02AAAB             lui $2, 43691
9970	9840  344215B3             ori $2, $2, 5555
9971	9844  3C030000             lui $3, 0
9972	9848  34633000             ori $3, $3, 12288
9973	984C  00430019             multu $2, $3
9974	9850  00009012             mflo $18
9975	9854  AFB20000             sw $18, 0($29)
9976	9858  00009010             mfhi $18
9977	985C  AFB20000             sw $18, 0($29)
9978	9860  0C002D43             jal increment
9979	9864  3C020000             lui $2, 0
9980	9868  34420000             ori $2, $2, 0
9981	986C  3C030000             lui $3, 0
9982	9870  34636000             ori $3, $3, 24576
9983	9874  00430019             multu $2, $3
9984	9878  00009012             mflo $18
9985	987C  AFB20000             sw $18, 0($29)
9986	9880  00009010             mfhi $18
9987	9884  AFB20000             sw $18, 0($29)
9988	9888  0C002D43             jal increment
9989	988C  3C02AAAA             lui $2, 43690
9990	9890  3442AAAA             ori $2, $2, 43690
9991	9894  3C030000             lui $3, 0
9992	9898  34636000             ori $3, $3, 24576
9993	989C  00430019             multu $2, $3
9994	98A0  00009012             mflo $18
9995	98A4  AFB20000             sw $18, 0($29)
9996	98A8  00009010             mfhi $18
9997	98AC  AFB20000             sw $18, 0($29)
9998	98B0  0C002D43             jal increment
9999	98B4  3C02D34D             lui $2, 54093
10000	98B8  34425555             ori $2, $2, 21845
10001	98BC  3C030000             lui $3, 0
10002	98C0  34636000             ori $3, $3, 24576
10003	98C4  00430019             multu $2, $3
10004	98C8  00009012             mflo $18
10005	98CC  AFB20000             sw $18, 0($29)
10006	98D0  00009010             mfhi $18
10007	98D4  AFB20000             sw $18, 0($29)
10008	98D8  0C002D43             jal increment
10009	98DC  3C021999             lui $2, 6553
10010	98E0  3442999A             ori $2, $2, 39322
10011	98E4  3C030000             lui $3, 0
10012	98E8  34636000             ori $3, $3, 24576
10013	98EC  00430019             multu $2, $3
10014	98F0  00009012             mflo $18
10015	98F4  AFB20000             sw $18, 0($29)
10016	98F8  00009010             mfhi $18
10017	98FC  AFB20000             sw $18, 0($29)
10018	9900  0C002D43             jal increment
10019	9904  3C023536             lui $2, 13622
10020	9908  34426666             ori $2, $2, 26214
10021	990C  3C030000             lui $3, 0
10022	9910  34636000             ori $3, $3, 24576
10023	9914  00430019             multu $2, $3
10024	9918  00009012             mflo $18
10025	991C  AFB20000             sw $18, 0($29)
10026	9920  00009010             mfhi $18
10027	9924  AFB20000             sw $18, 0($29)
10028	9928  0C002D43             jal increment
10029	992C  3C024CD4             lui $2, 19668
10030	9930  3442CCCB             ori $2, $2, 52427
10031	9934  3C030000             lui $3, 0
10032	9938  34636000             ori $3, $3, 24576
10033	993C  00430019             multu $2, $3
10034	9940  00009012             mflo $18
10035	9944  AFB20000             sw $18, 0($29)
10036	9948  00009010             mfhi $18
10037	994C  AFB20000             sw $18, 0($29)
10038	9950  0C002D43             jal increment
10039	9954  3C026773             lui $2, 26483
10040	9958  3442F337             ori $2, $2, 62263
10041	995C  3C030000             lui $3, 0
10042	9960  34636000             ori $3, $3, 24576
10043	9964  00430019             multu $2, $3
10044	9968  00009012             mflo $18
10045	996C  AFB20000             sw $18, 0($29)
10046	9970  00009010             mfhi $18
10047	9974  AFB20000             sw $18, 0($29)
10048	9978  0C002D43             jal increment
10049	997C  3C02FDDD             lui $2, 64989
10050	9980  34425EDF             ori $2, $2, 24287
10051	9984  3C030000             lui $3, 0
10052	9988  34636000             ori $3, $3, 24576
10053	998C  00430019             multu $2, $3
10054	9990  00009012             mflo $18
10055	9994  AFB20000             sw $18, 0($29)
10056	9998  00009010             mfhi $18
10057	999C  AFB20000             sw $18, 0($29)
10058	99A0  0C002D43             jal increment
10059	99A4  3C025666             lui $2, 22118
10060	99A8  3442BB6C             ori $2, $2, 47980
10061	99AC  3C030000             lui $3, 0
10062	99B0  34636000             ori $3, $3, 24576
10063	99B4  00430019             multu $2, $3
10064	99B8  00009012             mflo $18
10065	99BC  AFB20000             sw $18, 0($29)
10066	99C0  00009010             mfhi $18
10067	99C4  AFB20000             sw $18, 0($29)
10068	99C8  0C002D43             jal increment
10069	99CC  3C02AAAB             lui $2, 43691
10070	99D0  344215B3             ori $2, $2, 5555
10071	99D4  3C030000             lui $3, 0
10072	99D8  34636000             ori $3, $3, 24576
10073	99DC  00430019             multu $2, $3
10074	99E0  00009012             mflo $18
10075	99E4  AFB20000             sw $18, 0($29)
10076	99E8  00009010             mfhi $18
10077	99EC  AFB20000             sw $18, 0($29)
10078	99F0  0C002D43             jal increment
10079	99F4  3C020000             lui $2, 0
10080	99F8  34420000             ori $2, $2, 0
10081	99FC  3C030000             lui $3, 0
10082	9A00  3463C000             ori $3, $3, 49152
10083	9A04  00430019             multu $2, $3
10084	9A08  00009012             mflo $18
10085	9A0C  AFB20000             sw $18, 0($29)
10086	9A10  00009010             mfhi $18
10087	9A14  AFB20000             sw $18, 0($29)
10088	9A18  0C002D43             jal increment
10089	9A1C  3C02AAAA             lui $2, 43690
10090	9A20  3442AAAA             ori $2, $2, 43690
10091	9A24  3C030000             lui $3, 0
10092	9A28  3463C000             ori $3, $3, 49152
10093	9A2C  00430019             multu $2, $3
10094	9A30  00009012             mflo $18
10095	9A34  AFB20000             sw $18, 0($29)
10096	9A38  00009010             mfhi $18
10097	9A3C  AFB20000             sw $18, 0($29)
10098	9A40  0C002D43             jal increment
10099	9A44  3C02D34D             lui $2, 54093
10100	9A48  34425555             ori $2, $2, 21845
10101	9A4C  3C030000             lui $3, 0
10102	9A50  3463C000             ori $3, $3, 49152
10103	9A54  00430019             multu $2, $3
10104	9A58  00009012             mflo $18
10105	9A5C  AFB20000             sw $18, 0($29)
10106	9A60  00009010             mfhi $18
10107	9A64  AFB20000             sw $18, 0($29)
10108	9A68  0C002D43             jal increment
10109	9A6C  3C021999             lui $2, 6553
10110	9A70  3442999A             ori $2, $2, 39322
10111	9A74  3C030000             lui $3, 0
10112	9A78  3463C000             ori $3, $3, 49152
10113	9A7C  00430019             multu $2, $3
10114	9A80  00009012             mflo $18
10115	9A84  AFB20000             sw $18, 0($29)
10116	9A88  00009010             mfhi $18
10117	9A8C  AFB20000             sw $18, 0($29)
10118	9A90  0C002D43             jal increment
10119	9A94  3C023536             lui $2, 13622
10120	9A98  34426666             ori $2, $2, 26214
10121	9A9C  3C030000             lui $3, 0
10122	9AA0  3463C000             ori $3, $3, 49152
10123	9AA4  00430019             multu $2, $3
10124	9AA8  00009012             mflo $18
10125	9AAC  AFB20000             sw $18, 0($29)
10126	9AB0  00009010             mfhi $18
10127	9AB4  AFB20000             sw $18, 0($29)
10128	9AB8  0C002D43             jal increment
10129	9ABC  3C024CD4             lui $2, 19668
10130	9AC0  3442CCCB             ori $2, $2, 52427
10131	9AC4  3C030000             lui $3, 0
10132	9AC8  3463C000             ori $3, $3, 49152
10133	9ACC  00430019             multu $2, $3
10134	9AD0  00009012             mflo $18
10135	9AD4  AFB20000             sw $18, 0($29)
10136	9AD8  00009010             mfhi $18
10137	9ADC  AFB20000             sw $18, 0($29)
10138	9AE0  0C002D43             jal increment
10139	9AE4  3C026773             lui $2, 26483
10140	9AE8  3442F337             ori $2, $2, 62263
10141	9AEC  3C030000             lui $3, 0
10142	9AF0  3463C000             ori $3, $3, 49152
10143	9AF4  00430019             multu $2, $3
10144	9AF8  00009012             mflo $18
10145	9AFC  AFB20000             sw $18, 0($29)
10146	9B00  00009010             mfhi $18
10147	9B04  AFB20000             sw $18, 0($29)
10148	9B08  0C002D43             jal increment
10149	9B0C  3C02FDDD             lui $2, 64989
10150	9B10  34425EDF             ori $2, $2, 24287
10151	9B14  3C030000             lui $3, 0
10152	9B18  3463C000             ori $3, $3, 49152
10153	9B1C  00430019             multu $2, $3
10154	9B20  00009012             mflo $18
10155	9B24  AFB20000             sw $18, 0($29)
10156	9B28  00009010             mfhi $18
10157	9B2C  AFB20000             sw $18, 0($29)
10158	9B30  0C002D43             jal increment
10159	9B34  3C025666             lui $2, 22118
10160	9B38  3442BB6C             ori $2, $2, 47980
10161	9B3C  3C030000             lui $3, 0
10162	9B40  3463C000             ori $3, $3, 49152
10163	9B44  00430019             multu $2, $3
10164	9B48  00009012             mflo $18
10165	9B4C  AFB20000             sw $18, 0($29)
10166	9B50  00009010             mfhi $18
10167	9B54  AFB20000             sw $18, 0($29)
10168	9B58  0C002D43             jal increment
10169	9B5C  3C02AAAB             lui $2, 43691
10170	9B60  344215B3             ori $2, $2, 5555
10171	9B64  3C030000             lui $3, 0
10172	9B68  3463C000             ori $3, $3, 49152
10173	9B6C  00430019             multu $2, $3
10174	9B70  00009012             mflo $18
10175	9B74  AFB20000             sw $18, 0($29)
10176	9B78  00009010             mfhi $18
10177	9B7C  AFB20000             sw $18, 0($29)
10178	9B80  0C002D43             jal increment
10179	9B84  3C020000             lui $2, 0
10180	9B88  34420000             ori $2, $2, 0
10181	9B8C  3C030001             lui $3, 1
10182	9B90  34638000             ori $3, $3, 32768
10183	9B94  00430019             multu $2, $3
10184	9B98  00009012             mflo $18
10185	9B9C  AFB20000             sw $18, 0($29)
10186	9BA0  00009010             mfhi $18
10187	9BA4  AFB20000             sw $18, 0($29)
10188	9BA8  0C002D43             jal increment
10189	9BAC  3C02AAAA             lui $2, 43690
10190	9BB0  3442AAAA             ori $2, $2, 43690
10191	9BB4  3C030001             lui $3, 1
10192	9BB8  34638000             ori $3, $3, 32768
10193	9BBC  00430019             multu $2, $3
10194	9BC0  00009012             mflo $18
10195	9BC4  AFB20000             sw $18, 0($29)
10196	9BC8  00009010             mfhi $18
10197	9BCC  AFB20000             sw $18, 0($29)
10198	9BD0  0C002D43             jal increment
10199	9BD4  3C02D34D             lui $2, 54093
10200	9BD8  34425555             ori $2, $2, 21845
10201	9BDC  3C030001             lui $3, 1
10202	9BE0  34638000             ori $3, $3, 32768
10203	9BE4  00430019             multu $2, $3
10204	9BE8  00009012             mflo $18
10205	9BEC  AFB20000             sw $18, 0($29)
10206	9BF0  00009010             mfhi $18
10207	9BF4  AFB20000             sw $18, 0($29)
10208	9BF8  0C002D43             jal increment
10209	9BFC  3C021999             lui $2, 6553
10210	9C00  3442999A             ori $2, $2, 39322
10211	9C04  3C030001             lui $3, 1
10212	9C08  34638000             ori $3, $3, 32768
10213	9C0C  00430019             multu $2, $3
10214	9C10  00009012             mflo $18
10215	9C14  AFB20000             sw $18, 0($29)
10216	9C18  00009010             mfhi $18
10217	9C1C  AFB20000             sw $18, 0($29)
10218	9C20  0C002D43             jal increment
10219	9C24  3C023536             lui $2, 13622
10220	9C28  34426666             ori $2, $2, 26214
10221	9C2C  3C030001             lui $3, 1
10222	9C30  34638000             ori $3, $3, 32768
10223	9C34  00430019             multu $2, $3
10224	9C38  00009012             mflo $18
10225	9C3C  AFB20000             sw $18, 0($29)
10226	9C40  00009010             mfhi $18
10227	9C44  AFB20000             sw $18, 0($29)
10228	9C48  0C002D43             jal increment
10229	9C4C  3C024CD4             lui $2, 19668
10230	9C50  3442CCCB             ori $2, $2, 52427
10231	9C54  3C030001             lui $3, 1
10232	9C58  34638000             ori $3, $3, 32768
10233	9C5C  00430019             multu $2, $3
10234	9C60  00009012             mflo $18
10235	9C64  AFB20000             sw $18, 0($29)
10236	9C68  00009010             mfhi $18
10237	9C6C  AFB20000             sw $18, 0($29)
10238	9C70  0C002D43             jal increment
10239	9C74  3C026773             lui $2, 26483
10240	9C78  3442F337             ori $2, $2, 62263
10241	9C7C  3C030001             lui $3, 1
10242	9C80  34638000             ori $3, $3, 32768
10243	9C84  00430019             multu $2, $3
10244	9C88  00009012             mflo $18
10245	9C8C  AFB20000             sw $18, 0($29)
10246	9C90  00009010             mfhi $18
10247	9C94  AFB20000             sw $18, 0($29)
10248	9C98  0C002D43             jal increment
10249	9C9C  3C02FDDD             lui $2, 64989
10250	9CA0  34425EDF             ori $2, $2, 24287
10251	9CA4  3C030001             lui $3, 1
10252	9CA8  34638000             ori $3, $3, 32768
10253	9CAC  00430019             multu $2, $3
10254	9CB0  00009012             mflo $18
10255	9CB4  AFB20000             sw $18, 0($29)
10256	9CB8  00009010             mfhi $18
10257	9CBC  AFB20000             sw $18, 0($29)
10258	9CC0  0C002D43             jal increment
10259	9CC4  3C025666             lui $2, 22118
10260	9CC8  3442BB6C             ori $2, $2, 47980
10261	9CCC  3C030001             lui $3, 1
10262	9CD0  34638000             ori $3, $3, 32768
10263	9CD4  00430019             multu $2, $3
10264	9CD8  00009012             mflo $18
10265	9CDC  AFB20000             sw $18, 0($29)
10266	9CE0  00009010             mfhi $18
10267	9CE4  AFB20000             sw $18, 0($29)
10268	9CE8  0C002D43             jal increment
10269	9CEC  3C02AAAB             lui $2, 43691
10270	9CF0  344215B3             ori $2, $2, 5555
10271	9CF4  3C030001             lui $3, 1
10272	9CF8  34638000             ori $3, $3, 32768
10273	9CFC  00430019             multu $2, $3
10274	9D00  00009012             mflo $18
10275	9D04  AFB20000             sw $18, 0($29)
10276	9D08  00009010             mfhi $18
10277	9D0C  AFB20000             sw $18, 0($29)
10278	9D10  0C002D43             jal increment
10279	9D14  3C020000             lui $2, 0
10280	9D18  34420000             ori $2, $2, 0
10281	9D1C  3C030003             lui $3, 3
10282	9D20  34630000             ori $3, $3, 0
10283	9D24  00430019             multu $2, $3
10284	9D28  00009012             mflo $18
10285	9D2C  AFB20000             sw $18, 0($29)
10286	9D30  00009010             mfhi $18
10287	9D34  AFB20000             sw $18, 0($29)
10288	9D38  0C002D43             jal increment
10289	9D3C  3C02AAAA             lui $2, 43690
10290	9D40  3442AAAA             ori $2, $2, 43690
10291	9D44  3C030003             lui $3, 3
10292	9D48  34630000             ori $3, $3, 0
10293	9D4C  00430019             multu $2, $3
10294	9D50  00009012             mflo $18
10295	9D54  AFB20000             sw $18, 0($29)
10296	9D58  00009010             mfhi $18
10297	9D5C  AFB20000             sw $18, 0($29)
10298	9D60  0C002D43             jal increment
10299	9D64  3C02D34D             lui $2, 54093
10300	9D68  34425555             ori $2, $2, 21845
10301	9D6C  3C030003             lui $3, 3
10302	9D70  34630000             ori $3, $3, 0
10303	9D74  00430019             multu $2, $3
10304	9D78  00009012             mflo $18
10305	9D7C  AFB20000             sw $18, 0($29)
10306	9D80  00009010             mfhi $18
10307	9D84  AFB20000             sw $18, 0($29)
10308	9D88  0C002D43             jal increment
10309	9D8C  3C021999             lui $2, 6553
10310	9D90  3442999A             ori $2, $2, 39322
10311	9D94  3C030003             lui $3, 3
10312	9D98  34630000             ori $3, $3, 0
10313	9D9C  00430019             multu $2, $3
10314	9DA0  00009012             mflo $18
10315	9DA4  AFB20000             sw $18, 0($29)
10316	9DA8  00009010             mfhi $18
10317	9DAC  AFB20000             sw $18, 0($29)
10318	9DB0  0C002D43             jal increment
10319	9DB4  3C023536             lui $2, 13622
10320	9DB8  34426666             ori $2, $2, 26214
10321	9DBC  3C030003             lui $3, 3
10322	9DC0  34630000             ori $3, $3, 0
10323	9DC4  00430019             multu $2, $3
10324	9DC8  00009012             mflo $18
10325	9DCC  AFB20000             sw $18, 0($29)
10326	9DD0  00009010             mfhi $18
10327	9DD4  AFB20000             sw $18, 0($29)
10328	9DD8  0C002D43             jal increment
10329	9DDC  3C024CD4             lui $2, 19668
10330	9DE0  3442CCCB             ori $2, $2, 52427
10331	9DE4  3C030003             lui $3, 3
10332	9DE8  34630000             ori $3, $3, 0
10333	9DEC  00430019             multu $2, $3
10334	9DF0  00009012             mflo $18
10335	9DF4  AFB20000             sw $18, 0($29)
10336	9DF8  00009010             mfhi $18
10337	9DFC  AFB20000             sw $18, 0($29)
10338	9E00  0C002D43             jal increment
10339	9E04  3C026773             lui $2, 26483
10340	9E08  3442F337             ori $2, $2, 62263
10341	9E0C  3C030003             lui $3, 3
10342	9E10  34630000             ori $3, $3, 0
10343	9E14  00430019             multu $2, $3
10344	9E18  00009012             mflo $18
10345	9E1C  AFB20000             sw $18, 0($29)
10346	9E20  00009010             mfhi $18
10347	9E24  AFB20000             sw $18, 0($29)
10348	9E28  0C002D43             jal increment
10349	9E2C  3C02FDDD             lui $2, 64989
10350	9E30  34425EDF             ori $2, $2, 24287
10351	9E34  3C030003             lui $3, 3
10352	9E38  34630000             ori $3, $3, 0
10353	9E3C  00430019             multu $2, $3
10354	9E40  00009012             mflo $18
10355	9E44  AFB20000             sw $18, 0($29)
10356	9E48  00009010             mfhi $18
10357	9E4C  AFB20000             sw $18, 0($29)
10358	9E50  0C002D43             jal increment
10359	9E54  3C025666             lui $2, 22118
10360	9E58  3442BB6C             ori $2, $2, 47980
10361	9E5C  3C030003             lui $3, 3
10362	9E60  34630000             ori $3, $3, 0
10363	9E64  00430019             multu $2, $3
10364	9E68  00009012             mflo $18
10365	9E6C  AFB20000             sw $18, 0($29)
10366	9E70  00009010             mfhi $18
10367	9E74  AFB20000             sw $18, 0($29)
10368	9E78  0C002D43             jal increment
10369	9E7C  3C02AAAB             lui $2, 43691
10370	9E80  344215B3             ori $2, $2, 5555
10371	9E84  3C030003             lui $3, 3
10372	9E88  34630000             ori $3, $3, 0
10373	9E8C  00430019             multu $2, $3
10374	9E90  00009012             mflo $18
10375	9E94  AFB20000             sw $18, 0($29)
10376	9E98  00009010             mfhi $18
10377	9E9C  AFB20000             sw $18, 0($29)
10378	9EA0  0C002D43             jal increment
10379	9EA4  3C020000             lui $2, 0
10380	9EA8  34420000             ori $2, $2, 0
10381	9EAC  3C030006             lui $3, 6
10382	9EB0  34630000             ori $3, $3, 0
10383	9EB4  00430019             multu $2, $3
10384	9EB8  00009012             mflo $18
10385	9EBC  AFB20000             sw $18, 0($29)
10386	9EC0  00009010             mfhi $18
10387	9EC4  AFB20000             sw $18, 0($29)
10388	9EC8  0C002D43             jal increment
10389	9ECC  3C02AAAA             lui $2, 43690
10390	9ED0  3442AAAA             ori $2, $2, 43690
10391	9ED4  3C030006             lui $3, 6
10392	9ED8  34630000             ori $3, $3, 0
10393	9EDC  00430019             multu $2, $3
10394	9EE0  00009012             mflo $18
10395	9EE4  AFB20000             sw $18, 0($29)
10396	9EE8  00009010             mfhi $18
10397	9EEC  AFB20000             sw $18, 0($29)
10398	9EF0  0C002D43             jal increment
10399	9EF4  3C02D34D             lui $2, 54093
10400	9EF8  34425555             ori $2, $2, 21845
10401	9EFC  3C030006             lui $3, 6
10402	9F00  34630000             ori $3, $3, 0
10403	9F04  00430019             multu $2, $3
10404	9F08  00009012             mflo $18
10405	9F0C  AFB20000             sw $18, 0($29)
10406	9F10  00009010             mfhi $18
10407	9F14  AFB20000             sw $18, 0($29)
10408	9F18  0C002D43             jal increment
10409	9F1C  3C021999             lui $2, 6553
10410	9F20  3442999A             ori $2, $2, 39322
10411	9F24  3C030006             lui $3, 6
10412	9F28  34630000             ori $3, $3, 0
10413	9F2C  00430019             multu $2, $3
10414	9F30  00009012             mflo $18
10415	9F34  AFB20000             sw $18, 0($29)
10416	9F38  00009010             mfhi $18
10417	9F3C  AFB20000             sw $18, 0($29)
10418	9F40  0C002D43             jal increment
10419	9F44  3C023536             lui $2, 13622
10420	9F48  34426666             ori $2, $2, 26214
10421	9F4C  3C030006             lui $3, 6
10422	9F50  34630000             ori $3, $3, 0
10423	9F54  00430019             multu $2, $3
10424	9F58  00009012             mflo $18
10425	9F5C  AFB20000             sw $18, 0($29)
10426	9F60  00009010             mfhi $18
10427	9F64  AFB20000             sw $18, 0($29)
10428	9F68  0C002D43             jal increment
10429	9F6C  3C024CD4             lui $2, 19668
10430	9F70  3442CCCB             ori $2, $2, 52427
10431	9F74  3C030006             lui $3, 6
10432	9F78  34630000             ori $3, $3, 0
10433	9F7C  00430019             multu $2, $3
10434	9F80  00009012             mflo $18
10435	9F84  AFB20000             sw $18, 0($29)
10436	9F88  00009010             mfhi $18
10437	9F8C  AFB20000             sw $18, 0($29)
10438	9F90  0C002D43             jal increment
10439	9F94  3C026773             lui $2, 26483
10440	9F98  3442F337             ori $2, $2, 62263
10441	9F9C  3C030006             lui $3, 6
10442	9FA0  34630000             ori $3, $3, 0
10443	9FA4  00430019             multu $2, $3
10444	9FA8  00009012             mflo $18
10445	9FAC  AFB20000             sw $18, 0($29)
10446	9FB0  00009010             mfhi $18
10447	9FB4  AFB20000             sw $18, 0($29)
10448	9FB8  0C002D43             jal increment
10449	9FBC  3C02FDDD             lui $2, 64989
10450	9FC0  34425EDF             ori $2, $2, 24287
10451	9FC4  3C030006             lui $3, 6
10452	9FC8  34630000             ori $3, $3, 0
10453	9FCC  00430019             multu $2, $3
10454	9FD0  00009012             mflo $18
10455	9FD4  AFB20000             sw $18, 0($29)
10456	9FD8  00009010             mfhi $18
10457	9FDC  AFB20000             sw $18, 0($29)
10458	9FE0  0C002D43             jal increment
10459	9FE4  3C025666             lui $2, 22118
10460	9FE8  3442BB6C             ori $2, $2, 47980
10461	9FEC  3C030006             lui $3, 6
10462	9FF0  34630000             ori $3, $3, 0
10463	9FF4  00430019             multu $2, $3
10464	9FF8  00009012             mflo $18
10465	9FFC  AFB20000             sw $18, 0($29)
10466	A000  00009010             mfhi $18
10467	A004  AFB20000             sw $18, 0($29)
10468	A008  0C002D43             jal increment
10469	A00C  3C02AAAB             lui $2, 43691
10470	A010  344215B3             ori $2, $2, 5555
10471	A014  3C030006             lui $3, 6
10472	A018  34630000             ori $3, $3, 0
10473	A01C  00430019             multu $2, $3
10474	A020  00009012             mflo $18
10475	A024  AFB20000             sw $18, 0($29)
10476	A028  00009010             mfhi $18
10477	A02C  AFB20000             sw $18, 0($29)
10478	A030  0C002D43             jal increment
10479	A034  3C020000             lui $2, 0
10480	A038  34420000             ori $2, $2, 0
10481	A03C  3C03000C             lui $3, 12
10482	A040  34630000             ori $3, $3, 0
10483	A044  00430019             multu $2, $3
10484	A048  00009012             mflo $18
10485	A04C  AFB20000             sw $18, 0($29)
10486	A050  00009010             mfhi $18
10487	A054  AFB20000             sw $18, 0($29)
10488	A058  0C002D43             jal increment
10489	A05C  3C02AAAA             lui $2, 43690
10490	A060  3442AAAA             ori $2, $2, 43690
10491	A064  3C03000C             lui $3, 12
10492	A068  34630000             ori $3, $3, 0
10493	A06C  00430019             multu $2, $3
10494	A070  00009012             mflo $18
10495	A074  AFB20000             sw $18, 0($29)
10496	A078  00009010             mfhi $18
10497	A07C  AFB20000             sw $18, 0($29)
10498	A080  0C002D43             jal increment
10499	A084  3C02D34D             lui $2, 54093
10500	A088  34425555             ori $2, $2, 21845
10501	A08C  3C03000C             lui $3, 12
10502	A090  34630000             ori $3, $3, 0
10503	A094  00430019             multu $2, $3
10504	A098  00009012             mflo $18
10505	A09C  AFB20000             sw $18, 0($29)
10506	A0A0  00009010             mfhi $18
10507	A0A4  AFB20000             sw $18, 0($29)
10508	A0A8  0C002D43             jal increment
10509	A0AC  3C021999             lui $2, 6553
10510	A0B0  3442999A             ori $2, $2, 39322
10511	A0B4  3C03000C             lui $3, 12
10512	A0B8  34630000             ori $3, $3, 0
10513	A0BC  00430019             multu $2, $3
10514	A0C0  00009012             mflo $18
10515	A0C4  AFB20000             sw $18, 0($29)
10516	A0C8  00009010             mfhi $18
10517	A0CC  AFB20000             sw $18, 0($29)
10518	A0D0  0C002D43             jal increment
10519	A0D4  3C023536             lui $2, 13622
10520	A0D8  34426666             ori $2, $2, 26214
10521	A0DC  3C03000C             lui $3, 12
10522	A0E0  34630000             ori $3, $3, 0
10523	A0E4  00430019             multu $2, $3
10524	A0E8  00009012             mflo $18
10525	A0EC  AFB20000             sw $18, 0($29)
10526	A0F0  00009010             mfhi $18
10527	A0F4  AFB20000             sw $18, 0($29)
10528	A0F8  0C002D43             jal increment
10529	A0FC  3C024CD4             lui $2, 19668
10530	A100  3442CCCB             ori $2, $2, 52427
10531	A104  3C03000C             lui $3, 12
10532	A108  34630000             ori $3, $3, 0
10533	A10C  00430019             multu $2, $3
10534	A110  00009012             mflo $18
10535	A114  AFB20000             sw $18, 0($29)
10536	A118  00009010             mfhi $18
10537	A11C  AFB20000             sw $18, 0($29)
10538	A120  0C002D43             jal increment
10539	A124  3C026773             lui $2, 26483
10540	A128  3442F337             ori $2, $2, 62263
10541	A12C  3C03000C             lui $3, 12
10542	A130  34630000             ori $3, $3, 0
10543	A134  00430019             multu $2, $3
10544	A138  00009012             mflo $18
10545	A13C  AFB20000             sw $18, 0($29)
10546	A140  00009010             mfhi $18
10547	A144  AFB20000             sw $18, 0($29)
10548	A148  0C002D43             jal increment
10549	A14C  3C02FDDD             lui $2, 64989
10550	A150  34425EDF             ori $2, $2, 24287
10551	A154  3C03000C             lui $3, 12
10552	A158  34630000             ori $3, $3, 0
10553	A15C  00430019             multu $2, $3
10554	A160  00009012             mflo $18
10555	A164  AFB20000             sw $18, 0($29)
10556	A168  00009010             mfhi $18
10557	A16C  AFB20000             sw $18, 0($29)
10558	A170  0C002D43             jal increment
10559	A174  3C025666             lui $2, 22118
10560	A178  3442BB6C             ori $2, $2, 47980
10561	A17C  3C03000C             lui $3, 12
10562	A180  34630000             ori $3, $3, 0
10563	A184  00430019             multu $2, $3
10564	A188  00009012             mflo $18
10565	A18C  AFB20000             sw $18, 0($29)
10566	A190  00009010             mfhi $18
10567	A194  AFB20000             sw $18, 0($29)
10568	A198  0C002D43             jal increment
10569	A19C  3C02AAAB             lui $2, 43691
10570	A1A0  344215B3             ori $2, $2, 5555
10571	A1A4  3C03000C             lui $3, 12
10572	A1A8  34630000             ori $3, $3, 0
10573	A1AC  00430019             multu $2, $3
10574	A1B0  00009012             mflo $18
10575	A1B4  AFB20000             sw $18, 0($29)
10576	A1B8  00009010             mfhi $18
10577	A1BC  AFB20000             sw $18, 0($29)
10578	A1C0  0C002D43             jal increment
10579	A1C4  3C020000             lui $2, 0
10580	A1C8  34420000             ori $2, $2, 0
10581	A1CC  3C030018             lui $3, 24
10582	A1D0  34630000             ori $3, $3, 0
10583	A1D4  00430019             multu $2, $3
10584	A1D8  00009012             mflo $18
10585	A1DC  AFB20000             sw $18, 0($29)
10586	A1E0  00009010             mfhi $18
10587	A1E4  AFB20000             sw $18, 0($29)
10588	A1E8  0C002D43             jal increment
10589	A1EC  3C02AAAA             lui $2, 43690
10590	A1F0  3442AAAA             ori $2, $2, 43690
10591	A1F4  3C030018             lui $3, 24
10592	A1F8  34630000             ori $3, $3, 0
10593	A1FC  00430019             multu $2, $3
10594	A200  00009012             mflo $18
10595	A204  AFB20000             sw $18, 0($29)
10596	A208  00009010             mfhi $18
10597	A20C  AFB20000             sw $18, 0($29)
10598	A210  0C002D43             jal increment
10599	A214  3C02D34D             lui $2, 54093
10600	A218  34425555             ori $2, $2, 21845
10601	A21C  3C030018             lui $3, 24
10602	A220  34630000             ori $3, $3, 0
10603	A224  00430019             multu $2, $3
10604	A228  00009012             mflo $18
10605	A22C  AFB20000             sw $18, 0($29)
10606	A230  00009010             mfhi $18
10607	A234  AFB20000             sw $18, 0($29)
10608	A238  0C002D43             jal increment
10609	A23C  3C021999             lui $2, 6553
10610	A240  3442999A             ori $2, $2, 39322
10611	A244  3C030018             lui $3, 24
10612	A248  34630000             ori $3, $3, 0
10613	A24C  00430019             multu $2, $3
10614	A250  00009012             mflo $18
10615	A254  AFB20000             sw $18, 0($29)
10616	A258  00009010             mfhi $18
10617	A25C  AFB20000             sw $18, 0($29)
10618	A260  0C002D43             jal increment
10619	A264  3C023536             lui $2, 13622
10620	A268  34426666             ori $2, $2, 26214
10621	A26C  3C030018             lui $3, 24
10622	A270  34630000             ori $3, $3, 0
10623	A274  00430019             multu $2, $3
10624	A278  00009012             mflo $18
10625	A27C  AFB20000             sw $18, 0($29)
10626	A280  00009010             mfhi $18
10627	A284  AFB20000             sw $18, 0($29)
10628	A288  0C002D43             jal increment
10629	A28C  3C024CD4             lui $2, 19668
10630	A290  3442CCCB             ori $2, $2, 52427
10631	A294  3C030018             lui $3, 24
10632	A298  34630000             ori $3, $3, 0
10633	A29C  00430019             multu $2, $3
10634	A2A0  00009012             mflo $18
10635	A2A4  AFB20000             sw $18, 0($29)
10636	A2A8  00009010             mfhi $18
10637	A2AC  AFB20000             sw $18, 0($29)
10638	A2B0  0C002D43             jal increment
10639	A2B4  3C026773             lui $2, 26483
10640	A2B8  3442F337             ori $2, $2, 62263
10641	A2BC  3C030018             lui $3, 24
10642	A2C0  34630000             ori $3, $3, 0
10643	A2C4  00430019             multu $2, $3
10644	A2C8  00009012             mflo $18
10645	A2CC  AFB20000             sw $18, 0($29)
10646	A2D0  00009010             mfhi $18
10647	A2D4  AFB20000             sw $18, 0($29)
10648	A2D8  0C002D43             jal increment
10649	A2DC  3C02FDDD             lui $2, 64989
10650	A2E0  34425EDF             ori $2, $2, 24287
10651	A2E4  3C030018             lui $3, 24
10652	A2E8  34630000             ori $3, $3, 0
10653	A2EC  00430019             multu $2, $3
10654	A2F0  00009012             mflo $18
10655	A2F4  AFB20000             sw $18, 0($29)
10656	A2F8  00009010             mfhi $18
10657	A2FC  AFB20000             sw $18, 0($29)
10658	A300  0C002D43             jal increment
10659	A304  3C025666             lui $2, 22118
10660	A308  3442BB6C             ori $2, $2, 47980
10661	A30C  3C030018             lui $3, 24
10662	A310  34630000             ori $3, $3, 0
10663	A314  00430019             multu $2, $3
10664	A318  00009012             mflo $18
10665	A31C  AFB20000             sw $18, 0($29)
10666	A320  00009010             mfhi $18
10667	A324  AFB20000             sw $18, 0($29)
10668	A328  0C002D43             jal increment
10669	A32C  3C02AAAB             lui $2, 43691
10670	A330  344215B3             ori $2, $2, 5555
10671	A334  3C030018             lui $3, 24
10672	A338  34630000             ori $3, $3, 0
10673	A33C  00430019             multu $2, $3
10674	A340  00009012             mflo $18
10675	A344  AFB20000             sw $18, 0($29)
10676	A348  00009010             mfhi $18
10677	A34C  AFB20000             sw $18, 0($29)
10678	A350  0C002D43             jal increment
10679	A354  3C020000             lui $2, 0
10680	A358  34420000             ori $2, $2, 0
10681	A35C  3C030030             lui $3, 48
10682	A360  34630000             ori $3, $3, 0
10683	A364  00430019             multu $2, $3
10684	A368  00009012             mflo $18
10685	A36C  AFB20000             sw $18, 0($29)
10686	A370  00009010             mfhi $18
10687	A374  AFB20000             sw $18, 0($29)
10688	A378  0C002D43             jal increment
10689	A37C  3C02AAAA             lui $2, 43690
10690	A380  3442AAAA             ori $2, $2, 43690
10691	A384  3C030030             lui $3, 48
10692	A388  34630000             ori $3, $3, 0
10693	A38C  00430019             multu $2, $3
10694	A390  00009012             mflo $18
10695	A394  AFB20000             sw $18, 0($29)
10696	A398  00009010             mfhi $18
10697	A39C  AFB20000             sw $18, 0($29)
10698	A3A0  0C002D43             jal increment
10699	A3A4  3C02D34D             lui $2, 54093
10700	A3A8  34425555             ori $2, $2, 21845
10701	A3AC  3C030030             lui $3, 48
10702	A3B0  34630000             ori $3, $3, 0
10703	A3B4  00430019             multu $2, $3
10704	A3B8  00009012             mflo $18
10705	A3BC  AFB20000             sw $18, 0($29)
10706	A3C0  00009010             mfhi $18
10707	A3C4  AFB20000             sw $18, 0($29)
10708	A3C8  0C002D43             jal increment
10709	A3CC  3C021999             lui $2, 6553
10710	A3D0  3442999A             ori $2, $2, 39322
10711	A3D4  3C030030             lui $3, 48
10712	A3D8  34630000             ori $3, $3, 0
10713	A3DC  00430019             multu $2, $3
10714	A3E0  00009012             mflo $18
10715	A3E4  AFB20000             sw $18, 0($29)
10716	A3E8  00009010             mfhi $18
10717	A3EC  AFB20000             sw $18, 0($29)
10718	A3F0  0C002D43             jal increment
10719	A3F4  3C023536             lui $2, 13622
10720	A3F8  34426666             ori $2, $2, 26214
10721	A3FC  3C030030             lui $3, 48
10722	A400  34630000             ori $3, $3, 0
10723	A404  00430019             multu $2, $3
10724	A408  00009012             mflo $18
10725	A40C  AFB20000             sw $18, 0($29)
10726	A410  00009010             mfhi $18
10727	A414  AFB20000             sw $18, 0($29)
10728	A418  0C002D43             jal increment
10729	A41C  3C024CD4             lui $2, 19668
10730	A420  3442CCCB             ori $2, $2, 52427
10731	A424  3C030030             lui $3, 48
10732	A428  34630000             ori $3, $3, 0
10733	A42C  00430019             multu $2, $3
10734	A430  00009012             mflo $18
10735	A434  AFB20000             sw $18, 0($29)
10736	A438  00009010             mfhi $18
10737	A43C  AFB20000             sw $18, 0($29)
10738	A440  0C002D43             jal increment
10739	A444  3C026773             lui $2, 26483
10740	A448  3442F337             ori $2, $2, 62263
10741	A44C  3C030030             lui $3, 48
10742	A450  34630000             ori $3, $3, 0
10743	A454  00430019             multu $2, $3
10744	A458  00009012             mflo $18
10745	A45C  AFB20000             sw $18, 0($29)
10746	A460  00009010             mfhi $18
10747	A464  AFB20000             sw $18, 0($29)
10748	A468  0C002D43             jal increment
10749	A46C  3C02FDDD             lui $2, 64989
10750	A470  34425EDF             ori $2, $2, 24287
10751	A474  3C030030             lui $3, 48
10752	A478  34630000             ori $3, $3, 0
10753	A47C  00430019             multu $2, $3
10754	A480  00009012             mflo $18
10755	A484  AFB20000             sw $18, 0($29)
10756	A488  00009010             mfhi $18
10757	A48C  AFB20000             sw $18, 0($29)
10758	A490  0C002D43             jal increment
10759	A494  3C025666             lui $2, 22118
10760	A498  3442BB6C             ori $2, $2, 47980
10761	A49C  3C030030             lui $3, 48
10762	A4A0  34630000             ori $3, $3, 0
10763	A4A4  00430019             multu $2, $3
10764	A4A8  00009012             mflo $18
10765	A4AC  AFB20000             sw $18, 0($29)
10766	A4B0  00009010             mfhi $18
10767	A4B4  AFB20000             sw $18, 0($29)
10768	A4B8  0C002D43             jal increment
10769	A4BC  3C02AAAB             lui $2, 43691
10770	A4C0  344215B3             ori $2, $2, 5555
10771	A4C4  3C030030             lui $3, 48
10772	A4C8  34630000             ori $3, $3, 0
10773	A4CC  00430019             multu $2, $3
10774	A4D0  00009012             mflo $18
10775	A4D4  AFB20000             sw $18, 0($29)
10776	A4D8  00009010             mfhi $18
10777	A4DC  AFB20000             sw $18, 0($29)
10778	A4E0  0C002D43             jal increment
10779	A4E4  3C020000             lui $2, 0
10780	A4E8  34420000             ori $2, $2, 0
10781	A4EC  3C030060             lui $3, 96
10782	A4F0  34630000             ori $3, $3, 0
10783	A4F4  00430019             multu $2, $3
10784	A4F8  00009012             mflo $18
10785	A4FC  AFB20000             sw $18, 0($29)
10786	A500  00009010             mfhi $18
10787	A504  AFB20000             sw $18, 0($29)
10788	A508  0C002D43             jal increment
10789	A50C  3C02AAAA             lui $2, 43690
10790	A510  3442AAAA             ori $2, $2, 43690
10791	A514  3C030060             lui $3, 96
10792	A518  34630000             ori $3, $3, 0
10793	A51C  00430019             multu $2, $3
10794	A520  00009012             mflo $18
10795	A524  AFB20000             sw $18, 0($29)
10796	A528  00009010             mfhi $18
10797	A52C  AFB20000             sw $18, 0($29)
10798	A530  0C002D43             jal increment
10799	A534  3C02D34D             lui $2, 54093
10800	A538  34425555             ori $2, $2, 21845
10801	A53C  3C030060             lui $3, 96
10802	A540  34630000             ori $3, $3, 0
10803	A544  00430019             multu $2, $3
10804	A548  00009012             mflo $18
10805	A54C  AFB20000             sw $18, 0($29)
10806	A550  00009010             mfhi $18
10807	A554  AFB20000             sw $18, 0($29)
10808	A558  0C002D43             jal increment
10809	A55C  3C021999             lui $2, 6553
10810	A560  3442999A             ori $2, $2, 39322
10811	A564  3C030060             lui $3, 96
10812	A568  34630000             ori $3, $3, 0
10813	A56C  00430019             multu $2, $3
10814	A570  00009012             mflo $18
10815	A574  AFB20000             sw $18, 0($29)
10816	A578  00009010             mfhi $18
10817	A57C  AFB20000             sw $18, 0($29)
10818	A580  0C002D43             jal increment
10819	A584  3C023536             lui $2, 13622
10820	A588  34426666             ori $2, $2, 26214
10821	A58C  3C030060             lui $3, 96
10822	A590  34630000             ori $3, $3, 0
10823	A594  00430019             multu $2, $3
10824	A598  00009012             mflo $18
10825	A59C  AFB20000             sw $18, 0($29)
10826	A5A0  00009010             mfhi $18
10827	A5A4  AFB20000             sw $18, 0($29)
10828	A5A8  0C002D43             jal increment
10829	A5AC  3C024CD4             lui $2, 19668
10830	A5B0  3442CCCB             ori $2, $2, 52427
10831	A5B4  3C030060             lui $3, 96
10832	A5B8  34630000             ori $3, $3, 0
10833	A5BC  00430019             multu $2, $3
10834	A5C0  00009012             mflo $18
10835	A5C4  AFB20000             sw $18, 0($29)
10836	A5C8  00009010             mfhi $18
10837	A5CC  AFB20000             sw $18, 0($29)
10838	A5D0  0C002D43             jal increment
10839	A5D4  3C026773             lui $2, 26483
10840	A5D8  3442F337             ori $2, $2, 62263
10841	A5DC  3C030060             lui $3, 96
10842	A5E0  34630000             ori $3, $3, 0
10843	A5E4  00430019             multu $2, $3
10844	A5E8  00009012             mflo $18
10845	A5EC  AFB20000             sw $18, 0($29)
10846	A5F0  00009010             mfhi $18
10847	A5F4  AFB20000             sw $18, 0($29)
10848	A5F8  0C002D43             jal increment
10849	A5FC  3C02FDDD             lui $2, 64989
10850	A600  34425EDF             ori $2, $2, 24287
10851	A604  3C030060             lui $3, 96
10852	A608  34630000             ori $3, $3, 0
10853	A60C  00430019             multu $2, $3
10854	A610  00009012             mflo $18
10855	A614  AFB20000             sw $18, 0($29)
10856	A618  00009010             mfhi $18
10857	A61C  AFB20000             sw $18, 0($29)
10858	A620  0C002D43             jal increment
10859	A624  3C025666             lui $2, 22118
10860	A628  3442BB6C             ori $2, $2, 47980
10861	A62C  3C030060             lui $3, 96
10862	A630  34630000             ori $3, $3, 0
10863	A634  00430019             multu $2, $3
10864	A638  00009012             mflo $18
10865	A63C  AFB20000             sw $18, 0($29)
10866	A640  00009010             mfhi $18
10867	A644  AFB20000             sw $18, 0($29)
10868	A648  0C002D43             jal increment
10869	A64C  3C02AAAB             lui $2, 43691
10870	A650  344215B3             ori $2, $2, 5555
10871	A654  3C030060             lui $3, 96
10872	A658  34630000             ori $3, $3, 0
10873	A65C  00430019             multu $2, $3
10874	A660  00009012             mflo $18
10875	A664  AFB20000             sw $18, 0($29)
10876	A668  00009010             mfhi $18
10877	A66C  AFB20000             sw $18, 0($29)
10878	A670  0C002D43             jal increment
10879	A674  3C020000             lui $2, 0
10880	A678  34420000             ori $2, $2, 0
10881	A67C  3C0300C0             lui $3, 192
10882	A680  34630000             ori $3, $3, 0
10883	A684  00430019             multu $2, $3
10884	A688  00009012             mflo $18
10885	A68C  AFB20000             sw $18, 0($29)
10886	A690  00009010             mfhi $18
10887	A694  AFB20000             sw $18, 0($29)
10888	A698  0C002D43             jal increment
10889	A69C  3C02AAAA             lui $2, 43690
10890	A6A0  3442AAAA             ori $2, $2, 43690
10891	A6A4  3C0300C0             lui $3, 192
10892	A6A8  34630000             ori $3, $3, 0
10893	A6AC  00430019             multu $2, $3
10894	A6B0  00009012             mflo $18
10895	A6B4  AFB20000             sw $18, 0($29)
10896	A6B8  00009010             mfhi $18
10897	A6BC  AFB20000             sw $18, 0($29)
10898	A6C0  0C002D43             jal increment
10899	A6C4  3C02D34D             lui $2, 54093
10900	A6C8  34425555             ori $2, $2, 21845
10901	A6CC  3C0300C0             lui $3, 192
10902	A6D0  34630000             ori $3, $3, 0
10903	A6D4  00430019             multu $2, $3
10904	A6D8  00009012             mflo $18
10905	A6DC  AFB20000             sw $18, 0($29)
10906	A6E0  00009010             mfhi $18
10907	A6E4  AFB20000             sw $18, 0($29)
10908	A6E8  0C002D43             jal increment
10909	A6EC  3C021999             lui $2, 6553
10910	A6F0  3442999A             ori $2, $2, 39322
10911	A6F4  3C0300C0             lui $3, 192
10912	A6F8  34630000             ori $3, $3, 0
10913	A6FC  00430019             multu $2, $3
10914	A700  00009012             mflo $18
10915	A704  AFB20000             sw $18, 0($29)
10916	A708  00009010             mfhi $18
10917	A70C  AFB20000             sw $18, 0($29)
10918	A710  0C002D43             jal increment
10919	A714  3C023536             lui $2, 13622
10920	A718  34426666             ori $2, $2, 26214
10921	A71C  3C0300C0             lui $3, 192
10922	A720  34630000             ori $3, $3, 0
10923	A724  00430019             multu $2, $3
10924	A728  00009012             mflo $18
10925	A72C  AFB20000             sw $18, 0($29)
10926	A730  00009010             mfhi $18
10927	A734  AFB20000             sw $18, 0($29)
10928	A738  0C002D43             jal increment
10929	A73C  3C024CD4             lui $2, 19668
10930	A740  3442CCCB             ori $2, $2, 52427
10931	A744  3C0300C0             lui $3, 192
10932	A748  34630000             ori $3, $3, 0
10933	A74C  00430019             multu $2, $3
10934	A750  00009012             mflo $18
10935	A754  AFB20000             sw $18, 0($29)
10936	A758  00009010             mfhi $18
10937	A75C  AFB20000             sw $18, 0($29)
10938	A760  0C002D43             jal increment
10939	A764  3C026773             lui $2, 26483
10940	A768  3442F337             ori $2, $2, 62263
10941	A76C  3C0300C0             lui $3, 192
10942	A770  34630000             ori $3, $3, 0
10943	A774  00430019             multu $2, $3
10944	A778  00009012             mflo $18
10945	A77C  AFB20000             sw $18, 0($29)
10946	A780  00009010             mfhi $18
10947	A784  AFB20000             sw $18, 0($29)
10948	A788  0C002D43             jal increment
10949	A78C  3C02FDDD             lui $2, 64989
10950	A790  34425EDF             ori $2, $2, 24287
10951	A794  3C0300C0             lui $3, 192
10952	A798  34630000             ori $3, $3, 0
10953	A79C  00430019             multu $2, $3
10954	A7A0  00009012             mflo $18
10955	A7A4  AFB20000             sw $18, 0($29)
10956	A7A8  00009010             mfhi $18
10957	A7AC  AFB20000             sw $18, 0($29)
10958	A7B0  0C002D43             jal increment
10959	A7B4  3C025666             lui $2, 22118
10960	A7B8  3442BB6C             ori $2, $2, 47980
10961	A7BC  3C0300C0             lui $3, 192
10962	A7C0  34630000             ori $3, $3, 0
10963	A7C4  00430019             multu $2, $3
10964	A7C8  00009012             mflo $18
10965	A7CC  AFB20000             sw $18, 0($29)
10966	A7D0  00009010             mfhi $18
10967	A7D4  AFB20000             sw $18, 0($29)
10968	A7D8  0C002D43             jal increment
10969	A7DC  3C02AAAB             lui $2, 43691
10970	A7E0  344215B3             ori $2, $2, 5555
10971	A7E4  3C0300C0             lui $3, 192
10972	A7E8  34630000             ori $3, $3, 0
10973	A7EC  00430019             multu $2, $3
10974	A7F0  00009012             mflo $18
10975	A7F4  AFB20000             sw $18, 0($29)
10976	A7F8  00009010             mfhi $18
10977	A7FC  AFB20000             sw $18, 0($29)
10978	A800  0C002D43             jal increment
10979	A804  3C020000             lui $2, 0
10980	A808  34420000             ori $2, $2, 0
10981	A80C  3C030180             lui $3, 384
10982	A810  34630000             ori $3, $3, 0
10983	A814  00430019             multu $2, $3
10984	A818  00009012             mflo $18
10985	A81C  AFB20000             sw $18, 0($29)
10986	A820  00009010             mfhi $18
10987	A824  AFB20000             sw $18, 0($29)
10988	A828  0C002D43             jal increment
10989	A82C  3C02AAAA             lui $2, 43690
10990	A830  3442AAAA             ori $2, $2, 43690
10991	A834  3C030180             lui $3, 384
10992	A838  34630000             ori $3, $3, 0
10993	A83C  00430019             multu $2, $3
10994	A840  00009012             mflo $18
10995	A844  AFB20000             sw $18, 0($29)
10996	A848  00009010             mfhi $18
10997	A84C  AFB20000             sw $18, 0($29)
10998	A850  0C002D43             jal increment
10999	A854  3C02D34D             lui $2, 54093
11000	A858  34425555             ori $2, $2, 21845
11001	A85C  3C030180             lui $3, 384
11002	A860  34630000             ori $3, $3, 0
11003	A864  00430019             multu $2, $3
11004	A868  00009012             mflo $18
11005	A86C  AFB20000             sw $18, 0($29)
11006	A870  00009010             mfhi $18
11007	A874  AFB20000             sw $18, 0($29)
11008	A878  0C002D43             jal increment
11009	A87C  3C021999             lui $2, 6553
11010	A880  3442999A             ori $2, $2, 39322
11011	A884  3C030180             lui $3, 384
11012	A888  34630000             ori $3, $3, 0
11013	A88C  00430019             multu $2, $3
11014	A890  00009012             mflo $18
11015	A894  AFB20000             sw $18, 0($29)
11016	A898  00009010             mfhi $18
11017	A89C  AFB20000             sw $18, 0($29)
11018	A8A0  0C002D43             jal increment
11019	A8A4  3C023536             lui $2, 13622
11020	A8A8  34426666             ori $2, $2, 26214
11021	A8AC  3C030180             lui $3, 384
11022	A8B0  34630000             ori $3, $3, 0
11023	A8B4  00430019             multu $2, $3
11024	A8B8  00009012             mflo $18
11025	A8BC  AFB20000             sw $18, 0($29)
11026	A8C0  00009010             mfhi $18
11027	A8C4  AFB20000             sw $18, 0($29)
11028	A8C8  0C002D43             jal increment
11029	A8CC  3C024CD4             lui $2, 19668
11030	A8D0  3442CCCB             ori $2, $2, 52427
11031	A8D4  3C030180             lui $3, 384
11032	A8D8  34630000             ori $3, $3, 0
11033	A8DC  00430019             multu $2, $3
11034	A8E0  00009012             mflo $18
11035	A8E4  AFB20000             sw $18, 0($29)
11036	A8E8  00009010             mfhi $18
11037	A8EC  AFB20000             sw $18, 0($29)
11038	A8F0  0C002D43             jal increment
11039	A8F4  3C026773             lui $2, 26483
11040	A8F8  3442F337             ori $2, $2, 62263
11041	A8FC  3C030180             lui $3, 384
11042	A900  34630000             ori $3, $3, 0
11043	A904  00430019             multu $2, $3
11044	A908  00009012             mflo $18
11045	A90C  AFB20000             sw $18, 0($29)
11046	A910  00009010             mfhi $18
11047	A914  AFB20000             sw $18, 0($29)
11048	A918  0C002D43             jal increment
11049	A91C  3C02FDDD             lui $2, 64989
11050	A920  34425EDF             ori $2, $2, 24287
11051	A924  3C030180             lui $3, 384
11052	A928  34630000             ori $3, $3, 0
11053	A92C  00430019             multu $2, $3
11054	A930  00009012             mflo $18
11055	A934  AFB20000             sw $18, 0($29)
11056	A938  00009010             mfhi $18
11057	A93C  AFB20000             sw $18, 0($29)
11058	A940  0C002D43             jal increment
11059	A944  3C025666             lui $2, 22118
11060	A948  3442BB6C             ori $2, $2, 47980
11061	A94C  3C030180             lui $3, 384
11062	A950  34630000             ori $3, $3, 0
11063	A954  00430019             multu $2, $3
11064	A958  00009012             mflo $18
11065	A95C  AFB20000             sw $18, 0($29)
11066	A960  00009010             mfhi $18
11067	A964  AFB20000             sw $18, 0($29)
11068	A968  0C002D43             jal increment
11069	A96C  3C02AAAB             lui $2, 43691
11070	A970  344215B3             ori $2, $2, 5555
11071	A974  3C030180             lui $3, 384
11072	A978  34630000             ori $3, $3, 0
11073	A97C  00430019             multu $2, $3
11074	A980  00009012             mflo $18
11075	A984  AFB20000             sw $18, 0($29)
11076	A988  00009010             mfhi $18
11077	A98C  AFB20000             sw $18, 0($29)
11078	A990  0C002D43             jal increment
11079	A994  3C020000             lui $2, 0
11080	A998  34420000             ori $2, $2, 0
11081	A99C  3C030300             lui $3, 768
11082	A9A0  34630000             ori $3, $3, 0
11083	A9A4  00430019             multu $2, $3
11084	A9A8  00009012             mflo $18
11085	A9AC  AFB20000             sw $18, 0($29)
11086	A9B0  00009010             mfhi $18
11087	A9B4  AFB20000             sw $18, 0($29)
11088	A9B8  0C002D43             jal increment
11089	A9BC  3C02AAAA             lui $2, 43690
11090	A9C0  3442AAAA             ori $2, $2, 43690
11091	A9C4  3C030300             lui $3, 768
11092	A9C8  34630000             ori $3, $3, 0
11093	A9CC  00430019             multu $2, $3
11094	A9D0  00009012             mflo $18
11095	A9D4  AFB20000             sw $18, 0($29)
11096	A9D8  00009010             mfhi $18
11097	A9DC  AFB20000             sw $18, 0($29)
11098	A9E0  0C002D43             jal increment
11099	A9E4  3C02D34D             lui $2, 54093
11100	A9E8  34425555             ori $2, $2, 21845
11101	A9EC  3C030300             lui $3, 768
11102	A9F0  34630000             ori $3, $3, 0
11103	A9F4  00430019             multu $2, $3
11104	A9F8  00009012             mflo $18
11105	A9FC  AFB20000             sw $18, 0($29)
11106	AA00  00009010             mfhi $18
11107	AA04  AFB20000             sw $18, 0($29)
11108	AA08  0C002D43             jal increment
11109	AA0C  3C021999             lui $2, 6553
11110	AA10  3442999A             ori $2, $2, 39322
11111	AA14  3C030300             lui $3, 768
11112	AA18  34630000             ori $3, $3, 0
11113	AA1C  00430019             multu $2, $3
11114	AA20  00009012             mflo $18
11115	AA24  AFB20000             sw $18, 0($29)
11116	AA28  00009010             mfhi $18
11117	AA2C  AFB20000             sw $18, 0($29)
11118	AA30  0C002D43             jal increment
11119	AA34  3C023536             lui $2, 13622
11120	AA38  34426666             ori $2, $2, 26214
11121	AA3C  3C030300             lui $3, 768
11122	AA40  34630000             ori $3, $3, 0
11123	AA44  00430019             multu $2, $3
11124	AA48  00009012             mflo $18
11125	AA4C  AFB20000             sw $18, 0($29)
11126	AA50  00009010             mfhi $18
11127	AA54  AFB20000             sw $18, 0($29)
11128	AA58  0C002D43             jal increment
11129	AA5C  3C024CD4             lui $2, 19668
11130	AA60  3442CCCB             ori $2, $2, 52427
11131	AA64  3C030300             lui $3, 768
11132	AA68  34630000             ori $3, $3, 0
11133	AA6C  00430019             multu $2, $3
11134	AA70  00009012             mflo $18
11135	AA74  AFB20000             sw $18, 0($29)
11136	AA78  00009010             mfhi $18
11137	AA7C  AFB20000             sw $18, 0($29)
11138	AA80  0C002D43             jal increment
11139	AA84  3C026773             lui $2, 26483
11140	AA88  3442F337             ori $2, $2, 62263
11141	AA8C  3C030300             lui $3, 768
11142	AA90  34630000             ori $3, $3, 0
11143	AA94  00430019             multu $2, $3
11144	AA98  00009012             mflo $18
11145	AA9C  AFB20000             sw $18, 0($29)
11146	AAA0  00009010             mfhi $18
11147	AAA4  AFB20000             sw $18, 0($29)
11148	AAA8  0C002D43             jal increment
11149	AAAC  3C02FDDD             lui $2, 64989
11150	AAB0  34425EDF             ori $2, $2, 24287
11151	AAB4  3C030300             lui $3, 768
11152	AAB8  34630000             ori $3, $3, 0
11153	AABC  00430019             multu $2, $3
11154	AAC0  00009012             mflo $18
11155	AAC4  AFB20000             sw $18, 0($29)
11156	AAC8  00009010             mfhi $18
11157	AACC  AFB20000             sw $18, 0($29)
11158	AAD0  0C002D43             jal increment
11159	AAD4  3C025666             lui $2, 22118
11160	AAD8  3442BB6C             ori $2, $2, 47980
11161	AADC  3C030300             lui $3, 768
11162	AAE0  34630000             ori $3, $3, 0
11163	AAE4  00430019             multu $2, $3
11164	AAE8  00009012             mflo $18
11165	AAEC  AFB20000             sw $18, 0($29)
11166	AAF0  00009010             mfhi $18
11167	AAF4  AFB20000             sw $18, 0($29)
11168	AAF8  0C002D43             jal increment
11169	AAFC  3C02AAAB             lui $2, 43691
11170	AB00  344215B3             ori $2, $2, 5555
11171	AB04  3C030300             lui $3, 768
11172	AB08  34630000             ori $3, $3, 0
11173	AB0C  00430019             multu $2, $3
11174	AB10  00009012             mflo $18
11175	AB14  AFB20000             sw $18, 0($29)
11176	AB18  00009010             mfhi $18
11177	AB1C  AFB20000             sw $18, 0($29)
11178	AB20  0C002D43             jal increment
11179	AB24  3C020000             lui $2, 0
11180	AB28  34420000             ori $2, $2, 0
11181	AB2C  3C030600             lui $3, 1536
11182	AB30  34630000             ori $3, $3, 0
11183	AB34  00430019             multu $2, $3
11184	AB38  00009012             mflo $18
11185	AB3C  AFB20000             sw $18, 0($29)
11186	AB40  00009010             mfhi $18
11187	AB44  AFB20000             sw $18, 0($29)
11188	AB48  0C002D43             jal increment
11189	AB4C  3C02AAAA             lui $2, 43690
11190	AB50  3442AAAA             ori $2, $2, 43690
11191	AB54  3C030600             lui $3, 1536
11192	AB58  34630000             ori $3, $3, 0
11193	AB5C  00430019             multu $2, $3
11194	AB60  00009012             mflo $18
11195	AB64  AFB20000             sw $18, 0($29)
11196	AB68  00009010             mfhi $18
11197	AB6C  AFB20000             sw $18, 0($29)
11198	AB70  0C002D43             jal increment
11199	AB74  3C02D34D             lui $2, 54093
11200	AB78  34425555             ori $2, $2, 21845
11201	AB7C  3C030600             lui $3, 1536
11202	AB80  34630000             ori $3, $3, 0
11203	AB84  00430019             multu $2, $3
11204	AB88  00009012             mflo $18
11205	AB8C  AFB20000             sw $18, 0($29)
11206	AB90  00009010             mfhi $18
11207	AB94  AFB20000             sw $18, 0($29)
11208	AB98  0C002D43             jal increment
11209	AB9C  3C021999             lui $2, 6553
11210	ABA0  3442999A             ori $2, $2, 39322
11211	ABA4  3C030600             lui $3, 1536
11212	ABA8  34630000             ori $3, $3, 0
11213	ABAC  00430019             multu $2, $3
11214	ABB0  00009012             mflo $18
11215	ABB4  AFB20000             sw $18, 0($29)
11216	ABB8  00009010             mfhi $18
11217	ABBC  AFB20000             sw $18, 0($29)
11218	ABC0  0C002D43             jal increment
11219	ABC4  3C023536             lui $2, 13622
11220	ABC8  34426666             ori $2, $2, 26214
11221	ABCC  3C030600             lui $3, 1536
11222	ABD0  34630000             ori $3, $3, 0
11223	ABD4  00430019             multu $2, $3
11224	ABD8  00009012             mflo $18
11225	ABDC  AFB20000             sw $18, 0($29)
11226	ABE0  00009010             mfhi $18
11227	ABE4  AFB20000             sw $18, 0($29)
11228	ABE8  0C002D43             jal increment
11229	ABEC  3C024CD4             lui $2, 19668
11230	ABF0  3442CCCB             ori $2, $2, 52427
11231	ABF4  3C030600             lui $3, 1536
11232	ABF8  34630000             ori $3, $3, 0
11233	ABFC  00430019             multu $2, $3
11234	AC00  00009012             mflo $18
11235	AC04  AFB20000             sw $18, 0($29)
11236	AC08  00009010             mfhi $18
11237	AC0C  AFB20000             sw $18, 0($29)
11238	AC10  0C002D43             jal increment
11239	AC14  3C026773             lui $2, 26483
11240	AC18  3442F337             ori $2, $2, 62263
11241	AC1C  3C030600             lui $3, 1536
11242	AC20  34630000             ori $3, $3, 0
11243	AC24  00430019             multu $2, $3
11244	AC28  00009012             mflo $18
11245	AC2C  AFB20000             sw $18, 0($29)
11246	AC30  00009010             mfhi $18
11247	AC34  AFB20000             sw $18, 0($29)
11248	AC38  0C002D43             jal increment
11249	AC3C  3C02FDDD             lui $2, 64989
11250	AC40  34425EDF             ori $2, $2, 24287
11251	AC44  3C030600             lui $3, 1536
11252	AC48  34630000             ori $3, $3, 0
11253	AC4C  00430019             multu $2, $3
11254	AC50  00009012             mflo $18
11255	AC54  AFB20000             sw $18, 0($29)
11256	AC58  00009010             mfhi $18
11257	AC5C  AFB20000             sw $18, 0($29)
11258	AC60  0C002D43             jal increment
11259	AC64  3C025666             lui $2, 22118
11260	AC68  3442BB6C             ori $2, $2, 47980
11261	AC6C  3C030600             lui $3, 1536
11262	AC70  34630000             ori $3, $3, 0
11263	AC74  00430019             multu $2, $3
11264	AC78  00009012             mflo $18
11265	AC7C  AFB20000             sw $18, 0($29)
11266	AC80  00009010             mfhi $18
11267	AC84  AFB20000             sw $18, 0($29)
11268	AC88  0C002D43             jal increment
11269	AC8C  3C02AAAB             lui $2, 43691
11270	AC90  344215B3             ori $2, $2, 5555
11271	AC94  3C030600             lui $3, 1536
11272	AC98  34630000             ori $3, $3, 0
11273	AC9C  00430019             multu $2, $3
11274	ACA0  00009012             mflo $18
11275	ACA4  AFB20000             sw $18, 0($29)
11276	ACA8  00009010             mfhi $18
11277	ACAC  AFB20000             sw $18, 0($29)
11278	ACB0  0C002D43             jal increment
11279	ACB4  3C020000             lui $2, 0
11280	ACB8  34420000             ori $2, $2, 0
11281	ACBC  3C030C00             lui $3, 3072
11282	ACC0  34630000             ori $3, $3, 0
11283	ACC4  00430019             multu $2, $3
11284	ACC8  00009012             mflo $18
11285	ACCC  AFB20000             sw $18, 0($29)
11286	ACD0  00009010             mfhi $18
11287	ACD4  AFB20000             sw $18, 0($29)
11288	ACD8  0C002D43             jal increment
11289	ACDC  3C02AAAA             lui $2, 43690
11290	ACE0  3442AAAA             ori $2, $2, 43690
11291	ACE4  3C030C00             lui $3, 3072
11292	ACE8  34630000             ori $3, $3, 0
11293	ACEC  00430019             multu $2, $3
11294	ACF0  00009012             mflo $18
11295	ACF4  AFB20000             sw $18, 0($29)
11296	ACF8  00009010             mfhi $18
11297	ACFC  AFB20000             sw $18, 0($29)
11298	AD00  0C002D43             jal increment
11299	AD04  3C02D34D             lui $2, 54093
11300	AD08  34425555             ori $2, $2, 21845
11301	AD0C  3C030C00             lui $3, 3072
11302	AD10  34630000             ori $3, $3, 0
11303	AD14  00430019             multu $2, $3
11304	AD18  00009012             mflo $18
11305	AD1C  AFB20000             sw $18, 0($29)
11306	AD20  00009010             mfhi $18
11307	AD24  AFB20000             sw $18, 0($29)
11308	AD28  0C002D43             jal increment
11309	AD2C  3C021999             lui $2, 6553
11310	AD30  3442999A             ori $2, $2, 39322
11311	AD34  3C030C00             lui $3, 3072
11312	AD38  34630000             ori $3, $3, 0
11313	AD3C  00430019             multu $2, $3
11314	AD40  00009012             mflo $18
11315	AD44  AFB20000             sw $18, 0($29)
11316	AD48  00009010             mfhi $18
11317	AD4C  AFB20000             sw $18, 0($29)
11318	AD50  0C002D43             jal increment
11319	AD54  3C023536             lui $2, 13622
11320	AD58  34426666             ori $2, $2, 26214
11321	AD5C  3C030C00             lui $3, 3072
11322	AD60  34630000             ori $3, $3, 0
11323	AD64  00430019             multu $2, $3
11324	AD68  00009012             mflo $18
11325	AD6C  AFB20000             sw $18, 0($29)
11326	AD70  00009010             mfhi $18
11327	AD74  AFB20000             sw $18, 0($29)
11328	AD78  0C002D43             jal increment
11329	AD7C  3C024CD4             lui $2, 19668
11330	AD80  3442CCCB             ori $2, $2, 52427
11331	AD84  3C030C00             lui $3, 3072
11332	AD88  34630000             ori $3, $3, 0
11333	AD8C  00430019             multu $2, $3
11334	AD90  00009012             mflo $18
11335	AD94  AFB20000             sw $18, 0($29)
11336	AD98  00009010             mfhi $18
11337	AD9C  AFB20000             sw $18, 0($29)
11338	ADA0  0C002D43             jal increment
11339	ADA4  3C026773             lui $2, 26483
11340	ADA8  3442F337             ori $2, $2, 62263
11341	ADAC  3C030C00             lui $3, 3072
11342	ADB0  34630000             ori $3, $3, 0
11343	ADB4  00430019             multu $2, $3
11344	ADB8  00009012             mflo $18
11345	ADBC  AFB20000             sw $18, 0($29)
11346	ADC0  00009010             mfhi $18
11347	ADC4  AFB20000             sw $18, 0($29)
11348	ADC8  0C002D43             jal increment
11349	ADCC  3C02FDDD             lui $2, 64989
11350	ADD0  34425EDF             ori $2, $2, 24287
11351	ADD4  3C030C00             lui $3, 3072
11352	ADD8  34630000             ori $3, $3, 0
11353	ADDC  00430019             multu $2, $3
11354	ADE0  00009012             mflo $18
11355	ADE4  AFB20000             sw $18, 0($29)
11356	ADE8  00009010             mfhi $18
11357	ADEC  AFB20000             sw $18, 0($29)
11358	ADF0  0C002D43             jal increment
11359	ADF4  3C025666             lui $2, 22118
11360	ADF8  3442BB6C             ori $2, $2, 47980
11361	ADFC  3C030C00             lui $3, 3072
11362	AE00  34630000             ori $3, $3, 0
11363	AE04  00430019             multu $2, $3
11364	AE08  00009012             mflo $18
11365	AE0C  AFB20000             sw $18, 0($29)
11366	AE10  00009010             mfhi $18
11367	AE14  AFB20000             sw $18, 0($29)
11368	AE18  0C002D43             jal increment
11369	AE1C  3C02AAAB             lui $2, 43691
11370	AE20  344215B3             ori $2, $2, 5555
11371	AE24  3C030C00             lui $3, 3072
11372	AE28  34630000             ori $3, $3, 0
11373	AE2C  00430019             multu $2, $3
11374	AE30  00009012             mflo $18
11375	AE34  AFB20000             sw $18, 0($29)
11376	AE38  00009010             mfhi $18
11377	AE3C  AFB20000             sw $18, 0($29)
11378	AE40  0C002D43             jal increment
11379	AE44  3C020000             lui $2, 0
11380	AE48  34420000             ori $2, $2, 0
11381	AE4C  3C031800             lui $3, 6144
11382	AE50  34630000             ori $3, $3, 0
11383	AE54  00430019             multu $2, $3
11384	AE58  00009012             mflo $18
11385	AE5C  AFB20000             sw $18, 0($29)
11386	AE60  00009010             mfhi $18
11387	AE64  AFB20000             sw $18, 0($29)
11388	AE68  0C002D43             jal increment
11389	AE6C  3C02AAAA             lui $2, 43690
11390	AE70  3442AAAA             ori $2, $2, 43690
11391	AE74  3C031800             lui $3, 6144
11392	AE78  34630000             ori $3, $3, 0
11393	AE7C  00430019             multu $2, $3
11394	AE80  00009012             mflo $18
11395	AE84  AFB20000             sw $18, 0($29)
11396	AE88  00009010             mfhi $18
11397	AE8C  AFB20000             sw $18, 0($29)
11398	AE90  0C002D43             jal increment
11399	AE94  3C02D34D             lui $2, 54093
11400	AE98  34425555             ori $2, $2, 21845
11401	AE9C  3C031800             lui $3, 6144
11402	AEA0  34630000             ori $3, $3, 0
11403	AEA4  00430019             multu $2, $3
11404	AEA8  00009012             mflo $18
11405	AEAC  AFB20000             sw $18, 0($29)
11406	AEB0  00009010             mfhi $18
11407	AEB4  AFB20000             sw $18, 0($29)
11408	AEB8  0C002D43             jal increment
11409	AEBC  3C021999             lui $2, 6553
11410	AEC0  3442999A             ori $2, $2, 39322
11411	AEC4  3C031800             lui $3, 6144
11412	AEC8  34630000             ori $3, $3, 0
11413	AECC  00430019             multu $2, $3
11414	AED0  00009012             mflo $18
11415	AED4  AFB20000             sw $18, 0($29)
11416	AED8  00009010             mfhi $18
11417	AEDC  AFB20000             sw $18, 0($29)
11418	AEE0  0C002D43             jal increment
11419	AEE4  3C023536             lui $2, 13622
11420	AEE8  34426666             ori $2, $2, 26214
11421	AEEC  3C031800             lui $3, 6144
11422	AEF0  34630000             ori $3, $3, 0
11423	AEF4  00430019             multu $2, $3
11424	AEF8  00009012             mflo $18
11425	AEFC  AFB20000             sw $18, 0($29)
11426	AF00  00009010             mfhi $18
11427	AF04  AFB20000             sw $18, 0($29)
11428	AF08  0C002D43             jal increment
11429	AF0C  3C024CD4             lui $2, 19668
11430	AF10  3442CCCB             ori $2, $2, 52427
11431	AF14  3C031800             lui $3, 6144
11432	AF18  34630000             ori $3, $3, 0
11433	AF1C  00430019             multu $2, $3
11434	AF20  00009012             mflo $18
11435	AF24  AFB20000             sw $18, 0($29)
11436	AF28  00009010             mfhi $18
11437	AF2C  AFB20000             sw $18, 0($29)
11438	AF30  0C002D43             jal increment
11439	AF34  3C026773             lui $2, 26483
11440	AF38  3442F337             ori $2, $2, 62263
11441	AF3C  3C031800             lui $3, 6144
11442	AF40  34630000             ori $3, $3, 0
11443	AF44  00430019             multu $2, $3
11444	AF48  00009012             mflo $18
11445	AF4C  AFB20000             sw $18, 0($29)
11446	AF50  00009010             mfhi $18
11447	AF54  AFB20000             sw $18, 0($29)
11448	AF58  0C002D43             jal increment
11449	AF5C  3C02FDDD             lui $2, 64989
11450	AF60  34425EDF             ori $2, $2, 24287
11451	AF64  3C031800             lui $3, 6144
11452	AF68  34630000             ori $3, $3, 0
11453	AF6C  00430019             multu $2, $3
11454	AF70  00009012             mflo $18
11455	AF74  AFB20000             sw $18, 0($29)
11456	AF78  00009010             mfhi $18
11457	AF7C  AFB20000             sw $18, 0($29)
11458	AF80  0C002D43             jal increment
11459	AF84  3C025666             lui $2, 22118
11460	AF88  3442BB6C             ori $2, $2, 47980
11461	AF8C  3C031800             lui $3, 6144
11462	AF90  34630000             ori $3, $3, 0
11463	AF94  00430019             multu $2, $3
11464	AF98  00009012             mflo $18
11465	AF9C  AFB20000             sw $18, 0($29)
11466	AFA0  00009010             mfhi $18
11467	AFA4  AFB20000             sw $18, 0($29)
11468	AFA8  0C002D43             jal increment
11469	AFAC  3C02AAAB             lui $2, 43691
11470	AFB0  344215B3             ori $2, $2, 5555
11471	AFB4  3C031800             lui $3, 6144
11472	AFB8  34630000             ori $3, $3, 0
11473	AFBC  00430019             multu $2, $3
11474	AFC0  00009012             mflo $18
11475	AFC4  AFB20000             sw $18, 0($29)
11476	AFC8  00009010             mfhi $18
11477	AFCC  AFB20000             sw $18, 0($29)
11478	AFD0  0C002D43             jal increment
11479	AFD4  3C020000             lui $2, 0
11480	AFD8  34420000             ori $2, $2, 0
11481	AFDC  3C033000             lui $3, 12288
11482	AFE0  34630000             ori $3, $3, 0
11483	AFE4  00430019             multu $2, $3
11484	AFE8  00009012             mflo $18
11485	AFEC  AFB20000             sw $18, 0($29)
11486	AFF0  00009010             mfhi $18
11487	AFF4  AFB20000             sw $18, 0($29)
11488	AFF8  0C002D43             jal increment
11489	AFFC  3C02AAAA             lui $2, 43690
11490	B000  3442AAAA             ori $2, $2, 43690
11491	B004  3C033000             lui $3, 12288
11492	B008  34630000             ori $3, $3, 0
11493	B00C  00430019             multu $2, $3
11494	B010  00009012             mflo $18
11495	B014  AFB20000             sw $18, 0($29)
11496	B018  00009010             mfhi $18
11497	B01C  AFB20000             sw $18, 0($29)
11498	B020  0C002D43             jal increment
11499	B024  3C02D34D             lui $2, 54093
11500	B028  34425555             ori $2, $2, 21845
11501	B02C  3C033000             lui $3, 12288
11502	B030  34630000             ori $3, $3, 0
11503	B034  00430019             multu $2, $3
11504	B038  00009012             mflo $18
11505	B03C  AFB20000             sw $18, 0($29)
11506	B040  00009010             mfhi $18
11507	B044  AFB20000             sw $18, 0($29)
11508	B048  0C002D43             jal increment
11509	B04C  3C021999             lui $2, 6553
11510	B050  3442999A             ori $2, $2, 39322
11511	B054  3C033000             lui $3, 12288
11512	B058  34630000             ori $3, $3, 0
11513	B05C  00430019             multu $2, $3
11514	B060  00009012             mflo $18
11515	B064  AFB20000             sw $18, 0($29)
11516	B068  00009010             mfhi $18
11517	B06C  AFB20000             sw $18, 0($29)
11518	B070  0C002D43             jal increment
11519	B074  3C023536             lui $2, 13622
11520	B078  34426666             ori $2, $2, 26214
11521	B07C  3C033000             lui $3, 12288
11522	B080  34630000             ori $3, $3, 0
11523	B084  00430019             multu $2, $3
11524	B088  00009012             mflo $18
11525	B08C  AFB20000             sw $18, 0($29)
11526	B090  00009010             mfhi $18
11527	B094  AFB20000             sw $18, 0($29)
11528	B098  0C002D43             jal increment
11529	B09C  3C024CD4             lui $2, 19668
11530	B0A0  3442CCCB             ori $2, $2, 52427
11531	B0A4  3C033000             lui $3, 12288
11532	B0A8  34630000             ori $3, $3, 0
11533	B0AC  00430019             multu $2, $3
11534	B0B0  00009012             mflo $18
11535	B0B4  AFB20000             sw $18, 0($29)
11536	B0B8  00009010             mfhi $18
11537	B0BC  AFB20000             sw $18, 0($29)
11538	B0C0  0C002D43             jal increment
11539	B0C4  3C026773             lui $2, 26483
11540	B0C8  3442F337             ori $2, $2, 62263
11541	B0CC  3C033000             lui $3, 12288
11542	B0D0  34630000             ori $3, $3, 0
11543	B0D4  00430019             multu $2, $3
11544	B0D8  00009012             mflo $18
11545	B0DC  AFB20000             sw $18, 0($29)
11546	B0E0  00009010             mfhi $18
11547	B0E4  AFB20000             sw $18, 0($29)
11548	B0E8  0C002D43             jal increment
11549	B0EC  3C02FDDD             lui $2, 64989
11550	B0F0  34425EDF             ori $2, $2, 24287
11551	B0F4  3C033000             lui $3, 12288
11552	B0F8  34630000             ori $3, $3, 0
11553	B0FC  00430019             multu $2, $3
11554	B100  00009012             mflo $18
11555	B104  AFB20000             sw $18, 0($29)
11556	B108  00009010             mfhi $18
11557	B10C  AFB20000             sw $18, 0($29)
11558	B110  0C002D43             jal increment
11559	B114  3C025666             lui $2, 22118
11560	B118  3442BB6C             ori $2, $2, 47980
11561	B11C  3C033000             lui $3, 12288
11562	B120  34630000             ori $3, $3, 0
11563	B124  00430019             multu $2, $3
11564	B128  00009012             mflo $18
11565	B12C  AFB20000             sw $18, 0($29)
11566	B130  00009010             mfhi $18
11567	B134  AFB20000             sw $18, 0($29)
11568	B138  0C002D43             jal increment
11569	B13C  3C02AAAB             lui $2, 43691
11570	B140  344215B3             ori $2, $2, 5555
11571	B144  3C033000             lui $3, 12288
11572	B148  34630000             ori $3, $3, 0
11573	B14C  00430019             multu $2, $3
11574	B150  00009012             mflo $18
11575	B154  AFB20000             sw $18, 0($29)
11576	B158  00009010             mfhi $18
11577	B15C  AFB20000             sw $18, 0($29)
11578	B160  0C002D43             jal increment
11579	B164  3C020000             lui $2, 0
11580	B168  34420000             ori $2, $2, 0
11581	B16C  3C036000             lui $3, 24576
11582	B170  34630000             ori $3, $3, 0
11583	B174  00430019             multu $2, $3
11584	B178  00009012             mflo $18
11585	B17C  AFB20000             sw $18, 0($29)
11586	B180  00009010             mfhi $18
11587	B184  AFB20000             sw $18, 0($29)
11588	B188  0C002D43             jal increment
11589	B18C  3C02AAAA             lui $2, 43690
11590	B190  3442AAAA             ori $2, $2, 43690
11591	B194  3C036000             lui $3, 24576
11592	B198  34630000             ori $3, $3, 0
11593	B19C  00430019             multu $2, $3
11594	B1A0  00009012             mflo $18
11595	B1A4  AFB20000             sw $18, 0($29)
11596	B1A8  00009010             mfhi $18
11597	B1AC  AFB20000             sw $18, 0($29)
11598	B1B0  0C002D43             jal increment
11599	B1B4  3C02D34D             lui $2, 54093
11600	B1B8  34425555             ori $2, $2, 21845
11601	B1BC  3C036000             lui $3, 24576
11602	B1C0  34630000             ori $3, $3, 0
11603	B1C4  00430019             multu $2, $3
11604	B1C8  00009012             mflo $18
11605	B1CC  AFB20000             sw $18, 0($29)
11606	B1D0  00009010             mfhi $18
11607	B1D4  AFB20000             sw $18, 0($29)
11608	B1D8  0C002D43             jal increment
11609	B1DC  3C021999             lui $2, 6553
11610	B1E0  3442999A             ori $2, $2, 39322
11611	B1E4  3C036000             lui $3, 24576
11612	B1E8  34630000             ori $3, $3, 0
11613	B1EC  00430019             multu $2, $3
11614	B1F0  00009012             mflo $18
11615	B1F4  AFB20000             sw $18, 0($29)
11616	B1F8  00009010             mfhi $18
11617	B1FC  AFB20000             sw $18, 0($29)
11618	B200  0C002D43             jal increment
11619	B204  3C023536             lui $2, 13622
11620	B208  34426666             ori $2, $2, 26214
11621	B20C  3C036000             lui $3, 24576
11622	B210  34630000             ori $3, $3, 0
11623	B214  00430019             multu $2, $3
11624	B218  00009012             mflo $18
11625	B21C  AFB20000             sw $18, 0($29)
11626	B220  00009010             mfhi $18
11627	B224  AFB20000             sw $18, 0($29)
11628	B228  0C002D43             jal increment
11629	B22C  3C024CD4             lui $2, 19668
11630	B230  3442CCCB             ori $2, $2, 52427
11631	B234  3C036000             lui $3, 24576
11632	B238  34630000             ori $3, $3, 0
11633	B23C  00430019             multu $2, $3
11634	B240  00009012             mflo $18
11635	B244  AFB20000             sw $18, 0($29)
11636	B248  00009010             mfhi $18
11637	B24C  AFB20000             sw $18, 0($29)
11638	B250  0C002D43             jal increment
11639	B254  3C026773             lui $2, 26483
11640	B258  3442F337             ori $2, $2, 62263
11641	B25C  3C036000             lui $3, 24576
11642	B260  34630000             ori $3, $3, 0
11643	B264  00430019             multu $2, $3
11644	B268  00009012             mflo $18
11645	B26C  AFB20000             sw $18, 0($29)
11646	B270  00009010             mfhi $18
11647	B274  AFB20000             sw $18, 0($29)
11648	B278  0C002D43             jal increment
11649	B27C  3C02FDDD             lui $2, 64989
11650	B280  34425EDF             ori $2, $2, 24287
11651	B284  3C036000             lui $3, 24576
11652	B288  34630000             ori $3, $3, 0
11653	B28C  00430019             multu $2, $3
11654	B290  00009012             mflo $18
11655	B294  AFB20000             sw $18, 0($29)
11656	B298  00009010             mfhi $18
11657	B29C  AFB20000             sw $18, 0($29)
11658	B2A0  0C002D43             jal increment
11659	B2A4  3C025666             lui $2, 22118
11660	B2A8  3442BB6C             ori $2, $2, 47980
11661	B2AC  3C036000             lui $3, 24576
11662	B2B0  34630000             ori $3, $3, 0
11663	B2B4  00430019             multu $2, $3
11664	B2B8  00009012             mflo $18
11665	B2BC  AFB20000             sw $18, 0($29)
11666	B2C0  00009010             mfhi $18
11667	B2C4  AFB20000             sw $18, 0($29)
11668	B2C8  0C002D43             jal increment
11669	B2CC  3C02AAAB             lui $2, 43691
11670	B2D0  344215B3             ori $2, $2, 5555
11671	B2D4  3C036000             lui $3, 24576
11672	B2D8  34630000             ori $3, $3, 0
11673	B2DC  00430019             multu $2, $3
11674	B2E0  00009012             mflo $18
11675	B2E4  AFB20000             sw $18, 0($29)
11676	B2E8  00009010             mfhi $18
11677	B2EC  AFB20000             sw $18, 0($29)
11678	B2F0  0C002D43             jal increment
11679	B2F4  3C020000             lui $2, 0
11680	B2F8  34420000             ori $2, $2, 0
11681	B2FC  3C03C000             lui $3, 49152
11682	B300  34630000             ori $3, $3, 0
11683	B304  00430019             multu $2, $3
11684	B308  00009012             mflo $18
11685	B30C  AFB20000             sw $18, 0($29)
11686	B310  00009010             mfhi $18
11687	B314  AFB20000             sw $18, 0($29)
11688	B318  0C002D43             jal increment
11689	B31C  3C02AAAA             lui $2, 43690
11690	B320  3442AAAA             ori $2, $2, 43690
11691	B324  3C03C000             lui $3, 49152
11692	B328  34630000             ori $3, $3, 0
11693	B32C  00430019             multu $2, $3
11694	B330  00009012             mflo $18
11695	B334  AFB20000             sw $18, 0($29)
11696	B338  00009010             mfhi $18
11697	B33C  AFB20000             sw $18, 0($29)
11698	B340  0C002D43             jal increment
11699	B344  3C02D34D             lui $2, 54093
11700	B348  34425555             ori $2, $2, 21845
11701	B34C  3C03C000             lui $3, 49152
11702	B350  34630000             ori $3, $3, 0
11703	B354  00430019             multu $2, $3
11704	B358  00009012             mflo $18
11705	B35C  AFB20000             sw $18, 0($29)
11706	B360  00009010             mfhi $18
11707	B364  AFB20000             sw $18, 0($29)
11708	B368  0C002D43             jal increment
11709	B36C  3C021999             lui $2, 6553
11710	B370  3442999A             ori $2, $2, 39322
11711	B374  3C03C000             lui $3, 49152
11712	B378  34630000             ori $3, $3, 0
11713	B37C  00430019             multu $2, $3
11714	B380  00009012             mflo $18
11715	B384  AFB20000             sw $18, 0($29)
11716	B388  00009010             mfhi $18
11717	B38C  AFB20000             sw $18, 0($29)
11718	B390  0C002D43             jal increment
11719	B394  3C023536             lui $2, 13622
11720	B398  34426666             ori $2, $2, 26214
11721	B39C  3C03C000             lui $3, 49152
11722	B3A0  34630000             ori $3, $3, 0
11723	B3A4  00430019             multu $2, $3
11724	B3A8  00009012             mflo $18
11725	B3AC  AFB20000             sw $18, 0($29)
11726	B3B0  00009010             mfhi $18
11727	B3B4  AFB20000             sw $18, 0($29)
11728	B3B8  0C002D43             jal increment
11729	B3BC  3C024CD4             lui $2, 19668
11730	B3C0  3442CCCB             ori $2, $2, 52427
11731	B3C4  3C03C000             lui $3, 49152
11732	B3C8  34630000             ori $3, $3, 0
11733	B3CC  00430019             multu $2, $3
11734	B3D0  00009012             mflo $18
11735	B3D4  AFB20000             sw $18, 0($29)
11736	B3D8  00009010             mfhi $18
11737	B3DC  AFB20000             sw $18, 0($29)
11738	B3E0  0C002D43             jal increment
11739	B3E4  3C026773             lui $2, 26483
11740	B3E8  3442F337             ori $2, $2, 62263
11741	B3EC  3C03C000             lui $3, 49152
11742	B3F0  34630000             ori $3, $3, 0
11743	B3F4  00430019             multu $2, $3
11744	B3F8  00009012             mflo $18
11745	B3FC  AFB20000             sw $18, 0($29)
11746	B400  00009010             mfhi $18
11747	B404  AFB20000             sw $18, 0($29)
11748	B408  0C002D43             jal increment
11749	B40C  3C02FDDD             lui $2, 64989
11750	B410  34425EDF             ori $2, $2, 24287
11751	B414  3C03C000             lui $3, 49152
11752	B418  34630000             ori $3, $3, 0
11753	B41C  00430019             multu $2, $3
11754	B420  00009012             mflo $18
11755	B424  AFB20000             sw $18, 0($29)
11756	B428  00009010             mfhi $18
11757	B42C  AFB20000             sw $18, 0($29)
11758	B430  0C002D43             jal increment
11759	B434  3C025666             lui $2, 22118
11760	B438  3442BB6C             ori $2, $2, 47980
11761	B43C  3C03C000             lui $3, 49152
11762	B440  34630000             ori $3, $3, 0
11763	B444  00430019             multu $2, $3
11764	B448  00009012             mflo $18
11765	B44C  AFB20000             sw $18, 0($29)
11766	B450  00009010             mfhi $18
11767	B454  AFB20000             sw $18, 0($29)
11768	B458  0C002D43             jal increment
11769	B45C  3C02AAAB             lui $2, 43691
11770	B460  344215B3             ori $2, $2, 5555
11771	B464  3C03C000             lui $3, 49152
11772	B468  34630000             ori $3, $3, 0
11773	B46C  00430019             multu $2, $3
11774	B470  00009012             mflo $18
11775	B474  AFB20000             sw $18, 0($29)
11776	B478  00009010             mfhi $18
11777	B47C  AFB20000             sw $18, 0($29)
11778	B480  0C002D43             jal increment
11779	                          
11780	B484  0C002D4A            jal init_cp
11781	B488  08002D23            j breaks
11782	                          
11783	                          breaks:
11784	B48C  0000000D             break
11785	                          ;..........hilo test..........;
11786	B490  0C002D34            jal reset_offsets
11787	B494  0C002D39            jal reset_hi_lo
11788	                          hilo_register_operation:
11789	B498  0C002D77            jal init_upward_1
11790	B49C  0C002DF1            jal hi_upward_0
11791	B4A0  0C002E88            jal hi_downward_1
11792	B4A4  0C002F79            jal lo_upward_0
11793	B4A8  0C003010            jal lo_downward_1
11794	B4AC  0C002DB4            jal init_upward_0
11795	B4B0  0C003101            jal hi_upward_1
11796	B4B4  0C003198            jal hi_downward_0
11797	B4B8  0C003289            jal lo_upward_1
11798	B4BC  0C003320            jal lo_downward_0
11799	                          
11800	B4C0  08003A40            j end
11801	                          
11802	                          load_patterns:
11803	B4C4  8FCF0000             lw $15, 0($30)
11804	B4C8  8FD00004             lw $16, 4($30)
11805	B4CC  03E00008             jr $31
11806	                          
11807	                          reset_offsets:
11808	B4D0  3C1E0001             lui $30, 1
11809	B4D4  37DE0008             ori $30, $30, 8
11810	B4D8  037BD826             xor $27, $27, $27
11811	B4DC  02529026             xor $18, $18, $18
11812	B4E0  03E00008             jr $31
11813	                          
11814	                          reset_hi_lo:
11815	B4E4  00000011             mthi $0
11816	B4E8  00000013             mtlo $0
11817	B4EC  03E00008             jr $31
11818	                          
11819	                          increment_offset:
11820	B4F0  23DE0008             addi $30, $30, 8
11821	B4F4  237B0002             addi $27, $27, 2
11822	B4F8  23BD0004             addi $29, $29, 4
11823	B4FC  03E00008             jr $31
11824	                          
11825	                          increment_immediate:
11826	B500  23DE0008             addi $30, $30, 8
11827	B504  23BD0004             addi $29, $29, 4
11828	B508  03E00008             jr $31
11829	                          
11830	                          increment:
11831	B50C  23BD0004             addi $29, $29, 4
11832	B510  03E00008             jr $31
11833	                          
11834	                          store_branch:
11835	B514  AFAF0000             sw $15, 0($29)
11836	B518  03E00008             jr $31
11837	                          
11838	                          store:
11839	B51C  AFB20000             sw $18, 0($29)
11840	B520  AFB30000             sw $19, 0($29)
11841	B524  03E00008             jr $31
11842	                          
11843	                          init_cp:
11844	B528  40806000             mtc0 $0, $12
11845	B52C  40806800             mtc0 $0, $13
11846	B530  40807000             mtc0 $0, $14
11847	B534  40807800             mtc0 $0, $15
11848	B538  03E00008             jr $31
11849	                          
11850	                          ;..........Branch templates..........;
11851	                          branch_beq:
11852	B53C  23F90000             addi $25, $31, 0
11853	B540  11F0FFF5             beq $15, $16, store_branch
11854	B544  00000000             sll $0, $0, 0
11855	B548  AFB00000             sw $16, 0($29)
11856	B54C  03200008             jr $25
11857	                          
11858	                          branch_bne:
11859	B550  23F90000             addi $25, $31, 0
11860	B554  15F0FFF0             bne $15, $16, store_branch
11861	B558  00000000             sll $0, $0, 0
11862	B55C  AFB00000             sw $16, 0($29)
11863	B560  03200008             jr $25
11864	                          
11865	                          branch_bgez:
11866	B564  23F90000             addi $25, $31, 0
11867	B568  05E1FFEB             bgez $15, store_branch
11868	B56C  00000000             sll $0, $0, 0
11869	B570  AFB00000             sw $16, 0($29)
11870	B574  03200008             jr $25
11871	                          
11872	                          branch_bgezal:
11873	B578  23F90000             addi $25, $31, 0
11874	B57C  05F1FFE6             bgezal $15, store_branch
11875	B580  00000000             sll $0, $0, 0
11876	B584  AFB00000             sw $16, 0($29)
11877	B588  03200008             jr $25
11878	                          
11879	                          branch_bgtz:
11880	B58C  23F90000             addi $25, $31, 0
11881	B590  1DE0FFE1             bgtz $15, store_branch
11882	B594  00000000             sll $0, $0, 0
11883	B598  AFB00000             sw $16, 0($29)
11884	B59C  03200008             jr $25
11885	                          
11886	                          branch_blez:
11887	B5A0  23F90000             addi $25, $31, 0
11888	B5A4  19E0FFDC             blez $15, store_branch
11889	B5A8  00000000             sll $0, $0, 0
11890	B5AC  AFB00000             sw $16, 0($29)
11891	B5B0  03200008             jr $25
11892	                          
11893	                          branch_bltz:
11894	B5B4  23F90000             addi $25, $31, 0
11895	B5B8  05E0FFD7             bltz $15, store_branch
11896	B5BC  00000000             sll $0, $0, 0
11897	B5C0  AFB00000             sw $16, 0($29)
11898	B5C4  03200008             jr $25
11899	                          
11900	                          branch_bltzal:
11901	B5C8  23F90000             addi $25, $31, 0
11902	B5CC  05F0FFD2             bltzal $15, store_branch
11903	B5D0  00000000             sll $0, $0, 0
11904	B5D4  AFB00000             sw $16, 0($29)
11905	B5D8  03200008             jr $25
11906	                          
11907	                          ;..........register_initialization..........;
11908	                          init_upward_1:
11909	B5DC  3C00FFFF             lui $0, 65535
11910	B5E0  3400FFFF             ori $0, $0, 65535
11911	B5E4  3C01FFFF             lui $1, 65535
11912	B5E8  3421FFFF             ori $1, $1, 65535
11913	B5EC  3C02FFFF             lui $2, 65535
11914	B5F0  3442FFFF             ori $2, $2, 65535
11915	B5F4  3C03FFFF             lui $3, 65535
11916	B5F8  3463FFFF             ori $3, $3, 65535
11917	B5FC  3C04FFFF             lui $4, 65535
11918	B600  3484FFFF             ori $4, $4, 65535
11919	B604  3C05FFFF             lui $5, 65535
11920	B608  34A5FFFF             ori $5, $5, 65535
11921	B60C  3C06FFFF             lui $6, 65535
11922	B610  34C6FFFF             ori $6, $6, 65535
11923	B614  3C07FFFF             lui $7, 65535
11924	B618  34E7FFFF             ori $7, $7, 65535
11925	B61C  3C08FFFF             lui $8, 65535
11926	B620  3508FFFF             ori $8, $8, 65535
11927	B624  3C09FFFF             lui $9, 65535
11928	B628  3529FFFF             ori $9, $9, 65535
11929	B62C  3C0AFFFF             lui $10, 65535
11930	B630  354AFFFF             ori $10, $10, 65535
11931	B634  3C0BFFFF             lui $11, 65535
11932	B638  356BFFFF             ori $11, $11, 65535
11933	B63C  3C0CFFFF             lui $12, 65535
11934	B640  358CFFFF             ori $12, $12, 65535
11935	B644  3C0DFFFF             lui $13, 65535
11936	B648  35ADFFFF             ori $13, $13, 65535
11937	B64C  3C0EFFFF             lui $14, 65535
11938	B650  35CEFFFF             ori $14, $14, 65535
11939	B654  3C0FFFFF             lui $15, 65535
11940	B658  35EFFFFF             ori $15, $15, 65535
11941	B65C  3C10FFFF             lui $16, 65535
11942	B660  3610FFFF             ori $16, $16, 65535
11943	B664  3C11FFFF             lui $17, 65535
11944	B668  3631FFFF             ori $17, $17, 65535
11945	B66C  3C12FFFF             lui $18, 65535
11946	B670  3652FFFF             ori $18, $18, 65535
11947	B674  3C13FFFF             lui $19, 65535
11948	B678  3673FFFF             ori $19, $19, 65535
11949	B67C  3C14FFFF             lui $20, 65535
11950	B680  3694FFFF             ori $20, $20, 65535
11951	B684  3C15FFFF             lui $21, 65535
11952	B688  36B5FFFF             ori $21, $21, 65535
11953	B68C  3C16FFFF             lui $22, 65535
11954	B690  36D6FFFF             ori $22, $22, 65535
11955	B694  3C17FFFF             lui $23, 65535
11956	B698  36F7FFFF             ori $23, $23, 65535
11957	B69C  3C18FFFF             lui $24, 65535
11958	B6A0  3718FFFF             ori $24, $24, 65535
11959	B6A4  3C19FFFF             lui $25, 65535
11960	B6A8  3739FFFF             ori $25, $25, 65535
11961	B6AC  3C1AFFFF             lui $26, 65535
11962	B6B0  375AFFFF             ori $26, $26, 65535
11963	B6B4  3C1BFFFF             lui $27, 65535
11964	B6B8  377BFFFF             ori $27, $27, 65535
11965	B6BC  3C1CFFFF             lui $28, 65535
11966	B6C0  379CFFFF             ori $28, $28, 65535
11967	B6C4  3C1EFFFF             lui $30, 65535
11968	B6C8  37DEFFFF             ori $30, $30, 65535
11969	B6CC  03E00008             jr $31
11970	                          
11971	                          init_upward_0:
11972	B6D0  3C000000             lui $0, 0
11973	B6D4  34000000             ori $0, $0, 0
11974	B6D8  3C010000             lui $1, 0
11975	B6DC  34210000             ori $1, $1, 0
11976	B6E0  3C020000             lui $2, 0
11977	B6E4  34420000             ori $2, $2, 0
11978	B6E8  3C030000             lui $3, 0
11979	B6EC  34630000             ori $3, $3, 0
11980	B6F0  3C040000             lui $4, 0
11981	B6F4  34840000             ori $4, $4, 0
11982	B6F8  3C050000             lui $5, 0
11983	B6FC  34A50000             ori $5, $5, 0
11984	B700  3C060000             lui $6, 0
11985	B704  34C60000             ori $6, $6, 0
11986	B708  3C070000             lui $7, 0
11987	B70C  34E70000             ori $7, $7, 0
11988	B710  3C080000             lui $8, 0
11989	B714  35080000             ori $8, $8, 0
11990	B718  3C090000             lui $9, 0
11991	B71C  35290000             ori $9, $9, 0
11992	B720  3C0A0000             lui $10, 0
11993	B724  354A0000             ori $10, $10, 0
11994	B728  3C0B0000             lui $11, 0
11995	B72C  356B0000             ori $11, $11, 0
11996	B730  3C0C0000             lui $12, 0
11997	B734  358C0000             ori $12, $12, 0
11998	B738  3C0D0000             lui $13, 0
11999	B73C  35AD0000             ori $13, $13, 0
12000	B740  3C0E0000             lui $14, 0
12001	B744  35CE0000             ori $14, $14, 0
12002	B748  3C0F0000             lui $15, 0
12003	B74C  35EF0000             ori $15, $15, 0
12004	B750  3C100000             lui $16, 0
12005	B754  36100000             ori $16, $16, 0
12006	B758  3C110000             lui $17, 0
12007	B75C  36310000             ori $17, $17, 0
12008	B760  3C120000             lui $18, 0
12009	B764  36520000             ori $18, $18, 0
12010	B768  3C130000             lui $19, 0
12011	B76C  36730000             ori $19, $19, 0
12012	B770  3C140000             lui $20, 0
12013	B774  36940000             ori $20, $20, 0
12014	B778  3C150000             lui $21, 0
12015	B77C  36B50000             ori $21, $21, 0
12016	B780  3C160000             lui $22, 0
12017	B784  36D60000             ori $22, $22, 0
12018	B788  3C170000             lui $23, 0
12019	B78C  36F70000             ori $23, $23, 0
12020	B790  3C180000             lui $24, 0
12021	B794  37180000             ori $24, $24, 0
12022	B798  3C190000             lui $25, 0
12023	B79C  37390000             ori $25, $25, 0
12024	B7A0  3C1A0000             lui $26, 0
12025	B7A4  375A0000             ori $26, $26, 0
12026	B7A8  3C1B0000             lui $27, 0
12027	B7AC  377B0000             ori $27, $27, 0
12028	B7B0  3C1C0000             lui $28, 0
12029	B7B4  379C0000             ori $28, $28, 0
12030	B7B8  3C1E0000             lui $30, 0
12031	B7BC  37DE0000             ori $30, $30, 0
12032	B7C0  03E00008             jr $31
12033	                          
12034	                          hi_upward_0:
12035	B7C4  00000011             mthi $0
12036	B7C8  00000010             mfhi $0
12037	B7CC  AFA002E8             sw $0, 744($29)
12038	B7D0  3C000000             lui $0, 0
12039	B7D4  34000000             ori $0, $0, 0
12040	B7D8  00200011             mthi $1
12041	B7DC  00000810             mfhi $1
12042	B7E0  AFA102EC             sw $1, 748($29)
12043	B7E4  3C010000             lui $1, 0
12044	B7E8  34210000             ori $1, $1, 0
12045	B7EC  00400011             mthi $2
12046	B7F0  00001010             mfhi $2
12047	B7F4  AFA202F0             sw $2, 752($29)
12048	B7F8  3C020000             lui $2, 0
12049	B7FC  34420000             ori $2, $2, 0
12050	B800  00600011             mthi $3
12051	B804  00001810             mfhi $3
12052	B808  AFA302F4             sw $3, 756($29)
12053	B80C  3C030000             lui $3, 0
12054	B810  34630000             ori $3, $3, 0
12055	B814  00800011             mthi $4
12056	B818  00002010             mfhi $4
12057	B81C  AFA402F8             sw $4, 760($29)
12058	B820  3C040000             lui $4, 0
12059	B824  34840000             ori $4, $4, 0
12060	B828  00A00011             mthi $5
12061	B82C  00002810             mfhi $5
12062	B830  AFA502FC             sw $5, 764($29)
12063	B834  3C050000             lui $5, 0
12064	B838  34A50000             ori $5, $5, 0
12065	B83C  00C00011             mthi $6
12066	B840  00003010             mfhi $6
12067	B844  AFA60300             sw $6, 768($29)
12068	B848  3C060000             lui $6, 0
12069	B84C  34C60000             ori $6, $6, 0
12070	B850  00E00011             mthi $7
12071	B854  00003810             mfhi $7
12072	B858  AFA70304             sw $7, 772($29)
12073	B85C  3C070000             lui $7, 0
12074	B860  34E70000             ori $7, $7, 0
12075	B864  01000011             mthi $8
12076	B868  00004010             mfhi $8
12077	B86C  AFA80308             sw $8, 776($29)
12078	B870  3C080000             lui $8, 0
12079	B874  35080000             ori $8, $8, 0
12080	B878  01200011             mthi $9
12081	B87C  00004810             mfhi $9
12082	B880  AFA9030C             sw $9, 780($29)
12083	B884  3C090000             lui $9, 0
12084	B888  35290000             ori $9, $9, 0
12085	B88C  01400011             mthi $10
12086	B890  00005010             mfhi $10
12087	B894  AFAA0310             sw $10, 784($29)
12088	B898  3C0A0000             lui $10, 0
12089	B89C  354A0000             ori $10, $10, 0
12090	B8A0  01600011             mthi $11
12091	B8A4  00005810             mfhi $11
12092	B8A8  AFAB0314             sw $11, 788($29)
12093	B8AC  3C0B0000             lui $11, 0
12094	B8B0  356B0000             ori $11, $11, 0
12095	B8B4  01800011             mthi $12
12096	B8B8  00006010             mfhi $12
12097	B8BC  AFAC0318             sw $12, 792($29)
12098	B8C0  3C0C0000             lui $12, 0
12099	B8C4  358C0000             ori $12, $12, 0
12100	B8C8  01A00011             mthi $13
12101	B8CC  00006810             mfhi $13
12102	B8D0  AFAD031C             sw $13, 796($29)
12103	B8D4  3C0D0000             lui $13, 0
12104	B8D8  35AD0000             ori $13, $13, 0
12105	B8DC  01C00011             mthi $14
12106	B8E0  00007010             mfhi $14
12107	B8E4  AFAE0320             sw $14, 800($29)
12108	B8E8  3C0E0000             lui $14, 0
12109	B8EC  35CE0000             ori $14, $14, 0
12110	B8F0  01E00011             mthi $15
12111	B8F4  00007810             mfhi $15
12112	B8F8  AFAF0324             sw $15, 804($29)
12113	B8FC  3C0F0000             lui $15, 0
12114	B900  35EF0000             ori $15, $15, 0
12115	B904  02000011             mthi $16
12116	B908  00008010             mfhi $16
12117	B90C  AFB00328             sw $16, 808($29)
12118	B910  3C100000             lui $16, 0
12119	B914  36100000             ori $16, $16, 0
12120	B918  02200011             mthi $17
12121	B91C  00008810             mfhi $17
12122	B920  AFB1032C             sw $17, 812($29)
12123	B924  3C110000             lui $17, 0
12124	B928  36310000             ori $17, $17, 0
12125	B92C  02400011             mthi $18
12126	B930  00009010             mfhi $18
12127	B934  AFB20330             sw $18, 816($29)
12128	B938  3C120000             lui $18, 0
12129	B93C  36520000             ori $18, $18, 0
12130	B940  02600011             mthi $19
12131	B944  00009810             mfhi $19
12132	B948  AFB30334             sw $19, 820($29)
12133	B94C  3C130000             lui $19, 0
12134	B950  36730000             ori $19, $19, 0
12135	B954  02800011             mthi $20
12136	B958  0000A010             mfhi $20
12137	B95C  AFB40338             sw $20, 824($29)
12138	B960  3C140000             lui $20, 0
12139	B964  36940000             ori $20, $20, 0
12140	B968  02A00011             mthi $21
12141	B96C  0000A810             mfhi $21
12142	B970  AFB5033C             sw $21, 828($29)
12143	B974  3C150000             lui $21, 0
12144	B978  36B50000             ori $21, $21, 0
12145	B97C  02C00011             mthi $22
12146	B980  0000B010             mfhi $22
12147	B984  AFB60340             sw $22, 832($29)
12148	B988  3C160000             lui $22, 0
12149	B98C  36D60000             ori $22, $22, 0
12150	B990  02E00011             mthi $23
12151	B994  0000B810             mfhi $23
12152	B998  AFB70344             sw $23, 836($29)
12153	B99C  3C170000             lui $23, 0
12154	B9A0  36F70000             ori $23, $23, 0
12155	B9A4  03000011             mthi $24
12156	B9A8  0000C010             mfhi $24
12157	B9AC  AFB80348             sw $24, 840($29)
12158	B9B0  3C180000             lui $24, 0
12159	B9B4  37180000             ori $24, $24, 0
12160	B9B8  03200011             mthi $25
12161	B9BC  0000C810             mfhi $25
12162	B9C0  AFB9034C             sw $25, 844($29)
12163	B9C4  3C190000             lui $25, 0
12164	B9C8  37390000             ori $25, $25, 0
12165	B9CC  03400011             mthi $26
12166	B9D0  0000D010             mfhi $26
12167	B9D4  AFBA0350             sw $26, 848($29)
12168	B9D8  3C1A0000             lui $26, 0
12169	B9DC  375A0000             ori $26, $26, 0
12170	B9E0  03600011             mthi $27
12171	B9E4  0000D810             mfhi $27
12172	B9E8  AFBB0354             sw $27, 852($29)
12173	B9EC  3C1B0000             lui $27, 0
12174	B9F0  377B0000             ori $27, $27, 0
12175	B9F4  03800011             mthi $28
12176	B9F8  0000E010             mfhi $28
12177	B9FC  AFBC0358             sw $28, 856($29)
12178	BA00  3C1C0000             lui $28, 0
12179	BA04  379C0000             ori $28, $28, 0
12180	BA08  03C00011             mthi $30
12181	BA0C  0000F010             mfhi $30
12182	BA10  AFBE035C             sw $30, 860($29)
12183	BA14  3C1E0000             lui $30, 0
12184	BA18  37DE0000             ori $30, $30, 0
12185	BA1C  03E00008             jr $31
12186	                          
12187	                          hi_downward_1:
12188	BA20  00000011             mthi $0
12189	BA24  00000010             mfhi $0
12190	BA28  AFA00360             sw $0, 864($29)
12191	BA2C  3C00FFFF             lui $0, 65535
12192	BA30  3400FFFF             ori $0, $0, 65535
12193	BA34  00000011             mthi $0
12194	BA38  00000010             mfhi $0
12195	BA3C  AFA00364             sw $0, 868($29)
12196	BA40  03C00011             mthi $30
12197	BA44  0000F010             mfhi $30
12198	BA48  AFBE0368             sw $30, 872($29)
12199	BA4C  3C1EFFFF             lui $30, 65535
12200	BA50  37DEFFFF             ori $30, $30, 65535
12201	BA54  03C00011             mthi $30
12202	BA58  0000F010             mfhi $30
12203	BA5C  AFBE036C             sw $30, 876($29)
12204	BA60  03800011             mthi $28
12205	BA64  0000E010             mfhi $28
12206	BA68  AFBC0370             sw $28, 880($29)
12207	BA6C  3C1CFFFF             lui $28, 65535
12208	BA70  379CFFFF             ori $28, $28, 65535
12209	BA74  03800011             mthi $28
12210	BA78  0000E010             mfhi $28
12211	BA7C  AFBC0374             sw $28, 884($29)
12212	BA80  03600011             mthi $27
12213	BA84  0000D810             mfhi $27
12214	BA88  AFBB0378             sw $27, 888($29)
12215	BA8C  3C1BFFFF             lui $27, 65535
12216	BA90  377BFFFF             ori $27, $27, 65535
12217	BA94  03600011             mthi $27
12218	BA98  0000D810             mfhi $27
12219	BA9C  AFBB037C             sw $27, 892($29)
12220	BAA0  03400011             mthi $26
12221	BAA4  0000D010             mfhi $26
12222	BAA8  AFBA0380             sw $26, 896($29)
12223	BAAC  3C1AFFFF             lui $26, 65535
12224	BAB0  375AFFFF             ori $26, $26, 65535
12225	BAB4  03400011             mthi $26
12226	BAB8  0000D010             mfhi $26
12227	BABC  AFBA0384             sw $26, 900($29)
12228	BAC0  03200011             mthi $25
12229	BAC4  0000C810             mfhi $25
12230	BAC8  AFB90388             sw $25, 904($29)
12231	BACC  3C19FFFF             lui $25, 65535
12232	BAD0  3739FFFF             ori $25, $25, 65535
12233	BAD4  03200011             mthi $25
12234	BAD8  0000C810             mfhi $25
12235	BADC  AFB9038C             sw $25, 908($29)
12236	BAE0  03000011             mthi $24
12237	BAE4  0000C010             mfhi $24
12238	BAE8  AFB80390             sw $24, 912($29)
12239	BAEC  3C18FFFF             lui $24, 65535
12240	BAF0  3718FFFF             ori $24, $24, 65535
12241	BAF4  03000011             mthi $24
12242	BAF8  0000C010             mfhi $24
12243	BAFC  AFB80394             sw $24, 916($29)
12244	BB00  02E00011             mthi $23
12245	BB04  0000B810             mfhi $23
12246	BB08  AFB70398             sw $23, 920($29)
12247	BB0C  3C17FFFF             lui $23, 65535
12248	BB10  36F7FFFF             ori $23, $23, 65535
12249	BB14  02E00011             mthi $23
12250	BB18  0000B810             mfhi $23
12251	BB1C  AFB7039C             sw $23, 924($29)
12252	BB20  02C00011             mthi $22
12253	BB24  0000B010             mfhi $22
12254	BB28  AFB603A0             sw $22, 928($29)
12255	BB2C  3C16FFFF             lui $22, 65535
12256	BB30  36D6FFFF             ori $22, $22, 65535
12257	BB34  02C00011             mthi $22
12258	BB38  0000B010             mfhi $22
12259	BB3C  AFB603A4             sw $22, 932($29)
12260	BB40  02A00011             mthi $21
12261	BB44  0000A810             mfhi $21
12262	BB48  AFB503A8             sw $21, 936($29)
12263	BB4C  3C15FFFF             lui $21, 65535
12264	BB50  36B5FFFF             ori $21, $21, 65535
12265	BB54  02A00011             mthi $21
12266	BB58  0000A810             mfhi $21
12267	BB5C  AFB503AC             sw $21, 940($29)
12268	BB60  02800011             mthi $20
12269	BB64  0000A010             mfhi $20
12270	BB68  AFB403B0             sw $20, 944($29)
12271	BB6C  3C14FFFF             lui $20, 65535
12272	BB70  3694FFFF             ori $20, $20, 65535
12273	BB74  02800011             mthi $20
12274	BB78  0000A010             mfhi $20
12275	BB7C  AFB403B4             sw $20, 948($29)
12276	BB80  02600011             mthi $19
12277	BB84  00009810             mfhi $19
12278	BB88  AFB303B8             sw $19, 952($29)
12279	BB8C  3C13FFFF             lui $19, 65535
12280	BB90  3673FFFF             ori $19, $19, 65535
12281	BB94  02600011             mthi $19
12282	BB98  00009810             mfhi $19
12283	BB9C  AFB303BC             sw $19, 956($29)
12284	BBA0  02400011             mthi $18
12285	BBA4  00009010             mfhi $18
12286	BBA8  AFB203C0             sw $18, 960($29)
12287	BBAC  3C12FFFF             lui $18, 65535
12288	BBB0  3652FFFF             ori $18, $18, 65535
12289	BBB4  02400011             mthi $18
12290	BBB8  00009010             mfhi $18
12291	BBBC  AFB203C4             sw $18, 964($29)
12292	BBC0  02200011             mthi $17
12293	BBC4  00008810             mfhi $17
12294	BBC8  AFB103C8             sw $17, 968($29)
12295	BBCC  3C11FFFF             lui $17, 65535
12296	BBD0  3631FFFF             ori $17, $17, 65535
12297	BBD4  02200011             mthi $17
12298	BBD8  00008810             mfhi $17
12299	BBDC  AFB103CC             sw $17, 972($29)
12300	BBE0  02000011             mthi $16
12301	BBE4  00008010             mfhi $16
12302	BBE8  AFB003D0             sw $16, 976($29)
12303	BBEC  3C10FFFF             lui $16, 65535
12304	BBF0  3610FFFF             ori $16, $16, 65535
12305	BBF4  02000011             mthi $16
12306	BBF8  00008010             mfhi $16
12307	BBFC  AFB003D4             sw $16, 980($29)
12308	BC00  01E00011             mthi $15
12309	BC04  00007810             mfhi $15
12310	BC08  AFAF03D8             sw $15, 984($29)
12311	BC0C  3C0FFFFF             lui $15, 65535
12312	BC10  35EFFFFF             ori $15, $15, 65535
12313	BC14  01E00011             mthi $15
12314	BC18  00007810             mfhi $15
12315	BC1C  AFAF03DC             sw $15, 988($29)
12316	BC20  01C00011             mthi $14
12317	BC24  00007010             mfhi $14
12318	BC28  AFAE03E0             sw $14, 992($29)
12319	BC2C  3C0EFFFF             lui $14, 65535
12320	BC30  35CEFFFF             ori $14, $14, 65535
12321	BC34  01C00011             mthi $14
12322	BC38  00007010             mfhi $14
12323	BC3C  AFAE03E4             sw $14, 996($29)
12324	BC40  01A00011             mthi $13
12325	BC44  00006810             mfhi $13
12326	BC48  AFAD03E8             sw $13, 1000($29)
12327	BC4C  3C0DFFFF             lui $13, 65535
12328	BC50  35ADFFFF             ori $13, $13, 65535
12329	BC54  01A00011             mthi $13
12330	BC58  00006810             mfhi $13
12331	BC5C  AFAD03EC             sw $13, 1004($29)
12332	BC60  01800011             mthi $12
12333	BC64  00006010             mfhi $12
12334	BC68  AFAC03F0             sw $12, 1008($29)
12335	BC6C  3C0CFFFF             lui $12, 65535
12336	BC70  358CFFFF             ori $12, $12, 65535
12337	BC74  01800011             mthi $12
12338	BC78  00006010             mfhi $12
12339	BC7C  AFAC03F4             sw $12, 1012($29)
12340	BC80  01600011             mthi $11
12341	BC84  00005810             mfhi $11
12342	BC88  AFAB03F8             sw $11, 1016($29)
12343	BC8C  3C0BFFFF             lui $11, 65535
12344	BC90  356BFFFF             ori $11, $11, 65535
12345	BC94  01600011             mthi $11
12346	BC98  00005810             mfhi $11
12347	BC9C  AFAB03FC             sw $11, 1020($29)
12348	BCA0  01400011             mthi $10
12349	BCA4  00005010             mfhi $10
12350	BCA8  AFAA0400             sw $10, 1024($29)
12351	BCAC  3C0AFFFF             lui $10, 65535
12352	BCB0  354AFFFF             ori $10, $10, 65535
12353	BCB4  01400011             mthi $10
12354	BCB8  00005010             mfhi $10
12355	BCBC  AFAA0404             sw $10, 1028($29)
12356	BCC0  01200011             mthi $9
12357	BCC4  00004810             mfhi $9
12358	BCC8  AFA90408             sw $9, 1032($29)
12359	BCCC  3C09FFFF             lui $9, 65535
12360	BCD0  3529FFFF             ori $9, $9, 65535
12361	BCD4  01200011             mthi $9
12362	BCD8  00004810             mfhi $9
12363	BCDC  AFA9040C             sw $9, 1036($29)
12364	BCE0  01000011             mthi $8
12365	BCE4  00004010             mfhi $8
12366	BCE8  AFA80410             sw $8, 1040($29)
12367	BCEC  3C08FFFF             lui $8, 65535
12368	BCF0  3508FFFF             ori $8, $8, 65535
12369	BCF4  01000011             mthi $8
12370	BCF8  00004010             mfhi $8
12371	BCFC  AFA80414             sw $8, 1044($29)
12372	BD00  00E00011             mthi $7
12373	BD04  00003810             mfhi $7
12374	BD08  AFA70418             sw $7, 1048($29)
12375	BD0C  3C07FFFF             lui $7, 65535
12376	BD10  34E7FFFF             ori $7, $7, 65535
12377	BD14  00E00011             mthi $7
12378	BD18  00003810             mfhi $7
12379	BD1C  AFA7041C             sw $7, 1052($29)
12380	BD20  00C00011             mthi $6
12381	BD24  00003010             mfhi $6
12382	BD28  AFA60420             sw $6, 1056($29)
12383	BD2C  3C06FFFF             lui $6, 65535
12384	BD30  34C6FFFF             ori $6, $6, 65535
12385	BD34  00C00011             mthi $6
12386	BD38  00003010             mfhi $6
12387	BD3C  AFA60424             sw $6, 1060($29)
12388	BD40  00A00011             mthi $5
12389	BD44  00002810             mfhi $5
12390	BD48  AFA50428             sw $5, 1064($29)
12391	BD4C  3C05FFFF             lui $5, 65535
12392	BD50  34A5FFFF             ori $5, $5, 65535
12393	BD54  00A00011             mthi $5
12394	BD58  00002810             mfhi $5
12395	BD5C  AFA5042C             sw $5, 1068($29)
12396	BD60  00800011             mthi $4
12397	BD64  00002010             mfhi $4
12398	BD68  AFA40430             sw $4, 1072($29)
12399	BD6C  3C04FFFF             lui $4, 65535
12400	BD70  3484FFFF             ori $4, $4, 65535
12401	BD74  00800011             mthi $4
12402	BD78  00002010             mfhi $4
12403	BD7C  AFA40434             sw $4, 1076($29)
12404	BD80  00600011             mthi $3
12405	BD84  00001810             mfhi $3
12406	BD88  AFA30438             sw $3, 1080($29)
12407	BD8C  3C03FFFF             lui $3, 65535
12408	BD90  3463FFFF             ori $3, $3, 65535
12409	BD94  00600011             mthi $3
12410	BD98  00001810             mfhi $3
12411	BD9C  AFA3043C             sw $3, 1084($29)
12412	BDA0  00400011             mthi $2
12413	BDA4  00001010             mfhi $2
12414	BDA8  AFA20440             sw $2, 1088($29)
12415	BDAC  3C02FFFF             lui $2, 65535
12416	BDB0  3442FFFF             ori $2, $2, 65535
12417	BDB4  00400011             mthi $2
12418	BDB8  00001010             mfhi $2
12419	BDBC  AFA20444             sw $2, 1092($29)
12420	BDC0  00200011             mthi $1
12421	BDC4  00000810             mfhi $1
12422	BDC8  AFA10448             sw $1, 1096($29)
12423	BDCC  3C01FFFF             lui $1, 65535
12424	BDD0  3421FFFF             ori $1, $1, 65535
12425	BDD4  00200011             mthi $1
12426	BDD8  00000810             mfhi $1
12427	BDDC  AFA1044C             sw $1, 1100($29)
12428	BDE0  03E00008             jr $31
12429	                          
12430	                          lo_upward_0:
12431	BDE4  00000013             mtlo $0
12432	BDE8  00000012             mflo $0
12433	BDEC  AFA00450             sw $0, 1104($29)
12434	BDF0  3C000000             lui $0, 0
12435	BDF4  34000000             ori $0, $0, 0
12436	BDF8  00200013             mtlo $1
12437	BDFC  00000812             mflo $1
12438	BE00  AFA10454             sw $1, 1108($29)
12439	BE04  3C010000             lui $1, 0
12440	BE08  34210000             ori $1, $1, 0
12441	BE0C  00400013             mtlo $2
12442	BE10  00001012             mflo $2
12443	BE14  AFA20458             sw $2, 1112($29)
12444	BE18  3C020000             lui $2, 0
12445	BE1C  34420000             ori $2, $2, 0
12446	BE20  00600013             mtlo $3
12447	BE24  00001812             mflo $3
12448	BE28  AFA3045C             sw $3, 1116($29)
12449	BE2C  3C030000             lui $3, 0
12450	BE30  34630000             ori $3, $3, 0
12451	BE34  00800013             mtlo $4
12452	BE38  00002012             mflo $4
12453	BE3C  AFA40460             sw $4, 1120($29)
12454	BE40  3C040000             lui $4, 0
12455	BE44  34840000             ori $4, $4, 0
12456	BE48  00A00013             mtlo $5
12457	BE4C  00002812             mflo $5
12458	BE50  AFA50464             sw $5, 1124($29)
12459	BE54  3C050000             lui $5, 0
12460	BE58  34A50000             ori $5, $5, 0
12461	BE5C  00C00013             mtlo $6
12462	BE60  00003012             mflo $6
12463	BE64  AFA60468             sw $6, 1128($29)
12464	BE68  3C060000             lui $6, 0
12465	BE6C  34C60000             ori $6, $6, 0
12466	BE70  00E00013             mtlo $7
12467	BE74  00003812             mflo $7
12468	BE78  AFA7046C             sw $7, 1132($29)
12469	BE7C  3C070000             lui $7, 0
12470	BE80  34E70000             ori $7, $7, 0
12471	BE84  01000013             mtlo $8
12472	BE88  00004012             mflo $8
12473	BE8C  AFA80470             sw $8, 1136($29)
12474	BE90  3C080000             lui $8, 0
12475	BE94  35080000             ori $8, $8, 0
12476	BE98  01200013             mtlo $9
12477	BE9C  00004812             mflo $9
12478	BEA0  AFA90474             sw $9, 1140($29)
12479	BEA4  3C090000             lui $9, 0
12480	BEA8  35290000             ori $9, $9, 0
12481	BEAC  01400013             mtlo $10
12482	BEB0  00005012             mflo $10
12483	BEB4  AFAA0478             sw $10, 1144($29)
12484	BEB8  3C0A0000             lui $10, 0
12485	BEBC  354A0000             ori $10, $10, 0
12486	BEC0  01600013             mtlo $11
12487	BEC4  00005812             mflo $11
12488	BEC8  AFAB047C             sw $11, 1148($29)
12489	BECC  3C0B0000             lui $11, 0
12490	BED0  356B0000             ori $11, $11, 0
12491	BED4  01800013             mtlo $12
12492	BED8  00006012             mflo $12
12493	BEDC  AFAC0480             sw $12, 1152($29)
12494	BEE0  3C0C0000             lui $12, 0
12495	BEE4  358C0000             ori $12, $12, 0
12496	BEE8  01A00013             mtlo $13
12497	BEEC  00006812             mflo $13
12498	BEF0  AFAD0484             sw $13, 1156($29)
12499	BEF4  3C0D0000             lui $13, 0
12500	BEF8  35AD0000             ori $13, $13, 0
12501	BEFC  01C00013             mtlo $14
12502	BF00  00007012             mflo $14
12503	BF04  AFAE0488             sw $14, 1160($29)
12504	BF08  3C0E0000             lui $14, 0
12505	BF0C  35CE0000             ori $14, $14, 0
12506	BF10  01E00013             mtlo $15
12507	BF14  00007812             mflo $15
12508	BF18  AFAF048C             sw $15, 1164($29)
12509	BF1C  3C0F0000             lui $15, 0
12510	BF20  35EF0000             ori $15, $15, 0
12511	BF24  02000013             mtlo $16
12512	BF28  00008012             mflo $16
12513	BF2C  AFB00490             sw $16, 1168($29)
12514	BF30  3C100000             lui $16, 0
12515	BF34  36100000             ori $16, $16, 0
12516	BF38  02200013             mtlo $17
12517	BF3C  00008812             mflo $17
12518	BF40  AFB10494             sw $17, 1172($29)
12519	BF44  3C110000             lui $17, 0
12520	BF48  36310000             ori $17, $17, 0
12521	BF4C  02400013             mtlo $18
12522	BF50  00009012             mflo $18
12523	BF54  AFB20498             sw $18, 1176($29)
12524	BF58  3C120000             lui $18, 0
12525	BF5C  36520000             ori $18, $18, 0
12526	BF60  02600013             mtlo $19
12527	BF64  00009812             mflo $19
12528	BF68  AFB3049C             sw $19, 1180($29)
12529	BF6C  3C130000             lui $19, 0
12530	BF70  36730000             ori $19, $19, 0
12531	BF74  02800013             mtlo $20
12532	BF78  0000A012             mflo $20
12533	BF7C  AFB404A0             sw $20, 1184($29)
12534	BF80  3C140000             lui $20, 0
12535	BF84  36940000             ori $20, $20, 0
12536	BF88  02A00013             mtlo $21
12537	BF8C  0000A812             mflo $21
12538	BF90  AFB504A4             sw $21, 1188($29)
12539	BF94  3C150000             lui $21, 0
12540	BF98  36B50000             ori $21, $21, 0
12541	BF9C  02C00013             mtlo $22
12542	BFA0  0000B012             mflo $22
12543	BFA4  AFB604A8             sw $22, 1192($29)
12544	BFA8  3C160000             lui $22, 0
12545	BFAC  36D60000             ori $22, $22, 0
12546	BFB0  02E00013             mtlo $23
12547	BFB4  0000B812             mflo $23
12548	BFB8  AFB704AC             sw $23, 1196($29)
12549	BFBC  3C170000             lui $23, 0
12550	BFC0  36F70000             ori $23, $23, 0
12551	BFC4  03000013             mtlo $24
12552	BFC8  0000C012             mflo $24
12553	BFCC  AFB804B0             sw $24, 1200($29)
12554	BFD0  3C180000             lui $24, 0
12555	BFD4  37180000             ori $24, $24, 0
12556	BFD8  03200013             mtlo $25
12557	BFDC  0000C812             mflo $25
12558	BFE0  AFB904B4             sw $25, 1204($29)
12559	BFE4  3C190000             lui $25, 0
12560	BFE8  37390000             ori $25, $25, 0
12561	BFEC  03400013             mtlo $26
12562	BFF0  0000D012             mflo $26
12563	BFF4  AFBA04B8             sw $26, 1208($29)
12564	BFF8  3C1A0000             lui $26, 0
12565	BFFC  375A0000             ori $26, $26, 0
12566	C000  03600013             mtlo $27
12567	C004  0000D812             mflo $27
12568	C008  AFBB04BC             sw $27, 1212($29)
12569	C00C  3C1B0000             lui $27, 0
12570	C010  377B0000             ori $27, $27, 0
12571	C014  03800013             mtlo $28
12572	C018  0000E012             mflo $28
12573	C01C  AFBC04C0             sw $28, 1216($29)
12574	C020  3C1C0000             lui $28, 0
12575	C024  379C0000             ori $28, $28, 0
12576	C028  03C00013             mtlo $30
12577	C02C  0000F012             mflo $30
12578	C030  AFBE04C4             sw $30, 1220($29)
12579	C034  3C1E0000             lui $30, 0
12580	C038  37DE0000             ori $30, $30, 0
12581	C03C  03E00008             jr $31
12582	                          
12583	                          lo_downward_1:
12584	C040  00000013             mtlo $0
12585	C044  00000012             mflo $0
12586	C048  AFA004C8             sw $0, 1224($29)
12587	C04C  3C00FFFF             lui $0, 65535
12588	C050  3400FFFF             ori $0, $0, 65535
12589	C054  00000013             mtlo $0
12590	C058  00000012             mflo $0
12591	C05C  AFA004CC             sw $0, 1228($29)
12592	C060  03C00013             mtlo $30
12593	C064  0000F012             mflo $30
12594	C068  AFBE04D0             sw $30, 1232($29)
12595	C06C  3C1EFFFF             lui $30, 65535
12596	C070  37DEFFFF             ori $30, $30, 65535
12597	C074  03C00013             mtlo $30
12598	C078  0000F012             mflo $30
12599	C07C  AFBE04D4             sw $30, 1236($29)
12600	C080  03800013             mtlo $28
12601	C084  0000E012             mflo $28
12602	C088  AFBC04D8             sw $28, 1240($29)
12603	C08C  3C1CFFFF             lui $28, 65535
12604	C090  379CFFFF             ori $28, $28, 65535
12605	C094  03800013             mtlo $28
12606	C098  0000E012             mflo $28
12607	C09C  AFBC04DC             sw $28, 1244($29)
12608	C0A0  03600013             mtlo $27
12609	C0A4  0000D812             mflo $27
12610	C0A8  AFBB04E0             sw $27, 1248($29)
12611	C0AC  3C1BFFFF             lui $27, 65535
12612	C0B0  377BFFFF             ori $27, $27, 65535
12613	C0B4  03600013             mtlo $27
12614	C0B8  0000D812             mflo $27
12615	C0BC  AFBB04E4             sw $27, 1252($29)
12616	C0C0  03400013             mtlo $26
12617	C0C4  0000D012             mflo $26
12618	C0C8  AFBA04E8             sw $26, 1256($29)
12619	C0CC  3C1AFFFF             lui $26, 65535
12620	C0D0  375AFFFF             ori $26, $26, 65535
12621	C0D4  03400013             mtlo $26
12622	C0D8  0000D012             mflo $26
12623	C0DC  AFBA04EC             sw $26, 1260($29)
12624	C0E0  03200013             mtlo $25
12625	C0E4  0000C812             mflo $25
12626	C0E8  AFB904F0             sw $25, 1264($29)
12627	C0EC  3C19FFFF             lui $25, 65535
12628	C0F0  3739FFFF             ori $25, $25, 65535
12629	C0F4  03200013             mtlo $25
12630	C0F8  0000C812             mflo $25
12631	C0FC  AFB904F4             sw $25, 1268($29)
12632	C100  03000013             mtlo $24
12633	C104  0000C012             mflo $24
12634	C108  AFB804F8             sw $24, 1272($29)
12635	C10C  3C18FFFF             lui $24, 65535
12636	C110  3718FFFF             ori $24, $24, 65535
12637	C114  03000013             mtlo $24
12638	C118  0000C012             mflo $24
12639	C11C  AFB804FC             sw $24, 1276($29)
12640	C120  02E00013             mtlo $23
12641	C124  0000B812             mflo $23
12642	C128  AFB70500             sw $23, 1280($29)
12643	C12C  3C17FFFF             lui $23, 65535
12644	C130  36F7FFFF             ori $23, $23, 65535
12645	C134  02E00013             mtlo $23
12646	C138  0000B812             mflo $23
12647	C13C  AFB70504             sw $23, 1284($29)
12648	C140  02C00013             mtlo $22
12649	C144  0000B012             mflo $22
12650	C148  AFB60508             sw $22, 1288($29)
12651	C14C  3C16FFFF             lui $22, 65535
12652	C150  36D6FFFF             ori $22, $22, 65535
12653	C154  02C00013             mtlo $22
12654	C158  0000B012             mflo $22
12655	C15C  AFB6050C             sw $22, 1292($29)
12656	C160  02A00013             mtlo $21
12657	C164  0000A812             mflo $21
12658	C168  AFB50510             sw $21, 1296($29)
12659	C16C  3C15FFFF             lui $21, 65535
12660	C170  36B5FFFF             ori $21, $21, 65535
12661	C174  02A00013             mtlo $21
12662	C178  0000A812             mflo $21
12663	C17C  AFB50514             sw $21, 1300($29)
12664	C180  02800013             mtlo $20
12665	C184  0000A012             mflo $20
12666	C188  AFB40518             sw $20, 1304($29)
12667	C18C  3C14FFFF             lui $20, 65535
12668	C190  3694FFFF             ori $20, $20, 65535
12669	C194  02800013             mtlo $20
12670	C198  0000A012             mflo $20
12671	C19C  AFB4051C             sw $20, 1308($29)
12672	C1A0  02600013             mtlo $19
12673	C1A4  00009812             mflo $19
12674	C1A8  AFB30520             sw $19, 1312($29)
12675	C1AC  3C13FFFF             lui $19, 65535
12676	C1B0  3673FFFF             ori $19, $19, 65535
12677	C1B4  02600013             mtlo $19
12678	C1B8  00009812             mflo $19
12679	C1BC  AFB30524             sw $19, 1316($29)
12680	C1C0  02400013             mtlo $18
12681	C1C4  00009012             mflo $18
12682	C1C8  AFB20528             sw $18, 1320($29)
12683	C1CC  3C12FFFF             lui $18, 65535
12684	C1D0  3652FFFF             ori $18, $18, 65535
12685	C1D4  02400013             mtlo $18
12686	C1D8  00009012             mflo $18
12687	C1DC  AFB2052C             sw $18, 1324($29)
12688	C1E0  02200013             mtlo $17
12689	C1E4  00008812             mflo $17
12690	C1E8  AFB10530             sw $17, 1328($29)
12691	C1EC  3C11FFFF             lui $17, 65535
12692	C1F0  3631FFFF             ori $17, $17, 65535
12693	C1F4  02200013             mtlo $17
12694	C1F8  00008812             mflo $17
12695	C1FC  AFB10534             sw $17, 1332($29)
12696	C200  02000013             mtlo $16
12697	C204  00008012             mflo $16
12698	C208  AFB00538             sw $16, 1336($29)
12699	C20C  3C10FFFF             lui $16, 65535
12700	C210  3610FFFF             ori $16, $16, 65535
12701	C214  02000013             mtlo $16
12702	C218  00008012             mflo $16
12703	C21C  AFB0053C             sw $16, 1340($29)
12704	C220  01E00013             mtlo $15
12705	C224  00007812             mflo $15
12706	C228  AFAF0540             sw $15, 1344($29)
12707	C22C  3C0FFFFF             lui $15, 65535
12708	C230  35EFFFFF             ori $15, $15, 65535
12709	C234  01E00013             mtlo $15
12710	C238  00007812             mflo $15
12711	C23C  AFAF0544             sw $15, 1348($29)
12712	C240  01C00013             mtlo $14
12713	C244  00007012             mflo $14
12714	C248  AFAE0548             sw $14, 1352($29)
12715	C24C  3C0EFFFF             lui $14, 65535
12716	C250  35CEFFFF             ori $14, $14, 65535
12717	C254  01C00013             mtlo $14
12718	C258  00007012             mflo $14
12719	C25C  AFAE054C             sw $14, 1356($29)
12720	C260  01A00013             mtlo $13
12721	C264  00006812             mflo $13
12722	C268  AFAD0550             sw $13, 1360($29)
12723	C26C  3C0DFFFF             lui $13, 65535
12724	C270  35ADFFFF             ori $13, $13, 65535
12725	C274  01A00013             mtlo $13
12726	C278  00006812             mflo $13
12727	C27C  AFAD0554             sw $13, 1364($29)
12728	C280  01800013             mtlo $12
12729	C284  00006012             mflo $12
12730	C288  AFAC0558             sw $12, 1368($29)
12731	C28C  3C0CFFFF             lui $12, 65535
12732	C290  358CFFFF             ori $12, $12, 65535
12733	C294  01800013             mtlo $12
12734	C298  00006012             mflo $12
12735	C29C  AFAC055C             sw $12, 1372($29)
12736	C2A0  01600013             mtlo $11
12737	C2A4  00005812             mflo $11
12738	C2A8  AFAB0560             sw $11, 1376($29)
12739	C2AC  3C0BFFFF             lui $11, 65535
12740	C2B0  356BFFFF             ori $11, $11, 65535
12741	C2B4  01600013             mtlo $11
12742	C2B8  00005812             mflo $11
12743	C2BC  AFAB0564             sw $11, 1380($29)
12744	C2C0  01400013             mtlo $10
12745	C2C4  00005012             mflo $10
12746	C2C8  AFAA0568             sw $10, 1384($29)
12747	C2CC  3C0AFFFF             lui $10, 65535
12748	C2D0  354AFFFF             ori $10, $10, 65535
12749	C2D4  01400013             mtlo $10
12750	C2D8  00005012             mflo $10
12751	C2DC  AFAA056C             sw $10, 1388($29)
12752	C2E0  01200013             mtlo $9
12753	C2E4  00004812             mflo $9
12754	C2E8  AFA90570             sw $9, 1392($29)
12755	C2EC  3C09FFFF             lui $9, 65535
12756	C2F0  3529FFFF             ori $9, $9, 65535
12757	C2F4  01200013             mtlo $9
12758	C2F8  00004812             mflo $9
12759	C2FC  AFA90574             sw $9, 1396($29)
12760	C300  01000013             mtlo $8
12761	C304  00004012             mflo $8
12762	C308  AFA80578             sw $8, 1400($29)
12763	C30C  3C08FFFF             lui $8, 65535
12764	C310  3508FFFF             ori $8, $8, 65535
12765	C314  01000013             mtlo $8
12766	C318  00004012             mflo $8
12767	C31C  AFA8057C             sw $8, 1404($29)
12768	C320  00E00013             mtlo $7
12769	C324  00003812             mflo $7
12770	C328  AFA70580             sw $7, 1408($29)
12771	C32C  3C07FFFF             lui $7, 65535
12772	C330  34E7FFFF             ori $7, $7, 65535
12773	C334  00E00013             mtlo $7
12774	C338  00003812             mflo $7
12775	C33C  AFA70584             sw $7, 1412($29)
12776	C340  00C00013             mtlo $6
12777	C344  00003012             mflo $6
12778	C348  AFA60588             sw $6, 1416($29)
12779	C34C  3C06FFFF             lui $6, 65535
12780	C350  34C6FFFF             ori $6, $6, 65535
12781	C354  00C00013             mtlo $6
12782	C358  00003012             mflo $6
12783	C35C  AFA6058C             sw $6, 1420($29)
12784	C360  00A00013             mtlo $5
12785	C364  00002812             mflo $5
12786	C368  AFA50590             sw $5, 1424($29)
12787	C36C  3C05FFFF             lui $5, 65535
12788	C370  34A5FFFF             ori $5, $5, 65535
12789	C374  00A00013             mtlo $5
12790	C378  00002812             mflo $5
12791	C37C  AFA50594             sw $5, 1428($29)
12792	C380  00800013             mtlo $4
12793	C384  00002012             mflo $4
12794	C388  AFA40598             sw $4, 1432($29)
12795	C38C  3C04FFFF             lui $4, 65535
12796	C390  3484FFFF             ori $4, $4, 65535
12797	C394  00800013             mtlo $4
12798	C398  00002012             mflo $4
12799	C39C  AFA4059C             sw $4, 1436($29)
12800	C3A0  00600013             mtlo $3
12801	C3A4  00001812             mflo $3
12802	C3A8  AFA305A0             sw $3, 1440($29)
12803	C3AC  3C03FFFF             lui $3, 65535
12804	C3B0  3463FFFF             ori $3, $3, 65535
12805	C3B4  00600013             mtlo $3
12806	C3B8  00001812             mflo $3
12807	C3BC  AFA305A4             sw $3, 1444($29)
12808	C3C0  00400013             mtlo $2
12809	C3C4  00001012             mflo $2
12810	C3C8  AFA205A8             sw $2, 1448($29)
12811	C3CC  3C02FFFF             lui $2, 65535
12812	C3D0  3442FFFF             ori $2, $2, 65535
12813	C3D4  00400013             mtlo $2
12814	C3D8  00001012             mflo $2
12815	C3DC  AFA205AC             sw $2, 1452($29)
12816	C3E0  00200013             mtlo $1
12817	C3E4  00000812             mflo $1
12818	C3E8  AFA105B0             sw $1, 1456($29)
12819	C3EC  3C01FFFF             lui $1, 65535
12820	C3F0  3421FFFF             ori $1, $1, 65535
12821	C3F4  00200013             mtlo $1
12822	C3F8  00000812             mflo $1
12823	C3FC  AFA105B4             sw $1, 1460($29)
12824	C400  03E00008             jr $31
12825	                          
12826	                          hi_upward_1:
12827	C404  00000011             mthi $0
12828	C408  00000010             mfhi $0
12829	C40C  AFA005B8             sw $0, 1464($29)
12830	C410  3C00FFFF             lui $0, 65535
12831	C414  3400FFFF             ori $0, $0, 65535
12832	C418  00200011             mthi $1
12833	C41C  00000810             mfhi $1
12834	C420  AFA105BC             sw $1, 1468($29)
12835	C424  3C01FFFF             lui $1, 65535
12836	C428  3421FFFF             ori $1, $1, 65535
12837	C42C  00400011             mthi $2
12838	C430  00001010             mfhi $2
12839	C434  AFA205C0             sw $2, 1472($29)
12840	C438  3C02FFFF             lui $2, 65535
12841	C43C  3442FFFF             ori $2, $2, 65535
12842	C440  00600011             mthi $3
12843	C444  00001810             mfhi $3
12844	C448  AFA305C4             sw $3, 1476($29)
12845	C44C  3C03FFFF             lui $3, 65535
12846	C450  3463FFFF             ori $3, $3, 65535
12847	C454  00800011             mthi $4
12848	C458  00002010             mfhi $4
12849	C45C  AFA405C8             sw $4, 1480($29)
12850	C460  3C04FFFF             lui $4, 65535
12851	C464  3484FFFF             ori $4, $4, 65535
12852	C468  00A00011             mthi $5
12853	C46C  00002810             mfhi $5
12854	C470  AFA505CC             sw $5, 1484($29)
12855	C474  3C05FFFF             lui $5, 65535
12856	C478  34A5FFFF             ori $5, $5, 65535
12857	C47C  00C00011             mthi $6
12858	C480  00003010             mfhi $6
12859	C484  AFA605D0             sw $6, 1488($29)
12860	C488  3C06FFFF             lui $6, 65535
12861	C48C  34C6FFFF             ori $6, $6, 65535
12862	C490  00E00011             mthi $7
12863	C494  00003810             mfhi $7
12864	C498  AFA705D4             sw $7, 1492($29)
12865	C49C  3C07FFFF             lui $7, 65535
12866	C4A0  34E7FFFF             ori $7, $7, 65535
12867	C4A4  01000011             mthi $8
12868	C4A8  00004010             mfhi $8
12869	C4AC  AFA805D8             sw $8, 1496($29)
12870	C4B0  3C08FFFF             lui $8, 65535
12871	C4B4  3508FFFF             ori $8, $8, 65535
12872	C4B8  01200011             mthi $9
12873	C4BC  00004810             mfhi $9
12874	C4C0  AFA905DC             sw $9, 1500($29)
12875	C4C4  3C09FFFF             lui $9, 65535
12876	C4C8  3529FFFF             ori $9, $9, 65535
12877	C4CC  01400011             mthi $10
12878	C4D0  00005010             mfhi $10
12879	C4D4  AFAA05E0             sw $10, 1504($29)
12880	C4D8  3C0AFFFF             lui $10, 65535
12881	C4DC  354AFFFF             ori $10, $10, 65535
12882	C4E0  01600011             mthi $11
12883	C4E4  00005810             mfhi $11
12884	C4E8  AFAB05E4             sw $11, 1508($29)
12885	C4EC  3C0BFFFF             lui $11, 65535
12886	C4F0  356BFFFF             ori $11, $11, 65535
12887	C4F4  01800011             mthi $12
12888	C4F8  00006010             mfhi $12
12889	C4FC  AFAC05E8             sw $12, 1512($29)
12890	C500  3C0CFFFF             lui $12, 65535
12891	C504  358CFFFF             ori $12, $12, 65535
12892	C508  01A00011             mthi $13
12893	C50C  00006810             mfhi $13
12894	C510  AFAD05EC             sw $13, 1516($29)
12895	C514  3C0DFFFF             lui $13, 65535
12896	C518  35ADFFFF             ori $13, $13, 65535
12897	C51C  01C00011             mthi $14
12898	C520  00007010             mfhi $14
12899	C524  AFAE05F0             sw $14, 1520($29)
12900	C528  3C0EFFFF             lui $14, 65535
12901	C52C  35CEFFFF             ori $14, $14, 65535
12902	C530  01E00011             mthi $15
12903	C534  00007810             mfhi $15
12904	C538  AFAF05F4             sw $15, 1524($29)
12905	C53C  3C0FFFFF             lui $15, 65535
12906	C540  35EFFFFF             ori $15, $15, 65535
12907	C544  02000011             mthi $16
12908	C548  00008010             mfhi $16
12909	C54C  AFB005F8             sw $16, 1528($29)
12910	C550  3C10FFFF             lui $16, 65535
12911	C554  3610FFFF             ori $16, $16, 65535
12912	C558  02200011             mthi $17
12913	C55C  00008810             mfhi $17
12914	C560  AFB105FC             sw $17, 1532($29)
12915	C564  3C11FFFF             lui $17, 65535
12916	C568  3631FFFF             ori $17, $17, 65535
12917	C56C  02400011             mthi $18
12918	C570  00009010             mfhi $18
12919	C574  AFB20600             sw $18, 1536($29)
12920	C578  3C12FFFF             lui $18, 65535
12921	C57C  3652FFFF             ori $18, $18, 65535
12922	C580  02600011             mthi $19
12923	C584  00009810             mfhi $19
12924	C588  AFB30604             sw $19, 1540($29)
12925	C58C  3C13FFFF             lui $19, 65535
12926	C590  3673FFFF             ori $19, $19, 65535
12927	C594  02800011             mthi $20
12928	C598  0000A010             mfhi $20
12929	C59C  AFB40608             sw $20, 1544($29)
12930	C5A0  3C14FFFF             lui $20, 65535
12931	C5A4  3694FFFF             ori $20, $20, 65535
12932	C5A8  02A00011             mthi $21
12933	C5AC  0000A810             mfhi $21
12934	C5B0  AFB5060C             sw $21, 1548($29)
12935	C5B4  3C15FFFF             lui $21, 65535
12936	C5B8  36B5FFFF             ori $21, $21, 65535
12937	C5BC  02C00011             mthi $22
12938	C5C0  0000B010             mfhi $22
12939	C5C4  AFB60610             sw $22, 1552($29)
12940	C5C8  3C16FFFF             lui $22, 65535
12941	C5CC  36D6FFFF             ori $22, $22, 65535
12942	C5D0  02E00011             mthi $23
12943	C5D4  0000B810             mfhi $23
12944	C5D8  AFB70614             sw $23, 1556($29)
12945	C5DC  3C17FFFF             lui $23, 65535
12946	C5E0  36F7FFFF             ori $23, $23, 65535
12947	C5E4  03000011             mthi $24
12948	C5E8  0000C010             mfhi $24
12949	C5EC  AFB80618             sw $24, 1560($29)
12950	C5F0  3C18FFFF             lui $24, 65535
12951	C5F4  3718FFFF             ori $24, $24, 65535
12952	C5F8  03200011             mthi $25
12953	C5FC  0000C810             mfhi $25
12954	C600  AFB9061C             sw $25, 1564($29)
12955	C604  3C19FFFF             lui $25, 65535
12956	C608  3739FFFF             ori $25, $25, 65535
12957	C60C  03400011             mthi $26
12958	C610  0000D010             mfhi $26
12959	C614  AFBA0620             sw $26, 1568($29)
12960	C618  3C1AFFFF             lui $26, 65535
12961	C61C  375AFFFF             ori $26, $26, 65535
12962	C620  03600011             mthi $27
12963	C624  0000D810             mfhi $27
12964	C628  AFBB0624             sw $27, 1572($29)
12965	C62C  3C1BFFFF             lui $27, 65535
12966	C630  377BFFFF             ori $27, $27, 65535
12967	C634  03800011             mthi $28
12968	C638  0000E010             mfhi $28
12969	C63C  AFBC0628             sw $28, 1576($29)
12970	C640  3C1CFFFF             lui $28, 65535
12971	C644  379CFFFF             ori $28, $28, 65535
12972	C648  03C00011             mthi $30
12973	C64C  0000F010             mfhi $30
12974	C650  AFBE062C             sw $30, 1580($29)
12975	C654  3C1EFFFF             lui $30, 65535
12976	C658  37DEFFFF             ori $30, $30, 65535
12977	C65C  03E00008             jr $31
12978	                          
12979	                          hi_downward_0:
12980	C660  00000011             mthi $0
12981	C664  00000010             mfhi $0
12982	C668  AFA00630             sw $0, 1584($29)
12983	C66C  3C000000             lui $0, 0
12984	C670  34000000             ori $0, $0, 0
12985	C674  00000011             mthi $0
12986	C678  00000010             mfhi $0
12987	C67C  AFA00634             sw $0, 1588($29)
12988	C680  03C00011             mthi $30
12989	C684  0000F010             mfhi $30
12990	C688  AFBE0638             sw $30, 1592($29)
12991	C68C  3C1E0000             lui $30, 0
12992	C690  37DE0000             ori $30, $30, 0
12993	C694  03C00011             mthi $30
12994	C698  0000F010             mfhi $30
12995	C69C  AFBE063C             sw $30, 1596($29)
12996	C6A0  03800011             mthi $28
12997	C6A4  0000E010             mfhi $28
12998	C6A8  AFBC0640             sw $28, 1600($29)
12999	C6AC  3C1C0000             lui $28, 0
13000	C6B0  379C0000             ori $28, $28, 0
13001	C6B4  03800011             mthi $28
13002	C6B8  0000E010             mfhi $28
13003	C6BC  AFBC0644             sw $28, 1604($29)
13004	C6C0  03600011             mthi $27
13005	C6C4  0000D810             mfhi $27
13006	C6C8  AFBB0648             sw $27, 1608($29)
13007	C6CC  3C1B0000             lui $27, 0
13008	C6D0  377B0000             ori $27, $27, 0
13009	C6D4  03600011             mthi $27
13010	C6D8  0000D810             mfhi $27
13011	C6DC  AFBB064C             sw $27, 1612($29)
13012	C6E0  03400011             mthi $26
13013	C6E4  0000D010             mfhi $26
13014	C6E8  AFBA0650             sw $26, 1616($29)
13015	C6EC  3C1A0000             lui $26, 0
13016	C6F0  375A0000             ori $26, $26, 0
13017	C6F4  03400011             mthi $26
13018	C6F8  0000D010             mfhi $26
13019	C6FC  AFBA0654             sw $26, 1620($29)
13020	C700  03200011             mthi $25
13021	C704  0000C810             mfhi $25
13022	C708  AFB90658             sw $25, 1624($29)
13023	C70C  3C190000             lui $25, 0
13024	C710  37390000             ori $25, $25, 0
13025	C714  03200011             mthi $25
13026	C718  0000C810             mfhi $25
13027	C71C  AFB9065C             sw $25, 1628($29)
13028	C720  03000011             mthi $24
13029	C724  0000C010             mfhi $24
13030	C728  AFB80660             sw $24, 1632($29)
13031	C72C  3C180000             lui $24, 0
13032	C730  37180000             ori $24, $24, 0
13033	C734  03000011             mthi $24
13034	C738  0000C010             mfhi $24
13035	C73C  AFB80664             sw $24, 1636($29)
13036	C740  02E00011             mthi $23
13037	C744  0000B810             mfhi $23
13038	C748  AFB70668             sw $23, 1640($29)
13039	C74C  3C170000             lui $23, 0
13040	C750  36F70000             ori $23, $23, 0
13041	C754  02E00011             mthi $23
13042	C758  0000B810             mfhi $23
13043	C75C  AFB7066C             sw $23, 1644($29)
13044	C760  02C00011             mthi $22
13045	C764  0000B010             mfhi $22
13046	C768  AFB60670             sw $22, 1648($29)
13047	C76C  3C160000             lui $22, 0
13048	C770  36D60000             ori $22, $22, 0
13049	C774  02C00011             mthi $22
13050	C778  0000B010             mfhi $22
13051	C77C  AFB60674             sw $22, 1652($29)
13052	C780  02A00011             mthi $21
13053	C784  0000A810             mfhi $21
13054	C788  AFB50678             sw $21, 1656($29)
13055	C78C  3C150000             lui $21, 0
13056	C790  36B50000             ori $21, $21, 0
13057	C794  02A00011             mthi $21
13058	C798  0000A810             mfhi $21
13059	C79C  AFB5067C             sw $21, 1660($29)
13060	C7A0  02800011             mthi $20
13061	C7A4  0000A010             mfhi $20
13062	C7A8  AFB40680             sw $20, 1664($29)
13063	C7AC  3C140000             lui $20, 0
13064	C7B0  36940000             ori $20, $20, 0
13065	C7B4  02800011             mthi $20
13066	C7B8  0000A010             mfhi $20
13067	C7BC  AFB40684             sw $20, 1668($29)
13068	C7C0  02600011             mthi $19
13069	C7C4  00009810             mfhi $19
13070	C7C8  AFB30688             sw $19, 1672($29)
13071	C7CC  3C130000             lui $19, 0
13072	C7D0  36730000             ori $19, $19, 0
13073	C7D4  02600011             mthi $19
13074	C7D8  00009810             mfhi $19
13075	C7DC  AFB3068C             sw $19, 1676($29)
13076	C7E0  02400011             mthi $18
13077	C7E4  00009010             mfhi $18
13078	C7E8  AFB20690             sw $18, 1680($29)
13079	C7EC  3C120000             lui $18, 0
13080	C7F0  36520000             ori $18, $18, 0
13081	C7F4  02400011             mthi $18
13082	C7F8  00009010             mfhi $18
13083	C7FC  AFB20694             sw $18, 1684($29)
13084	C800  02200011             mthi $17
13085	C804  00008810             mfhi $17
13086	C808  AFB10698             sw $17, 1688($29)
13087	C80C  3C110000             lui $17, 0
13088	C810  36310000             ori $17, $17, 0
13089	C814  02200011             mthi $17
13090	C818  00008810             mfhi $17
13091	C81C  AFB1069C             sw $17, 1692($29)
13092	C820  02000011             mthi $16
13093	C824  00008010             mfhi $16
13094	C828  AFB006A0             sw $16, 1696($29)
13095	C82C  3C100000             lui $16, 0
13096	C830  36100000             ori $16, $16, 0
13097	C834  02000011             mthi $16
13098	C838  00008010             mfhi $16
13099	C83C  AFB006A4             sw $16, 1700($29)
13100	C840  01E00011             mthi $15
13101	C844  00007810             mfhi $15
13102	C848  AFAF06A8             sw $15, 1704($29)
13103	C84C  3C0F0000             lui $15, 0
13104	C850  35EF0000             ori $15, $15, 0
13105	C854  01E00011             mthi $15
13106	C858  00007810             mfhi $15
13107	C85C  AFAF06AC             sw $15, 1708($29)
13108	C860  01C00011             mthi $14
13109	C864  00007010             mfhi $14
13110	C868  AFAE06B0             sw $14, 1712($29)
13111	C86C  3C0E0000             lui $14, 0
13112	C870  35CE0000             ori $14, $14, 0
13113	C874  01C00011             mthi $14
13114	C878  00007010             mfhi $14
13115	C87C  AFAE06B4             sw $14, 1716($29)
13116	C880  01A00011             mthi $13
13117	C884  00006810             mfhi $13
13118	C888  AFAD06B8             sw $13, 1720($29)
13119	C88C  3C0D0000             lui $13, 0
13120	C890  35AD0000             ori $13, $13, 0
13121	C894  01A00011             mthi $13
13122	C898  00006810             mfhi $13
13123	C89C  AFAD06BC             sw $13, 1724($29)
13124	C8A0  01800011             mthi $12
13125	C8A4  00006010             mfhi $12
13126	C8A8  AFAC06C0             sw $12, 1728($29)
13127	C8AC  3C0C0000             lui $12, 0
13128	C8B0  358C0000             ori $12, $12, 0
13129	C8B4  01800011             mthi $12
13130	C8B8  00006010             mfhi $12
13131	C8BC  AFAC06C4             sw $12, 1732($29)
13132	C8C0  01600011             mthi $11
13133	C8C4  00005810             mfhi $11
13134	C8C8  AFAB06C8             sw $11, 1736($29)
13135	C8CC  3C0B0000             lui $11, 0
13136	C8D0  356B0000             ori $11, $11, 0
13137	C8D4  01600011             mthi $11
13138	C8D8  00005810             mfhi $11
13139	C8DC  AFAB06CC             sw $11, 1740($29)
13140	C8E0  01400011             mthi $10
13141	C8E4  00005010             mfhi $10
13142	C8E8  AFAA06D0             sw $10, 1744($29)
13143	C8EC  3C0A0000             lui $10, 0
13144	C8F0  354A0000             ori $10, $10, 0
13145	C8F4  01400011             mthi $10
13146	C8F8  00005010             mfhi $10
13147	C8FC  AFAA06D4             sw $10, 1748($29)
13148	C900  01200011             mthi $9
13149	C904  00004810             mfhi $9
13150	C908  AFA906D8             sw $9, 1752($29)
13151	C90C  3C090000             lui $9, 0
13152	C910  35290000             ori $9, $9, 0
13153	C914  01200011             mthi $9
13154	C918  00004810             mfhi $9
13155	C91C  AFA906DC             sw $9, 1756($29)
13156	C920  01000011             mthi $8
13157	C924  00004010             mfhi $8
13158	C928  AFA806E0             sw $8, 1760($29)
13159	C92C  3C080000             lui $8, 0
13160	C930  35080000             ori $8, $8, 0
13161	C934  01000011             mthi $8
13162	C938  00004010             mfhi $8
13163	C93C  AFA806E4             sw $8, 1764($29)
13164	C940  00E00011             mthi $7
13165	C944  00003810             mfhi $7
13166	C948  AFA706E8             sw $7, 1768($29)
13167	C94C  3C070000             lui $7, 0
13168	C950  34E70000             ori $7, $7, 0
13169	C954  00E00011             mthi $7
13170	C958  00003810             mfhi $7
13171	C95C  AFA706EC             sw $7, 1772($29)
13172	C960  00C00011             mthi $6
13173	C964  00003010             mfhi $6
13174	C968  AFA606F0             sw $6, 1776($29)
13175	C96C  3C060000             lui $6, 0
13176	C970  34C60000             ori $6, $6, 0
13177	C974  00C00011             mthi $6
13178	C978  00003010             mfhi $6
13179	C97C  AFA606F4             sw $6, 1780($29)
13180	C980  00A00011             mthi $5
13181	C984  00002810             mfhi $5
13182	C988  AFA506F8             sw $5, 1784($29)
13183	C98C  3C050000             lui $5, 0
13184	C990  34A50000             ori $5, $5, 0
13185	C994  00A00011             mthi $5
13186	C998  00002810             mfhi $5
13187	C99C  AFA506FC             sw $5, 1788($29)
13188	C9A0  00800011             mthi $4
13189	C9A4  00002010             mfhi $4
13190	C9A8  AFA40700             sw $4, 1792($29)
13191	C9AC  3C040000             lui $4, 0
13192	C9B0  34840000             ori $4, $4, 0
13193	C9B4  00800011             mthi $4
13194	C9B8  00002010             mfhi $4
13195	C9BC  AFA40704             sw $4, 1796($29)
13196	C9C0  00600011             mthi $3
13197	C9C4  00001810             mfhi $3
13198	C9C8  AFA30708             sw $3, 1800($29)
13199	C9CC  3C030000             lui $3, 0
13200	C9D0  34630000             ori $3, $3, 0
13201	C9D4  00600011             mthi $3
13202	C9D8  00001810             mfhi $3
13203	C9DC  AFA3070C             sw $3, 1804($29)
13204	C9E0  00400011             mthi $2
13205	C9E4  00001010             mfhi $2
13206	C9E8  AFA20710             sw $2, 1808($29)
13207	C9EC  3C020000             lui $2, 0
13208	C9F0  34420000             ori $2, $2, 0
13209	C9F4  00400011             mthi $2
13210	C9F8  00001010             mfhi $2
13211	C9FC  AFA20714             sw $2, 1812($29)
13212	CA00  00200011             mthi $1
13213	CA04  00000810             mfhi $1
13214	CA08  AFA10718             sw $1, 1816($29)
13215	CA0C  3C010000             lui $1, 0
13216	CA10  34210000             ori $1, $1, 0
13217	CA14  00200011             mthi $1
13218	CA18  00000810             mfhi $1
13219	CA1C  AFA1071C             sw $1, 1820($29)
13220	CA20  03E00008             jr $31
13221	                          
13222	                          lo_upward_1:
13223	CA24  00000013             mtlo $0
13224	CA28  00000012             mflo $0
13225	CA2C  AFA00720             sw $0, 1824($29)
13226	CA30  3C00FFFF             lui $0, 65535
13227	CA34  3400FFFF             ori $0, $0, 65535
13228	CA38  00200013             mtlo $1
13229	CA3C  00000812             mflo $1
13230	CA40  AFA10724             sw $1, 1828($29)
13231	CA44  3C01FFFF             lui $1, 65535
13232	CA48  3421FFFF             ori $1, $1, 65535
13233	CA4C  00400013             mtlo $2
13234	CA50  00001012             mflo $2
13235	CA54  AFA20728             sw $2, 1832($29)
13236	CA58  3C02FFFF             lui $2, 65535
13237	CA5C  3442FFFF             ori $2, $2, 65535
13238	CA60  00600013             mtlo $3
13239	CA64  00001812             mflo $3
13240	CA68  AFA3072C             sw $3, 1836($29)
13241	CA6C  3C03FFFF             lui $3, 65535
13242	CA70  3463FFFF             ori $3, $3, 65535
13243	CA74  00800013             mtlo $4
13244	CA78  00002012             mflo $4
13245	CA7C  AFA40730             sw $4, 1840($29)
13246	CA80  3C04FFFF             lui $4, 65535
13247	CA84  3484FFFF             ori $4, $4, 65535
13248	CA88  00A00013             mtlo $5
13249	CA8C  00002812             mflo $5
13250	CA90  AFA50734             sw $5, 1844($29)
13251	CA94  3C05FFFF             lui $5, 65535
13252	CA98  34A5FFFF             ori $5, $5, 65535
13253	CA9C  00C00013             mtlo $6
13254	CAA0  00003012             mflo $6
13255	CAA4  AFA60738             sw $6, 1848($29)
13256	CAA8  3C06FFFF             lui $6, 65535
13257	CAAC  34C6FFFF             ori $6, $6, 65535
13258	CAB0  00E00013             mtlo $7
13259	CAB4  00003812             mflo $7
13260	CAB8  AFA7073C             sw $7, 1852($29)
13261	CABC  3C07FFFF             lui $7, 65535
13262	CAC0  34E7FFFF             ori $7, $7, 65535
13263	CAC4  01000013             mtlo $8
13264	CAC8  00004012             mflo $8
13265	CACC  AFA80740             sw $8, 1856($29)
13266	CAD0  3C08FFFF             lui $8, 65535
13267	CAD4  3508FFFF             ori $8, $8, 65535
13268	CAD8  01200013             mtlo $9
13269	CADC  00004812             mflo $9
13270	CAE0  AFA90744             sw $9, 1860($29)
13271	CAE4  3C09FFFF             lui $9, 65535
13272	CAE8  3529FFFF             ori $9, $9, 65535
13273	CAEC  01400013             mtlo $10
13274	CAF0  00005012             mflo $10
13275	CAF4  AFAA0748             sw $10, 1864($29)
13276	CAF8  3C0AFFFF             lui $10, 65535
13277	CAFC  354AFFFF             ori $10, $10, 65535
13278	CB00  01600013             mtlo $11
13279	CB04  00005812             mflo $11
13280	CB08  AFAB074C             sw $11, 1868($29)
13281	CB0C  3C0BFFFF             lui $11, 65535
13282	CB10  356BFFFF             ori $11, $11, 65535
13283	CB14  01800013             mtlo $12
13284	CB18  00006012             mflo $12
13285	CB1C  AFAC0750             sw $12, 1872($29)
13286	CB20  3C0CFFFF             lui $12, 65535
13287	CB24  358CFFFF             ori $12, $12, 65535
13288	CB28  01A00013             mtlo $13
13289	CB2C  00006812             mflo $13
13290	CB30  AFAD0754             sw $13, 1876($29)
13291	CB34  3C0DFFFF             lui $13, 65535
13292	CB38  35ADFFFF             ori $13, $13, 65535
13293	CB3C  01C00013             mtlo $14
13294	CB40  00007012             mflo $14
13295	CB44  AFAE0758             sw $14, 1880($29)
13296	CB48  3C0EFFFF             lui $14, 65535
13297	CB4C  35CEFFFF             ori $14, $14, 65535
13298	CB50  01E00013             mtlo $15
13299	CB54  00007812             mflo $15
13300	CB58  AFAF075C             sw $15, 1884($29)
13301	CB5C  3C0FFFFF             lui $15, 65535
13302	CB60  35EFFFFF             ori $15, $15, 65535
13303	CB64  02000013             mtlo $16
13304	CB68  00008012             mflo $16
13305	CB6C  AFB00760             sw $16, 1888($29)
13306	CB70  3C10FFFF             lui $16, 65535
13307	CB74  3610FFFF             ori $16, $16, 65535
13308	CB78  02200013             mtlo $17
13309	CB7C  00008812             mflo $17
13310	CB80  AFB10764             sw $17, 1892($29)
13311	CB84  3C11FFFF             lui $17, 65535
13312	CB88  3631FFFF             ori $17, $17, 65535
13313	CB8C  02400013             mtlo $18
13314	CB90  00009012             mflo $18
13315	CB94  AFB20768             sw $18, 1896($29)
13316	CB98  3C12FFFF             lui $18, 65535
13317	CB9C  3652FFFF             ori $18, $18, 65535
13318	CBA0  02600013             mtlo $19
13319	CBA4  00009812             mflo $19
13320	CBA8  AFB3076C             sw $19, 1900($29)
13321	CBAC  3C13FFFF             lui $19, 65535
13322	CBB0  3673FFFF             ori $19, $19, 65535
13323	CBB4  02800013             mtlo $20
13324	CBB8  0000A012             mflo $20
13325	CBBC  AFB40770             sw $20, 1904($29)
13326	CBC0  3C14FFFF             lui $20, 65535
13327	CBC4  3694FFFF             ori $20, $20, 65535
13328	CBC8  02A00013             mtlo $21
13329	CBCC  0000A812             mflo $21
13330	CBD0  AFB50774             sw $21, 1908($29)
13331	CBD4  3C15FFFF             lui $21, 65535
13332	CBD8  36B5FFFF             ori $21, $21, 65535
13333	CBDC  02C00013             mtlo $22
13334	CBE0  0000B012             mflo $22
13335	CBE4  AFB60778             sw $22, 1912($29)
13336	CBE8  3C16FFFF             lui $22, 65535
13337	CBEC  36D6FFFF             ori $22, $22, 65535
13338	CBF0  02E00013             mtlo $23
13339	CBF4  0000B812             mflo $23
13340	CBF8  AFB7077C             sw $23, 1916($29)
13341	CBFC  3C17FFFF             lui $23, 65535
13342	CC00  36F7FFFF             ori $23, $23, 65535
13343	CC04  03000013             mtlo $24
13344	CC08  0000C012             mflo $24
13345	CC0C  AFB80780             sw $24, 1920($29)
13346	CC10  3C18FFFF             lui $24, 65535
13347	CC14  3718FFFF             ori $24, $24, 65535
13348	CC18  03200013             mtlo $25
13349	CC1C  0000C812             mflo $25
13350	CC20  AFB90784             sw $25, 1924($29)
13351	CC24  3C19FFFF             lui $25, 65535
13352	CC28  3739FFFF             ori $25, $25, 65535
13353	CC2C  03400013             mtlo $26
13354	CC30  0000D012             mflo $26
13355	CC34  AFBA0788             sw $26, 1928($29)
13356	CC38  3C1AFFFF             lui $26, 65535
13357	CC3C  375AFFFF             ori $26, $26, 65535
13358	CC40  03600013             mtlo $27
13359	CC44  0000D812             mflo $27
13360	CC48  AFBB078C             sw $27, 1932($29)
13361	CC4C  3C1BFFFF             lui $27, 65535
13362	CC50  377BFFFF             ori $27, $27, 65535
13363	CC54  03800013             mtlo $28
13364	CC58  0000E012             mflo $28
13365	CC5C  AFBC0790             sw $28, 1936($29)
13366	CC60  3C1CFFFF             lui $28, 65535
13367	CC64  379CFFFF             ori $28, $28, 65535
13368	CC68  03C00013             mtlo $30
13369	CC6C  0000F012             mflo $30
13370	CC70  AFBE0794             sw $30, 1940($29)
13371	CC74  3C1EFFFF             lui $30, 65535
13372	CC78  37DEFFFF             ori $30, $30, 65535
13373	CC7C  03E00008             jr $31
13374	                          
13375	                          lo_downward_0:
13376	CC80  00000013             mtlo $0
13377	CC84  00000012             mflo $0
13378	CC88  AFA00798             sw $0, 1944($29)
13379	CC8C  3C000000             lui $0, 0
13380	CC90  34000000             ori $0, $0, 0
13381	CC94  00000013             mtlo $0
13382	CC98  00000012             mflo $0
13383	CC9C  AFA0079C             sw $0, 1948($29)
13384	CCA0  03C00013             mtlo $30
13385	CCA4  0000F012             mflo $30
13386	CCA8  AFBE07A0             sw $30, 1952($29)
13387	CCAC  3C1E0000             lui $30, 0
13388	CCB0  37DE0000             ori $30, $30, 0
13389	CCB4  03C00013             mtlo $30
13390	CCB8  0000F012             mflo $30
13391	CCBC  AFBE07A4             sw $30, 1956($29)
13392	CCC0  03800013             mtlo $28
13393	CCC4  0000E012             mflo $28
13394	CCC8  AFBC07A8             sw $28, 1960($29)
13395	CCCC  3C1C0000             lui $28, 0
13396	CCD0  379C0000             ori $28, $28, 0
13397	CCD4  03800013             mtlo $28
13398	CCD8  0000E012             mflo $28
13399	CCDC  AFBC07AC             sw $28, 1964($29)
13400	CCE0  03600013             mtlo $27
13401	CCE4  0000D812             mflo $27
13402	CCE8  AFBB07B0             sw $27, 1968($29)
13403	CCEC  3C1B0000             lui $27, 0
13404	CCF0  377B0000             ori $27, $27, 0
13405	CCF4  03600013             mtlo $27
13406	CCF8  0000D812             mflo $27
13407	CCFC  AFBB07B4             sw $27, 1972($29)
13408	CD00  03400013             mtlo $26
13409	CD04  0000D012             mflo $26
13410	CD08  AFBA07B8             sw $26, 1976($29)
13411	CD0C  3C1A0000             lui $26, 0
13412	CD10  375A0000             ori $26, $26, 0
13413	CD14  03400013             mtlo $26
13414	CD18  0000D012             mflo $26
13415	CD1C  AFBA07BC             sw $26, 1980($29)
13416	CD20  03200013             mtlo $25
13417	CD24  0000C812             mflo $25
13418	CD28  AFB907C0             sw $25, 1984($29)
13419	CD2C  3C190000             lui $25, 0
13420	CD30  37390000             ori $25, $25, 0
13421	CD34  03200013             mtlo $25
13422	CD38  0000C812             mflo $25
13423	CD3C  AFB907C4             sw $25, 1988($29)
13424	CD40  03000013             mtlo $24
13425	CD44  0000C012             mflo $24
13426	CD48  AFB807C8             sw $24, 1992($29)
13427	CD4C  3C180000             lui $24, 0
13428	CD50  37180000             ori $24, $24, 0
13429	CD54  03000013             mtlo $24
13430	CD58  0000C012             mflo $24
13431	CD5C  AFB807CC             sw $24, 1996($29)
13432	CD60  02E00013             mtlo $23
13433	CD64  0000B812             mflo $23
13434	CD68  AFB707D0             sw $23, 2000($29)
13435	CD6C  3C170000             lui $23, 0
13436	CD70  36F70000             ori $23, $23, 0
13437	CD74  02E00013             mtlo $23
13438	CD78  0000B812             mflo $23
13439	CD7C  AFB707D4             sw $23, 2004($29)
13440	CD80  02C00013             mtlo $22
13441	CD84  0000B012             mflo $22
13442	CD88  AFB607D8             sw $22, 2008($29)
13443	CD8C  3C160000             lui $22, 0
13444	CD90  36D60000             ori $22, $22, 0
13445	CD94  02C00013             mtlo $22
13446	CD98  0000B012             mflo $22
13447	CD9C  AFB607DC             sw $22, 2012($29)
13448	CDA0  02A00013             mtlo $21
13449	CDA4  0000A812             mflo $21
13450	CDA8  AFB507E0             sw $21, 2016($29)
13451	CDAC  3C150000             lui $21, 0
13452	CDB0  36B50000             ori $21, $21, 0
13453	CDB4  02A00013             mtlo $21
13454	CDB8  0000A812             mflo $21
13455	CDBC  AFB507E4             sw $21, 2020($29)
13456	CDC0  02800013             mtlo $20
13457	CDC4  0000A012             mflo $20
13458	CDC8  AFB407E8             sw $20, 2024($29)
13459	CDCC  3C140000             lui $20, 0
13460	CDD0  36940000             ori $20, $20, 0
13461	CDD4  02800013             mtlo $20
13462	CDD8  0000A012             mflo $20
13463	CDDC  AFB407EC             sw $20, 2028($29)
13464	CDE0  02600013             mtlo $19
13465	CDE4  00009812             mflo $19
13466	CDE8  AFB307F0             sw $19, 2032($29)
13467	CDEC  3C130000             lui $19, 0
13468	CDF0  36730000             ori $19, $19, 0
13469	CDF4  02600013             mtlo $19
13470	CDF8  00009812             mflo $19
13471	CDFC  AFB307F4             sw $19, 2036($29)
13472	CE00  02400013             mtlo $18
13473	CE04  00009012             mflo $18
13474	CE08  AFB207F8             sw $18, 2040($29)
13475	CE0C  3C120000             lui $18, 0
13476	CE10  36520000             ori $18, $18, 0
13477	CE14  02400013             mtlo $18
13478	CE18  00009012             mflo $18
13479	CE1C  AFB207FC             sw $18, 2044($29)
13480	CE20  02200013             mtlo $17
13481	CE24  00008812             mflo $17
13482	CE28  AFB10800             sw $17, 2048($29)
13483	CE2C  3C110000             lui $17, 0
13484	CE30  36310000             ori $17, $17, 0
13485	CE34  02200013             mtlo $17
13486	CE38  00008812             mflo $17
13487	CE3C  AFB10804             sw $17, 2052($29)
13488	CE40  02000013             mtlo $16
13489	CE44  00008012             mflo $16
13490	CE48  AFB00808             sw $16, 2056($29)
13491	CE4C  3C100000             lui $16, 0
13492	CE50  36100000             ori $16, $16, 0
13493	CE54  02000013             mtlo $16
13494	CE58  00008012             mflo $16
13495	CE5C  AFB0080C             sw $16, 2060($29)
13496	CE60  01E00013             mtlo $15
13497	CE64  00007812             mflo $15
13498	CE68  AFAF0810             sw $15, 2064($29)
13499	CE6C  3C0F0000             lui $15, 0
13500	CE70  35EF0000             ori $15, $15, 0
13501	CE74  01E00013             mtlo $15
13502	CE78  00007812             mflo $15
13503	CE7C  AFAF0814             sw $15, 2068($29)
13504	CE80  01C00013             mtlo $14
13505	CE84  00007012             mflo $14
13506	CE88  AFAE0818             sw $14, 2072($29)
13507	CE8C  3C0E0000             lui $14, 0
13508	CE90  35CE0000             ori $14, $14, 0
13509	CE94  01C00013             mtlo $14
13510	CE98  00007012             mflo $14
13511	CE9C  AFAE081C             sw $14, 2076($29)
13512	CEA0  01A00013             mtlo $13
13513	CEA4  00006812             mflo $13
13514	CEA8  AFAD0820             sw $13, 2080($29)
13515	CEAC  3C0D0000             lui $13, 0
13516	CEB0  35AD0000             ori $13, $13, 0
13517	CEB4  01A00013             mtlo $13
13518	CEB8  00006812             mflo $13
13519	CEBC  AFAD0824             sw $13, 2084($29)
13520	CEC0  01800013             mtlo $12
13521	CEC4  00006012             mflo $12
13522	CEC8  AFAC0828             sw $12, 2088($29)
13523	CECC  3C0C0000             lui $12, 0
13524	CED0  358C0000             ori $12, $12, 0
13525	CED4  01800013             mtlo $12
13526	CED8  00006012             mflo $12
13527	CEDC  AFAC082C             sw $12, 2092($29)
13528	CEE0  01600013             mtlo $11
13529	CEE4  00005812             mflo $11
13530	CEE8  AFAB0830             sw $11, 2096($29)
13531	CEEC  3C0B0000             lui $11, 0
13532	CEF0  356B0000             ori $11, $11, 0
13533	CEF4  01600013             mtlo $11
13534	CEF8  00005812             mflo $11
13535	CEFC  AFAB0834             sw $11, 2100($29)
13536	CF00  01400013             mtlo $10
13537	CF04  00005012             mflo $10
13538	CF08  AFAA0838             sw $10, 2104($29)
13539	CF0C  3C0A0000             lui $10, 0
13540	CF10  354A0000             ori $10, $10, 0
13541	CF14  01400013             mtlo $10
13542	CF18  00005012             mflo $10
13543	CF1C  AFAA083C             sw $10, 2108($29)
13544	CF20  01200013             mtlo $9
13545	CF24  00004812             mflo $9
13546	CF28  AFA90840             sw $9, 2112($29)
13547	CF2C  3C090000             lui $9, 0
13548	CF30  35290000             ori $9, $9, 0
13549	CF34  01200013             mtlo $9
13550	CF38  00004812             mflo $9
13551	CF3C  AFA90844             sw $9, 2116($29)
13552	CF40  01000013             mtlo $8
13553	CF44  00004012             mflo $8
13554	CF48  AFA80848             sw $8, 2120($29)
13555	CF4C  3C080000             lui $8, 0
13556	CF50  35080000             ori $8, $8, 0
13557	CF54  01000013             mtlo $8
13558	CF58  00004012             mflo $8
13559	CF5C  AFA8084C             sw $8, 2124($29)
13560	CF60  00E00013             mtlo $7
13561	CF64  00003812             mflo $7
13562	CF68  AFA70850             sw $7, 2128($29)
13563	CF6C  3C070000             lui $7, 0
13564	CF70  34E70000             ori $7, $7, 0
13565	CF74  00E00013             mtlo $7
13566	CF78  00003812             mflo $7
13567	CF7C  AFA70854             sw $7, 2132($29)
13568	CF80  00C00013             mtlo $6
13569	CF84  00003012             mflo $6
13570	CF88  AFA60858             sw $6, 2136($29)
13571	CF8C  3C060000             lui $6, 0
13572	CF90  34C60000             ori $6, $6, 0
13573	CF94  00C00013             mtlo $6
13574	CF98  00003012             mflo $6
13575	CF9C  AFA6085C             sw $6, 2140($29)
13576	CFA0  00A00013             mtlo $5
13577	CFA4  00002812             mflo $5
13578	CFA8  AFA50860             sw $5, 2144($29)
13579	CFAC  3C050000             lui $5, 0
13580	CFB0  34A50000             ori $5, $5, 0
13581	CFB4  00A00013             mtlo $5
13582	CFB8  00002812             mflo $5
13583	CFBC  AFA50864             sw $5, 2148($29)
13584	CFC0  00800013             mtlo $4
13585	CFC4  00002012             mflo $4
13586	CFC8  AFA40868             sw $4, 2152($29)
13587	CFCC  3C040000             lui $4, 0
13588	CFD0  34840000             ori $4, $4, 0
13589	CFD4  00800013             mtlo $4
13590	CFD8  00002012             mflo $4
13591	CFDC  AFA4086C             sw $4, 2156($29)
13592	CFE0  00600013             mtlo $3
13593	CFE4  00001812             mflo $3
13594	CFE8  AFA30870             sw $3, 2160($29)
13595	CFEC  3C030000             lui $3, 0
13596	CFF0  34630000             ori $3, $3, 0
13597	CFF4  00600013             mtlo $3
13598	CFF8  00001812             mflo $3
13599	CFFC  AFA30874             sw $3, 2164($29)
13600	D000  00400013             mtlo $2
13601	D004  00001012             mflo $2
13602	D008  AFA20878             sw $2, 2168($29)
13603	D00C  3C020000             lui $2, 0
13604	D010  34420000             ori $2, $2, 0
13605	D014  00400013             mtlo $2
13606	D018  00001012             mflo $2
13607	D01C  AFA2087C             sw $2, 2172($29)
13608	D020  00200013             mtlo $1
13609	D024  00000812             mflo $1
13610	D028  AFA10880             sw $1, 2176($29)
13611	D02C  3C010000             lui $1, 0
13612	D030  34210000             ori $1, $1, 0
13613	D034  00200013             mtlo $1
13614	D038  00000812             mflo $1
13615	D03C  AFA10884             sw $1, 2180($29)
13616	D040  03E00008             jr $31
13617	                          
13618	                          ;..........memory_initialization..........;
13619	                          init_patterns:
13620	D044  3C08AA39            lui $8, 43577
13621	D048  3508E3CD            ori $8, $8, 58317
13622	D04C  AFC80000            sw $8, 0($30)
13623	D050  3C09C052            lui $9, 49234
13624	D054  35295882            ori $9, $9, 22658
13625	D058  AFC90004            sw $9, 4($30)
13626	D05C  3C0AD6FF            lui $10, 55039
13627	D060  354A59FC            ori $10, $10, 23036
13628	D064  AFCA0008            sw $10, 8($30)
13629	D068  3C0B1136            lui $11, 4406
13630	D06C  356B8ACC            ori $11, $11, 35532
13631	D070  AFCB000C            sw $11, 12($30)
13632	D074  3C0CF91F            lui $12, 63775
13633	D078  358C6AFB            ori $12, $12, 27387
13634	D07C  AFCC0010            sw $12, 16($30)
13635	D080  3C0D3B91            lui $13, 15249
13636	D084  35ADB085            ori $13, $13, 45189
13637	D088  AFCD0014            sw $13, 20($30)
13638	D08C  3C0E1E54            lui $14, 7764
13639	D090  35CE4D36            ori $14, $14, 19766
13640	D094  AFCE0018            sw $14, 24($30)
13641	D098  3C0FF688            lui $15, 63112
13642	D09C  35EFD17E            ori $15, $15, 53630
13643	D0A0  AFCF001C            sw $15, 28($30)
13644	D0A4  3C08A212            lui $8, 41490
13645	D0A8  35087B62            ori $8, $8, 31586
13646	D0AC  AFC80020            sw $8, 32($30)
13647	D0B0  3C09B0BB            lui $9, 45243
13648	D0B4  3529C2E1            ori $9, $9, 49889
13649	D0B8  AFC90024            sw $9, 36($30)
13650	D0BC  3C0AFB7C            lui $10, 64380
13651	D0C0  354A3AE7            ori $10, $10, 15079
13652	D0C4  AFCA0028            sw $10, 40($30)
13653	D0C8  3C0B049E            lui $11, 1182
13654	D0CC  356BFC93            ori $11, $11, 64659
13655	D0D0  AFCB002C            sw $11, 44($30)
13656	D0D4  3C0CFA05            lui $12, 64005
13657	D0D8  358C4634            ori $12, $12, 17972
13658	D0DC  AFCC0030            sw $12, 48($30)
13659	D0E0  3C0D6E94            lui $13, 28308
13660	D0E4  35AD716A            ori $13, $13, 29034
13661	D0E8  AFCD0034            sw $13, 52($30)
13662	D0EC  3C0EEA9A            lui $14, 60058
13663	D0F0  35CE781F            ori $14, $14, 30751
13664	D0F4  AFCE0038            sw $14, 56($30)
13665	D0F8  3C0F89FA            lui $15, 35322
13666	D0FC  35EF0238            ori $15, $15, 568
13667	D100  AFCF003C            sw $15, 60($30)
13668	D104  3C086E36            lui $8, 28214
13669	D108  3508E63B            ori $8, $8, 58939
13670	D10C  AFC80040            sw $8, 64($30)
13671	D110  3C09A54A            lui $9, 42314
13672	D114  35292A22            ori $9, $9, 10786
13673	D118  AFC90044            sw $9, 68($30)
13674	D11C  3C0AF40D            lui $10, 62477
13675	D120  354AFD03            ori $10, $10, 64771
13676	D124  AFCA0048            sw $10, 72($30)
13677	D128  3C0B2A32            lui $11, 10802
13678	D12C  356BC4E8            ori $11, $11, 50408
13679	D130  AFCB004C            sw $11, 76($30)
13680	D134  3C0CEC54            lui $12, 60500
13681	D138  358CF3BF            ori $12, $12, 62399
13682	D13C  AFCC0050            sw $12, 80($30)
13683	D140  3C0DEFBF            lui $13, 61375
13684	D144  35ADB14E            ori $13, $13, 45390
13685	D148  AFCD0054            sw $13, 84($30)
13686	D14C  3C0EDD38            lui $14, 56632
13687	D150  35CE6BBE            ori $14, $14, 27582
13688	D154  AFCE0058            sw $14, 88($30)
13689	D158  3C0F0962            lui $15, 2402
13690	D15C  35EFBB05            ori $15, $15, 47877
13691	D160  AFCF005C            sw $15, 92($30)
13692	D164  3C089FBE            lui $8, 40894
13693	D168  3508D5D5            ori $8, $8, 54741
13694	D16C  AFC80060            sw $8, 96($30)
13695	D170  3C09DA9A            lui $9, 55962
13696	D174  3529C7E4            ori $9, $9, 51172
13697	D178  AFC90064            sw $9, 100($30)
13698	D17C  3C0A7B7A            lui $10, 31610
13699	D180  354A539C            ori $10, $10, 21404
13700	D184  AFCA0068            sw $10, 104($30)
13701	D188  3C0B3CDA            lui $11, 15578
13702	D18C  356B8748            ori $11, $11, 34632
13703	D190  AFCB006C            sw $11, 108($30)
13704	D194  3C0C4F47            lui $12, 20295
13705	D198  358CB85F            ori $12, $12, 47199
13706	D19C  AFCC0070            sw $12, 112($30)
13707	D1A0  3C0DF996            lui $13, 63894
13708	D1A4  35ADBD11            ori $13, $13, 48401
13709	D1A8  AFCD0074            sw $13, 116($30)
13710	D1AC  3C0ECC5E            lui $14, 52318
13711	D1B0  35CE732E            ori $14, $14, 29486
13712	D1B4  AFCE0078            sw $14, 120($30)
13713	D1B8  3C0F06F1            lui $15, 1777
13714	D1BC  35EF5773            ori $15, $15, 22387
13715	D1C0  AFCF007C            sw $15, 124($30)
13716	D1C4  3C08D593            lui $8, 54675
13717	D1C8  3508875B            ori $8, $8, 34651
13718	D1CC  AFC80080            sw $8, 128($30)
13719	D1D0  3C098A7B            lui $9, 35451
13720	D1D4  35295CE1            ori $9, $9, 23777
13721	D1D8  AFC90084            sw $9, 132($30)
13722	D1DC  3C0A74A6            lui $10, 29862
13723	D1E0  354AD18F            ori $10, $10, 53647
13724	D1E4  AFCA0088            sw $10, 136($30)
13725	D1E8  3C0B64CD            lui $11, 25805
13726	D1EC  356BA2BB            ori $11, $11, 41659
13727	D1F0  AFCB008C            sw $11, 140($30)
13728	D1F4  3C0C701E            lui $12, 28702
13729	D1F8  358CA96A            ori $12, $12, 43370
13730	D1FC  AFCC0090            sw $12, 144($30)
13731	D200  3C0D3CC4            lui $13, 15556
13732	D204  35AD8A40            ori $13, $13, 35392
13733	D208  AFCD0094            sw $13, 148($30)
13734	D20C  3C0E3CA9            lui $14, 15529
13735	D210  35CEA56E            ori $14, $14, 42350
13736	D214  AFCE0098            sw $14, 152($30)
13737	D218  3C0F10D1            lui $15, 4305
13738	D21C  35EFBECB            ori $15, $15, 48843
13739	D220  AFCF009C            sw $15, 156($30)
13740	D224  3C08E027            lui $8, 57383
13741	D228  3508DDB6            ori $8, $8, 56758
13742	D22C  AFC800A0            sw $8, 160($30)
13743	D230  3C09BBAF            lui $9, 48047
13744	D234  3529295F            ori $9, $9, 10591
13745	D238  AFC900A4            sw $9, 164($30)
13746	D23C  3C0A24EF            lui $10, 9455
13747	D240  354A0321            ori $10, $10, 801
13748	D244  AFCA00A8            sw $10, 168($30)
13749	D248  3C0B0D00            lui $11, 3328
13750	D24C  356BE5EC            ori $11, $11, 58860
13751	D250  AFCB00AC            sw $11, 172($30)
13752	D254  3C0C129C            lui $12, 4764
13753	D258  358CFBD1            ori $12, $12, 64465
13754	D25C  AFCC00B0            sw $12, 176($30)
13755	D260  3C0DF819            lui $13, 63513
13756	D264  35ADAF25            ori $13, $13, 44837
13757	D268  AFCD00B4            sw $13, 180($30)
13758	D26C  3C0EF436            lui $14, 62518
13759	D270  35CED980            ori $14, $14, 55680
13760	D274  AFCE00B8            sw $14, 184($30)
13761	D278  3C0F2654            lui $15, 9812
13762	D27C  35EF31D0            ori $15, $15, 12752
13763	D280  AFCF00BC            sw $15, 188($30)
13764	D284  3C087B1B            lui $8, 31515
13765	D288  350894C0            ori $8, $8, 38080
13766	D28C  AFC800C0            sw $8, 192($30)
13767	D290  3C096411            lui $9, 25617
13768	D294  3529496F            ori $9, $9, 18799
13769	D298  AFC900C4            sw $9, 196($30)
13770	D29C  3C0AE7AD            lui $10, 59309
13771	D2A0  354AE6D0            ori $10, $10, 59088
13772	D2A4  AFCA00C8            sw $10, 200($30)
13773	D2A8  3C0BAD0D            lui $11, 44301
13774	D2AC  356B5592            ori $11, $11, 21906
13775	D2B0  AFCB00CC            sw $11, 204($30)
13776	D2B4  3C0C7EC8            lui $12, 32456
13777	D2B8  358C5043            ori $12, $12, 20547
13778	D2BC  AFCC00D0            sw $12, 208($30)
13779	D2C0  3C0D8D6E            lui $13, 36206
13780	D2C4  35AD1900            ori $13, $13, 6400
13781	D2C8  AFCD00D4            sw $13, 212($30)
13782	D2CC  3C0E0EAC            lui $14, 3756
13783	D2D0  35CEC6AD            ori $14, $14, 50861
13784	D2D4  AFCE00D8            sw $14, 216($30)
13785	D2D8  3C0F482D            lui $15, 18477
13786	D2DC  35EF26DA            ori $15, $15, 9946
13787	D2E0  AFCF00DC            sw $15, 220($30)
13788	D2E4  3C0819B0            lui $8, 6576
13789	D2E8  3508650C            ori $8, $8, 25868
13790	D2EC  AFC800E0            sw $8, 224($30)
13791	D2F0  3C094B04            lui $9, 19204
13792	D2F4  3529408A            ori $9, $9, 16522
13793	D2F8  AFC900E4            sw $9, 228($30)
13794	D2FC  3C0A61D1            lui $10, 25041
13795	D300  354A8B4F            ori $10, $10, 35663
13796	D304  AFCA00E8            sw $10, 232($30)
13797	D308  3C0B4B77            lui $11, 19319
13798	D30C  356B297E            ori $11, $11, 10622
13799	D310  AFCB00EC            sw $11, 236($30)
13800	D314  3C0C36B6            lui $12, 14006
13801	D318  358CACEA            ori $12, $12, 44266
13802	D31C  AFCC00F0            sw $12, 240($30)
13803	D320  3C0D218B            lui $13, 8587
13804	D324  35AD2961            ori $13, $13, 10593
13805	D328  AFCD00F4            sw $13, 244($30)
13806	D32C  3C0E7DE5            lui $14, 32229
13807	D330  35CE6403            ori $14, $14, 25603
13808	D334  AFCE00F8            sw $14, 248($30)
13809	D338  3C0F40CC            lui $15, 16588
13810	D33C  35EFE80E            ori $15, $15, 59406
13811	D340  AFCF00FC            sw $15, 252($30)
13812	D344  3C08428B            lui $8, 17035
13813	D348  350814D0            ori $8, $8, 5328
13814	D34C  AFC80100            sw $8, 256($30)
13815	D350  3C097B6D            lui $9, 31597
13816	D354  3529B202            ori $9, $9, 45570
13817	D358  AFC90104            sw $9, 260($30)
13818	D35C  3C0A2B6F            lui $10, 11119
13819	D360  354A9A2A            ori $10, $10, 39466
13820	D364  AFCA0108            sw $10, 264($30)
13821	D368  3C0B3A4B            lui $11, 14923
13822	D36C  356B3388            ori $11, $11, 13192
13823	D370  AFCB010C            sw $11, 268($30)
13824	D374  3C0C9A42            lui $12, 39490
13825	D378  358CC2EB            ori $12, $12, 49899
13826	D37C  AFCC0110            sw $12, 272($30)
13827	D380  3C0D0261            lui $13, 609
13828	D384  35AD08DC            ori $13, $13, 2268
13829	D388  AFCD0114            sw $13, 276($30)
13830	D38C  3C0E2599            lui $14, 9625
13831	D390  35CE5B8F            ori $14, $14, 23439
13832	D394  AFCE0118            sw $14, 280($30)
13833	D398  3C0F3566            lui $15, 13670
13834	D39C  35EF363B            ori $15, $15, 13883
13835	D3A0  AFCF011C            sw $15, 284($30)
13836	D3A4  3C08366C            lui $8, 13932
13837	D3A8  35083540            ori $8, $8, 13632
13838	D3AC  AFC80120            sw $8, 288($30)
13839	D3B0  3C09D154            lui $9, 53588
13840	D3B4  3529CFF9            ori $9, $9, 53241
13841	D3B8  AFC90124            sw $9, 292($30)
13842	D3BC  3C0A69BD            lui $10, 27069
13843	D3C0  354A4BF1            ori $10, $10, 19441
13844	D3C4  AFCA0128            sw $10, 296($30)
13845	D3C8  3C0BF539            lui $11, 62777
13846	D3CC  356B4B2C            ori $11, $11, 19244
13847	D3D0  AFCB012C            sw $11, 300($30)
13848	D3D4  3C0CE381            lui $12, 58241
13849	D3D8  358C9661            ori $12, $12, 38497
13850	D3DC  AFCC0130            sw $12, 304($30)
13851	D3E0  3C0D5B38            lui $13, 23352
13852	D3E4  35ADBE61            ori $13, $13, 48737
13853	D3E8  AFCD0134            sw $13, 308($30)
13854	D3EC  3C0E0D0C            lui $14, 3340
13855	D3F0  35CE1B5A            ori $14, $14, 7002
13856	D3F4  AFCE0138            sw $14, 312($30)
13857	D3F8  3C0FCC0C            lui $15, 52236
13858	D3FC  35EF09C4            ori $15, $15, 2500
13859	D400  AFCF013C            sw $15, 316($30)
13860	D404  3C08BF61            lui $8, 48993
13861	D408  3508FE7D            ori $8, $8, 65149
13862	D40C  AFC80140            sw $8, 320($30)
13863	D410  3C09C8E6            lui $9, 51430
13864	D414  352997A3            ori $9, $9, 38819
13865	D418  AFC90144            sw $9, 324($30)
13866	D41C  3C0AF114            lui $10, 61716
13867	D420  354ABAEA            ori $10, $10, 47850
13868	D424  AFCA0148            sw $10, 328($30)
13869	D428  3C0B27A1            lui $11, 10145
13870	D42C  356B718A            ori $11, $11, 29066
13871	D430  AFCB014C            sw $11, 332($30)
13872	D434  3C0C4857            lui $12, 18519
13873	D438  358CF004            ori $12, $12, 61444
13874	D43C  AFCC0150            sw $12, 336($30)
13875	D440  3C0DA227            lui $13, 41511
13876	D444  35ADE80D            ori $13, $13, 59405
13877	D448  AFCD0154            sw $13, 340($30)
13878	D44C  3C0E0EA6            lui $14, 3750
13879	D450  35CEE0A5            ori $14, $14, 57509
13880	D454  AFCE0158            sw $14, 344($30)
13881	D458  3C0F85EA            lui $15, 34282
13882	D45C  35EF514B            ori $15, $15, 20811
13883	D460  AFCF015C            sw $15, 348($30)
13884	D464  3C08305C            lui $8, 12380
13885	D468  35086C53            ori $8, $8, 27731
13886	D46C  AFC80160            sw $8, 352($30)
13887	D470  3C09AEC2            lui $9, 44738
13888	D474  3529A44B            ori $9, $9, 42059
13889	D478  AFC90164            sw $9, 356($30)
13890	D47C  3C0AACF3            lui $10, 44275
13891	D480  354ABB62            ori $10, $10, 47970
13892	D484  AFCA0168            sw $10, 360($30)
13893	D488  3C0B4B94            lui $11, 19348
13894	D48C  356BE758            ori $11, $11, 59224
13895	D490  AFCB016C            sw $11, 364($30)
13896	D494  3C0C8403            lui $12, 33795
13897	D498  358C224D            ori $12, $12, 8781
13898	D49C  AFCC0170            sw $12, 368($30)
13899	D4A0  3C0D9899            lui $13, 39065
13900	D4A4  35AD0FB8            ori $13, $13, 4024
13901	D4A8  AFCD0174            sw $13, 372($30)
13902	D4AC  3C0E868A            lui $14, 34442
13903	D4B0  35CE989E            ori $14, $14, 39070
13904	D4B4  AFCE0178            sw $14, 376($30)
13905	D4B8  3C0FF00F            lui $15, 61455
13906	D4BC  35EF5C1B            ori $15, $15, 23579
13907	D4C0  AFCF017C            sw $15, 380($30)
13908	D4C4  3C08D711            lui $8, 55057
13909	D4C8  3508D3F6            ori $8, $8, 54262
13910	D4CC  AFC80180            sw $8, 384($30)
13911	D4D0  3C09B794            lui $9, 46996
13912	D4D4  35294474            ori $9, $9, 17524
13913	D4D8  AFC90184            sw $9, 388($30)
13914	D4DC  3C0A21B3            lui $10, 8627
13915	D4E0  354ABFC1            ori $10, $10, 49089
13916	D4E4  AFCA0188            sw $10, 392($30)
13917	D4E8  3C0BC5AC            lui $11, 50604
13918	D4EC  356BEF1E            ori $11, $11, 61214
13919	D4F0  AFCB018C            sw $11, 396($30)
13920	D4F4  3C0C9091            lui $12, 37009
13921	D4F8  358C6418            ori $12, $12, 25624
13922	D4FC  AFCC0190            sw $12, 400($30)
13923	D500  3C0DDF2B            lui $13, 57131
13924	D504  35AD3BC4            ori $13, $13, 15300
13925	D508  AFCD0194            sw $13, 404($30)
13926	D50C  3C0EF3F9            lui $14, 62457
13927	D510  35CEB2CF            ori $14, $14, 45775
13928	D514  AFCE0198            sw $14, 408($30)
13929	D518  3C0FEFAB            lui $15, 61355
13930	D51C  35EFFD41            ori $15, $15, 64833
13931	D520  AFCF019C            sw $15, 412($30)
13932	D524  3C081291            lui $8, 4753
13933	D528  35081645            ori $8, $8, 5701
13934	D52C  AFC801A0            sw $8, 416($30)
13935	D530  3C093AE6            lui $9, 15078
13936	D534  3529D65A            ori $9, $9, 54874
13937	D538  AFC901A4            sw $9, 420($30)
13938	D53C  3C0A0268            lui $10, 616
13939	D540  354A3AC2            ori $10, $10, 15042
13940	D544  AFCA01A8            sw $10, 424($30)
13941	D548  3C0B2331            lui $11, 9009
13942	D54C  356B0487            ori $11, $11, 1159
13943	D550  AFCB01AC            sw $11, 428($30)
13944	D554  3C0CA99E            lui $12, 43422
13945	D558  358CE344            ori $12, $12, 58180
13946	D55C  AFCC01B0            sw $12, 432($30)
13947	D560  3C0DE7BC            lui $13, 59324
13948	D564  35ADEF65            ori $13, $13, 61285
13949	D568  AFCD01B4            sw $13, 436($30)
13950	D56C  3C0E8177            lui $14, 33143
13951	D570  35CE2D00            ori $14, $14, 11520
13952	D574  AFCE01B8            sw $14, 440($30)
13953	D578  3C0F9F43            lui $15, 40771
13954	D57C  35EFF2C3            ori $15, $15, 62147
13955	D580  AFCF01BC            sw $15, 444($30)
13956	D584  3C08A540            lui $8, 42304
13957	D588  3508698C            ori $8, $8, 27020
13958	D58C  AFC801C0            sw $8, 448($30)
13959	D590  3C0960F7            lui $9, 24823
13960	D594  35296076            ori $9, $9, 24694
13961	D598  AFC901C4            sw $9, 452($30)
13962	D59C  3C0A0C39            lui $10, 3129
13963	D5A0  354AEB02            ori $10, $10, 60162
13964	D5A4  AFCA01C8            sw $10, 456($30)
13965	D5A8  3C0BCBF3            lui $11, 52211
13966	D5AC  356B214A            ori $11, $11, 8522
13967	D5B0  AFCB01CC            sw $11, 460($30)
13968	D5B4  3C0C2508            lui $12, 9480
13969	D5B8  358C72B8            ori $12, $12, 29368
13970	D5BC  AFCC01D0            sw $12, 464($30)
13971	D5C0  3C0D00EE            lui $13, 238
13972	D5C4  35AD68D6            ori $13, $13, 26838
13973	D5C8  AFCD01D4            sw $13, 468($30)
13974	D5CC  3C0E0A53            lui $14, 2643
13975	D5D0  35CECBC0            ori $14, $14, 52160
13976	D5D4  AFCE01D8            sw $14, 472($30)
13977	D5D8  3C0F3045            lui $15, 12357
13978	D5DC  35EFE735            ori $15, $15, 59189
13979	D5E0  AFCF01DC            sw $15, 476($30)
13980	D5E4  3C08B92B            lui $8, 47403
13981	D5E8  350841E1            ori $8, $8, 16865
13982	D5EC  AFC801E0            sw $8, 480($30)
13983	D5F0  3C090889            lui $9, 2185
13984	D5F4  3529F756            ori $9, $9, 63318
13985	D5F8  AFC901E4            sw $9, 484($30)
13986	D5FC  3C0ADDAD            lui $10, 56749
13987	D600  354AE09C            ori $10, $10, 57500
13988	D604  AFCA01E8            sw $10, 488($30)
13989	D608  3C0B1CE8            lui $11, 7400
13990	D60C  356BE52D            ori $11, $11, 58669
13991	D610  AFCB01EC            sw $11, 492($30)
13992	D614  3C0C3345            lui $12, 13125
13993	D618  358C8640            ori $12, $12, 34368
13994	D61C  AFCC01F0            sw $12, 496($30)
13995	D620  3C0D6BF0            lui $13, 27632
13996	D624  35AD2369            ori $13, $13, 9065
13997	D628  AFCD01F4            sw $13, 500($30)
13998	D62C  3C0EAD87            lui $14, 44423
13999	D630  35CED617            ori $14, $14, 54807
14000	D634  AFCE01F8            sw $14, 504($30)
14001	D638  3C0FD395            lui $15, 54165
14002	D63C  35EFDD91            ori $15, $15, 56721
14003	D640  AFCF01FC            sw $15, 508($30)
14004	D644  3C08492E            lui $8, 18734
14005	D648  35081559            ori $8, $8, 5465
14006	D64C  AFC80200            sw $8, 512($30)
14007	D650  3C097DC3            lui $9, 32195
14008	D654  3529D796            ori $9, $9, 55190
14009	D658  AFC90204            sw $9, 516($30)
14010	D65C  3C0A9B2F            lui $10, 39727
14011	D660  354A0F6F            ori $10, $10, 3951
14012	D664  AFCA0208            sw $10, 520($30)
14013	D668  3C0B7245            lui $11, 29253
14014	D66C  356B243B            ori $11, $11, 9275
14015	D670  AFCB020C            sw $11, 524($30)
14016	D674  3C0CF63D            lui $12, 63037
14017	D678  358C9F0C            ori $12, $12, 40716
14018	D67C  AFCC0210            sw $12, 528($30)
14019	D680  3C0DFF7C            lui $13, 65404
14020	D684  35ADEE83            ori $13, $13, 61059
14021	D688  AFCD0214            sw $13, 532($30)
14022	D68C  3C0EABFA            lui $14, 44026
14023	D690  35CE143D            ori $14, $14, 5181
14024	D694  AFCE0218            sw $14, 536($30)
14025	D698  3C0F4979            lui $15, 18809
14026	D69C  35EF2678            ori $15, $15, 9848
14027	D6A0  AFCF021C            sw $15, 540($30)
14028	D6A4  3C081A77            lui $8, 6775
14029	D6A8  3508DC5C            ori $8, $8, 56412
14030	D6AC  AFC80220            sw $8, 544($30)
14031	D6B0  3C09FCF7            lui $9, 64759
14032	D6B4  3529F1A4            ori $9, $9, 61860
14033	D6B8  AFC90224            sw $9, 548($30)
14034	D6BC  3C0AB2C1            lui $10, 45761
14035	D6C0  354A8914            ori $10, $10, 35092
14036	D6C4  AFCA0228            sw $10, 552($30)
14037	D6C8  3C0B0A2D            lui $11, 2605
14038	D6CC  356B0C78            ori $11, $11, 3192
14039	D6D0  AFCB022C            sw $11, 556($30)
14040	D6D4  3C0CD3DE            lui $12, 54238
14041	D6D8  358C04AE            ori $12, $12, 1198
14042	D6DC  AFCC0230            sw $12, 560($30)
14043	D6E0  3C0DE5ED            lui $13, 58861
14044	D6E4  35AD16A0            ori $13, $13, 5792
14045	D6E8  AFCD0234            sw $13, 564($30)
14046	D6EC  3C0EFD7F            lui $14, 64895
14047	D6F0  35CEB2F6            ori $14, $14, 45814
14048	D6F4  AFCE0238            sw $14, 568($30)
14049	D6F8  3C0F0218            lui $15, 536
14050	D6FC  35EF47AE            ori $15, $15, 18350
14051	D700  AFCF023C            sw $15, 572($30)
14052	D704  3C0808DB            lui $8, 2267
14053	D708  35088620            ori $8, $8, 34336
14054	D70C  AFC80240            sw $8, 576($30)
14055	D710  3C09BD2F            lui $9, 48431
14056	D714  35297FCF            ori $9, $9, 32719
14057	D718  AFC90244            sw $9, 580($30)
14058	D71C  3C0A41CA            lui $10, 16842
14059	D720  354AAA25            ori $10, $10, 43557
14060	D724  AFCA0248            sw $10, 584($30)
14061	D728  3C0B4517            lui $11, 17687
14062	D72C  356BB2CA            ori $11, $11, 45770
14063	D730  AFCB024C            sw $11, 588($30)
14064	D734  3C0C618C            lui $12, 24972
14065	D738  358CE7ED            ori $12, $12, 59373
14066	D73C  AFCC0250            sw $12, 592($30)
14067	D740  3C0D1698            lui $13, 5784
14068	D744  35ADD7C2            ori $13, $13, 55234
14069	D748  AFCD0254            sw $13, 596($30)
14070	D74C  3C0ED1BA            lui $14, 53690
14071	D750  35CED144            ori $14, $14, 53572
14072	D754  AFCE0258            sw $14, 600($30)
14073	D758  3C0FEE05            lui $15, 60933
14074	D75C  35EFAB79            ori $15, $15, 43897
14075	D760  AFCF025C            sw $15, 604($30)
14076	D764  3C084628            lui $8, 17960
14077	D768  35085DC2            ori $8, $8, 24002
14078	D76C  AFC80260            sw $8, 608($30)
14079	D770  3C095A8E            lui $9, 23182
14080	D774  35291694            ori $9, $9, 5780
14081	D778  AFC90264            sw $9, 612($30)
14082	D77C  3C0AA012            lui $10, 40978
14083	D780  354A3581            ori $10, $10, 13697
14084	D784  AFCA0268            sw $10, 616($30)
14085	D788  3C0B1015            lui $11, 4117
14086	D78C  356B2705            ori $11, $11, 9989
14087	D790  AFCB026C            sw $11, 620($30)
14088	D794  3C0C86E3            lui $12, 34531
14089	D798  358C7CC6            ori $12, $12, 31942
14090	D79C  AFCC0270            sw $12, 624($30)
14091	D7A0  3C0D4820            lui $13, 18464
14092	D7A4  35AD5A79            ori $13, $13, 23161
14093	D7A8  AFCD0274            sw $13, 628($30)
14094	D7AC  3C0E18A3            lui $14, 6307
14095	D7B0  35CEEAB1            ori $14, $14, 60081
14096	D7B4  AFCE0278            sw $14, 632($30)
14097	D7B8  3C0FD956            lui $15, 55638
14098	D7BC  35EF0CA2            ori $15, $15, 3234
14099	D7C0  AFCF027C            sw $15, 636($30)
14100	D7C4  3C087EA9            lui $8, 32425
14101	D7C8  3508BB1B            ori $8, $8, 47899
14102	D7CC  AFC80280            sw $8, 640($30)
14103	D7D0  3C091D5E            lui $9, 7518
14104	D7D4  35295B63            ori $9, $9, 23395
14105	D7D8  AFC90284            sw $9, 644($30)
14106	D7DC  3C0A1947            lui $10, 6471
14107	D7E0  354A1F0D            ori $10, $10, 7949
14108	D7E4  AFCA0288            sw $10, 648($30)
14109	D7E8  3C0B76E8            lui $11, 30440
14110	D7EC  356B1960            ori $11, $11, 6496
14111	D7F0  AFCB028C            sw $11, 652($30)
14112	D7F4  3C0C472F            lui $12, 18223
14113	D7F8  358CABA1            ori $12, $12, 43937
14114	D7FC  AFCC0290            sw $12, 656($30)
14115	D800  3C0D5392            lui $13, 21394
14116	D804  35AD42B3            ori $13, $13, 17075
14117	D808  AFCD0294            sw $13, 660($30)
14118	D80C  3C0EE137            lui $14, 57655
14119	D810  35CEE43F            ori $14, $14, 58431
14120	D814  AFCE0298            sw $14, 664($30)
14121	D818  3C0FD457            lui $15, 54359
14122	D81C  35EF09AE            ori $15, $15, 2478
14123	D820  AFCF029C            sw $15, 668($30)
14124	D824  3C0826E6            lui $8, 9958
14125	D828  35084A26            ori $8, $8, 18982
14126	D82C  AFC802A0            sw $8, 672($30)
14127	D830  3C09F23B            lui $9, 62011
14128	D834  35290AD1            ori $9, $9, 2769
14129	D838  AFC902A4            sw $9, 676($30)
14130	D83C  3C0A2003            lui $10, 8195
14131	D840  354AE742            ori $10, $10, 59202
14132	D844  AFCA02A8            sw $10, 680($30)
14133	D848  3C0BC0F0            lui $11, 49392
14134	D84C  356B862C            ori $11, $11, 34348
14135	D850  AFCB02AC            sw $11, 684($30)
14136	D854  3C0C866E            lui $12, 34414
14137	D858  358CC860            ori $12, $12, 51296
14138	D85C  AFCC02B0            sw $12, 688($30)
14139	D860  3C0DAD05            lui $13, 44293
14140	D864  35ADBC7A            ori $13, $13, 48250
14141	D868  AFCD02B4            sw $13, 692($30)
14142	D86C  3C0E8519            lui $14, 34073
14143	D870  35CE99F1            ori $14, $14, 39409
14144	D874  AFCE02B8            sw $14, 696($30)
14145	D878  3C0F091C            lui $15, 2332
14146	D87C  35EF0A38            ori $15, $15, 2616
14147	D880  AFCF02BC            sw $15, 700($30)
14148	D884  3C08A484            lui $8, 42116
14149	D888  3508925E            ori $8, $8, 37470
14150	D88C  AFC802C0            sw $8, 704($30)
14151	D890  3C09F31B            lui $9, 62235
14152	D894  35296C0C            ori $9, $9, 27660
14153	D898  AFC902C4            sw $9, 708($30)
14154	D89C  3C0AC7B3            lui $10, 51123
14155	D8A0  354A3CA8            ori $10, $10, 15528
14156	D8A4  AFCA02C8            sw $10, 712($30)
14157	D8A8  3C0B903C            lui $11, 36924
14158	D8AC  356B3752            ori $11, $11, 14162
14159	D8B0  AFCB02CC            sw $11, 716($30)
14160	D8B4  3C0C8200            lui $12, 33280
14161	D8B8  358C7464            ori $12, $12, 29796
14162	D8BC  AFCC02D0            sw $12, 720($30)
14163	D8C0  3C0D71CA            lui $13, 29130
14164	D8C4  35AD0B96            ori $13, $13, 2966
14165	D8C8  AFCD02D4            sw $13, 724($30)
14166	D8CC  3C0EC0E2            lui $14, 49378
14167	D8D0  35CEE7A1            ori $14, $14, 59297
14168	D8D4  AFCE02D8            sw $14, 728($30)
14169	D8D8  3C0FFB8B            lui $15, 64395
14170	D8DC  35EFFF35            ori $15, $15, 65333
14171	D8E0  AFCF02DC            sw $15, 732($30)
14172	D8E4  3C083368            lui $8, 13160
14173	D8E8  3508FC86            ori $8, $8, 64646
14174	D8EC  AFC802E0            sw $8, 736($30)
14175	D8F0  3C09D70D            lui $9, 55053
14176	D8F4  3529C583            ori $9, $9, 50563
14177	D8F8  AFC902E4            sw $9, 740($30)
14178	D8FC  3C0A0F24            lui $10, 3876
14179	D900  354A6C7B            ori $10, $10, 27771
14180	D904  AFCA02E8            sw $10, 744($30)
14181	D908  3C0B9196            lui $11, 37270
14182	D90C  356B8FC7            ori $11, $11, 36807
14183	D910  AFCB02EC            sw $11, 748($30)
14184	D914  3C0C7AED            lui $12, 31469
14185	D918  358CBC3C            ori $12, $12, 48188
14186	D91C  AFCC02F0            sw $12, 752($30)
14187	D920  3C0D040C            lui $13, 1036
14188	D924  35ADAF83            ori $13, $13, 44931
14189	D928  AFCD02F4            sw $13, 756($30)
14190	D92C  3C0EA2EE            lui $14, 41710
14191	D930  35CE7801            ori $14, $14, 30721
14192	D934  AFCE02F8            sw $14, 760($30)
14193	D938  3C0FEFE7            lui $15, 61415
14194	D93C  35EF0979            ori $15, $15, 2425
14195	D940  AFCF02FC            sw $15, 764($30)
14196	D944  3C082996            lui $8, 10646
14197	D948  350850C1            ori $8, $8, 20673
14198	D94C  AFC80300            sw $8, 768($30)
14199	D950  3C091A45            lui $9, 6725
14200	D954  352983DF            ori $9, $9, 33759
14201	D958  AFC90304            sw $9, 772($30)
14202	D95C  3C0AAFCD            lui $10, 45005
14203	D960  354A9FCF            ori $10, $10, 40911
14204	D964  AFCA0308            sw $10, 776($30)
14205	D968  3C0B7234            lui $11, 29236
14206	D96C  356B20AB            ori $11, $11, 8363
14207	D970  AFCB030C            sw $11, 780($30)
14208	D974  3C0CDCC5            lui $12, 56517
14209	D978  358CBFFA            ori $12, $12, 49146
14210	D97C  AFCC0310            sw $12, 784($30)
14211	D980  3C0D8FF5            lui $13, 36853
14212	D984  35AD41D2            ori $13, $13, 16850
14213	D988  AFCD0314            sw $13, 788($30)
14214	D98C  3C0E4A2D            lui $14, 18989
14215	D990  35CE0732            ori $14, $14, 1842
14216	D994  AFCE0318            sw $14, 792($30)
14217	D998  3C0FF442            lui $15, 62530
14218	D99C  35EF136F            ori $15, $15, 4975
14219	D9A0  AFCF031C            sw $15, 796($30)
14220	D9A4  3C0848BF            lui $8, 18623
14221	D9A8  3508EAA9            ori $8, $8, 60073
14222	D9AC  AFC80320            sw $8, 800($30)
14223	D9B0  3C09701E            lui $9, 28702
14224	D9B4  3529C45C            ori $9, $9, 50268
14225	D9B8  AFC90324            sw $9, 804($30)
14226	D9BC  3C0ACFFA            lui $10, 53242
14227	D9C0  354A35DF            ori $10, $10, 13791
14228	D9C4  AFCA0328            sw $10, 808($30)
14229	D9C8  3C0B0F6A            lui $11, 3946
14230	D9CC  356BF089            ori $11, $11, 61577
14231	D9D0  AFCB032C            sw $11, 812($30)
14232	D9D4  3C0C61CB            lui $12, 25035
14233	D9D8  358C625A            ori $12, $12, 25178
14234	D9DC  AFCC0330            sw $12, 816($30)
14235	D9E0  3C0DFD2B            lui $13, 64811
14236	D9E4  35AD21EF            ori $13, $13, 8687
14237	D9E8  AFCD0334            sw $13, 820($30)
14238	D9EC  3C0E00E4            lui $14, 228
14239	D9F0  35CE6B7F            ori $14, $14, 27519
14240	D9F4  AFCE0338            sw $14, 824($30)
14241	D9F8  3C0F3E4F            lui $15, 15951
14242	D9FC  35EF89F7            ori $15, $15, 35319
14243	DA00  AFCF033C            sw $15, 828($30)
14244	DA04  3C084A09            lui $8, 18953
14245	DA08  350866D6            ori $8, $8, 26326
14246	DA0C  AFC80340            sw $8, 832($30)
14247	DA10  3C09A3D6            lui $9, 41942
14248	DA14  3529E4A8            ori $9, $9, 58536
14249	DA18  AFC90344            sw $9, 836($30)
14250	DA1C  3C0A016D            lui $10, 365
14251	DA20  354ADE12            ori $10, $10, 56850
14252	DA24  AFCA0348            sw $10, 840($30)
14253	DA28  3C0BA8CF            lui $11, 43215
14254	DA2C  356B04C3            ori $11, $11, 1219
14255	DA30  AFCB034C            sw $11, 844($30)
14256	DA34  3C0C53EB            lui $12, 21483
14257	DA38  358C1463            ori $12, $12, 5219
14258	DA3C  AFCC0350            sw $12, 848($30)
14259	DA40  3C0D5A4A            lui $13, 23114
14260	DA44  35ADF64F            ori $13, $13, 63055
14261	DA48  AFCD0354            sw $13, 852($30)
14262	DA4C  3C0E01F8            lui $14, 504
14263	DA50  35CEA4A1            ori $14, $14, 42145
14264	DA54  AFCE0358            sw $14, 856($30)
14265	DA58  3C0F1112            lui $15, 4370
14266	DA5C  35EFBF22            ori $15, $15, 48930
14267	DA60  AFCF035C            sw $15, 860($30)
14268	DA64  3C08F49A            lui $8, 62618
14269	DA68  35082B6A            ori $8, $8, 11114
14270	DA6C  AFC80360            sw $8, 864($30)
14271	DA70  3C09C2BD            lui $9, 49853
14272	DA74  35290E40            ori $9, $9, 3648
14273	DA78  AFC90364            sw $9, 868($30)
14274	DA7C  3C0A9C08            lui $10, 39944
14275	DA80  354A5980            ori $10, $10, 22912
14276	DA84  AFCA0368            sw $10, 872($30)
14277	DA88  3C0BE144            lui $11, 57668
14278	DA8C  356BFC4C            ori $11, $11, 64588
14279	DA90  AFCB036C            sw $11, 876($30)
14280	DA94  3C0CAEE4            lui $12, 44772
14281	DA98  358CC896            ori $12, $12, 51350
14282	DA9C  AFCC0370            sw $12, 880($30)
14283	DAA0  3C0DAA66            lui $13, 43622
14284	DAA4  35ADDFD6            ori $13, $13, 57302
14285	DAA8  AFCD0374            sw $13, 884($30)
14286	DAAC  3C0EC532            lui $14, 50482
14287	DAB0  35CE4C7E            ori $14, $14, 19582
14288	DAB4  AFCE0378            sw $14, 888($30)
14289	DAB8  3C0F1A32            lui $15, 6706
14290	DABC  35EF13F3            ori $15, $15, 5107
14291	DAC0  AFCF037C            sw $15, 892($30)
14292	DAC4  3C08D78B            lui $8, 55179
14293	DAC8  350814A7            ori $8, $8, 5287
14294	DACC  AFC80380            sw $8, 896($30)
14295	DAD0  3C095E1D            lui $9, 24093
14296	DAD4  3529178C            ori $9, $9, 6028
14297	DAD8  AFC90384            sw $9, 900($30)
14298	DADC  3C0AA3F4            lui $10, 41972
14299	DAE0  354A902C            ori $10, $10, 36908
14300	DAE4  AFCA0388            sw $10, 904($30)
14301	DAE8  3C0B1C30            lui $11, 7216
14302	DAEC  356B2820            ori $11, $11, 10272
14303	DAF0  AFCB038C            sw $11, 908($30)
14304	DAF4  3C0CC3E4            lui $12, 50148
14305	DAF8  358CB924            ori $12, $12, 47396
14306	DAFC  AFCC0390            sw $12, 912($30)
14307	DB00  3C0DFBE4            lui $13, 64484
14308	DB04  35AD31BA            ori $13, $13, 12730
14309	DB08  AFCD0394            sw $13, 916($30)
14310	DB0C  3C0E2D4E            lui $14, 11598
14311	DB10  35CE5541            ori $14, $14, 21825
14312	DB14  AFCE0398            sw $14, 920($30)
14313	DB18  3C0F8F58            lui $15, 36696
14314	DB1C  35EF35D9            ori $15, $15, 13785
14315	DB20  AFCF039C            sw $15, 924($30)
14316	DB24  3C080C4E            lui $8, 3150
14317	DB28  35087DCE            ori $8, $8, 32206
14318	DB2C  AFC803A0            sw $8, 928($30)
14319	DB30  3C093A44            lui $9, 14916
14320	DB34  35296840            ori $9, $9, 26688
14321	DB38  AFC903A4            sw $9, 932($30)
14322	DB3C  3C0A6320            lui $10, 25376
14323	DB40  354ACF00            ori $10, $10, 52992
14324	DB44  AFCA03A8            sw $10, 936($30)
14325	DB48  3C0BB7D7            lui $11, 47063
14326	DB4C  356B41A4            ori $11, $11, 16804
14327	DB50  AFCB03AC            sw $11, 940($30)
14328	DB54  3C0C40A0            lui $12, 16544
14329	DB58  358C9D04            ori $12, $12, 40196
14330	DB5C  AFCC03B0            sw $12, 944($30)
14331	DB60  3C0D024A            lui $13, 586
14332	DB64  35AD09D8            ori $13, $13, 2520
14333	DB68  AFCD03B4            sw $13, 948($30)
14334	DB6C  3C0EEB30            lui $14, 60208
14335	DB70  35CEED00            ori $14, $14, 60672
14336	DB74  AFCE03B8            sw $14, 952($30)
14337	DB78  3C0F80F9            lui $15, 33017
14338	DB7C  35EF689A            ori $15, $15, 26778
14339	DB80  AFCF03BC            sw $15, 956($30)
14340	DB84  3C08236C            lui $8, 9068
14341	DB88  350885C0            ori $8, $8, 34240
14342	DB8C  AFC803C0            sw $8, 960($30)
14343	DB90  3C09C024            lui $9, 49188
14344	DB94  35293D60            ori $9, $9, 15712
14345	DB98  AFC903C4            sw $9, 964($30)
14346	DB9C  3C0A5A49            lui $10, 23113
14347	DBA0  354ABDF2            ori $10, $10, 48626
14348	DBA4  AFCA03C8            sw $10, 968($30)
14349	DBA8  3C0B9B5C            lui $11, 39772
14350	DBAC  356B3C13            ori $11, $11, 15379
14351	DBB0  AFCB03CC            sw $11, 972($30)
14352	DBB4  3C0C6AD8            lui $12, 27352
14353	DBB8  358C655E            ori $12, $12, 25950
14354	DBBC  AFCC03D0            sw $12, 976($30)
14355	DBC0  3C0DA604            lui $13, 42500
14356	DBC4  35AD327E            ori $13, $13, 12926
14357	DBC8  AFCD03D4            sw $13, 980($30)
14358	DBCC  3C0E5D03            lui $14, 23811
14359	DBD0  35CE425E            ori $14, $14, 16990
14360	DBD4  AFCE03D8            sw $14, 984($30)
14361	DBD8  3C0FAA09            lui $15, 43529
14362	DBDC  35EFAC2A            ori $15, $15, 44074
14363	DBE0  AFCF03DC            sw $15, 988($30)
14364	DBE4  3C085C6A            lui $8, 23658
14365	DBE8  3508DB3B            ori $8, $8, 56123
14366	DBEC  AFC803E0            sw $8, 992($30)
14367	DBF0  3C09CD8A            lui $9, 52618
14368	DBF4  35298AB0            ori $9, $9, 35504
14369	DBF8  AFC903E4            sw $9, 996($30)
14370	DBFC  3C0A0FAB            lui $10, 4011
14371	DC00  354AA500            ori $10, $10, 42240
14372	DC04  AFCA03E8            sw $10, 1000($30)
14373	DC08  3C0BF9BA            lui $11, 63930
14374	DC0C  356B67F0            ori $11, $11, 26608
14375	DC10  AFCB03EC            sw $11, 1004($30)
14376	DC14  3C0C5148            lui $12, 20808
14377	DC18  358C6241            ori $12, $12, 25153
14378	DC1C  AFCC03F0            sw $12, 1008($30)
14379	DC20  3C0D6646            lui $13, 26182
14380	DC24  35ADE0BC            ori $13, $13, 57532
14381	DC28  AFCD03F4            sw $13, 1012($30)
14382	DC2C  3C0E18F6            lui $14, 6390
14383	DC30  35CE14A0            ori $14, $14, 5280
14384	DC34  AFCE03F8            sw $14, 1016($30)
14385	DC38  3C0F3A6A            lui $15, 14954
14386	DC3C  35EFF069            ori $15, $15, 61545
14387	DC40  AFCF03FC            sw $15, 1020($30)
14388	DC44  3C08C8E5            lui $8, 51429
14389	DC48  35088281            ori $8, $8, 33409
14390	DC4C  AFC80400            sw $8, 1024($30)
14391	DC50  3C09AC23            lui $9, 44067
14392	DC54  3529A7C4            ori $9, $9, 42948
14393	DC58  AFC90404            sw $9, 1028($30)
14394	DC5C  3C0A66B0            lui $10, 26288
14395	DC60  354AF47E            ori $10, $10, 62590
14396	DC64  AFCA0408            sw $10, 1032($30)
14397	DC68  3C0B6EFF            lui $11, 28415
14398	DC6C  356B962D            ori $11, $11, 38445
14399	DC70  AFCB040C            sw $11, 1036($30)
14400	DC74  3C0C5EEC            lui $12, 24300
14401	DC78  358C4783            ori $12, $12, 18307
14402	DC7C  AFCC0410            sw $12, 1040($30)
14403	DC80  3C0D9DEA            lui $13, 40426
14404	DC84  35AD5F66            ori $13, $13, 24422
14405	DC88  AFCD0414            sw $13, 1044($30)
14406	DC8C  3C0E1FB7            lui $14, 8119
14407	DC90  35CEF322            ori $14, $14, 62242
14408	DC94  AFCE0418            sw $14, 1048($30)
14409	DC98  3C0FDAF2            lui $15, 56050
14410	DC9C  35EF7D0A            ori $15, $15, 32010
14411	DCA0  AFCF041C            sw $15, 1052($30)
14412	DCA4  3C08B17F            lui $8, 45439
14413	DCA8  35082CD7            ori $8, $8, 11479
14414	DCAC  AFC80420            sw $8, 1056($30)
14415	DCB0  3C091E66            lui $9, 7782
14416	DCB4  35296877            ori $9, $9, 26743
14417	DCB8  AFC90424            sw $9, 1060($30)
14418	DCBC  3C0AD470            lui $10, 54384
14419	DCC0  354AE7A2            ori $10, $10, 59298
14420	DCC4  AFCA0428            sw $10, 1064($30)
14421	DCC8  3C0B75E1            lui $11, 30177
14422	DCCC  356B0F02            ori $11, $11, 3842
14423	DCD0  AFCB042C            sw $11, 1068($30)
14424	DCD4  3C0CE49E            lui $12, 58526
14425	DCD8  358CEB61            ori $12, $12, 60257
14426	DCDC  AFCC0430            sw $12, 1072($30)
14427	DCE0  3C0D9648            lui $13, 38472
14428	DCE4  35ADC9FF            ori $13, $13, 51711
14429	DCE8  AFCD0434            sw $13, 1076($30)
14430	DCEC  3C0EC5CB            lui $14, 50635
14431	DCF0  35CEBF6F            ori $14, $14, 49007
14432	DCF4  AFCE0438            sw $14, 1080($30)
14433	DCF8  3C0F69EF            lui $15, 27119
14434	DCFC  35EFCCC9            ori $15, $15, 52425
14435	DD00  AFCF043C            sw $15, 1084($30)
14436	DD04  3C08E14E            lui $8, 57678
14437	DD08  3508B402            ori $8, $8, 46082
14438	DD0C  AFC80440            sw $8, 1088($30)
14439	DD10  3C095B5A            lui $9, 23386
14440	DD14  352976A5            ori $9, $9, 30373
14441	DD18  AFC90444            sw $9, 1092($30)
14442	DD1C  3C0A444A            lui $10, 17482
14443	DD20  354AD9E0            ori $10, $10, 55776
14444	DD24  AFCA0448            sw $10, 1096($30)
14445	DD28  3C0B9AEC            lui $11, 39660
14446	DD2C  356B481D            ori $11, $11, 18461
14447	DD30  AFCB044C            sw $11, 1100($30)
14448	DD34  3C0C2E8A            lui $12, 11914
14449	DD38  358C2E83            ori $12, $12, 11907
14450	DD3C  AFCC0450            sw $12, 1104($30)
14451	DD40  3C0DFCA9            lui $13, 64681
14452	DD44  35AD7869            ori $13, $13, 30825
14453	DD48  AFCD0454            sw $13, 1108($30)
14454	DD4C  3C0EEBA1            lui $14, 60321
14455	DD50  35CE3D3F            ori $14, $14, 15679
14456	DD54  AFCE0458            sw $14, 1112($30)
14457	DD58  3C0F63DE            lui $15, 25566
14458	DD5C  35EFB7FC            ori $15, $15, 47100
14459	DD60  AFCF045C            sw $15, 1116($30)
14460	DD64  3C08952A            lui $8, 38186
14461	DD68  3508680B            ori $8, $8, 26635
14462	DD6C  AFC80460            sw $8, 1120($30)
14463	DD70  3C09D01E            lui $9, 53278
14464	DD74  352922E0            ori $9, $9, 8928
14465	DD78  AFC90464            sw $9, 1124($30)
14466	DD7C  3C0A4C75            lui $10, 19573
14467	DD80  354AFB52            ori $10, $10, 64338
14468	DD84  AFCA0468            sw $10, 1128($30)
14469	DD88  3C0B0EB3            lui $11, 3763
14470	DD8C  356B4F3B            ori $11, $11, 20283
14471	DD90  AFCB046C            sw $11, 1132($30)
14472	DD94  3C0C2409            lui $12, 9225
14473	DD98  358C32C1            ori $12, $12, 12993
14474	DD9C  AFCC0470            sw $12, 1136($30)
14475	DDA0  3C0DCCD3            lui $13, 52435
14476	DDA4  35AD07A7            ori $13, $13, 1959
14477	DDA8  AFCD0474            sw $13, 1140($30)
14478	DDAC  3C0E8A83            lui $14, 35459
14479	DDB0  35CEE183            ori $14, $14, 57731
14480	DDB4  AFCE0478            sw $14, 1144($30)
14481	DDB8  3C0FC704            lui $15, 50948
14482	DDBC  35EFC18E            ori $15, $15, 49550
14483	DDC0  AFCF047C            sw $15, 1148($30)
14484	DDC4  3C08C907            lui $8, 51463
14485	DDC8  35089789            ori $8, $8, 38793
14486	DDCC  AFC80480            sw $8, 1152($30)
14487	DDD0  3C091817            lui $9, 6167
14488	DDD4  3529EDEF            ori $9, $9, 60911
14489	DDD8  AFC90484            sw $9, 1156($30)
14490	DDDC  3C0A7DA3            lui $10, 32163
14491	DDE0  354ADF60            ori $10, $10, 57184
14492	DDE4  AFCA0488            sw $10, 1160($30)
14493	DDE8  3C0BD9C9            lui $11, 55753
14494	DDEC  356B143C            ori $11, $11, 5180
14495	DDF0  AFCB048C            sw $11, 1164($30)
14496	DDF4  3C0C7D19            lui $12, 32025
14497	DDF8  358C2B61            ori $12, $12, 11105
14498	DDFC  AFCC0490            sw $12, 1168($30)
14499	DE00  3C0DD5E0            lui $13, 54752
14500	DE04  35AD4F69            ori $13, $13, 20329
14501	DE08  AFCD0494            sw $13, 1172($30)
14502	DE0C  3C0E5DE3            lui $14, 24035
14503	DE10  35CEC87D            ori $14, $14, 51325
14504	DE14  AFCE0498            sw $14, 1176($30)
14505	DE18  3C0FFAFF            lui $15, 64255
14506	DE1C  35EF57D7            ori $15, $15, 22487
14507	DE20  AFCF049C            sw $15, 1180($30)
14508	DE24  3C08BE7A            lui $8, 48762
14509	DE28  35082247            ori $8, $8, 8775
14510	DE2C  AFC804A0            sw $8, 1184($30)
14511	DE30  3C092F74            lui $9, 12148
14512	DE34  3529ED98            ori $9, $9, 60824
14513	DE38  AFC904A4            sw $9, 1188($30)
14514	DE3C  3C0A4078            lui $10, 16504
14515	DE40  354A443F            ori $10, $10, 17471
14516	DE44  AFCA04A8            sw $10, 1192($30)
14517	DE48  3C0B0723            lui $11, 1827
14518	DE4C  356BE7A5            ori $11, $11, 59301
14519	DE50  AFCB04AC            sw $11, 1196($30)
14520	DE54  3C0CDD86            lui $12, 56710
14521	DE58  358C4EB3            ori $12, $12, 20147
14522	DE5C  AFCC04B0            sw $12, 1200($30)
14523	DE60  3C0D8FB1            lui $13, 36785
14524	DE64  35AD7B4F            ori $13, $13, 31567
14525	DE68  AFCD04B4            sw $13, 1204($30)
14526	DE6C  3C0E30CE            lui $14, 12494
14527	DE70  35CE3B82            ori $14, $14, 15234
14528	DE74  AFCE04B8            sw $14, 1208($30)
14529	DE78  3C0F3D7E            lui $15, 15742
14530	DE7C  35EF2E95            ori $15, $15, 11925
14531	DE80  AFCF04BC            sw $15, 1212($30)
14532	DE84  3C08C363            lui $8, 50019
14533	DE88  3508F900            ori $8, $8, 63744
14534	DE8C  AFC804C0            sw $8, 1216($30)
14535	DE90  3C09CE9F            lui $9, 52895
14536	DE94  352973CF            ori $9, $9, 29647
14537	DE98  AFC904C4            sw $9, 1220($30)
14538	DE9C  3C0AD833            lui $10, 55347
14539	DEA0  354A45BB            ori $10, $10, 17851
14540	DEA4  AFCA04C8            sw $10, 1224($30)
14541	DEA8  3C0B0C04            lui $11, 3076
14542	DEAC  356B6E7C            ori $11, $11, 28284
14543	DEB0  AFCB04CC            sw $11, 1228($30)
14544	DEB4  3C0C6A29            lui $12, 27177
14545	DEB8  358CDBC8            ori $12, $12, 56264
14546	DEBC  AFCC04D0            sw $12, 1232($30)
14547	DEC0  3C0D3AB1            lui $13, 15025
14548	DEC4  35ADDAE7            ori $13, $13, 56039
14549	DEC8  AFCD04D4            sw $13, 1236($30)
14550	DECC  3C0E617A            lui $14, 24954
14551	DED0  35CE4C7C            ori $14, $14, 19580
14552	DED4  AFCE04D8            sw $14, 1240($30)
14553	DED8  3C0F8184            lui $15, 33156
14554	DEDC  35EF4CC2            ori $15, $15, 19650
14555	DEE0  AFCF04DC            sw $15, 1244($30)
14556	DEE4  3C08CD74            lui $8, 52596
14557	DEE8  35083E06            ori $8, $8, 15878
14558	DEEC  AFC804E0            sw $8, 1248($30)
14559	DEF0  3C096627            lui $9, 26151
14560	DEF4  35294112            ori $9, $9, 16658
14561	DEF8  AFC904E4            sw $9, 1252($30)
14562	DEFC  3C0ABFEF            lui $10, 49135
14563	DF00  354A43D4            ori $10, $10, 17364
14564	DF04  AFCA04E8            sw $10, 1256($30)
14565	DF08  3C0B2AFB            lui $11, 11003
14566	DF0C  356BCDD5            ori $11, $11, 52693
14567	DF10  AFCB04EC            sw $11, 1260($30)
14568	DF14  3C0CAA63            lui $12, 43619
14569	DF18  358CBCF7            ori $12, $12, 48375
14570	DF1C  AFCC04F0            sw $12, 1264($30)
14571	DF20  3C0D2F6E            lui $13, 12142
14572	DF24  35AD9EA8            ori $13, $13, 40616
14573	DF28  AFCD04F4            sw $13, 1268($30)
14574	DF2C  3C0E11CC            lui $14, 4556
14575	DF30  35CEA9A2            ori $14, $14, 43426
14576	DF34  AFCE04F8            sw $14, 1272($30)
14577	DF38  3C0F2EE9            lui $15, 12009
14578	DF3C  35EF8FD0            ori $15, $15, 36816
14579	DF40  AFCF04FC            sw $15, 1276($30)
14580	DF44  3C0891E7            lui $8, 37351
14581	DF48  350824B9            ori $8, $8, 9401
14582	DF4C  AFC80500            sw $8, 1280($30)
14583	DF50  3C094875            lui $9, 18549
14584	DF54  35293149            ori $9, $9, 12617
14585	DF58  AFC90504            sw $9, 1284($30)
14586	DF5C  3C0AFABB            lui $10, 64187
14587	DF60  354AE17F            ori $10, $10, 57727
14588	DF64  AFCA0508            sw $10, 1288($30)
14589	DF68  3C0BEFF6            lui $11, 61430
14590	DF6C  356BB261            ori $11, $11, 45665
14591	DF70  AFCB050C            sw $11, 1292($30)
14592	DF74  3C0C9390            lui $12, 37776
14593	DF78  358CEDE4            ori $12, $12, 60900
14594	DF7C  AFCC0510            sw $12, 1296($30)
14595	DF80  3C0DB26D            lui $13, 45677
14596	DF84  35ADE219            ori $13, $13, 57881
14597	DF88  AFCD0514            sw $13, 1300($30)
14598	DF8C  3C0E0634            lui $14, 1588
14599	DF90  35CE47C0            ori $14, $14, 18368
14600	DF94  AFCE0518            sw $14, 1304($30)
14601	DF98  3C0F9FE4            lui $15, 40932
14602	DF9C  35EFA337            ori $15, $15, 41783
14603	DFA0  AFCF051C            sw $15, 1308($30)
14604	DFA4  3C080A83            lui $8, 2691
14605	DFA8  3508B806            ori $8, $8, 47110
14606	DFAC  AFC80520            sw $8, 1312($30)
14607	DFB0  3C09E158            lui $9, 57688
14608	DFB4  3529B60E            ori $9, $9, 46606
14609	DFB8  AFC90524            sw $9, 1316($30)
14610	DFBC  3C0A5F5C            lui $10, 24412
14611	DFC0  354A9BFC            ori $10, $10, 39932
14612	DFC4  AFCA0528            sw $10, 1320($30)
14613	DFC8  3C0BDF82            lui $11, 57218
14614	DFCC  356B7FBD            ori $11, $11, 32701
14615	DFD0  AFCB052C            sw $11, 1324($30)
14616	DFD4  03E00008            jr $31
14617	                          
14618	                          load_branch:
14619	DFD8  8FCF0530            lw $15, 1328($30)
14620	DFDC  8FD00534            lw $16, 1332($30)
14621	DFE0  03E00008            jr $31
14622	                          
14623	                          ;..........branch_memory_initialization..........;
14624	                          init_branch:
14625	DFE4  3C08FFFF            lui $8, 65535
14626	DFE8  3508FFFF            ori $8, $8, 65535
14627	DFEC  AFC80530            sw $8, 1328($30)
14628	DFF0  3C09FFFF            lui $9, 65535
14629	DFF4  3529FFFF            ori $9, $9, 65535
14630	DFF8  AFC90534            sw $9, 1332($30)
14631	DFFC  3C0A7FFF            lui $10, 32767
14632	E000  354AFFFF            ori $10, $10, 65535
14633	E004  AFCA0538            sw $10, 1336($30)
14634	E008  3C0BFFFF            lui $11, 65535
14635	E00C  356BFFFF            ori $11, $11, 65535
14636	E010  AFCB053C            sw $11, 1340($30)
14637	E014  3C0CBFFF            lui $12, 49151
14638	E018  358CFFFF            ori $12, $12, 65535
14639	E01C  AFCC0540            sw $12, 1344($30)
14640	E020  3C0DFFFF            lui $13, 65535
14641	E024  35ADFFFF            ori $13, $13, 65535
14642	E028  AFCD0544            sw $13, 1348($30)
14643	E02C  3C0EDFFF            lui $14, 57343
14644	E030  35CEFFFF            ori $14, $14, 65535
14645	E034  AFCE0548            sw $14, 1352($30)
14646	E038  3C0FFFFF            lui $15, 65535
14647	E03C  35EFFFFF            ori $15, $15, 65535
14648	E040  AFCF054C            sw $15, 1356($30)
14649	E044  3C08EFFF            lui $8, 61439
14650	E048  3508FFFF            ori $8, $8, 65535
14651	E04C  AFC80550            sw $8, 1360($30)
14652	E050  3C09FFFF            lui $9, 65535
14653	E054  3529FFFF            ori $9, $9, 65535
14654	E058  AFC90554            sw $9, 1364($30)
14655	E05C  3C0AF7FF            lui $10, 63487
14656	E060  354AFFFF            ori $10, $10, 65535
14657	E064  AFCA0558            sw $10, 1368($30)
14658	E068  3C0BFFFF            lui $11, 65535
14659	E06C  356BFFFF            ori $11, $11, 65535
14660	E070  AFCB055C            sw $11, 1372($30)
14661	E074  3C0C7BFF            lui $12, 31743
14662	E078  358CFFFF            ori $12, $12, 65535
14663	E07C  AFCC0560            sw $12, 1376($30)
14664	E080  3C0DFFFF            lui $13, 65535
14665	E084  35ADFFFF            ori $13, $13, 65535
14666	E088  AFCD0564            sw $13, 1380($30)
14667	E08C  3C0EFDFF            lui $14, 65023
14668	E090  35CEFFFF            ori $14, $14, 65535
14669	E094  AFCE0568            sw $14, 1384($30)
14670	E098  3C0FFFFF            lui $15, 65535
14671	E09C  35EFFFFF            ori $15, $15, 65535
14672	E0A0  AFCF056C            sw $15, 1388($30)
14673	E0A4  3C08FEFF            lui $8, 65279
14674	E0A8  3508FFFF            ori $8, $8, 65535
14675	E0AC  AFC80570            sw $8, 1392($30)
14676	E0B0  3C09FFFF            lui $9, 65535
14677	E0B4  3529FFFF            ori $9, $9, 65535
14678	E0B8  AFC90574            sw $9, 1396($30)
14679	E0BC  3C0AFF7F            lui $10, 65407
14680	E0C0  354AFFFF            ori $10, $10, 65535
14681	E0C4  AFCA0578            sw $10, 1400($30)
14682	E0C8  3C0BFFFF            lui $11, 65535
14683	E0CC  356BFFFF            ori $11, $11, 65535
14684	E0D0  AFCB057C            sw $11, 1404($30)
14685	E0D4  3C0CFFBF            lui $12, 65471
14686	E0D8  358CFFFF            ori $12, $12, 65535
14687	E0DC  AFCC0580            sw $12, 1408($30)
14688	E0E0  3C0DFFFF            lui $13, 65535
14689	E0E4  35ADFFFF            ori $13, $13, 65535
14690	E0E8  AFCD0584            sw $13, 1412($30)
14691	E0EC  3C0EFFDF            lui $14, 65503
14692	E0F0  35CEFFFF            ori $14, $14, 65535
14693	E0F4  AFCE0588            sw $14, 1416($30)
14694	E0F8  3C0FFFFF            lui $15, 65535
14695	E0FC  35EFFFFF            ori $15, $15, 65535
14696	E100  AFCF058C            sw $15, 1420($30)
14697	E104  3C08FFEF            lui $8, 65519
14698	E108  3508FFFF            ori $8, $8, 65535
14699	E10C  AFC80590            sw $8, 1424($30)
14700	E110  3C09FFFF            lui $9, 65535
14701	E114  3529FFFF            ori $9, $9, 65535
14702	E118  AFC90594            sw $9, 1428($30)
14703	E11C  3C0AFFF7            lui $10, 65527
14704	E120  354AFFFF            ori $10, $10, 65535
14705	E124  AFCA0598            sw $10, 1432($30)
14706	E128  3C0BFFFF            lui $11, 65535
14707	E12C  356BFFFF            ori $11, $11, 65535
14708	E130  AFCB059C            sw $11, 1436($30)
14709	E134  3C0CFFFB            lui $12, 65531
14710	E138  358CFFFF            ori $12, $12, 65535
14711	E13C  AFCC05A0            sw $12, 1440($30)
14712	E140  3C0DFFFF            lui $13, 65535
14713	E144  35ADFFFF            ori $13, $13, 65535
14714	E148  AFCD05A4            sw $13, 1444($30)
14715	E14C  3C0EFFFD            lui $14, 65533
14716	E150  35CEFFFF            ori $14, $14, 65535
14717	E154  AFCE05A8            sw $14, 1448($30)
14718	E158  3C0FFFFF            lui $15, 65535
14719	E15C  35EFFFFF            ori $15, $15, 65535
14720	E160  AFCF05AC            sw $15, 1452($30)
14721	E164  3C08FFFE            lui $8, 65534
14722	E168  3508FFFF            ori $8, $8, 65535
14723	E16C  AFC805B0            sw $8, 1456($30)
14724	E170  3C09FFFF            lui $9, 65535
14725	E174  3529FFFF            ori $9, $9, 65535
14726	E178  AFC905B4            sw $9, 1460($30)
14727	E17C  3C0AFFFF            lui $10, 65535
14728	E180  354A7FFF            ori $10, $10, 32767
14729	E184  AFCA05B8            sw $10, 1464($30)
14730	E188  3C0BFFFF            lui $11, 65535
14731	E18C  356BFFFF            ori $11, $11, 65535
14732	E190  AFCB05BC            sw $11, 1468($30)
14733	E194  3C0CFFFF            lui $12, 65535
14734	E198  358CBFFF            ori $12, $12, 49151
14735	E19C  AFCC05C0            sw $12, 1472($30)
14736	E1A0  3C0DFFFF            lui $13, 65535
14737	E1A4  35ADFFFF            ori $13, $13, 65535
14738	E1A8  AFCD05C4            sw $13, 1476($30)
14739	E1AC  3C0EFFFF            lui $14, 65535
14740	E1B0  35CEDFFF            ori $14, $14, 57343
14741	E1B4  AFCE05C8            sw $14, 1480($30)
14742	E1B8  3C0FFFFF            lui $15, 65535
14743	E1BC  35EFFFFF            ori $15, $15, 65535
14744	E1C0  AFCF05CC            sw $15, 1484($30)
14745	E1C4  3C08FFFF            lui $8, 65535
14746	E1C8  3508EFFF            ori $8, $8, 61439
14747	E1CC  AFC805D0            sw $8, 1488($30)
14748	E1D0  3C09FFFF            lui $9, 65535
14749	E1D4  3529FFFF            ori $9, $9, 65535
14750	E1D8  AFC905D4            sw $9, 1492($30)
14751	E1DC  3C0AFFFF            lui $10, 65535
14752	E1E0  354AF7FF            ori $10, $10, 63487
14753	E1E4  AFCA05D8            sw $10, 1496($30)
14754	E1E8  3C0BFFFF            lui $11, 65535
14755	E1EC  356BFFFF            ori $11, $11, 65535
14756	E1F0  AFCB05DC            sw $11, 1500($30)
14757	E1F4  3C0CFFFF            lui $12, 65535
14758	E1F8  358CFBFF            ori $12, $12, 64511
14759	E1FC  AFCC05E0            sw $12, 1504($30)
14760	E200  3C0DFFFF            lui $13, 65535
14761	E204  35ADFFFF            ori $13, $13, 65535
14762	E208  AFCD05E4            sw $13, 1508($30)
14763	E20C  3C0EFFFF            lui $14, 65535
14764	E210  35CEFDFF            ori $14, $14, 65023
14765	E214  AFCE05E8            sw $14, 1512($30)
14766	E218  3C0FFFFF            lui $15, 65535
14767	E21C  35EFFFFF            ori $15, $15, 65535
14768	E220  AFCF05EC            sw $15, 1516($30)
14769	E224  3C08FFFF            lui $8, 65535
14770	E228  3508FEFF            ori $8, $8, 65279
14771	E22C  AFC805F0            sw $8, 1520($30)
14772	E230  3C09FFFF            lui $9, 65535
14773	E234  3529FFFF            ori $9, $9, 65535
14774	E238  AFC905F4            sw $9, 1524($30)
14775	E23C  3C0AFFFF            lui $10, 65535
14776	E240  354AFF7F            ori $10, $10, 65407
14777	E244  AFCA05F8            sw $10, 1528($30)
14778	E248  3C0BFFFF            lui $11, 65535
14779	E24C  356BFFFF            ori $11, $11, 65535
14780	E250  AFCB05FC            sw $11, 1532($30)
14781	E254  3C0CFFFF            lui $12, 65535
14782	E258  358CFFBF            ori $12, $12, 65471
14783	E25C  AFCC0600            sw $12, 1536($30)
14784	E260  3C0DFFFF            lui $13, 65535
14785	E264  35ADFFFF            ori $13, $13, 65535
14786	E268  AFCD0604            sw $13, 1540($30)
14787	E26C  3C0EFFFF            lui $14, 65535
14788	E270  35CEFFDF            ori $14, $14, 65503
14789	E274  AFCE0608            sw $14, 1544($30)
14790	E278  3C0FFFFF            lui $15, 65535
14791	E27C  35EFFFFF            ori $15, $15, 65535
14792	E280  AFCF060C            sw $15, 1548($30)
14793	E284  3C08FFFF            lui $8, 65535
14794	E288  3508FFEF            ori $8, $8, 65519
14795	E28C  AFC80610            sw $8, 1552($30)
14796	E290  3C09FFFF            lui $9, 65535
14797	E294  3529FFFF            ori $9, $9, 65535
14798	E298  AFC90614            sw $9, 1556($30)
14799	E29C  3C0AFFFF            lui $10, 65535
14800	E2A0  354AFFF7            ori $10, $10, 65527
14801	E2A4  AFCA0618            sw $10, 1560($30)
14802	E2A8  3C0BFFFF            lui $11, 65535
14803	E2AC  356BFFFF            ori $11, $11, 65535
14804	E2B0  AFCB061C            sw $11, 1564($30)
14805	E2B4  3C0CFFFF            lui $12, 65535
14806	E2B8  358CFFFB            ori $12, $12, 65531
14807	E2BC  AFCC0620            sw $12, 1568($30)
14808	E2C0  3C0DFFFF            lui $13, 65535
14809	E2C4  35ADFFFF            ori $13, $13, 65535
14810	E2C8  AFCD0624            sw $13, 1572($30)
14811	E2CC  3C0EFFFF            lui $14, 65535
14812	E2D0  35CEFFFD            ori $14, $14, 65533
14813	E2D4  AFCE0628            sw $14, 1576($30)
14814	E2D8  3C0FFFFF            lui $15, 65535
14815	E2DC  35EFFFFF            ori $15, $15, 65535
14816	E2E0  AFCF062C            sw $15, 1580($30)
14817	E2E4  3C08FFFF            lui $8, 65535
14818	E2E8  3508FFFE            ori $8, $8, 65534
14819	E2EC  AFC80630            sw $8, 1584($30)
14820	E2F0  3C09FFFF            lui $9, 65535
14821	E2F4  3529FFFF            ori $9, $9, 65535
14822	E2F8  AFC90634            sw $9, 1588($30)
14823	E2FC  3C0AFFFF            lui $10, 65535
14824	E300  354AFFFF            ori $10, $10, 65535
14825	E304  AFCA0638            sw $10, 1592($30)
14826	E308  3C0B7FFF            lui $11, 32767
14827	E30C  356BFFFF            ori $11, $11, 65535
14828	E310  AFCB063C            sw $11, 1596($30)
14829	E314  3C0CFFFF            lui $12, 65535
14830	E318  358CFFFF            ori $12, $12, 65535
14831	E31C  AFCC0640            sw $12, 1600($30)
14832	E320  3C0DBFFF            lui $13, 49151
14833	E324  35ADFFFF            ori $13, $13, 65535
14834	E328  AFCD0644            sw $13, 1604($30)
14835	E32C  3C0EFFFF            lui $14, 65535
14836	E330  35CEFFFF            ori $14, $14, 65535
14837	E334  AFCE0648            sw $14, 1608($30)
14838	E338  3C0FDFFF            lui $15, 57343
14839	E33C  35EFFFFF            ori $15, $15, 65535
14840	E340  AFCF064C            sw $15, 1612($30)
14841	E344  3C08FFFF            lui $8, 65535
14842	E348  3508FFFF            ori $8, $8, 65535
14843	E34C  AFC80650            sw $8, 1616($30)
14844	E350  3C09EFFF            lui $9, 61439
14845	E354  3529FFFF            ori $9, $9, 65535
14846	E358  AFC90654            sw $9, 1620($30)
14847	E35C  3C0AFFFF            lui $10, 65535
14848	E360  354AFFFF            ori $10, $10, 65535
14849	E364  AFCA0658            sw $10, 1624($30)
14850	E368  3C0BF7FF            lui $11, 63487
14851	E36C  356BFFFF            ori $11, $11, 65535
14852	E370  AFCB065C            sw $11, 1628($30)
14853	E374  3C0CFFFF            lui $12, 65535
14854	E378  358CFFFF            ori $12, $12, 65535
14855	E37C  AFCC0660            sw $12, 1632($30)
14856	E380  3C0D7BFF            lui $13, 31743
14857	E384  35ADFFFF            ori $13, $13, 65535
14858	E388  AFCD0664            sw $13, 1636($30)
14859	E38C  3C0EFFFF            lui $14, 65535
14860	E390  35CEFFFF            ori $14, $14, 65535
14861	E394  AFCE0668            sw $14, 1640($30)
14862	E398  3C0FFDFF            lui $15, 65023
14863	E39C  35EFFFFF            ori $15, $15, 65535
14864	E3A0  AFCF066C            sw $15, 1644($30)
14865	E3A4  3C08FFFF            lui $8, 65535
14866	E3A8  3508FFFF            ori $8, $8, 65535
14867	E3AC  AFC80670            sw $8, 1648($30)
14868	E3B0  3C09FEFF            lui $9, 65279
14869	E3B4  3529FFFF            ori $9, $9, 65535
14870	E3B8  AFC90674            sw $9, 1652($30)
14871	E3BC  3C0AFFFF            lui $10, 65535
14872	E3C0  354AFFFF            ori $10, $10, 65535
14873	E3C4  AFCA0678            sw $10, 1656($30)
14874	E3C8  3C0BFF7F            lui $11, 65407
14875	E3CC  356BFFFF            ori $11, $11, 65535
14876	E3D0  AFCB067C            sw $11, 1660($30)
14877	E3D4  3C0CFFFF            lui $12, 65535
14878	E3D8  358CFFFF            ori $12, $12, 65535
14879	E3DC  AFCC0680            sw $12, 1664($30)
14880	E3E0  3C0DFFBF            lui $13, 65471
14881	E3E4  35ADFFFF            ori $13, $13, 65535
14882	E3E8  AFCD0684            sw $13, 1668($30)
14883	E3EC  3C0EFFFF            lui $14, 65535
14884	E3F0  35CEFFFF            ori $14, $14, 65535
14885	E3F4  AFCE0688            sw $14, 1672($30)
14886	E3F8  3C0FFFDF            lui $15, 65503
14887	E3FC  35EFFFFF            ori $15, $15, 65535
14888	E400  AFCF068C            sw $15, 1676($30)
14889	E404  3C08FFFF            lui $8, 65535
14890	E408  3508FFFF            ori $8, $8, 65535
14891	E40C  AFC80690            sw $8, 1680($30)
14892	E410  3C09FFEF            lui $9, 65519
14893	E414  3529FFFF            ori $9, $9, 65535
14894	E418  AFC90694            sw $9, 1684($30)
14895	E41C  3C0AFFFF            lui $10, 65535
14896	E420  354AFFFF            ori $10, $10, 65535
14897	E424  AFCA0698            sw $10, 1688($30)
14898	E428  3C0BFFF7            lui $11, 65527
14899	E42C  356BFFFF            ori $11, $11, 65535
14900	E430  AFCB069C            sw $11, 1692($30)
14901	E434  3C0CFFFF            lui $12, 65535
14902	E438  358CFFFF            ori $12, $12, 65535
14903	E43C  AFCC06A0            sw $12, 1696($30)
14904	E440  3C0DFFFB            lui $13, 65531
14905	E444  35ADFFFF            ori $13, $13, 65535
14906	E448  AFCD06A4            sw $13, 1700($30)
14907	E44C  3C0EFFFF            lui $14, 65535
14908	E450  35CEFFFF            ori $14, $14, 65535
14909	E454  AFCE06A8            sw $14, 1704($30)
14910	E458  3C0FFFFD            lui $15, 65533
14911	E45C  35EFFFFF            ori $15, $15, 65535
14912	E460  AFCF06AC            sw $15, 1708($30)
14913	E464  3C08FFFF            lui $8, 65535
14914	E468  3508FFFF            ori $8, $8, 65535
14915	E46C  AFC806B0            sw $8, 1712($30)
14916	E470  3C09FFFE            lui $9, 65534
14917	E474  3529FFFF            ori $9, $9, 65535
14918	E478  AFC906B4            sw $9, 1716($30)
14919	E47C  3C0AFFFF            lui $10, 65535
14920	E480  354AFFFF            ori $10, $10, 65535
14921	E484  AFCA06B8            sw $10, 1720($30)
14922	E488  3C0BFFFF            lui $11, 65535
14923	E48C  356B7FFF            ori $11, $11, 32767
14924	E490  AFCB06BC            sw $11, 1724($30)
14925	E494  3C0CFFFF            lui $12, 65535
14926	E498  358CFFFF            ori $12, $12, 65535
14927	E49C  AFCC06C0            sw $12, 1728($30)
14928	E4A0  3C0DFFFF            lui $13, 65535
14929	E4A4  35ADBFFF            ori $13, $13, 49151
14930	E4A8  AFCD06C4            sw $13, 1732($30)
14931	E4AC  3C0EFFFF            lui $14, 65535
14932	E4B0  35CEFFFF            ori $14, $14, 65535
14933	E4B4  AFCE06C8            sw $14, 1736($30)
14934	E4B8  3C0FFFFF            lui $15, 65535
14935	E4BC  35EFDFFF            ori $15, $15, 57343
14936	E4C0  AFCF06CC            sw $15, 1740($30)
14937	E4C4  3C08FFFF            lui $8, 65535
14938	E4C8  3508FFFF            ori $8, $8, 65535
14939	E4CC  AFC806D0            sw $8, 1744($30)
14940	E4D0  3C09FFFF            lui $9, 65535
14941	E4D4  3529EFFF            ori $9, $9, 61439
14942	E4D8  AFC906D4            sw $9, 1748($30)
14943	E4DC  3C0AFFFF            lui $10, 65535
14944	E4E0  354AFFFF            ori $10, $10, 65535
14945	E4E4  AFCA06D8            sw $10, 1752($30)
14946	E4E8  3C0BFFFF            lui $11, 65535
14947	E4EC  356BF7FF            ori $11, $11, 63487
14948	E4F0  AFCB06DC            sw $11, 1756($30)
14949	E4F4  3C0CFFFF            lui $12, 65535
14950	E4F8  358CFFFF            ori $12, $12, 65535
14951	E4FC  AFCC06E0            sw $12, 1760($30)
14952	E500  3C0DFFFF            lui $13, 65535
14953	E504  35ADFBFF            ori $13, $13, 64511
14954	E508  AFCD06E4            sw $13, 1764($30)
14955	E50C  3C0EFFFF            lui $14, 65535
14956	E510  35CEFFFF            ori $14, $14, 65535
14957	E514  AFCE06E8            sw $14, 1768($30)
14958	E518  3C0FFFFF            lui $15, 65535
14959	E51C  35EFFDFF            ori $15, $15, 65023
14960	E520  AFCF06EC            sw $15, 1772($30)
14961	E524  3C08FFFF            lui $8, 65535
14962	E528  3508FFFF            ori $8, $8, 65535
14963	E52C  AFC806F0            sw $8, 1776($30)
14964	E530  3C09FFFF            lui $9, 65535
14965	E534  3529FEFF            ori $9, $9, 65279
14966	E538  AFC906F4            sw $9, 1780($30)
14967	E53C  3C0AFFFF            lui $10, 65535
14968	E540  354AFFFF            ori $10, $10, 65535
14969	E544  AFCA06F8            sw $10, 1784($30)
14970	E548  3C0BFFFF            lui $11, 65535
14971	E54C  356BFF7F            ori $11, $11, 65407
14972	E550  AFCB06FC            sw $11, 1788($30)
14973	E554  3C0CFFFF            lui $12, 65535
14974	E558  358CFFFF            ori $12, $12, 65535
14975	E55C  AFCC0700            sw $12, 1792($30)
14976	E560  3C0DFFFF            lui $13, 65535
14977	E564  35ADFFBF            ori $13, $13, 65471
14978	E568  AFCD0704            sw $13, 1796($30)
14979	E56C  3C0EFFFF            lui $14, 65535
14980	E570  35CEFFFF            ori $14, $14, 65535
14981	E574  AFCE0708            sw $14, 1800($30)
14982	E578  3C0FFFFF            lui $15, 65535
14983	E57C  35EFFFDF            ori $15, $15, 65503
14984	E580  AFCF070C            sw $15, 1804($30)
14985	E584  3C08FFFF            lui $8, 65535
14986	E588  3508FFFF            ori $8, $8, 65535
14987	E58C  AFC80710            sw $8, 1808($30)
14988	E590  3C09FFFF            lui $9, 65535
14989	E594  3529FFEF            ori $9, $9, 65519
14990	E598  AFC90714            sw $9, 1812($30)
14991	E59C  3C0AFFFF            lui $10, 65535
14992	E5A0  354AFFFF            ori $10, $10, 65535
14993	E5A4  AFCA0718            sw $10, 1816($30)
14994	E5A8  3C0BFFFF            lui $11, 65535
14995	E5AC  356BFFF7            ori $11, $11, 65527
14996	E5B0  AFCB071C            sw $11, 1820($30)
14997	E5B4  3C0CFFFF            lui $12, 65535
14998	E5B8  358CFFFF            ori $12, $12, 65535
14999	E5BC  AFCC0720            sw $12, 1824($30)
15000	E5C0  3C0DFFFF            lui $13, 65535
15001	E5C4  35ADFFFB            ori $13, $13, 65531
15002	E5C8  AFCD0724            sw $13, 1828($30)
15003	E5CC  3C0EFFFF            lui $14, 65535
15004	E5D0  35CEFFFF            ori $14, $14, 65535
15005	E5D4  AFCE0728            sw $14, 1832($30)
15006	E5D8  3C0FFFFF            lui $15, 65535
15007	E5DC  35EFFFFD            ori $15, $15, 65533
15008	E5E0  AFCF072C            sw $15, 1836($30)
15009	E5E4  3C08FFFF            lui $8, 65535
15010	E5E8  3508FFFF            ori $8, $8, 65535
15011	E5EC  AFC80730            sw $8, 1840($30)
15012	E5F0  3C09FFFF            lui $9, 65535
15013	E5F4  3529FFFE            ori $9, $9, 65534
15014	E5F8  AFC90734            sw $9, 1844($30)
15015	E5FC  3C0A7FFF            lui $10, 32767
15016	E600  354AFFFF            ori $10, $10, 65535
15017	E604  AFCA0738            sw $10, 1848($30)
15018	E608  3C0B7FFF            lui $11, 32767
15019	E60C  356BFFFF            ori $11, $11, 65535
15020	E610  AFCB073C            sw $11, 1852($30)
15021	E614  3C0CBFFF            lui $12, 49151
15022	E618  358CFFFF            ori $12, $12, 65535
15023	E61C  AFCC0740            sw $12, 1856($30)
15024	E620  3C0DBFFF            lui $13, 49151
15025	E624  35ADFFFF            ori $13, $13, 65535
15026	E628  AFCD0744            sw $13, 1860($30)
15027	E62C  3C0EDFFF            lui $14, 57343
15028	E630  35CEFFFF            ori $14, $14, 65535
15029	E634  AFCE0748            sw $14, 1864($30)
15030	E638  3C0FDFFF            lui $15, 57343
15031	E63C  35EFFFFF            ori $15, $15, 65535
15032	E640  AFCF074C            sw $15, 1868($30)
15033	E644  3C08EFFF            lui $8, 61439
15034	E648  3508FFFF            ori $8, $8, 65535
15035	E64C  AFC80750            sw $8, 1872($30)
15036	E650  3C09EFFF            lui $9, 61439
15037	E654  3529FFFF            ori $9, $9, 65535
15038	E658  AFC90754            sw $9, 1876($30)
15039	E65C  3C0AF7FF            lui $10, 63487
15040	E660  354AFFFF            ori $10, $10, 65535
15041	E664  AFCA0758            sw $10, 1880($30)
15042	E668  3C0BF7FF            lui $11, 63487
15043	E66C  356BFFFF            ori $11, $11, 65535
15044	E670  AFCB075C            sw $11, 1884($30)
15045	E674  3C0C7BFF            lui $12, 31743
15046	E678  358CFFFF            ori $12, $12, 65535
15047	E67C  AFCC0760            sw $12, 1888($30)
15048	E680  3C0D7BFF            lui $13, 31743
15049	E684  35ADFFFF            ori $13, $13, 65535
15050	E688  AFCD0764            sw $13, 1892($30)
15051	E68C  3C0EFDFF            lui $14, 65023
15052	E690  35CEFFFF            ori $14, $14, 65535
15053	E694  AFCE0768            sw $14, 1896($30)
15054	E698  3C0FFDFF            lui $15, 65023
15055	E69C  35EFFFFF            ori $15, $15, 65535
15056	E6A0  AFCF076C            sw $15, 1900($30)
15057	E6A4  3C08FEFF            lui $8, 65279
15058	E6A8  3508FFFF            ori $8, $8, 65535
15059	E6AC  AFC80770            sw $8, 1904($30)
15060	E6B0  3C09FEFF            lui $9, 65279
15061	E6B4  3529FFFF            ori $9, $9, 65535
15062	E6B8  AFC90774            sw $9, 1908($30)
15063	E6BC  3C0AFF7F            lui $10, 65407
15064	E6C0  354AFFFF            ori $10, $10, 65535
15065	E6C4  AFCA0778            sw $10, 1912($30)
15066	E6C8  3C0BFF7F            lui $11, 65407
15067	E6CC  356BFFFF            ori $11, $11, 65535
15068	E6D0  AFCB077C            sw $11, 1916($30)
15069	E6D4  3C0CFFBF            lui $12, 65471
15070	E6D8  358CFFFF            ori $12, $12, 65535
15071	E6DC  AFCC0780            sw $12, 1920($30)
15072	E6E0  3C0DFFBF            lui $13, 65471
15073	E6E4  35ADFFFF            ori $13, $13, 65535
15074	E6E8  AFCD0784            sw $13, 1924($30)
15075	E6EC  3C0EFFDF            lui $14, 65503
15076	E6F0  35CEFFFF            ori $14, $14, 65535
15077	E6F4  AFCE0788            sw $14, 1928($30)
15078	E6F8  3C0FFFDF            lui $15, 65503
15079	E6FC  35EFFFFF            ori $15, $15, 65535
15080	E700  AFCF078C            sw $15, 1932($30)
15081	E704  3C08FFEF            lui $8, 65519
15082	E708  3508FFFF            ori $8, $8, 65535
15083	E70C  AFC80790            sw $8, 1936($30)
15084	E710  3C09FFEF            lui $9, 65519
15085	E714  3529FFFF            ori $9, $9, 65535
15086	E718  AFC90794            sw $9, 1940($30)
15087	E71C  3C0AFFF7            lui $10, 65527
15088	E720  354AFFFF            ori $10, $10, 65535
15089	E724  AFCA0798            sw $10, 1944($30)
15090	E728  3C0BFFF7            lui $11, 65527
15091	E72C  356BFFFF            ori $11, $11, 65535
15092	E730  AFCB079C            sw $11, 1948($30)
15093	E734  3C0CFFFB            lui $12, 65531
15094	E738  358CFFFF            ori $12, $12, 65535
15095	E73C  AFCC07A0            sw $12, 1952($30)
15096	E740  3C0DFFFB            lui $13, 65531
15097	E744  35ADFFFF            ori $13, $13, 65535
15098	E748  AFCD07A4            sw $13, 1956($30)
15099	E74C  3C0EFFFD            lui $14, 65533
15100	E750  35CEFFFF            ori $14, $14, 65535
15101	E754  AFCE07A8            sw $14, 1960($30)
15102	E758  3C0FFFFD            lui $15, 65533
15103	E75C  35EFFFFF            ori $15, $15, 65535
15104	E760  AFCF07AC            sw $15, 1964($30)
15105	E764  3C08FFFE            lui $8, 65534
15106	E768  3508FFFF            ori $8, $8, 65535
15107	E76C  AFC807B0            sw $8, 1968($30)
15108	E770  3C09FFFE            lui $9, 65534
15109	E774  3529FFFF            ori $9, $9, 65535
15110	E778  AFC907B4            sw $9, 1972($30)
15111	E77C  3C0AFFFF            lui $10, 65535
15112	E780  354A7FFF            ori $10, $10, 32767
15113	E784  AFCA07B8            sw $10, 1976($30)
15114	E788  3C0BFFFF            lui $11, 65535
15115	E78C  356B7FFF            ori $11, $11, 32767
15116	E790  AFCB07BC            sw $11, 1980($30)
15117	E794  3C0CFFFF            lui $12, 65535
15118	E798  358CBFFF            ori $12, $12, 49151
15119	E79C  AFCC07C0            sw $12, 1984($30)
15120	E7A0  3C0DFFFF            lui $13, 65535
15121	E7A4  35ADBFFF            ori $13, $13, 49151
15122	E7A8  AFCD07C4            sw $13, 1988($30)
15123	E7AC  3C0EFFFF            lui $14, 65535
15124	E7B0  35CEDFFF            ori $14, $14, 57343
15125	E7B4  AFCE07C8            sw $14, 1992($30)
15126	E7B8  3C0FFFFF            lui $15, 65535
15127	E7BC  35EFDFFF            ori $15, $15, 57343
15128	E7C0  AFCF07CC            sw $15, 1996($30)
15129	E7C4  3C08FFFF            lui $8, 65535
15130	E7C8  3508EFFF            ori $8, $8, 61439
15131	E7CC  AFC807D0            sw $8, 2000($30)
15132	E7D0  3C09FFFF            lui $9, 65535
15133	E7D4  3529EFFF            ori $9, $9, 61439
15134	E7D8  AFC907D4            sw $9, 2004($30)
15135	E7DC  3C0AFFFF            lui $10, 65535
15136	E7E0  354AF7FF            ori $10, $10, 63487
15137	E7E4  AFCA07D8            sw $10, 2008($30)
15138	E7E8  3C0BFFFF            lui $11, 65535
15139	E7EC  356BF7FF            ori $11, $11, 63487
15140	E7F0  AFCB07DC            sw $11, 2012($30)
15141	E7F4  3C0CFFFF            lui $12, 65535
15142	E7F8  358CFBFF            ori $12, $12, 64511
15143	E7FC  AFCC07E0            sw $12, 2016($30)
15144	E800  3C0DFFFF            lui $13, 65535
15145	E804  35ADFBFF            ori $13, $13, 64511
15146	E808  AFCD07E4            sw $13, 2020($30)
15147	E80C  3C0EFFFF            lui $14, 65535
15148	E810  35CEFDFF            ori $14, $14, 65023
15149	E814  AFCE07E8            sw $14, 2024($30)
15150	E818  3C0FFFFF            lui $15, 65535
15151	E81C  35EFFDFF            ori $15, $15, 65023
15152	E820  AFCF07EC            sw $15, 2028($30)
15153	E824  3C08FFFF            lui $8, 65535
15154	E828  3508FEFF            ori $8, $8, 65279
15155	E82C  AFC807F0            sw $8, 2032($30)
15156	E830  3C09FFFF            lui $9, 65535
15157	E834  3529FEFF            ori $9, $9, 65279
15158	E838  AFC907F4            sw $9, 2036($30)
15159	E83C  3C0AFFFF            lui $10, 65535
15160	E840  354AFF7F            ori $10, $10, 65407
15161	E844  AFCA07F8            sw $10, 2040($30)
15162	E848  3C0BFFFF            lui $11, 65535
15163	E84C  356BFF7F            ori $11, $11, 65407
15164	E850  AFCB07FC            sw $11, 2044($30)
15165	E854  3C0CFFFF            lui $12, 65535
15166	E858  358CFFBF            ori $12, $12, 65471
15167	E85C  AFCC0800            sw $12, 2048($30)
15168	E860  3C0DFFFF            lui $13, 65535
15169	E864  35ADFFBF            ori $13, $13, 65471
15170	E868  AFCD0804            sw $13, 2052($30)
15171	E86C  3C0EFFFF            lui $14, 65535
15172	E870  35CEFFDF            ori $14, $14, 65503
15173	E874  AFCE0808            sw $14, 2056($30)
15174	E878  3C0FFFFF            lui $15, 65535
15175	E87C  35EFFFDF            ori $15, $15, 65503
15176	E880  AFCF080C            sw $15, 2060($30)
15177	E884  3C08FFFF            lui $8, 65535
15178	E888  3508FFEF            ori $8, $8, 65519
15179	E88C  AFC80810            sw $8, 2064($30)
15180	E890  3C09FFFF            lui $9, 65535
15181	E894  3529FFEF            ori $9, $9, 65519
15182	E898  AFC90814            sw $9, 2068($30)
15183	E89C  3C0AFFFF            lui $10, 65535
15184	E8A0  354AFFF7            ori $10, $10, 65527
15185	E8A4  AFCA0818            sw $10, 2072($30)
15186	E8A8  3C0BFFFF            lui $11, 65535
15187	E8AC  356BFFF7            ori $11, $11, 65527
15188	E8B0  AFCB081C            sw $11, 2076($30)
15189	E8B4  3C0CFFFF            lui $12, 65535
15190	E8B8  358CFFFB            ori $12, $12, 65531
15191	E8BC  AFCC0820            sw $12, 2080($30)
15192	E8C0  3C0DFFFF            lui $13, 65535
15193	E8C4  35ADFFFB            ori $13, $13, 65531
15194	E8C8  AFCD0824            sw $13, 2084($30)
15195	E8CC  3C0EFFFF            lui $14, 65535
15196	E8D0  35CEFFFD            ori $14, $14, 65533
15197	E8D4  AFCE0828            sw $14, 2088($30)
15198	E8D8  3C0FFFFF            lui $15, 65535
15199	E8DC  35EFFFFD            ori $15, $15, 65533
15200	E8E0  AFCF082C            sw $15, 2092($30)
15201	E8E4  3C08FFFF            lui $8, 65535
15202	E8E8  3508FFFE            ori $8, $8, 65534
15203	E8EC  AFC80830            sw $8, 2096($30)
15204	E8F0  3C09FFFF            lui $9, 65535
15205	E8F4  3529FFFE            ori $9, $9, 65534
15206	E8F8  AFC90834            sw $9, 2100($30)
15207	E8FC  03E00008            jr $31
15208	                          
15209	                          end:
15210	E900  08003A40              j end
15211	                          
Table des tiquettes :
end	E900
init_branch	DFE4
load_branch	DFD8
init_patterns	D044
lo_downward_0	CC80
lo_upward_1	CA24
hi_downward_0	C660
hi_upward_1	C404
lo_downward_1	C040
lo_upward_0	BDE4
hi_downward_1	BA20
hi_upward_0	B7C4
init_upward_0	B6D0
init_upward_1	B5DC
branch_bltzal	B5C8
branch_bltz	B5B4
branch_blez	B5A0
branch_bgtz	B58C
branch_bgezal	B578
branch_bgez	B564
branch_bne	B550
branch_beq	B53C
init_cp	B528
store	B51C
store_branch	B514
increment	B50C
increment_immediate	B500
increment_offset	B4F0
reset_hi_lo	B4E4
reset_offsets	B4D0
load_patterns	B4C4
hilo_register_operation	B498
breaks	B48C
operation_multu_psuedo	8414
operation_mult_psuedo	53A0
operation_sltu_psuedo	5364
operation_slt_psuedo	5328
operation_sra_psuedo	52FC
operation_srl_psuedo	52D0
operation_sll_psuedo	52A4
operation_nor_psuedo	5230
operation_xor_psuedo	51BC
operation_or_psuedo	5148
operation_and_psuedo	50D4
operation_subu_psuedo	4FD4
operation_addu_psuedo	4ED4
operation_sub_psuedo	4DD4
operation_add_psuedo	4CD0
syscalls	4CBC
operation_immediate	2864
operation_bltzal	2850
operation_bltz	283C
operation_blez	2828
operation_bgtz	2814
operation_bgezal	2800
operation_bgez	27EC
operation_bne	27D8
operation_beq	27C4
operation_lw0_sw0	27A8
operation_lw_sw	2794
operation_mfc0	276C
operation_mtc0	274C
operation_addi	1CE8
operation_op2	1C24
operation_mtlo_hi_lo	1C08
operation_mthi_hi_lo	1BEC
operation_multu_hi	1BC8
operation_multu_lo	1BA4
operation_mult_hi	1B80
operation_mult_lo	1B5C
operation_sra	1B44
operation_srl	1B2C
operation_sll	1B14
operation_sub	1AF4
operation_add	1AD0
cop0_register	18BC
continue	1054
pipeline_operation	0D4C
reg_special	00C8
main	00C8
_reset	0048
exception_handler	0008
