1	                          ;CODE MEMORY: (0x00000000-0x0000FFFF)
2	                          ;DATA MEMORY: (0x00010000-0x0001FFFF)
3	                          
4	                          org 0000
5	                          
6	0000  400D8000            mfc0 $16, $13
7	0004  12000011            beq $16, $0, _reset
8	                          
9	                          exception_handler:
10	0008  400C8000             mfc0 $16, $12
11	000C  400D8800             mfc0 $17, $13
12	0010  400E9800             mfc0 $19, $14
13	0014  400FA000             mfc0 $20, $15
14	0018  AFB00000             sw $16, 0($29)
15	001C  AFB10004             sw $17, 4($29)
16	0020  AFB30008             sw $19, 8($29)
17	0024  AFB4000C             sw $20, 12($29)
18	0028  22730004             addi $19, $19, 4
19	002C  40937000             mtc0 $19, $14
20	0030  400CA800             mfc0 $21, $12
21	0034  22B5FFFD             addi $21, $21, 65533
22	0038  36B50001             ori $21, $21, 1
23	003C  40956000             mtc0 $21, $12
24	0040  40200004             cop0 4
25	0044  02600008             jr $19
26	                          
27	                          _reset:
28	0048  00000026             xor $0, $0, $0
29	004C  00210826             xor $1, $1, $1
30	0050  00421026             xor $2, $2, $2
31	0054  00631826             xor $3, $3, $3
32	0058  00842026             xor $4, $4, $4
33	005C  00A52826             xor $5, $5, $5
34	0060  00C63026             xor $6, $6, $6
35	0064  00E73826             xor $7, $7, $7
36	0068  01084026             xor $8, $8, $8
37	006C  01294826             xor $9, $9, $9
38	0070  014A5026             xor $10, $10, $10
39	0074  016B5826             xor $11, $11, $11
40	0078  018C6026             xor $12, $12, $12
41	007C  01AD6826             xor $13, $13, $13
42	0080  01CE7026             xor $14, $14, $14
43	0084  01EF7826             xor $15, $15, $15
44	0088  02108026             xor $16, $16, $16
45	008C  02318826             xor $17, $17, $17
46	0090  02529026             xor $18, $18, $18
47	0094  02739826             xor $19, $19, $19
48	0098  0294A026             xor $20, $20, $20
49	009C  02B5A826             xor $21, $21, $21
50	00A0  02D6B026             xor $22, $22, $22
51	00A4  02F7B826             xor $23, $23, $23
52	00A8  0318C026             xor $24, $24, $24
53	00AC  0339C826             xor $25, $25, $25
54	00B0  035AD026             xor $26, $26, $26
55	00B4  037BD826             xor $27, $27, $27
56	00B8  039CE026             xor $28, $28, $28
57	00BC  03BDE826             xor $29, $29, $29
58	00C0  03DEF026             xor $30, $30, $30
59	00C4  03FFF826             xor $31, $31, $31
60	                          
61	                          main:
62	                          ;........initialize all registers..............;
63	                          reg_special:
64	00C8  3C00FFFF             lui $0, 65535
65	00CC  3400FFFF             ori $0, $0, 65535
66	00D0  3C01FFFF             lui $1, 65535
67	00D4  3421FFFF             ori $1, $1, 65535
68	00D8  3C02FFFF             lui $2, 65535
69	00DC  3442FFFF             ori $2, $2, 65535
70	00E0  3C03FFFF             lui $3, 65535
71	00E4  3463FFFF             ori $3, $3, 65535
72	00E8  3C04FFFF             lui $4, 65535
73	00EC  3484FFFF             ori $4, $4, 65535
74	00F0  3C05FFFF             lui $5, 65535
75	00F4  34A5FFFF             ori $5, $5, 65535
76	00F8  3C06FFFF             lui $6, 65535
77	00FC  34C6FFFF             ori $6, $6, 65535
78	0100  3C07FFFF             lui $7, 65535
79	0104  34E7FFFF             ori $7, $7, 65535
80	0108  3C08FFFF             lui $8, 65535
81	010C  3508FFFF             ori $8, $8, 65535
82	0110  3C09FFFF             lui $9, 65535
83	0114  3529FFFF             ori $9, $9, 65535
84	0118  3C0AFFFF             lui $10, 65535
85	011C  354AFFFF             ori $10, $10, 65535
86	0120  3C0BFFFF             lui $11, 65535
87	0124  356BFFFF             ori $11, $11, 65535
88	0128  3C0CFFFF             lui $12, 65535
89	012C  358CFFFF             ori $12, $12, 65535
90	0130  3C0DFFFF             lui $13, 65535
91	0134  35ADFFFF             ori $13, $13, 65535
92	0138  3C0EFFFF             lui $14, 65535
93	013C  35CEFFFF             ori $14, $14, 65535
94	0140  3C0FFFFF             lui $15, 65535
95	0144  35EFFFFF             ori $15, $15, 65535
96	0148  3C10FFFF             lui $16, 65535
97	014C  3610FFFF             ori $16, $16, 65535
98	0150  3C11FFFF             lui $17, 65535
99	0154  3631FFFF             ori $17, $17, 65535
100	0158  3C12FFFF             lui $18, 65535
101	015C  3652FFFF             ori $18, $18, 65535
102	0160  3C13FFFF             lui $19, 65535
103	0164  3673FFFF             ori $19, $19, 65535
104	0168  3C14FFFF             lui $20, 65535
105	016C  3694FFFF             ori $20, $20, 65535
106	0170  3C15FFFF             lui $21, 65535
107	0174  36B5FFFF             ori $21, $21, 65535
108	0178  3C16FFFF             lui $22, 65535
109	017C  36D6FFFF             ori $22, $22, 65535
110	0180  3C17FFFF             lui $23, 65535
111	0184  36F7FFFF             ori $23, $23, 65535
112	0188  3C18FFFF             lui $24, 65535
113	018C  3718FFFF             ori $24, $24, 65535
114	0190  3C19FFFF             lui $25, 65535
115	0194  3739FFFF             ori $25, $25, 65535
116	0198  3C1AFFFF             lui $26, 65535
117	019C  375AFFFF             ori $26, $26, 65535
118	01A0  3C1BFFFF             lui $27, 65535
119	01A4  377BFFFF             ori $27, $27, 65535
120	01A8  3C1CFFFF             lui $28, 65535
121	01AC  379CFFFF             ori $28, $28, 65535
122	01B0  3C1DFFFF             lui $29, 65535
123	01B4  37BDFFFF             ori $29, $29, 65535
124	01B8  3C1EFFFF             lui $30, 65535
125	01BC  37DEFFFF             ori $30, $30, 65535
126	01C0  3C1FFFFF             lui $31, 65535
127	01C4  37FFFFFF             ori $31, $31, 65535
128	                          
129	                          ;........test special purpose registers........;
130	01C8  3C010001             lui $1, 1
131	01CC  342107D0             ori $1, $1, 2000
132	                          
133	01D0  00000024             and $0, $0, $0
134	01D4  AC200000             sw $0, 0($1)
135	01D8  3C000000             lui $0, 0
136	01DC  34000000             ori $0, $0, 0
137	01E0  00421024             and $2, $2, $2
138	01E4  AC220004             sw $2, 4($1)
139	01E8  3C020000             lui $2, 0
140	01EC  34420000             ori $2, $2, 0
141	01F0  00631824             and $3, $3, $3
142	01F4  AC230008             sw $3, 8($1)
143	01F8  3C030000             lui $3, 0
144	01FC  34630000             ori $3, $3, 0
145	0200  00842024             and $4, $4, $4
146	0204  AC24000C             sw $4, 12($1)
147	0208  3C040000             lui $4, 0
148	020C  34840000             ori $4, $4, 0
149	0210  00A52824             and $5, $5, $5
150	0214  AC250010             sw $5, 16($1)
151	0218  3C050000             lui $5, 0
152	021C  34A50000             ori $5, $5, 0
153	0220  00C63024             and $6, $6, $6
154	0224  AC260014             sw $6, 20($1)
155	0228  3C060000             lui $6, 0
156	022C  34C60000             ori $6, $6, 0
157	0230  00E73824             and $7, $7, $7
158	0234  AC270018             sw $7, 24($1)
159	0238  3C070000             lui $7, 0
160	023C  34E70000             ori $7, $7, 0
161	0240  01084024             and $8, $8, $8
162	0244  AC28001C             sw $8, 28($1)
163	0248  3C080000             lui $8, 0
164	024C  35080000             ori $8, $8, 0
165	0250  01294824             and $9, $9, $9
166	0254  AC290020             sw $9, 32($1)
167	0258  3C090000             lui $9, 0
168	025C  35290000             ori $9, $9, 0
169	0260  014A5024             and $10, $10, $10
170	0264  AC2A0024             sw $10, 36($1)
171	0268  3C0A0000             lui $10, 0
172	026C  354A0000             ori $10, $10, 0
173	0270  016B5824             and $11, $11, $11
174	0274  AC2B0028             sw $11, 40($1)
175	0278  3C0B0000             lui $11, 0
176	027C  356B0000             ori $11, $11, 0
177	0280  018C6024             and $12, $12, $12
178	0284  AC2C002C             sw $12, 44($1)
179	0288  3C0C0000             lui $12, 0
180	028C  358C0000             ori $12, $12, 0
181	0290  01AD6824             and $13, $13, $13
182	0294  AC2D0030             sw $13, 48($1)
183	0298  3C0D0000             lui $13, 0
184	029C  35AD0000             ori $13, $13, 0
185	02A0  01CE7024             and $14, $14, $14
186	02A4  AC2E0034             sw $14, 52($1)
187	02A8  3C0E0000             lui $14, 0
188	02AC  35CE0000             ori $14, $14, 0
189	02B0  01EF7824             and $15, $15, $15
190	02B4  AC2F0038             sw $15, 56($1)
191	02B8  3C0F0000             lui $15, 0
192	02BC  35EF0000             ori $15, $15, 0
193	02C0  02108024             and $16, $16, $16
194	02C4  AC30003C             sw $16, 60($1)
195	02C8  3C100000             lui $16, 0
196	02CC  36100000             ori $16, $16, 0
197	02D0  02318824             and $17, $17, $17
198	02D4  AC310040             sw $17, 64($1)
199	02D8  3C110000             lui $17, 0
200	02DC  36310000             ori $17, $17, 0
201	02E0  02529024             and $18, $18, $18
202	02E4  AC320044             sw $18, 68($1)
203	02E8  3C120000             lui $18, 0
204	02EC  36520000             ori $18, $18, 0
205	02F0  02739824             and $19, $19, $19
206	02F4  AC330048             sw $19, 72($1)
207	02F8  3C130000             lui $19, 0
208	02FC  36730000             ori $19, $19, 0
209	0300  0294A024             and $20, $20, $20
210	0304  AC34004C             sw $20, 76($1)
211	0308  3C140000             lui $20, 0
212	030C  36940000             ori $20, $20, 0
213	0310  02B5A824             and $21, $21, $21
214	0314  AC350050             sw $21, 80($1)
215	0318  3C150000             lui $21, 0
216	031C  36B50000             ori $21, $21, 0
217	0320  02D6B024             and $22, $22, $22
218	0324  AC360054             sw $22, 84($1)
219	0328  3C160000             lui $22, 0
220	032C  36D60000             ori $22, $22, 0
221	0330  02F7B824             and $23, $23, $23
222	0334  AC370058             sw $23, 88($1)
223	0338  3C170000             lui $23, 0
224	033C  36F70000             ori $23, $23, 0
225	0340  0318C024             and $24, $24, $24
226	0344  AC38005C             sw $24, 92($1)
227	0348  3C180000             lui $24, 0
228	034C  37180000             ori $24, $24, 0
229	0350  0339C824             and $25, $25, $25
230	0354  AC390060             sw $25, 96($1)
231	0358  3C190000             lui $25, 0
232	035C  37390000             ori $25, $25, 0
233	0360  035AD024             and $26, $26, $26
234	0364  AC3A0064             sw $26, 100($1)
235	0368  3C1A0000             lui $26, 0
236	036C  375A0000             ori $26, $26, 0
237	0370  037BD824             and $27, $27, $27
238	0374  AC3B0068             sw $27, 104($1)
239	0378  3C1B0000             lui $27, 0
240	037C  377B0000             ori $27, $27, 0
241	0380  039CE024             and $28, $28, $28
242	0384  AC3C006C             sw $28, 108($1)
243	0388  3C1C0000             lui $28, 0
244	038C  379C0000             ori $28, $28, 0
245	0390  03BDE824             and $29, $29, $29
246	0394  AC3D0070             sw $29, 112($1)
247	0398  3C1D0000             lui $29, 0
248	039C  37BD0000             ori $29, $29, 0
249	03A0  03DEF024             and $30, $30, $30
250	03A4  AC3E0074             sw $30, 116($1)
251	03A8  3C1E0000             lui $30, 0
252	03AC  37DE0000             ori $30, $30, 0
253	03B0  03FFF824             and $31, $31, $31
254	03B4  AC3F0078             sw $31, 120($1)
255	03B8  3C1F0000             lui $31, 0
256	03BC  37FF0000             ori $31, $31, 0
257	                          
258	03C0  00000027             nor $0, $0, $0
259	03C4  AC20007C             sw $0, 124($1)
260	03C8  3C00FFFF             lui $0, 65535
261	03CC  3400FFFF             ori $0, $0, 65535
262	03D0  00000024             and $0, $0, $0
263	03D4  AC200080             sw $0, 128($1)
264	03D8  03FFF827             nor $31, $31, $31
265	03DC  AC3F0084             sw $31, 132($1)
266	03E0  3C1FFFFF             lui $31, 65535
267	03E4  37FFFFFF             ori $31, $31, 65535
268	03E8  03FFF824             and $31, $31, $31
269	03EC  AC3F0088             sw $31, 136($1)
270	03F0  03DEF027             nor $30, $30, $30
271	03F4  AC3E008C             sw $30, 140($1)
272	03F8  3C1EFFFF             lui $30, 65535
273	03FC  37DEFFFF             ori $30, $30, 65535
274	0400  03DEF024             and $30, $30, $30
275	0404  AC3E0090             sw $30, 144($1)
276	0408  03BDE827             nor $29, $29, $29
277	040C  AC3D0094             sw $29, 148($1)
278	0410  3C1DFFFF             lui $29, 65535
279	0414  37BDFFFF             ori $29, $29, 65535
280	0418  03BDE824             and $29, $29, $29
281	041C  AC3D0098             sw $29, 152($1)
282	0420  039CE027             nor $28, $28, $28
283	0424  AC3C009C             sw $28, 156($1)
284	0428  3C1CFFFF             lui $28, 65535
285	042C  379CFFFF             ori $28, $28, 65535
286	0430  039CE024             and $28, $28, $28
287	0434  AC3C00A0             sw $28, 160($1)
288	0438  037BD827             nor $27, $27, $27
289	043C  AC3B00A4             sw $27, 164($1)
290	0440  3C1BFFFF             lui $27, 65535
291	0444  377BFFFF             ori $27, $27, 65535
292	0448  037BD824             and $27, $27, $27
293	044C  AC3B00A8             sw $27, 168($1)
294	0450  035AD027             nor $26, $26, $26
295	0454  AC3A00AC             sw $26, 172($1)
296	0458  3C1AFFFF             lui $26, 65535
297	045C  375AFFFF             ori $26, $26, 65535
298	0460  035AD024             and $26, $26, $26
299	0464  AC3A00B0             sw $26, 176($1)
300	0468  0339C827             nor $25, $25, $25
301	046C  AC3900B4             sw $25, 180($1)
302	0470  3C19FFFF             lui $25, 65535
303	0474  3739FFFF             ori $25, $25, 65535
304	0478  0339C824             and $25, $25, $25
305	047C  AC3900B8             sw $25, 184($1)
306	0480  0318C027             nor $24, $24, $24
307	0484  AC3800BC             sw $24, 188($1)
308	0488  3C18FFFF             lui $24, 65535
309	048C  3718FFFF             ori $24, $24, 65535
310	0490  0318C024             and $24, $24, $24
311	0494  AC3800C0             sw $24, 192($1)
312	0498  02F7B827             nor $23, $23, $23
313	049C  AC3700C4             sw $23, 196($1)
314	04A0  3C17FFFF             lui $23, 65535
315	04A4  36F7FFFF             ori $23, $23, 65535
316	04A8  02F7B824             and $23, $23, $23
317	04AC  AC3700C8             sw $23, 200($1)
318	04B0  02D6B027             nor $22, $22, $22
319	04B4  AC3600CC             sw $22, 204($1)
320	04B8  3C16FFFF             lui $22, 65535
321	04BC  36D6FFFF             ori $22, $22, 65535
322	04C0  02D6B024             and $22, $22, $22
323	04C4  AC3600D0             sw $22, 208($1)
324	04C8  02B5A827             nor $21, $21, $21
325	04CC  AC3500D4             sw $21, 212($1)
326	04D0  3C15FFFF             lui $21, 65535
327	04D4  36B5FFFF             ori $21, $21, 65535
328	04D8  02B5A824             and $21, $21, $21
329	04DC  AC3500D8             sw $21, 216($1)
330	04E0  0294A027             nor $20, $20, $20
331	04E4  AC3400DC             sw $20, 220($1)
332	04E8  3C14FFFF             lui $20, 65535
333	04EC  3694FFFF             ori $20, $20, 65535
334	04F0  0294A024             and $20, $20, $20
335	04F4  AC3400E0             sw $20, 224($1)
336	04F8  02739827             nor $19, $19, $19
337	04FC  AC3300E4             sw $19, 228($1)
338	0500  3C13FFFF             lui $19, 65535
339	0504  3673FFFF             ori $19, $19, 65535
340	0508  02739824             and $19, $19, $19
341	050C  AC3300E8             sw $19, 232($1)
342	0510  02529027             nor $18, $18, $18
343	0514  AC3200EC             sw $18, 236($1)
344	0518  3C12FFFF             lui $18, 65535
345	051C  3652FFFF             ori $18, $18, 65535
346	0520  02529024             and $18, $18, $18
347	0524  AC3200F0             sw $18, 240($1)
348	0528  02318827             nor $17, $17, $17
349	052C  AC3100F4             sw $17, 244($1)
350	0530  3C11FFFF             lui $17, 65535
351	0534  3631FFFF             ori $17, $17, 65535
352	0538  02318824             and $17, $17, $17
353	053C  AC3100F8             sw $17, 248($1)
354	0540  02108027             nor $16, $16, $16
355	0544  AC3000FC             sw $16, 252($1)
356	0548  3C10FFFF             lui $16, 65535
357	054C  3610FFFF             ori $16, $16, 65535
358	0550  02108024             and $16, $16, $16
359	0554  AC300100             sw $16, 256($1)
360	0558  01EF7827             nor $15, $15, $15
361	055C  AC2F0104             sw $15, 260($1)
362	0560  3C0FFFFF             lui $15, 65535
363	0564  35EFFFFF             ori $15, $15, 65535
364	0568  01EF7824             and $15, $15, $15
365	056C  AC2F0108             sw $15, 264($1)
366	0570  01CE7027             nor $14, $14, $14
367	0574  AC2E010C             sw $14, 268($1)
368	0578  3C0EFFFF             lui $14, 65535
369	057C  35CEFFFF             ori $14, $14, 65535
370	0580  01CE7024             and $14, $14, $14
371	0584  AC2E0110             sw $14, 272($1)
372	0588  01AD6827             nor $13, $13, $13
373	058C  AC2D0114             sw $13, 276($1)
374	0590  3C0DFFFF             lui $13, 65535
375	0594  35ADFFFF             ori $13, $13, 65535
376	0598  01AD6824             and $13, $13, $13
377	059C  AC2D0118             sw $13, 280($1)
378	05A0  018C6027             nor $12, $12, $12
379	05A4  AC2C011C             sw $12, 284($1)
380	05A8  3C0CFFFF             lui $12, 65535
381	05AC  358CFFFF             ori $12, $12, 65535
382	05B0  018C6024             and $12, $12, $12
383	05B4  AC2C0120             sw $12, 288($1)
384	05B8  016B5827             nor $11, $11, $11
385	05BC  AC2B0124             sw $11, 292($1)
386	05C0  3C0BFFFF             lui $11, 65535
387	05C4  356BFFFF             ori $11, $11, 65535
388	05C8  016B5824             and $11, $11, $11
389	05CC  AC2B0128             sw $11, 296($1)
390	05D0  014A5027             nor $10, $10, $10
391	05D4  AC2A012C             sw $10, 300($1)
392	05D8  3C0AFFFF             lui $10, 65535
393	05DC  354AFFFF             ori $10, $10, 65535
394	05E0  014A5024             and $10, $10, $10
395	05E4  AC2A0130             sw $10, 304($1)
396	05E8  01294827             nor $9, $9, $9
397	05EC  AC290134             sw $9, 308($1)
398	05F0  3C09FFFF             lui $9, 65535
399	05F4  3529FFFF             ori $9, $9, 65535
400	05F8  01294824             and $9, $9, $9
401	05FC  AC290138             sw $9, 312($1)
402	0600  01084027             nor $8, $8, $8
403	0604  AC28013C             sw $8, 316($1)
404	0608  3C08FFFF             lui $8, 65535
405	060C  3508FFFF             ori $8, $8, 65535
406	0610  01084024             and $8, $8, $8
407	0614  AC280140             sw $8, 320($1)
408	0618  00E73827             nor $7, $7, $7
409	061C  AC270144             sw $7, 324($1)
410	0620  3C07FFFF             lui $7, 65535
411	0624  34E7FFFF             ori $7, $7, 65535
412	0628  00E73824             and $7, $7, $7
413	062C  AC270148             sw $7, 328($1)
414	0630  00C63027             nor $6, $6, $6
415	0634  AC26014C             sw $6, 332($1)
416	0638  3C06FFFF             lui $6, 65535
417	063C  34C6FFFF             ori $6, $6, 65535
418	0640  00C63024             and $6, $6, $6
419	0644  AC260150             sw $6, 336($1)
420	0648  00A52827             nor $5, $5, $5
421	064C  AC250154             sw $5, 340($1)
422	0650  3C05FFFF             lui $5, 65535
423	0654  34A5FFFF             ori $5, $5, 65535
424	0658  00A52824             and $5, $5, $5
425	065C  AC250158             sw $5, 344($1)
426	0660  00842027             nor $4, $4, $4
427	0664  AC24015C             sw $4, 348($1)
428	0668  3C04FFFF             lui $4, 65535
429	066C  3484FFFF             ori $4, $4, 65535
430	0670  00842024             and $4, $4, $4
431	0674  AC240160             sw $4, 352($1)
432	0678  00631827             nor $3, $3, $3
433	067C  AC230164             sw $3, 356($1)
434	0680  3C03FFFF             lui $3, 65535
435	0684  3463FFFF             ori $3, $3, 65535
436	0688  00631824             and $3, $3, $3
437	068C  AC230168             sw $3, 360($1)
438	0690  00421027             nor $2, $2, $2
439	0694  AC22016C             sw $2, 364($1)
440	0698  3C02FFFF             lui $2, 65535
441	069C  3442FFFF             ori $2, $2, 65535
442	06A0  00421024             and $2, $2, $2
443	06A4  AC220170             sw $2, 368($1)
444	                          
445	                          ;.............special register mirror.............;
446	06A8  3C000000             lui $0, 0
447	06AC  34000000             ori $0, $0, 0
448	06B0  3C020000             lui $2, 0
449	06B4  34420000             ori $2, $2, 0
450	06B8  3C030000             lui $3, 0
451	06BC  34630000             ori $3, $3, 0
452	06C0  3C040000             lui $4, 0
453	06C4  34840000             ori $4, $4, 0
454	06C8  3C050000             lui $5, 0
455	06CC  34A50000             ori $5, $5, 0
456	06D0  3C060000             lui $6, 0
457	06D4  34C60000             ori $6, $6, 0
458	06D8  3C070000             lui $7, 0
459	06DC  34E70000             ori $7, $7, 0
460	06E0  3C080000             lui $8, 0
461	06E4  35080000             ori $8, $8, 0
462	06E8  3C090000             lui $9, 0
463	06EC  35290000             ori $9, $9, 0
464	06F0  3C0A0000             lui $10, 0
465	06F4  354A0000             ori $10, $10, 0
466	06F8  3C0B0000             lui $11, 0
467	06FC  356B0000             ori $11, $11, 0
468	0700  3C0C0000             lui $12, 0
469	0704  358C0000             ori $12, $12, 0
470	0708  3C0D0000             lui $13, 0
471	070C  35AD0000             ori $13, $13, 0
472	0710  3C0E0000             lui $14, 0
473	0714  35CE0000             ori $14, $14, 0
474	0718  3C0F0000             lui $15, 0
475	071C  35EF0000             ori $15, $15, 0
476	0720  3C100000             lui $16, 0
477	0724  36100000             ori $16, $16, 0
478	0728  3C110000             lui $17, 0
479	072C  36310000             ori $17, $17, 0
480	0730  3C120000             lui $18, 0
481	0734  36520000             ori $18, $18, 0
482	0738  3C130000             lui $19, 0
483	073C  36730000             ori $19, $19, 0
484	0740  3C140000             lui $20, 0
485	0744  36940000             ori $20, $20, 0
486	0748  3C150000             lui $21, 0
487	074C  36B50000             ori $21, $21, 0
488	0750  3C160000             lui $22, 0
489	0754  36D60000             ori $22, $22, 0
490	0758  3C170000             lui $23, 0
491	075C  36F70000             ori $23, $23, 0
492	0760  3C180000             lui $24, 0
493	0764  37180000             ori $24, $24, 0
494	0768  3C190000             lui $25, 0
495	076C  37390000             ori $25, $25, 0
496	0770  3C1A0000             lui $26, 0
497	0774  375A0000             ori $26, $26, 0
498	0778  3C1B0000             lui $27, 0
499	077C  377B0000             ori $27, $27, 0
500	0780  3C1C0000             lui $28, 0
501	0784  379C0000             ori $28, $28, 0
502	0788  3C1D0000             lui $29, 0
503	078C  37BD0000             ori $29, $29, 0
504	0790  3C1E0000             lui $30, 0
505	0794  37DE0000             ori $30, $30, 0
506	0798  3C1F0000             lui $31, 0
507	079C  37FF0000             ori $31, $31, 0
508	                          
509	07A0  00000027             nor $0, $0, $0
510	07A4  AC200174             sw $0, 372($1)
511	07A8  3C00FFFF             lui $0, 65535
512	07AC  3400FFFF             ori $0, $0, 65535
513	07B0  00421027             nor $2, $2, $2
514	07B4  AC220178             sw $2, 376($1)
515	07B8  3C02FFFF             lui $2, 65535
516	07BC  3442FFFF             ori $2, $2, 65535
517	07C0  00631827             nor $3, $3, $3
518	07C4  AC23017C             sw $3, 380($1)
519	07C8  3C03FFFF             lui $3, 65535
520	07CC  3463FFFF             ori $3, $3, 65535
521	07D0  00842027             nor $4, $4, $4
522	07D4  AC240180             sw $4, 384($1)
523	07D8  3C04FFFF             lui $4, 65535
524	07DC  3484FFFF             ori $4, $4, 65535
525	07E0  00A52827             nor $5, $5, $5
526	07E4  AC250184             sw $5, 388($1)
527	07E8  3C05FFFF             lui $5, 65535
528	07EC  34A5FFFF             ori $5, $5, 65535
529	07F0  00C63027             nor $6, $6, $6
530	07F4  AC260188             sw $6, 392($1)
531	07F8  3C06FFFF             lui $6, 65535
532	07FC  34C6FFFF             ori $6, $6, 65535
533	0800  00E73827             nor $7, $7, $7
534	0804  AC27018C             sw $7, 396($1)
535	0808  3C07FFFF             lui $7, 65535
536	080C  34E7FFFF             ori $7, $7, 65535
537	0810  01084027             nor $8, $8, $8
538	0814  AC280190             sw $8, 400($1)
539	0818  3C08FFFF             lui $8, 65535
540	081C  3508FFFF             ori $8, $8, 65535
541	0820  01294827             nor $9, $9, $9
542	0824  AC290194             sw $9, 404($1)
543	0828  3C09FFFF             lui $9, 65535
544	082C  3529FFFF             ori $9, $9, 65535
545	0830  014A5027             nor $10, $10, $10
546	0834  AC2A0198             sw $10, 408($1)
547	0838  3C0AFFFF             lui $10, 65535
548	083C  354AFFFF             ori $10, $10, 65535
549	0840  016B5827             nor $11, $11, $11
550	0844  AC2B019C             sw $11, 412($1)
551	0848  3C0BFFFF             lui $11, 65535
552	084C  356BFFFF             ori $11, $11, 65535
553	0850  018C6027             nor $12, $12, $12
554	0854  AC2C01A0             sw $12, 416($1)
555	0858  3C0CFFFF             lui $12, 65535
556	085C  358CFFFF             ori $12, $12, 65535
557	0860  01AD6827             nor $13, $13, $13
558	0864  AC2D01A4             sw $13, 420($1)
559	0868  3C0DFFFF             lui $13, 65535
560	086C  35ADFFFF             ori $13, $13, 65535
561	0870  01CE7027             nor $14, $14, $14
562	0874  AC2E01A8             sw $14, 424($1)
563	0878  3C0EFFFF             lui $14, 65535
564	087C  35CEFFFF             ori $14, $14, 65535
565	0880  01EF7827             nor $15, $15, $15
566	0884  AC2F01AC             sw $15, 428($1)
567	0888  3C0FFFFF             lui $15, 65535
568	088C  35EFFFFF             ori $15, $15, 65535
569	0890  02108027             nor $16, $16, $16
570	0894  AC3001B0             sw $16, 432($1)
571	0898  3C10FFFF             lui $16, 65535
572	089C  3610FFFF             ori $16, $16, 65535
573	08A0  02318827             nor $17, $17, $17
574	08A4  AC3101B4             sw $17, 436($1)
575	08A8  3C11FFFF             lui $17, 65535
576	08AC  3631FFFF             ori $17, $17, 65535
577	08B0  02529027             nor $18, $18, $18
578	08B4  AC3201B8             sw $18, 440($1)
579	08B8  3C12FFFF             lui $18, 65535
580	08BC  3652FFFF             ori $18, $18, 65535
581	08C0  02739827             nor $19, $19, $19
582	08C4  AC3301BC             sw $19, 444($1)
583	08C8  3C13FFFF             lui $19, 65535
584	08CC  3673FFFF             ori $19, $19, 65535
585	08D0  0294A027             nor $20, $20, $20
586	08D4  AC3401C0             sw $20, 448($1)
587	08D8  3C14FFFF             lui $20, 65535
588	08DC  3694FFFF             ori $20, $20, 65535
589	08E0  02B5A827             nor $21, $21, $21
590	08E4  AC3501C4             sw $21, 452($1)
591	08E8  3C15FFFF             lui $21, 65535
592	08EC  36B5FFFF             ori $21, $21, 65535
593	08F0  02D6B027             nor $22, $22, $22
594	08F4  AC3601C8             sw $22, 456($1)
595	08F8  3C16FFFF             lui $22, 65535
596	08FC  36D6FFFF             ori $22, $22, 65535
597	0900  02F7B827             nor $23, $23, $23
598	0904  AC3701CC             sw $23, 460($1)
599	0908  3C17FFFF             lui $23, 65535
600	090C  36F7FFFF             ori $23, $23, 65535
601	0910  0318C027             nor $24, $24, $24
602	0914  AC3801D0             sw $24, 464($1)
603	0918  3C18FFFF             lui $24, 65535
604	091C  3718FFFF             ori $24, $24, 65535
605	0920  0339C827             nor $25, $25, $25
606	0924  AC3901D4             sw $25, 468($1)
607	0928  3C19FFFF             lui $25, 65535
608	092C  3739FFFF             ori $25, $25, 65535
609	0930  035AD027             nor $26, $26, $26
610	0934  AC3A01D8             sw $26, 472($1)
611	0938  3C1AFFFF             lui $26, 65535
612	093C  375AFFFF             ori $26, $26, 65535
613	0940  037BD827             nor $27, $27, $27
614	0944  AC3B01DC             sw $27, 476($1)
615	0948  3C1BFFFF             lui $27, 65535
616	094C  377BFFFF             ori $27, $27, 65535
617	0950  039CE027             nor $28, $28, $28
618	0954  AC3C01E0             sw $28, 480($1)
619	0958  3C1CFFFF             lui $28, 65535
620	095C  379CFFFF             ori $28, $28, 65535
621	0960  03BDE827             nor $29, $29, $29
622	0964  AC3D01E4             sw $29, 484($1)
623	0968  3C1DFFFF             lui $29, 65535
624	096C  37BDFFFF             ori $29, $29, 65535
625	0970  03DEF027             nor $30, $30, $30
626	0974  AC3E01E8             sw $30, 488($1)
627	0978  3C1EFFFF             lui $30, 65535
628	097C  37DEFFFF             ori $30, $30, 65535
629	0980  03FFF827             nor $31, $31, $31
630	0984  AC3F01EC             sw $31, 492($1)
631	0988  3C1FFFFF             lui $31, 65535
632	098C  37FFFFFF             ori $31, $31, 65535
633	                          
634	0990  00000024             and $0, $0, $0
635	0994  AC2001F0             sw $0, 496($1)
636	0998  3C000000             lui $0, 0
637	099C  34000000             ori $0, $0, 0
638	09A0  00000024             and $0, $0, $0
639	09A4  AC2001F4             sw $0, 500($1)
640	09A8  03FFF824             and $31, $31, $31
641	09AC  AC3F01F8             sw $31, 504($1)
642	09B0  3C1F0000             lui $31, 0
643	09B4  37FF0000             ori $31, $31, 0
644	09B8  03FFF824             and $31, $31, $31
645	09BC  AC3F01FC             sw $31, 508($1)
646	09C0  03DEF024             and $30, $30, $30
647	09C4  AC3E0200             sw $30, 512($1)
648	09C8  3C1E0000             lui $30, 0
649	09CC  37DE0000             ori $30, $30, 0
650	09D0  03DEF024             and $30, $30, $30
651	09D4  AC3E0204             sw $30, 516($1)
652	09D8  03BDE824             and $29, $29, $29
653	09DC  AC3D0208             sw $29, 520($1)
654	09E0  3C1D0000             lui $29, 0
655	09E4  37BD0000             ori $29, $29, 0
656	09E8  03BDE824             and $29, $29, $29
657	09EC  AC3D020C             sw $29, 524($1)
658	09F0  039CE024             and $28, $28, $28
659	09F4  AC3C0210             sw $28, 528($1)
660	09F8  3C1C0000             lui $28, 0
661	09FC  379C0000             ori $28, $28, 0
662	0A00  039CE024             and $28, $28, $28
663	0A04  AC3C0214             sw $28, 532($1)
664	0A08  037BD824             and $27, $27, $27
665	0A0C  AC3B0218             sw $27, 536($1)
666	0A10  3C1B0000             lui $27, 0
667	0A14  377B0000             ori $27, $27, 0
668	0A18  037BD824             and $27, $27, $27
669	0A1C  AC3B021C             sw $27, 540($1)
670	0A20  035AD024             and $26, $26, $26
671	0A24  AC3A0220             sw $26, 544($1)
672	0A28  3C1A0000             lui $26, 0
673	0A2C  375A0000             ori $26, $26, 0
674	0A30  035AD024             and $26, $26, $26
675	0A34  AC3A0224             sw $26, 548($1)
676	0A38  0339C824             and $25, $25, $25
677	0A3C  AC390228             sw $25, 552($1)
678	0A40  3C190000             lui $25, 0
679	0A44  37390000             ori $25, $25, 0
680	0A48  0339C824             and $25, $25, $25
681	0A4C  AC39022C             sw $25, 556($1)
682	0A50  0318C024             and $24, $24, $24
683	0A54  AC380230             sw $24, 560($1)
684	0A58  3C180000             lui $24, 0
685	0A5C  37180000             ori $24, $24, 0
686	0A60  0318C024             and $24, $24, $24
687	0A64  AC380234             sw $24, 564($1)
688	0A68  02F7B824             and $23, $23, $23
689	0A6C  AC370238             sw $23, 568($1)
690	0A70  3C170000             lui $23, 0
691	0A74  36F70000             ori $23, $23, 0
692	0A78  02F7B824             and $23, $23, $23
693	0A7C  AC37023C             sw $23, 572($1)
694	0A80  02D6B024             and $22, $22, $22
695	0A84  AC360240             sw $22, 576($1)
696	0A88  3C160000             lui $22, 0
697	0A8C  36D60000             ori $22, $22, 0
698	0A90  02D6B024             and $22, $22, $22
699	0A94  AC360244             sw $22, 580($1)
700	0A98  02B5A824             and $21, $21, $21
701	0A9C  AC350248             sw $21, 584($1)
702	0AA0  3C150000             lui $21, 0
703	0AA4  36B50000             ori $21, $21, 0
704	0AA8  02B5A824             and $21, $21, $21
705	0AAC  AC35024C             sw $21, 588($1)
706	0AB0  0294A024             and $20, $20, $20
707	0AB4  AC340250             sw $20, 592($1)
708	0AB8  3C140000             lui $20, 0
709	0ABC  36940000             ori $20, $20, 0
710	0AC0  0294A024             and $20, $20, $20
711	0AC4  AC340254             sw $20, 596($1)
712	0AC8  02739824             and $19, $19, $19
713	0ACC  AC330258             sw $19, 600($1)
714	0AD0  3C130000             lui $19, 0
715	0AD4  36730000             ori $19, $19, 0
716	0AD8  02739824             and $19, $19, $19
717	0ADC  AC33025C             sw $19, 604($1)
718	0AE0  02529024             and $18, $18, $18
719	0AE4  AC320260             sw $18, 608($1)
720	0AE8  3C120000             lui $18, 0
721	0AEC  36520000             ori $18, $18, 0
722	0AF0  02529024             and $18, $18, $18
723	0AF4  AC320264             sw $18, 612($1)
724	0AF8  02318824             and $17, $17, $17
725	0AFC  AC310268             sw $17, 616($1)
726	0B00  3C110000             lui $17, 0
727	0B04  36310000             ori $17, $17, 0
728	0B08  02318824             and $17, $17, $17
729	0B0C  AC31026C             sw $17, 620($1)
730	0B10  02108024             and $16, $16, $16
731	0B14  AC300270             sw $16, 624($1)
732	0B18  3C100000             lui $16, 0
733	0B1C  36100000             ori $16, $16, 0
734	0B20  02108024             and $16, $16, $16
735	0B24  AC300274             sw $16, 628($1)
736	0B28  01EF7824             and $15, $15, $15
737	0B2C  AC2F0278             sw $15, 632($1)
738	0B30  3C0F0000             lui $15, 0
739	0B34  35EF0000             ori $15, $15, 0
740	0B38  01EF7824             and $15, $15, $15
741	0B3C  AC2F027C             sw $15, 636($1)
742	0B40  01CE7024             and $14, $14, $14
743	0B44  AC2E0280             sw $14, 640($1)
744	0B48  3C0E0000             lui $14, 0
745	0B4C  35CE0000             ori $14, $14, 0
746	0B50  01CE7024             and $14, $14, $14
747	0B54  AC2E0284             sw $14, 644($1)
748	0B58  01AD6824             and $13, $13, $13
749	0B5C  AC2D0288             sw $13, 648($1)
750	0B60  3C0D0000             lui $13, 0
751	0B64  35AD0000             ori $13, $13, 0
752	0B68  01AD6824             and $13, $13, $13
753	0B6C  AC2D028C             sw $13, 652($1)
754	0B70  018C6024             and $12, $12, $12
755	0B74  AC2C0290             sw $12, 656($1)
756	0B78  3C0C0000             lui $12, 0
757	0B7C  358C0000             ori $12, $12, 0
758	0B80  018C6024             and $12, $12, $12
759	0B84  AC2C0294             sw $12, 660($1)
760	0B88  016B5824             and $11, $11, $11
761	0B8C  AC2B0298             sw $11, 664($1)
762	0B90  3C0B0000             lui $11, 0
763	0B94  356B0000             ori $11, $11, 0
764	0B98  016B5824             and $11, $11, $11
765	0B9C  AC2B029C             sw $11, 668($1)
766	0BA0  014A5024             and $10, $10, $10
767	0BA4  AC2A02A0             sw $10, 672($1)
768	0BA8  3C0A0000             lui $10, 0
769	0BAC  354A0000             ori $10, $10, 0
770	0BB0  014A5024             and $10, $10, $10
771	0BB4  AC2A02A4             sw $10, 676($1)
772	0BB8  01294824             and $9, $9, $9
773	0BBC  AC2902A8             sw $9, 680($1)
774	0BC0  3C090000             lui $9, 0
775	0BC4  35290000             ori $9, $9, 0
776	0BC8  01294824             and $9, $9, $9
777	0BCC  AC2902AC             sw $9, 684($1)
778	0BD0  01084024             and $8, $8, $8
779	0BD4  AC2802B0             sw $8, 688($1)
780	0BD8  3C080000             lui $8, 0
781	0BDC  35080000             ori $8, $8, 0
782	0BE0  01084024             and $8, $8, $8
783	0BE4  AC2802B4             sw $8, 692($1)
784	0BE8  00E73824             and $7, $7, $7
785	0BEC  AC2702B8             sw $7, 696($1)
786	0BF0  3C070000             lui $7, 0
787	0BF4  34E70000             ori $7, $7, 0
788	0BF8  00E73824             and $7, $7, $7
789	0BFC  AC2702BC             sw $7, 700($1)
790	0C00  00C63024             and $6, $6, $6
791	0C04  AC2602C0             sw $6, 704($1)
792	0C08  3C060000             lui $6, 0
793	0C0C  34C60000             ori $6, $6, 0
794	0C10  00C63024             and $6, $6, $6
795	0C14  AC2602C4             sw $6, 708($1)
796	0C18  00A52824             and $5, $5, $5
797	0C1C  AC2502C8             sw $5, 712($1)
798	0C20  3C050000             lui $5, 0
799	0C24  34A50000             ori $5, $5, 0
800	0C28  00A52824             and $5, $5, $5
801	0C2C  AC2502CC             sw $5, 716($1)
802	0C30  00842024             and $4, $4, $4
803	0C34  AC2402D0             sw $4, 720($1)
804	0C38  3C040000             lui $4, 0
805	0C3C  34840000             ori $4, $4, 0
806	0C40  00842024             and $4, $4, $4
807	0C44  AC2402D4             sw $4, 724($1)
808	0C48  00631824             and $3, $3, $3
809	0C4C  AC2302D8             sw $3, 728($1)
810	0C50  3C030000             lui $3, 0
811	0C54  34630000             ori $3, $3, 0
812	0C58  00631824             and $3, $3, $3
813	0C5C  AC2302DC             sw $3, 732($1)
814	0C60  00421024             and $2, $2, $2
815	0C64  AC2202E0             sw $2, 736($1)
816	0C68  3C020000             lui $2, 0
817	0C6C  34420000             ori $2, $2, 0
818	0C70  00421024             and $2, $2, $2
819	0C74  AC2202E4             sw $2, 740($1)
820	                          
821	                          ;..........pipeline test..........;
822	0C78  3C1D0001            lui $29, 1
823	0C7C  37BD1388            ori $29, $29, 5000
824	                          
825	                          pipeline_operation:
826	                          ;.............pipeline test_alu.............;
827	0C80  3C010000             lui $1, 0
828	0C84  34210000             ori $1, $1, 0
829	0C88  3C1FFFFF             lui $31, 65535
830	0C8C  37FFFFFF             ori $31, $31, 65535
831	0C90  00000000             sll $0, $0, 0
832	0C94  00000000             sll $0, $0, 0
833	0C98  03FF0824             and $1, $31, $31
834	0C9C  003F1024             and $2, $1, $31
835	0CA0  00000000             sll $0, $0, 0
836	0CA4  AFA20000             sw $2, 0($29)
837	                          
838	0CA8  3C01FFFF             lui $1, 65535
839	0CAC  3421FFFF             ori $1, $1, 65535
840	0CB0  3C1F0000             lui $31, 0
841	0CB4  37FF0000             ori $31, $31, 0
842	0CB8  00000000             sll $0, $0, 0
843	0CBC  00000000             sll $0, $0, 0
844	0CC0  03FF0824             and $1, $31, $31
845	0CC4  003F1024             and $2, $1, $31
846	0CC8  00000000             sll $0, $0, 0
847	0CCC  AFA20004             sw $2, 4($29)
848	                          
849	0CD0  3C010000             lui $1, 0
850	0CD4  34210000             ori $1, $1, 0
851	0CD8  3C1FFFFF             lui $31, 65535
852	0CDC  37FFFFFF             ori $31, $31, 65535
853	0CE0  00000000             sll $0, $0, 0
854	0CE4  00000000             sll $0, $0, 0
855	0CE8  03FF0824             and $1, $31, $31
856	0CEC  03E11024             and $2, $31, $1
857	0CF0  00000000             sll $0, $0, 0
858	0CF4  AFA20008             sw $2, 8($29)
859	                          
860	0CF8  3C01FFFF             lui $1, 65535
861	0CFC  3421FFFF             ori $1, $1, 65535
862	0D00  3C1F0000             lui $31, 0
863	0D04  37FF0000             ori $31, $31, 0
864	0D08  00000000             sll $0, $0, 0
865	0D0C  00000000             sll $0, $0, 0
866	0D10  03FF0824             and $1, $31, $31
867	0D14  03E11024             and $2, $31, $1
868	0D18  00000000             sll $0, $0, 0
869	0D1C  AFA2000C             sw $2, 12($29)
870	                          
871	0D20  3C010000             lui $1, 0
872	0D24  34210000             ori $1, $1, 0
873	0D28  3C1FFFFF             lui $31, 65535
874	0D2C  37FFFFFF             ori $31, $31, 65535
875	0D30  00000000             sll $0, $0, 0
876	0D34  03FF0824             and $1, $31, $31
877	0D38  003F0824             and $1, $1, $31
878	0D3C  003F1024             and $2, $1, $31
879	0D40  00000000             sll $0, $0, 0
880	0D44  AFA20010             sw $2, 16($29)
881	                          
882	0D48  3C01FFFF             lui $1, 65535
883	0D4C  3421FFFF             ori $1, $1, 65535
884	0D50  3C1F0000             lui $31, 0
885	0D54  37FF0000             ori $31, $31, 0
886	0D58  00000000             sll $0, $0, 0
887	0D5C  03FF0824             and $1, $31, $31
888	0D60  003F0824             and $1, $1, $31
889	0D64  003F1024             and $2, $1, $31
890	0D68  00000000             sll $0, $0, 0
891	0D6C  AFA20014             sw $2, 20($29)
892	                          
893	0D70  3C010000             lui $1, 0
894	0D74  34210000             ori $1, $1, 0
895	0D78  3C1FFFFF             lui $31, 65535
896	0D7C  37FFFFFF             ori $31, $31, 65535
897	0D80  00000000             sll $0, $0, 0
898	0D84  00000000             sll $0, $0, 0
899	0D88  0021F824             and $31, $1, $1
900	0D8C  03E11024             and $2, $31, $1
901	0D90  00000000             sll $0, $0, 0
902	0D94  AFA20018             sw $2, 24($29)
903	                          
904	0D98  3C01FFFF             lui $1, 65535
905	0D9C  3421FFFF             ori $1, $1, 65535
906	0DA0  3C1F0000             lui $31, 0
907	0DA4  37FF0000             ori $31, $31, 0
908	0DA8  00000000             sll $0, $0, 0
909	0DAC  00000000             sll $0, $0, 0
910	0DB0  0021F824             and $31, $1, $1
911	0DB4  03E11024             and $2, $31, $1
912	0DB8  00000000             sll $0, $0, 0
913	0DBC  AFA2001C             sw $2, 28($29)
914	                          
915	0DC0  3C010000             lui $1, 0
916	0DC4  34210000             ori $1, $1, 0
917	0DC8  3C1FFFFF             lui $31, 65535
918	0DCC  37FFFFFF             ori $31, $31, 65535
919	0DD0  00000000             sll $0, $0, 0
920	0DD4  00000000             sll $0, $0, 0
921	0DD8  0021F824             and $31, $1, $1
922	0DDC  003F1024             and $2, $1, $31
923	0DE0  00000000             sll $0, $0, 0
924	0DE4  AFA20020             sw $2, 32($29)
925	                          
926	0DE8  3C01FFFF             lui $1, 65535
927	0DEC  3421FFFF             ori $1, $1, 65535
928	0DF0  3C1F0000             lui $31, 0
929	0DF4  37FF0000             ori $31, $31, 0
930	0DF8  00000000             sll $0, $0, 0
931	0DFC  00000000             sll $0, $0, 0
932	0E00  0021F824             and $31, $1, $1
933	0E04  003F1024             and $2, $1, $31
934	0E08  00000000             sll $0, $0, 0
935	0E0C  AFA20024             sw $2, 36($29)
936	                          
937	0E10  3C010000             lui $1, 0
938	0E14  34210000             ori $1, $1, 0
939	0E18  3C1FFFFF             lui $31, 65535
940	0E1C  37FFFFFF             ori $31, $31, 65535
941	0E20  00000000             sll $0, $0, 0
942	0E24  0021F824             and $31, $1, $1
943	0E28  03E1F824             and $31, $31, $1
944	0E2C  03E11024             and $2, $31, $1
945	0E30  00000000             sll $0, $0, 0
946	0E34  AFA20028             sw $2, 40($29)
947	                          
948	0E38  3C01FFFF             lui $1, 65535
949	0E3C  3421FFFF             ori $1, $1, 65535
950	0E40  3C1F0000             lui $31, 0
951	0E44  37FF0000             ori $31, $31, 0
952	0E48  00000000             sll $0, $0, 0
953	0E4C  0021F824             and $31, $1, $1
954	0E50  03E1F824             and $31, $31, $1
955	0E54  03E11024             and $2, $31, $1
956	0E58  00000000             sll $0, $0, 0
957	0E5C  AFA2002C             sw $2, 44($29)
958	                          
959	                          ;.............pipeline test_load_alu.............;
960	0E60  3C01FFFF             lui $1, 65535
961	0E64  3421FFFF             ori $1, $1, 65535
962	0E68  AFA10030             sw $1, 48($29)
963	0E6C  00000000             sll $0, $0, 0
964	0E70  3C010000             lui $1, 0
965	0E74  34210000             ori $1, $1, 0
966	0E78  3C1FFFFF             lui $31, 65535
967	0E7C  37FFFFFF             ori $31, $31, 65535
968	0E80  8FA10030             lw $1, 48($29)
969	0E84  00000000             sll $0, $0, 0
970	0E88  003F1024             and $2, $1, $31
971	0E8C  AFA20034             sw $2, 52($29)
972	                          
973	0E90  3C010000             lui $1, 0
974	0E94  34210000             ori $1, $1, 0
975	0E98  AFA10038             sw $1, 56($29)
976	0E9C  00000000             sll $0, $0, 0
977	0EA0  3C01FFFF             lui $1, 65535
978	0EA4  3421FFFF             ori $1, $1, 65535
979	0EA8  3C1FFFFF             lui $31, 65535
980	0EAC  37FFFFFF             ori $31, $31, 65535
981	0EB0  8FA10038             lw $1, 56($29)
982	0EB4  00000000             sll $0, $0, 0
983	0EB8  003F1024             and $2, $1, $31
984	0EBC  AFA2003C             sw $2, 60($29)
985	                          
986	0EC0  3C01FFFF             lui $1, 65535
987	0EC4  3421FFFF             ori $1, $1, 65535
988	0EC8  AFA10040             sw $1, 64($29)
989	0ECC  00000000             sll $0, $0, 0
990	0ED0  3C010000             lui $1, 0
991	0ED4  34210000             ori $1, $1, 0
992	0ED8  3C1FFFFF             lui $31, 65535
993	0EDC  37FFFFFF             ori $31, $31, 65535
994	0EE0  8FA10040             lw $1, 64($29)
995	0EE4  00000000             sll $0, $0, 0
996	0EE8  03E11024             and $2, $31, $1
997	0EEC  AFA20044             sw $2, 68($29)
998	                          
999	0EF0  3C010000             lui $1, 0
1000	0EF4  34210000             ori $1, $1, 0
1001	0EF8  AFA10048             sw $1, 72($29)
1002	0EFC  00000000             sll $0, $0, 0
1003	0F00  3C01FFFF             lui $1, 65535
1004	0F04  3421FFFF             ori $1, $1, 65535
1005	0F08  3C1FFFFF             lui $31, 65535
1006	0F0C  37FFFFFF             ori $31, $31, 65535
1007	0F10  8FA10048             lw $1, 72($29)
1008	0F14  00000000             sll $0, $0, 0
1009	0F18  03E11024             and $2, $31, $1
1010	0F1C  AFA2004C             sw $2, 76($29)
1011	                          
1012	                          ;.............pipeline test_store_load_data.............;
1013	0F20  3C010000             lui $1, 0
1014	0F24  34210000             ori $1, $1, 0
1015	0F28  3C1FFFFF             lui $31, 65535
1016	0F2C  37FFFFFF             ori $31, $31, 65535
1017	0F30  AFA10050             sw $1, 80($29)
1018	0F34  00000000             sll $0, $0, 0
1019	0F38  AFBF0050             sw $31, 80($29)
1020	0F3C  8FBF0050             lw $31, 80($29)
1021	0F40  00000000             sll $0, $0, 0
1022	0F44  00000000             sll $0, $0, 0
1023	0F48  00000000             sll $0, $0, 0
1024	0F4C  AFBF0054             sw $31, 84($29)
1025	                          
1026	                          ;.............pipeline test_load_store_data.............;
1027	0F50  3C01FFFF             lui $1, 65535
1028	0F54  3421FFFF             ori $1, $1, 65535
1029	0F58  AFA10058             sw $1, 88($29)
1030	0F5C  3C010000             lui $1, 0
1031	0F60  34210000             ori $1, $1, 0
1032	0F64  8FA10058             lw $1, 88($29)
1033	0F68  00000000             sll $0, $0, 0
1034	0F6C  AFA1005C             sw $1, 92($29)
1035	                          
1036	                          ;.............pipeline control hazard.............;
1037	0F70  3C010000             lui $1, 0
1038	0F74  34210000             ori $1, $1, 0
1039	0F78  3C1EFFFF             lui $30, 65535
1040	0F7C  37DEFFFF             ori $30, $30, 65535
1041	0F80  003E9024             and $18, $1, $30
1042	0F84  17C10001             bne $30, $1, continue
1043	                          continue:
1044	0F88  AFB20060            sw $18, 96($29)
1045	                          
1046	                          ;.............pipeline addressing hazard store.............;
1047	0F8C  3C010000             lui $1, 0
1048	0F90  34210000             ori $1, $1, 0
1049	0F94  003D0821             addu $1, $1, $29
1050	0F98  AC210064             sw $1, 100($1)
1051	0F9C  3C1FFFFF             lui $31, 65535
1052	0FA0  37FFFFFF             ori $31, $31, 65535
1053	0FA4  8C3F0064             lw $31, 100($1)
1054	0FA8  AFFF0064             sw $31, 100($31)
1055	                          
1056	                          ;.............comparator test.............;
1057	0FAC  3C000000             lui $0, 0
1058	0FB0  34000000             ori $0, $0, 0
1059	0FB4  3C1FFFFF             lui $31, 65535
1060	0FB8  37FFFFFF             ori $31, $31, 65535
1061	0FBC  00000000             sll $0, $0, 0
1062	0FC0  03FF0024             and $0, $31, $31
1063	0FC4  001F1024             and $2, $0, $31
1064	0FC8  AFA20068             sw $2, 104($29)
1065	                          
1066	0FCC  3C1E0000             lui $30, 0
1067	0FD0  37DE0000             ori $30, $30, 0
1068	0FD4  3C1FFFFF             lui $31, 65535
1069	0FD8  37FFFFFF             ori $31, $31, 65535
1070	0FDC  00000000             sll $0, $0, 0
1071	0FE0  03FFF024             and $30, $31, $31
1072	0FE4  03DF1024             and $2, $30, $31
1073	0FE8  AFA2006C             sw $2, 108($29)
1074	                          
1075	0FEC  3C000000             lui $0, 0
1076	0FF0  34000000             ori $0, $0, 0
1077	0FF4  3C1FFFFF             lui $31, 65535
1078	0FF8  37FFFFFF             ori $31, $31, 65535
1079	0FFC  00000000             sll $0, $0, 0
1080	1000  03FF0024             and $0, $31, $31
1081	1004  03E01024             and $2, $31, $0
1082	1008  AFA20070             sw $2, 112($29)
1083	                          
1084	100C  3C1E0000             lui $30, 0
1085	1010  37DE0000             ori $30, $30, 0
1086	1014  3C1FFFFF             lui $31, 65535
1087	1018  37FFFFFF             ori $31, $31, 65535
1088	101C  00000000             sll $0, $0, 0
1089	1020  03FFF024             and $30, $31, $31
1090	1024  03FE1024             and $2, $31, $30
1091	1028  AFA20074             sw $2, 116($29)
1092	                          
1093	                          ;.............comparator contd (changing result address).............;
1094	102C  3C140000             lui $20, 0
1095	1030  36940000             ori $20, $20, 0
1096	1034  029DA021             addu $20, $20, $29 ;calculate next memory address
1097	                          
1098	1038  3C01FFFF             lui $1, 65535
1099	103C  3421FFFF             ori $1, $1, 65535
1100	1040  3C1F0000             lui $31, 0
1101	1044  37FF0000             ori $31, $31, 0
1102	1048  00000000             sll $0, $0, 0
1103	104C  0021F824             and $31, $1, $1
1104	1050  03E11024             and $2, $31, $1
1105	1054  AE820078             sw $2, 120($20)
1106	                          
1107	1058  3C01FFFF             lui $1, 65535
1108	105C  3421FFFF             ori $1, $1, 65535
1109	1060  3C1E0000             lui $30, 0
1110	1064  37DE0000             ori $30, $30, 0
1111	1068  00000000             sll $0, $0, 0
1112	106C  0021F824             and $31, $1, $1
1113	1070  03C11024             and $2, $30, $1
1114	1074  AE82007C             sw $2, 124($20)
1115	                          
1116	1078  3C01FFFF             lui $1, 65535
1117	107C  3421FFFF             ori $1, $1, 65535
1118	1080  3C1D0000             lui $29, 0
1119	1084  37BD0000             ori $29, $29, 0
1120	1088  00000000             sll $0, $0, 0
1121	108C  0021F824             and $31, $1, $1
1122	1090  03A11024             and $2, $29, $1
1123	1094  AE820080             sw $2, 128($20)
1124	                          
1125	1098  3C01FFFF             lui $1, 65535
1126	109C  3421FFFF             ori $1, $1, 65535
1127	10A0  3C1B0000             lui $27, 0
1128	10A4  377B0000             ori $27, $27, 0
1129	10A8  00000000             sll $0, $0, 0
1130	10AC  0021F824             and $31, $1, $1
1131	10B0  03611024             and $2, $27, $1
1132	10B4  AE820084             sw $2, 132($20)
1133	                          
1134	10B8  3C01FFFF             lui $1, 65535
1135	10BC  3421FFFF             ori $1, $1, 65535
1136	10C0  3C170000             lui $23, 0
1137	10C4  36F70000             ori $23, $23, 0
1138	10C8  00000000             sll $0, $0, 0
1139	10CC  0021F824             and $31, $1, $1
1140	10D0  02E11024             and $2, $23, $1
1141	10D4  AE820088             sw $2, 136($20)
1142	                          
1143	10D8  3C01FFFF             lui $1, 65535
1144	10DC  3421FFFF             ori $1, $1, 65535
1145	10E0  3C0F0000             lui $15, 0
1146	10E4  35EF0000             ori $15, $15, 0
1147	10E8  00000000             sll $0, $0, 0
1148	10EC  0021F824             and $31, $1, $1
1149	10F0  01E11024             and $2, $15, $1
1150	10F4  AE82008C             sw $2, 140($20)
1151	                          
1152	10F8  3C01FFFF             lui $1, 65535
1153	10FC  3421FFFF             ori $1, $1, 65535
1154	1100  3C1E0000             lui $30, 0
1155	1104  37DE0000             ori $30, $30, 0
1156	1108  00000000             sll $0, $0, 0
1157	110C  0021F024             and $30, $1, $1
1158	1110  03E11024             and $2, $31, $1
1159	1114  AE820090             sw $2, 144($20)
1160	                          
1161	1118  3C01FFFF             lui $1, 65535
1162	111C  3421FFFF             ori $1, $1, 65535
1163	1120  3C1D0000             lui $29, 0
1164	1124  37BD0000             ori $29, $29, 0
1165	1128  00000000             sll $0, $0, 0
1166	112C  0021E824             and $29, $1, $1
1167	1130  03E11024             and $2, $31, $1
1168	1134  AE820094             sw $2, 148($20)
1169	                          
1170	1138  3C01FFFF             lui $1, 65535
1171	113C  3421FFFF             ori $1, $1, 65535
1172	1140  3C1B0000             lui $27, 0
1173	1144  377B0000             ori $27, $27, 0
1174	1148  00000000             sll $0, $0, 0
1175	114C  0021D824             and $27, $1, $1
1176	1150  03E11024             and $2, $31, $1
1177	1154  AE820098             sw $2, 152($20)
1178	                          
1179	1158  3C01FFFF             lui $1, 65535
1180	115C  3421FFFF             ori $1, $1, 65535
1181	1160  3C170000             lui $23, 0
1182	1164  36F70000             ori $23, $23, 0
1183	1168  00000000             sll $0, $0, 0
1184	116C  0021B824             and $23, $1, $1
1185	1170  03E11024             and $2, $31, $1
1186	1174  AE82009C             sw $2, 156($20)
1187	                          
1188	1178  3C01FFFF             lui $1, 65535
1189	117C  3421FFFF             ori $1, $1, 65535
1190	1180  3C0F0000             lui $15, 0
1191	1184  35EF0000             ori $15, $15, 0
1192	1188  00000000             sll $0, $0, 0
1193	118C  00217824             and $15, $1, $1
1194	1190  03E11024             and $2, $31, $1
1195	1194  AE8200A0             sw $2, 160($20)
1196	                          
1197	1198  3C01FFFF             lui $1, 65535
1198	119C  3421FFFF             ori $1, $1, 65535
1199	11A0  3C1F0000             lui $31, 0
1200	11A4  37FF0000             ori $31, $31, 0
1201	11A8  00000000             sll $0, $0, 0
1202	11AC  0021F824             and $31, $1, $1
1203	11B0  003F1024             and $2, $1, $31
1204	11B4  AE8200A4             sw $2, 164($20)
1205	                          
1206	11B8  3C01FFFF             lui $1, 65535
1207	11BC  3421FFFF             ori $1, $1, 65535
1208	11C0  3C1E0000             lui $30, 0
1209	11C4  37DE0000             ori $30, $30, 0
1210	11C8  00000000             sll $0, $0, 0
1211	11CC  0021F824             and $31, $1, $1
1212	11D0  003E1024             and $2, $1, $30
1213	11D4  AE8200A8             sw $2, 168($20)
1214	                          
1215	11D8  3C01FFFF             lui $1, 65535
1216	11DC  3421FFFF             ori $1, $1, 65535
1217	11E0  3C1D0000             lui $29, 0
1218	11E4  37BD0000             ori $29, $29, 0
1219	11E8  00000000             sll $0, $0, 0
1220	11EC  0021F824             and $31, $1, $1
1221	11F0  003D1024             and $2, $1, $29
1222	11F4  AE8200AC             sw $2, 172($20)
1223	                          
1224	11F8  3C01FFFF             lui $1, 65535
1225	11FC  3421FFFF             ori $1, $1, 65535
1226	1200  3C1B0000             lui $27, 0
1227	1204  377B0000             ori $27, $27, 0
1228	1208  00000000             sll $0, $0, 0
1229	120C  0021F824             and $31, $1, $1
1230	1210  003B1024             and $2, $1, $27
1231	1214  AE8200B0             sw $2, 176($20)
1232	                          
1233	1218  3C01FFFF             lui $1, 65535
1234	121C  3421FFFF             ori $1, $1, 65535
1235	1220  3C170000             lui $23, 0
1236	1224  36F70000             ori $23, $23, 0
1237	1228  00000000             sll $0, $0, 0
1238	122C  0021F824             and $31, $1, $1
1239	1230  00371024             and $2, $1, $23
1240	1234  AE8200B4             sw $2, 180($20)
1241	                          
1242	1238  3C01FFFF             lui $1, 65535
1243	123C  3421FFFF             ori $1, $1, 65535
1244	1240  3C0F0000             lui $15, 0
1245	1244  35EF0000             ori $15, $15, 0
1246	1248  00000000             sll $0, $0, 0
1247	124C  0021F824             and $31, $1, $1
1248	1250  002F1024             and $2, $1, $15
1249	1254  AE8200B8             sw $2, 184($20)
1250	                          
1251	1258  3C01FFFF             lui $1, 65535
1252	125C  3421FFFF             ori $1, $1, 65535
1253	1260  3C1E0000             lui $30, 0
1254	1264  37DE0000             ori $30, $30, 0
1255	1268  00000000             sll $0, $0, 0
1256	126C  0021F024             and $30, $1, $1
1257	1270  003F1024             and $2, $1, $31
1258	1274  AE8200BC             sw $2, 188($20)
1259	                          
1260	1278  3C01FFFF             lui $1, 65535
1261	127C  3421FFFF             ori $1, $1, 65535
1262	1280  3C1D0000             lui $29, 0
1263	1284  37BD0000             ori $29, $29, 0
1264	1288  00000000             sll $0, $0, 0
1265	128C  0021E824             and $29, $1, $1
1266	1290  003F1024             and $2, $1, $31
1267	1294  AE8200C0             sw $2, 192($20)
1268	                          
1269	1298  3C01FFFF             lui $1, 65535
1270	129C  3421FFFF             ori $1, $1, 65535
1271	12A0  3C1B0000             lui $27, 0
1272	12A4  377B0000             ori $27, $27, 0
1273	12A8  00000000             sll $0, $0, 0
1274	12AC  0021D824             and $27, $1, $1
1275	12B0  003F1024             and $2, $1, $31
1276	12B4  AE8200C4             sw $2, 196($20)
1277	                          
1278	12B8  3C01FFFF             lui $1, 65535
1279	12BC  3421FFFF             ori $1, $1, 65535
1280	12C0  3C170000             lui $23, 0
1281	12C4  36F70000             ori $23, $23, 0
1282	12C8  00000000             sll $0, $0, 0
1283	12CC  0021B824             and $23, $1, $1
1284	12D0  003F1024             and $2, $1, $31
1285	12D4  AE8200C8             sw $2, 200($20)
1286	                          
1287	12D8  3C01FFFF             lui $1, 65535
1288	12DC  3421FFFF             ori $1, $1, 65535
1289	12E0  3C0F0000             lui $15, 0
1290	12E4  35EF0000             ori $15, $15, 0
1291	12E8  00000000             sll $0, $0, 0
1292	12EC  00217824             and $15, $1, $1
1293	12F0  003F1024             and $2, $1, $31
1294	12F4  AE8200CC             sw $2, 204($20)
1295	                          
1296	                          ;.............comparator load_alu.............;
1297	12F8  3C000000             lui $0, 0
1298	12FC  34000000             ori $0, $0, 0
1299	1300  3C01FFFF             lui $1, 65535
1300	1304  3421FFFF             ori $1, $1, 65535
1301	1308  00000000             sll $0, $0, 0
1302	130C  8E8000CC             lw $0, 204($20)
1303	1310  00000000             sll $0, $0, 0
1304	1314  00011024             and $2, $0, $1
1305	1318  AE8200D0             sw $2, 208($20)
1306	                          
1307	131C  3C1E0000             lui $30, 0
1308	1320  37DE0000             ori $30, $30, 0
1309	1324  3C01FFFF             lui $1, 65535
1310	1328  3421FFFF             ori $1, $1, 65535
1311	132C  00000000             sll $0, $0, 0
1312	1330  8E9E00CC             lw $30, 204($20)
1313	1334  00000000             sll $0, $0, 0
1314	1338  03C11024             and $2, $30, $1
1315	133C  AE8200D4             sw $2, 212($20)
1316	                          
1317	1340  3C000000             lui $0, 0
1318	1344  34000000             ori $0, $0, 0
1319	1348  3C01FFFF             lui $1, 65535
1320	134C  3421FFFF             ori $1, $1, 65535
1321	1350  00000000             sll $0, $0, 0
1322	1354  8E8000CC             lw $0, 204($20)
1323	1358  00000000             sll $0, $0, 0
1324	135C  00201024             and $2, $1, $0
1325	1360  AE8200D8             sw $2, 216($20)
1326	                          
1327	1364  3C1E0000             lui $30, 0
1328	1368  37DE0000             ori $30, $30, 0
1329	136C  3C01FFFF             lui $1, 65535
1330	1370  3421FFFF             ori $1, $1, 65535
1331	1374  00000000             sll $0, $0, 0
1332	1378  8E9E00CC             lw $30, 204($20)
1333	137C  00000000             sll $0, $0, 0
1334	1380  003E1024             and $2, $1, $30
1335	1384  AE8200DC             sw $2, 220($20)
1336	                          
1337	1388  3C01FFFF             lui $1, 65535
1338	138C  3421FFFF             ori $1, $1, 65535
1339	1390  3C1F0000             lui $31, 0
1340	1394  37FF0000             ori $31, $31, 0
1341	1398  00000000             sll $0, $0, 0
1342	139C  8E9F00CC             lw $31, 204($20)
1343	13A0  00000000             sll $0, $0, 0
1344	13A4  03E11024             and $2, $31, $1
1345	13A8  AE8200E0             sw $2, 224($20)
1346	                          
1347	13AC  3C01FFFF             lui $1, 65535
1348	13B0  3421FFFF             ori $1, $1, 65535
1349	13B4  3C1E0000             lui $30, 0
1350	13B8  37DE0000             ori $30, $30, 0
1351	13BC  00000000             sll $0, $0, 0
1352	13C0  8E9F00CC             lw $31, 204($20)
1353	13C4  00000000             sll $0, $0, 0
1354	13C8  03C11024             and $2, $30, $1
1355	13CC  AE8200E4             sw $2, 228($20)
1356	                          
1357	13D0  3C01FFFF             lui $1, 65535
1358	13D4  3421FFFF             ori $1, $1, 65535
1359	13D8  3C1D0000             lui $29, 0
1360	13DC  37BD0000             ori $29, $29, 0
1361	13E0  00000000             sll $0, $0, 0
1362	13E4  8E9F00CC             lw $31, 204($20)
1363	13E8  00000000             sll $0, $0, 0
1364	13EC  03A11024             and $2, $29, $1
1365	13F0  AE8200E8             sw $2, 232($20)
1366	                          
1367	13F4  3C01FFFF             lui $1, 65535
1368	13F8  3421FFFF             ori $1, $1, 65535
1369	13FC  3C1B0000             lui $27, 0
1370	1400  377B0000             ori $27, $27, 0
1371	1404  00000000             sll $0, $0, 0
1372	1408  8E9F00CC             lw $31, 204($20)
1373	140C  00000000             sll $0, $0, 0
1374	1410  03611024             and $2, $27, $1
1375	1414  AE8200EC             sw $2, 236($20)
1376	                          
1377	1418  3C01FFFF             lui $1, 65535
1378	141C  3421FFFF             ori $1, $1, 65535
1379	1420  3C170000             lui $23, 0
1380	1424  36F70000             ori $23, $23, 0
1381	1428  00000000             sll $0, $0, 0
1382	142C  8E9F00CC             lw $31, 204($20)
1383	1430  00000000             sll $0, $0, 0
1384	1434  02E11024             and $2, $23, $1
1385	1438  AE8200F0             sw $2, 240($20)
1386	                          
1387	143C  3C01FFFF             lui $1, 65535
1388	1440  3421FFFF             ori $1, $1, 65535
1389	1444  3C0F0000             lui $15, 0
1390	1448  35EF0000             ori $15, $15, 0
1391	144C  00000000             sll $0, $0, 0
1392	1450  8E9F00CC             lw $31, 204($20)
1393	1454  00000000             sll $0, $0, 0
1394	1458  01E11024             and $2, $15, $1
1395	145C  AE8200F4             sw $2, 244($20)
1396	                          
1397	1460  3C01FFFF             lui $1, 65535
1398	1464  3421FFFF             ori $1, $1, 65535
1399	1468  3C1E0000             lui $30, 0
1400	146C  37DE0000             ori $30, $30, 0
1401	1470  00000000             sll $0, $0, 0
1402	1474  8E9E00CC             lw $30, 204($20)
1403	1478  00000000             sll $0, $0, 0
1404	147C  03E11024             and $2, $31, $1
1405	1480  AE8200F8             sw $2, 248($20)
1406	                          
1407	1484  3C01FFFF             lui $1, 65535
1408	1488  3421FFFF             ori $1, $1, 65535
1409	148C  3C1D0000             lui $29, 0
1410	1490  37BD0000             ori $29, $29, 0
1411	1494  00000000             sll $0, $0, 0
1412	1498  8E9D00CC             lw $29, 204($20)
1413	149C  00000000             sll $0, $0, 0
1414	14A0  03E11024             and $2, $31, $1
1415	14A4  AE8200FC             sw $2, 252($20)
1416	                          
1417	14A8  3C01FFFF             lui $1, 65535
1418	14AC  3421FFFF             ori $1, $1, 65535
1419	14B0  3C1B0000             lui $27, 0
1420	14B4  377B0000             ori $27, $27, 0
1421	14B8  00000000             sll $0, $0, 0
1422	14BC  8E9B00CC             lw $27, 204($20)
1423	14C0  00000000             sll $0, $0, 0
1424	14C4  03E11024             and $2, $31, $1
1425	14C8  AE820100             sw $2, 256($20)
1426	                          
1427	14CC  3C01FFFF             lui $1, 65535
1428	14D0  3421FFFF             ori $1, $1, 65535
1429	14D4  3C170000             lui $23, 0
1430	14D8  36F70000             ori $23, $23, 0
1431	14DC  00000000             sll $0, $0, 0
1432	14E0  8E9700CC             lw $23, 204($20)
1433	14E4  00000000             sll $0, $0, 0
1434	14E8  03E11024             and $2, $31, $1
1435	14EC  AE820104             sw $2, 260($20)
1436	                          
1437	14F0  3C01FFFF             lui $1, 65535
1438	14F4  3421FFFF             ori $1, $1, 65535
1439	14F8  3C0F0000             lui $15, 0
1440	14FC  35EF0000             ori $15, $15, 0
1441	1500  00000000             sll $0, $0, 0
1442	1504  8E8F00CC             lw $15, 204($20)
1443	1508  00000000             sll $0, $0, 0
1444	150C  03E11024             and $2, $31, $1
1445	1510  AE820108             sw $2, 264($20)
1446	                          
1447	1514  3C01FFFF             lui $1, 65535
1448	1518  3421FFFF             ori $1, $1, 65535
1449	151C  3C1F0000             lui $31, 0
1450	1520  37FF0000             ori $31, $31, 0
1451	1524  00000000             sll $0, $0, 0
1452	1528  8E9F00CC             lw $31, 204($20)
1453	152C  00000000             sll $0, $0, 0
1454	1530  003F1024             and $2, $1, $31
1455	1534  AE82010C             sw $2, 268($20)
1456	                          
1457	1538  3C01FFFF             lui $1, 65535
1458	153C  3421FFFF             ori $1, $1, 65535
1459	1540  3C1E0000             lui $30, 0
1460	1544  37DE0000             ori $30, $30, 0
1461	1548  00000000             sll $0, $0, 0
1462	154C  8E9F00CC             lw $31, 204($20)
1463	1550  00000000             sll $0, $0, 0
1464	1554  003E1024             and $2, $1, $30
1465	1558  AE820110             sw $2, 272($20)
1466	                          
1467	155C  3C01FFFF             lui $1, 65535
1468	1560  3421FFFF             ori $1, $1, 65535
1469	1564  3C1D0000             lui $29, 0
1470	1568  37BD0000             ori $29, $29, 0
1471	156C  00000000             sll $0, $0, 0
1472	1570  8E9F00CC             lw $31, 204($20)
1473	1574  00000000             sll $0, $0, 0
1474	1578  003D1024             and $2, $1, $29
1475	157C  AE820114             sw $2, 276($20)
1476	                          
1477	1580  3C01FFFF             lui $1, 65535
1478	1584  3421FFFF             ori $1, $1, 65535
1479	1588  3C1B0000             lui $27, 0
1480	158C  377B0000             ori $27, $27, 0
1481	1590  00000000             sll $0, $0, 0
1482	1594  8E9F00CC             lw $31, 204($20)
1483	1598  00000000             sll $0, $0, 0
1484	159C  003B1024             and $2, $1, $27
1485	15A0  AE820118             sw $2, 280($20)
1486	                          
1487	15A4  3C01FFFF             lui $1, 65535
1488	15A8  3421FFFF             ori $1, $1, 65535
1489	15AC  3C170000             lui $23, 0
1490	15B0  36F70000             ori $23, $23, 0
1491	15B4  00000000             sll $0, $0, 0
1492	15B8  8E9F00CC             lw $31, 204($20)
1493	15BC  00000000             sll $0, $0, 0
1494	15C0  00371024             and $2, $1, $23
1495	15C4  AE82011C             sw $2, 284($20)
1496	                          
1497	15C8  3C01FFFF             lui $1, 65535
1498	15CC  3421FFFF             ori $1, $1, 65535
1499	15D0  3C0F0000             lui $15, 0
1500	15D4  35EF0000             ori $15, $15, 0
1501	15D8  00000000             sll $0, $0, 0
1502	15DC  8E9F00CC             lw $31, 204($20)
1503	15E0  00000000             sll $0, $0, 0
1504	15E4  002F1024             and $2, $1, $15
1505	15E8  AE820120             sw $2, 288($20)
1506	                          
1507	15EC  3C01FFFF             lui $1, 65535
1508	15F0  3421FFFF             ori $1, $1, 65535
1509	15F4  3C1E0000             lui $30, 0
1510	15F8  37DE0000             ori $30, $30, 0
1511	15FC  00000000             sll $0, $0, 0
1512	1600  8E9E00CC             lw $30, 204($20)
1513	1604  00000000             sll $0, $0, 0
1514	1608  003F1024             and $2, $1, $31
1515	160C  AE820124             sw $2, 292($20)
1516	                          
1517	1610  3C01FFFF             lui $1, 65535
1518	1614  3421FFFF             ori $1, $1, 65535
1519	1618  3C1D0000             lui $29, 0
1520	161C  37BD0000             ori $29, $29, 0
1521	1620  00000000             sll $0, $0, 0
1522	1624  8E9D00CC             lw $29, 204($20)
1523	1628  00000000             sll $0, $0, 0
1524	162C  003F1024             and $2, $1, $31
1525	1630  AE820128             sw $2, 296($20)
1526	                          
1527	1634  3C01FFFF             lui $1, 65535
1528	1638  3421FFFF             ori $1, $1, 65535
1529	163C  3C1B0000             lui $27, 0
1530	1640  377B0000             ori $27, $27, 0
1531	1644  00000000             sll $0, $0, 0
1532	1648  8E9B00CC             lw $27, 204($20)
1533	164C  00000000             sll $0, $0, 0
1534	1650  003F1024             and $2, $1, $31
1535	1654  AE82012C             sw $2, 300($20)
1536	                          
1537	1658  3C01FFFF             lui $1, 65535
1538	165C  3421FFFF             ori $1, $1, 65535
1539	1660  3C170000             lui $23, 0
1540	1664  36F70000             ori $23, $23, 0
1541	1668  00000000             sll $0, $0, 0
1542	166C  8E9700CC             lw $23, 204($20)
1543	1670  00000000             sll $0, $0, 0
1544	1674  003F1024             and $2, $1, $31
1545	1678  AE820130             sw $2, 304($20)
1546	                          
1547	167C  3C01FFFF             lui $1, 65535
1548	1680  3421FFFF             ori $1, $1, 65535
1549	1684  3C0F0000             lui $15, 0
1550	1688  35EF0000             ori $15, $15, 0
1551	168C  00000000             sll $0, $0, 0
1552	1690  8E8F00CC             lw $15, 204($20)
1553	1694  00000000             sll $0, $0, 0
1554	1698  003F1024             and $2, $1, $31
1555	169C  AE820134             sw $2, 308($20)
1556	                          
1557	                          ;.............comparator hazard.............;
1558	16A0  3C01FFFF             lui $1, 65535
1559	16A4  3421FFFF             ori $1, $1, 65535
1560	16A8  3C1E0000             lui $30, 0
1561	16AC  37DE0000             ori $30, $30, 0
1562	16B0  00000000             sll $0, $0, 0
1563	16B4  8E9F00CC             lw $31, 204($20)
1564	16B8  03C11024             and $2, $30, $1
1565	16BC  AE820138             sw $2, 312($20)
1566	                          
1567	16C0  3C01FFFF             lui $1, 65535
1568	16C4  3421FFFF             ori $1, $1, 65535
1569	16C8  3C1D0000             lui $29, 0
1570	16CC  37BD0000             ori $29, $29, 0
1571	16D0  00000000             sll $0, $0, 0
1572	16D4  8E9F00CC             lw $31, 204($20)
1573	16D8  03A11024             and $2, $29, $1
1574	16DC  AE82013C             sw $2, 316($20)
1575	                          
1576	16E0  3C01FFFF             lui $1, 65535
1577	16E4  3421FFFF             ori $1, $1, 65535
1578	16E8  3C1B0000             lui $27, 0
1579	16EC  377B0000             ori $27, $27, 0
1580	16F0  00000000             sll $0, $0, 0
1581	16F4  8E9F00CC             lw $31, 204($20)
1582	16F8  03611024             and $2, $27, $1
1583	16FC  AE820140             sw $2, 320($20)
1584	                          
1585	1700  3C01FFFF             lui $1, 65535
1586	1704  3421FFFF             ori $1, $1, 65535
1587	1708  3C170000             lui $23, 0
1588	170C  36F70000             ori $23, $23, 0
1589	1710  00000000             sll $0, $0, 0
1590	1714  8E9F00CC             lw $31, 204($20)
1591	1718  02E11024             and $2, $23, $1
1592	171C  AE820144             sw $2, 324($20)
1593	                          
1594	1720  3C01FFFF             lui $1, 65535
1595	1724  3421FFFF             ori $1, $1, 65535
1596	1728  3C0F0000             lui $15, 0
1597	172C  35EF0000             ori $15, $15, 0
1598	1730  00000000             sll $0, $0, 0
1599	1734  8E9F00CC             lw $31, 204($20)
1600	1738  01E11024             and $2, $15, $1
1601	173C  AE820148             sw $2, 328($20)
1602	                          
1603	1740  3C01FFFF             lui $1, 65535
1604	1744  3421FFFF             ori $1, $1, 65535
1605	1748  3C1E0000             lui $30, 0
1606	174C  37DE0000             ori $30, $30, 0
1607	1750  00000000             sll $0, $0, 0
1608	1754  8E9E00CC             lw $30, 204($20)
1609	1758  03E11024             and $2, $31, $1
1610	175C  AE82014C             sw $2, 332($20)
1611	                          
1612	1760  3C01FFFF             lui $1, 65535
1613	1764  3421FFFF             ori $1, $1, 65535
1614	1768  3C1D0000             lui $29, 0
1615	176C  37BD0000             ori $29, $29, 0
1616	1770  00000000             sll $0, $0, 0
1617	1774  8E9D00CC             lw $29, 204($20)
1618	1778  03E11024             and $2, $31, $1
1619	177C  AE820150             sw $2, 336($20)
1620	                          
1621	1780  3C01FFFF             lui $1, 65535
1622	1784  3421FFFF             ori $1, $1, 65535
1623	1788  3C1B0000             lui $27, 0
1624	178C  377B0000             ori $27, $27, 0
1625	1790  00000000             sll $0, $0, 0
1626	1794  8E9B00CC             lw $27, 204($20)
1627	1798  03E11024             and $2, $31, $1
1628	179C  AE820154             sw $2, 340($20)
1629	                          
1630	17A0  3C01FFFF             lui $1, 65535
1631	17A4  3421FFFF             ori $1, $1, 65535
1632	17A8  3C170000             lui $23, 0
1633	17AC  36F70000             ori $23, $23, 0
1634	17B0  00000000             sll $0, $0, 0
1635	17B4  8E9700CC             lw $23, 204($20)
1636	17B8  03E11024             and $2, $31, $1
1637	17BC  AE820158             sw $2, 344($20)
1638	                          
1639	17C0  3C01FFFF             lui $1, 65535
1640	17C4  3421FFFF             ori $1, $1, 65535
1641	17C8  3C0F0000             lui $15, 0
1642	17CC  35EF0000             ori $15, $15, 0
1643	17D0  00000000             sll $0, $0, 0
1644	17D4  8E8F00CC             lw $15, 204($20)
1645	17D8  03E11024             and $2, $31, $1
1646	17DC  AE82015C             sw $2, 348($20)
1647	                          
1648	                          ;........co-co_processor registers........;
1649	17E0  3C1D0001            lui $29, 1
1650	17E4  37BD157C            ori $29, $29, 5500
1651	                          
1652	17E8  0C0006A9            jal reset_offsets
1653	17EC  0C0006BF            jal init_cp
1654	                          cop0_register:
1655	17F0  3C01FFFF             lui $1, 65535
1656	17F4  3421FFFF             ori $1, $1, 65535
1657	17F8  40814000             mtc0 $1, $8
1658	17FC  40816000             mtc0 $1, $12
1659	1800  40816800             mtc0 $1, $13
1660	1804  40817000             mtc0 $1, $14
1661	1808  40817800             mtc0 $1, $15
1662	180C  40081000             mfc0 $2, $8
1663	1810  00000000             sll $0, $0, 0
1664	1814  AFA20000             sw $2, 0($29)
1665	1818  40804000             mtc0 $0, $8
1666	181C  400C1000             mfc0 $2, $12
1667	1820  00000000             sll $0, $0, 0
1668	1824  AFA20004             sw $2, 4($29)
1669	1828  40806000             mtc0 $0, $12
1670	182C  400D1800             mfc0 $3, $13
1671	1830  00000000             sll $0, $0, 0
1672	1834  AFA30008             sw $3, 8($29)
1673	1838  40806800             mtc0 $0, $13
1674	183C  400E2000             mfc0 $4, $14
1675	1840  00000000             sll $0, $0, 0
1676	1844  AFA4000C             sw $4, 12($29)
1677	1848  40807000             mtc0 $0, $14
1678	184C  400F2800             mfc0 $5, $15
1679	1850  00000000             sll $0, $0, 0
1680	1854  AFA50010             sw $5, 16($29)
1681	1858  40807800             mtc0 $0, $15
1682	185C  40083000             mfc0 $6, $8
1683	1860  00000000             sll $0, $0, 0
1684	1864  AFA60014             sw $6, 20($29)
1685	1868  40814000             mtc0 $1, $8
1686	186C  40083800             mfc0 $7, $8
1687	1870  00000000             sll $0, $0, 0
1688	1874  AFA70018             sw $7, 24($29)
1689	1878  400C3000             mfc0 $6, $12
1690	187C  00000000             sll $0, $0, 0
1691	1880  AFA6001C             sw $6, 28($29)
1692	1884  40816000             mtc0 $1, $12
1693	1888  400C3800             mfc0 $7, $12
1694	188C  00000000             sll $0, $0, 0
1695	1890  AFA70020             sw $7, 32($29)
1696	1894  400D4000             mfc0 $8, $13
1697	1898  00000000             sll $0, $0, 0
1698	189C  AFA80024             sw $8, 36($29)
1699	18A0  40816800             mtc0 $1, $13
1700	18A4  400D4800             mfc0 $9, $13
1701	18A8  00000000             sll $0, $0, 0
1702	18AC  AFA90028             sw $9, 40($29)
1703	18B0  400E5000             mfc0 $10, $14
1704	18B4  00000000             sll $0, $0, 0
1705	18B8  AFAA002C             sw $10, 44($29)
1706	18BC  40817000             mtc0 $1, $14
1707	18C0  400E5800             mfc0 $11, $14
1708	18C4  00000000             sll $0, $0, 0
1709	18C8  AFAB0030             sw $11, 48($29)
1710	18CC  400F8000             mfc0 $16, $15
1711	18D0  00000000             sll $0, $0, 0
1712	18D4  AFB00034             sw $16, 52($29)
1713	18D8  40817800             mtc0 $1, $15
1714	18DC  400F8800             mfc0 $17, $15
1715	18E0  00000000             sll $0, $0, 0
1716	18E4  AFB10038             sw $17, 56($29)
1717	                          
1718	                          ;........coprocessor mirror........;
1719	18E8  3C01FFFF             lui $1, 65535
1720	18EC  3421FFFF             ori $1, $1, 65535
1721	18F0  40804000             mtc0 $0, $8
1722	18F4  40806000             mtc0 $0, $12
1723	18F8  40806800             mtc0 $0, $13
1724	18FC  40807000             mtc0 $0, $14
1725	1900  40807800             mtc0 $0, $15
1726	1904  40081000             mfc0 $2, $8
1727	1908  00000000             sll $0, $0, 0
1728	190C  AFA2003C             sw $2, 60($29)
1729	1910  40814000             mtc0 $1, $8
1730	1914  400C1000             mfc0 $2, $12
1731	1918  00000000             sll $0, $0, 0
1732	191C  AFA20040             sw $2, 64($29)
1733	1920  40816000             mtc0 $1, $12
1734	1924  400D1800             mfc0 $3, $13
1735	1928  00000000             sll $0, $0, 0
1736	192C  AFA30044             sw $3, 68($29)
1737	1930  40816800             mtc0 $1, $13
1738	1934  400E2000             mfc0 $4, $14
1739	1938  00000000             sll $0, $0, 0
1740	193C  AFA40048             sw $4, 72($29)
1741	1940  40817000             mtc0 $1, $14
1742	1944  400F2800             mfc0 $5, $15
1743	1948  00000000             sll $0, $0, 0
1744	194C  AFA5004C             sw $5, 76($29)
1745	1950  40817800             mtc0 $1, $15
1746	1954  40083000             mfc0 $6, $8
1747	1958  00000000             sll $0, $0, 0
1748	195C  AFA60050             sw $6, 80($29)
1749	1960  40804000             mtc0 $0, $8
1750	1964  40083800             mfc0 $7, $8
1751	1968  00000000             sll $0, $0, 0
1752	196C  AFA70054             sw $7, 84($29)
1753	1970  400C3000             mfc0 $6, $12
1754	1974  00000000             sll $0, $0, 0
1755	1978  AFA60058             sw $6, 88($29)
1756	197C  40806000             mtc0 $0, $12
1757	1980  400C3800             mfc0 $7, $12
1758	1984  00000000             sll $0, $0, 0
1759	1988  AFA7005C             sw $7, 92($29)
1760	198C  400D4000             mfc0 $8, $13
1761	1990  00000000             sll $0, $0, 0
1762	1994  AFA80060             sw $8, 96($29)
1763	1998  40806800             mtc0 $0, $13
1764	199C  400D4800             mfc0 $9, $13
1765	19A0  00000000             sll $0, $0, 0
1766	19A4  AFA90064             sw $9, 100($29)
1767	19A8  400E5000             mfc0 $10, $14
1768	19AC  00000000             sll $0, $0, 0
1769	19B0  AFAA0068             sw $10, 104($29)
1770	19B4  40807000             mtc0 $0, $14
1771	19B8  400E5800             mfc0 $11, $14
1772	19BC  00000000             sll $0, $0, 0
1773	19C0  AFAB006C             sw $11, 108($29)
1774	19C4  400F8000             mfc0 $16, $15
1775	19C8  AFB00070             sw $16, 112($29)
1776	19CC  40807800             mtc0 $0, $15
1777	19D0  400F8800             mfc0 $17, $15
1778	19D4  AFB10074             sw $17, 116($29)
1779	                          
1780	                          ;........other test........;
1781	                          ;........reset $26 back for branch loops........;
1782	19D8  3C1A0000            lui $26, 0
1783	19DC  375A00C2            ori $26, $26, 194
1784	                          ;........reset $28 back for other test loops........;
1785	19E0  3C1C0000            lui $28, 0
1786	19E4  379C0080            ori $28, $28, 128
1787	                          ;........set memory location for signature........;
1788	19E8  3C1D0001            lui $29, 1
1789	19EC  37BD1770            ori $29, $29, 6000
1790	                          
1791	19F0  0C0006A9            jal reset_offsets
1792	19F4  0C000D86            jal init_patterns
1793	19F8  0C000F0A            jal init_branch
1794	                          
1795	19FC  0C0006A9            jal reset_offsets
1796	1A00  0C0006BF            jal init_cp
1797	                          operation_multu_and_lo:
1798	1A04  0C0006A6             jal load_patterns
1799	1A08  01F00019             multu $15, $16
1800	1A0C  01F09824             and $19, $15, $16
1801	1A10  01F00019             multu $15, $16
1802	1A14  00009012             mflo $18
1803	1A18  0C0006BC             jal store
1804	1A1C  0C0006B1             jal increment_offset
1805	1A20  177CFFF9             bne $27, $28, operation_multu_and_lo
1806	                          
1807	1A24  0C0006A9            jal reset_offsets
1808	1A28  0C0006BF            jal init_cp
1809	                          operation_multu_and_hi:
1810	1A2C  0C0006A6             jal load_patterns
1811	1A30  01F00019             multu $15, $16
1812	1A34  01F09824             and $19, $15, $16
1813	1A38  01F00019             multu $15, $16
1814	1A3C  00009010             mfhi $18
1815	1A40  0C0006BC             jal store
1816	1A44  0C0006B1             jal increment_offset
1817	1A48  177CFFF9             bne $27, $28, operation_multu_and_hi
1818	                          
1819	                          ;..........system call..........;
1820	1A4C  0C0006BF             jal init_cp
1821	1A50  08000695             j syscalls
1822	                          
1823	                          syscalls:
1824	1A54  0000000C             syscall
1825	                          
1826	                          ;..........break..........;
1827	1A58  0C0006BF             jal init_cp
1828	1A5C  08000698             j breaks
1829	                          
1830	                          breaks:
1831	1A60  0000000D             break
1832	                          ;..........hilo test..........;
1833	1A64  0C0006A9            jal reset_offsets
1834	1A68  0C0006AE            jal reset_hi_lo
1835	                          hilo_register_operation:
1836	1A6C  0C0006EC             jal init_upward_1
1837	1A70  0C000766             jal hi_upward_0
1838	1A74  0C0007FD             jal hi_downward_1
1839	1A78  0C0008EE             jal lo_upward_0
1840	1A7C  0C000985             jal lo_downward_1
1841	1A80  0C000729             jal init_upward_0
1842	1A84  0C000A76             jal hi_upward_1
1843	1A88  0C000B0D             jal hi_downward_0
1844	1A8C  0C000BFE             jal lo_upward_1
1845	1A90  0C000C95             jal lo_downward_0
1846	                          
1847	1A94  08001151            j end
1848	                          
1849	                          load_patterns:
1850	1A98  8FCF0000             lw $15, 0($30)
1851	1A9C  8FD00004             lw $16, 4($30)
1852	1AA0  03E00008             jr $31
1853	                          
1854	                          reset_offsets:
1855	1AA4  3C1E0001             lui $30, 1
1856	1AA8  37DE0008             ori $30, $30, 8
1857	1AAC  037BD826             xor $27, $27, $27
1858	1AB0  02529026             xor $18, $18, $18
1859	1AB4  03E00008             jr $31
1860	                          
1861	                          reset_hi_lo:
1862	1AB8  00000011             mthi $0
1863	1ABC  00000013             mtlo $0
1864	1AC0  03E00008             jr $31
1865	                          
1866	                          increment_offset:
1867	1AC4  23DE0008             addi $30, $30, 8
1868	1AC8  237B0002             addi $27, $27, 2
1869	1ACC  23BD0004             addi $29, $29, 4
1870	1AD0  03E00008             jr $31
1871	                          
1872	                          increment_immediate:
1873	1AD4  23DE0008             addi $30, $30, 8
1874	1AD8  23BD0004             addi $29, $29, 4
1875	1ADC  03E00008             jr $31
1876	                          
1877	                          increment:
1878	1AE0  23BD0004             addi $29, $29, 4
1879	1AE4  03E00008             jr $31
1880	                          
1881	                          store_branch:
1882	1AE8  AFAF0000             sw $15, 0($29)
1883	1AEC  03E00008             jr $31
1884	                          
1885	                          store:
1886	1AF0  AFB20000             sw $18, 0($29)
1887	1AF4  AFB30004             sw $19, 4($29)
1888	1AF8  03E00008             jr $31
1889	                          
1890	                          init_cp:
1891	1AFC  40806000             mtc0 $0, $12
1892	1B00  40806800             mtc0 $0, $13
1893	1B04  40807000             mtc0 $0, $14
1894	1B08  40807800             mtc0 $0, $15
1895	1B0C  03E00008             jr $31
1896	                          
1897	                          ;..........Branch templates..........;
1898	                          branch_beq:
1899	1B10  23F90000             addi $25, $31, 0
1900	1B14  11F0FFF5             beq $15, $16, store_branch
1901	1B18  00000000             sll $0, $0, 0
1902	1B1C  AFB00000             sw $16, 0($29)
1903	1B20  03200008             jr $25
1904	                          
1905	                          branch_bne:
1906	1B24  23F90000             addi $25, $31, 0
1907	1B28  15F0FFF0             bne $15, $16, store_branch
1908	1B2C  00000000             sll $0, $0, 0
1909	1B30  AFB00000             sw $16, 0($29)
1910	1B34  03200008             jr $25
1911	                          
1912	                          branch_bgez:
1913	1B38  23F90000             addi $25, $31, 0
1914	1B3C  05E1FFEB             bgez $15, store_branch
1915	1B40  00000000             sll $0, $0, 0
1916	1B44  AFB00000             sw $16, 0($29)
1917	1B48  03200008             jr $25
1918	                          
1919	                          branch_bgezal:
1920	1B4C  23F90000             addi $25, $31, 0
1921	1B50  05F1FFE6             bgezal $15, store_branch
1922	1B54  00000000             sll $0, $0, 0
1923	1B58  AFB00000             sw $16, 0($29)
1924	1B5C  03200008             jr $25
1925	                          
1926	                          branch_bgtz:
1927	1B60  23F90000             addi $25, $31, 0
1928	1B64  1DE0FFE1             bgtz $15, store_branch
1929	1B68  00000000             sll $0, $0, 0
1930	1B6C  AFB00000             sw $16, 0($29)
1931	1B70  03200008             jr $25
1932	                          
1933	                          branch_blez:
1934	1B74  23F90000             addi $25, $31, 0
1935	1B78  19E0FFDC             blez $15, store_branch
1936	1B7C  00000000             sll $0, $0, 0
1937	1B80  AFB00000             sw $16, 0($29)
1938	1B84  03200008             jr $25
1939	                          
1940	                          branch_bltz:
1941	1B88  23F90000             addi $25, $31, 0
1942	1B8C  05E0FFD7             bltz $15, store_branch
1943	1B90  00000000             sll $0, $0, 0
1944	1B94  AFB00000             sw $16, 0($29)
1945	1B98  03200008             jr $25
1946	                          
1947	                          branch_bltzal:
1948	1B9C  23F90000             addi $25, $31, 0
1949	1BA0  05F0FFD2             bltzal $15, store_branch
1950	1BA4  00000000             sll $0, $0, 0
1951	1BA8  AFB00000             sw $16, 0($29)
1952	1BAC  03200008             jr $25
1953	                          
1954	                          ;..........register_initialization..........;
1955	                          init_upward_1:
1956	1BB0  3C00FFFF             lui $0, 65535
1957	1BB4  3400FFFF             ori $0, $0, 65535
1958	1BB8  3C01FFFF             lui $1, 65535
1959	1BBC  3421FFFF             ori $1, $1, 65535
1960	1BC0  3C02FFFF             lui $2, 65535
1961	1BC4  3442FFFF             ori $2, $2, 65535
1962	1BC8  3C03FFFF             lui $3, 65535
1963	1BCC  3463FFFF             ori $3, $3, 65535
1964	1BD0  3C04FFFF             lui $4, 65535
1965	1BD4  3484FFFF             ori $4, $4, 65535
1966	1BD8  3C05FFFF             lui $5, 65535
1967	1BDC  34A5FFFF             ori $5, $5, 65535
1968	1BE0  3C06FFFF             lui $6, 65535
1969	1BE4  34C6FFFF             ori $6, $6, 65535
1970	1BE8  3C07FFFF             lui $7, 65535
1971	1BEC  34E7FFFF             ori $7, $7, 65535
1972	1BF0  3C08FFFF             lui $8, 65535
1973	1BF4  3508FFFF             ori $8, $8, 65535
1974	1BF8  3C09FFFF             lui $9, 65535
1975	1BFC  3529FFFF             ori $9, $9, 65535
1976	1C00  3C0AFFFF             lui $10, 65535
1977	1C04  354AFFFF             ori $10, $10, 65535
1978	1C08  3C0BFFFF             lui $11, 65535
1979	1C0C  356BFFFF             ori $11, $11, 65535
1980	1C10  3C0CFFFF             lui $12, 65535
1981	1C14  358CFFFF             ori $12, $12, 65535
1982	1C18  3C0DFFFF             lui $13, 65535
1983	1C1C  35ADFFFF             ori $13, $13, 65535
1984	1C20  3C0EFFFF             lui $14, 65535
1985	1C24  35CEFFFF             ori $14, $14, 65535
1986	1C28  3C0FFFFF             lui $15, 65535
1987	1C2C  35EFFFFF             ori $15, $15, 65535
1988	1C30  3C10FFFF             lui $16, 65535
1989	1C34  3610FFFF             ori $16, $16, 65535
1990	1C38  3C11FFFF             lui $17, 65535
1991	1C3C  3631FFFF             ori $17, $17, 65535
1992	1C40  3C12FFFF             lui $18, 65535
1993	1C44  3652FFFF             ori $18, $18, 65535
1994	1C48  3C13FFFF             lui $19, 65535
1995	1C4C  3673FFFF             ori $19, $19, 65535
1996	1C50  3C14FFFF             lui $20, 65535
1997	1C54  3694FFFF             ori $20, $20, 65535
1998	1C58  3C15FFFF             lui $21, 65535
1999	1C5C  36B5FFFF             ori $21, $21, 65535
2000	1C60  3C16FFFF             lui $22, 65535
2001	1C64  36D6FFFF             ori $22, $22, 65535
2002	1C68  3C17FFFF             lui $23, 65535
2003	1C6C  36F7FFFF             ori $23, $23, 65535
2004	1C70  3C18FFFF             lui $24, 65535
2005	1C74  3718FFFF             ori $24, $24, 65535
2006	1C78  3C19FFFF             lui $25, 65535
2007	1C7C  3739FFFF             ori $25, $25, 65535
2008	1C80  3C1AFFFF             lui $26, 65535
2009	1C84  375AFFFF             ori $26, $26, 65535
2010	1C88  3C1BFFFF             lui $27, 65535
2011	1C8C  377BFFFF             ori $27, $27, 65535
2012	1C90  3C1CFFFF             lui $28, 65535
2013	1C94  379CFFFF             ori $28, $28, 65535
2014	1C98  3C1EFFFF             lui $30, 65535
2015	1C9C  37DEFFFF             ori $30, $30, 65535
2016	1CA0  03E00008             jr $31
2017	                          
2018	                          init_upward_0:
2019	1CA4  3C000000             lui $0, 0
2020	1CA8  34000000             ori $0, $0, 0
2021	1CAC  3C010000             lui $1, 0
2022	1CB0  34210000             ori $1, $1, 0
2023	1CB4  3C020000             lui $2, 0
2024	1CB8  34420000             ori $2, $2, 0
2025	1CBC  3C030000             lui $3, 0
2026	1CC0  34630000             ori $3, $3, 0
2027	1CC4  3C040000             lui $4, 0
2028	1CC8  34840000             ori $4, $4, 0
2029	1CCC  3C050000             lui $5, 0
2030	1CD0  34A50000             ori $5, $5, 0
2031	1CD4  3C060000             lui $6, 0
2032	1CD8  34C60000             ori $6, $6, 0
2033	1CDC  3C070000             lui $7, 0
2034	1CE0  34E70000             ori $7, $7, 0
2035	1CE4  3C080000             lui $8, 0
2036	1CE8  35080000             ori $8, $8, 0
2037	1CEC  3C090000             lui $9, 0
2038	1CF0  35290000             ori $9, $9, 0
2039	1CF4  3C0A0000             lui $10, 0
2040	1CF8  354A0000             ori $10, $10, 0
2041	1CFC  3C0B0000             lui $11, 0
2042	1D00  356B0000             ori $11, $11, 0
2043	1D04  3C0C0000             lui $12, 0
2044	1D08  358C0000             ori $12, $12, 0
2045	1D0C  3C0D0000             lui $13, 0
2046	1D10  35AD0000             ori $13, $13, 0
2047	1D14  3C0E0000             lui $14, 0
2048	1D18  35CE0000             ori $14, $14, 0
2049	1D1C  3C0F0000             lui $15, 0
2050	1D20  35EF0000             ori $15, $15, 0
2051	1D24  3C100000             lui $16, 0
2052	1D28  36100000             ori $16, $16, 0
2053	1D2C  3C110000             lui $17, 0
2054	1D30  36310000             ori $17, $17, 0
2055	1D34  3C120000             lui $18, 0
2056	1D38  36520000             ori $18, $18, 0
2057	1D3C  3C130000             lui $19, 0
2058	1D40  36730000             ori $19, $19, 0
2059	1D44  3C140000             lui $20, 0
2060	1D48  36940000             ori $20, $20, 0
2061	1D4C  3C150000             lui $21, 0
2062	1D50  36B50000             ori $21, $21, 0
2063	1D54  3C160000             lui $22, 0
2064	1D58  36D60000             ori $22, $22, 0
2065	1D5C  3C170000             lui $23, 0
2066	1D60  36F70000             ori $23, $23, 0
2067	1D64  3C180000             lui $24, 0
2068	1D68  37180000             ori $24, $24, 0
2069	1D6C  3C190000             lui $25, 0
2070	1D70  37390000             ori $25, $25, 0
2071	1D74  3C1A0000             lui $26, 0
2072	1D78  375A0000             ori $26, $26, 0
2073	1D7C  3C1B0000             lui $27, 0
2074	1D80  377B0000             ori $27, $27, 0
2075	1D84  3C1C0000             lui $28, 0
2076	1D88  379C0000             ori $28, $28, 0
2077	1D8C  3C1E0000             lui $30, 0
2078	1D90  37DE0000             ori $30, $30, 0
2079	1D94  03E00008             jr $31
2080	                          
2081	                          hi_upward_0:
2082	1D98  00000011             mthi $0
2083	1D9C  00000010             mfhi $0
2084	1DA0  AFA002E8             sw $0, 744($29)
2085	1DA4  3C000000             lui $0, 0
2086	1DA8  34000000             ori $0, $0, 0
2087	1DAC  00200011             mthi $1
2088	1DB0  00000810             mfhi $1
2089	1DB4  AFA102EC             sw $1, 748($29)
2090	1DB8  3C010000             lui $1, 0
2091	1DBC  34210000             ori $1, $1, 0
2092	1DC0  00400011             mthi $2
2093	1DC4  00001010             mfhi $2
2094	1DC8  AFA202F0             sw $2, 752($29)
2095	1DCC  3C020000             lui $2, 0
2096	1DD0  34420000             ori $2, $2, 0
2097	1DD4  00600011             mthi $3
2098	1DD8  00001810             mfhi $3
2099	1DDC  AFA302F4             sw $3, 756($29)
2100	1DE0  3C030000             lui $3, 0
2101	1DE4  34630000             ori $3, $3, 0
2102	1DE8  00800011             mthi $4
2103	1DEC  00002010             mfhi $4
2104	1DF0  AFA402F8             sw $4, 760($29)
2105	1DF4  3C040000             lui $4, 0
2106	1DF8  34840000             ori $4, $4, 0
2107	1DFC  00A00011             mthi $5
2108	1E00  00002810             mfhi $5
2109	1E04  AFA502FC             sw $5, 764($29)
2110	1E08  3C050000             lui $5, 0
2111	1E0C  34A50000             ori $5, $5, 0
2112	1E10  00C00011             mthi $6
2113	1E14  00003010             mfhi $6
2114	1E18  AFA60300             sw $6, 768($29)
2115	1E1C  3C060000             lui $6, 0
2116	1E20  34C60000             ori $6, $6, 0
2117	1E24  00E00011             mthi $7
2118	1E28  00003810             mfhi $7
2119	1E2C  AFA70304             sw $7, 772($29)
2120	1E30  3C070000             lui $7, 0
2121	1E34  34E70000             ori $7, $7, 0
2122	1E38  01000011             mthi $8
2123	1E3C  00004010             mfhi $8
2124	1E40  AFA80308             sw $8, 776($29)
2125	1E44  3C080000             lui $8, 0
2126	1E48  35080000             ori $8, $8, 0
2127	1E4C  01200011             mthi $9
2128	1E50  00004810             mfhi $9
2129	1E54  AFA9030C             sw $9, 780($29)
2130	1E58  3C090000             lui $9, 0
2131	1E5C  35290000             ori $9, $9, 0
2132	1E60  01400011             mthi $10
2133	1E64  00005010             mfhi $10
2134	1E68  AFAA0310             sw $10, 784($29)
2135	1E6C  3C0A0000             lui $10, 0
2136	1E70  354A0000             ori $10, $10, 0
2137	1E74  01600011             mthi $11
2138	1E78  00005810             mfhi $11
2139	1E7C  AFAB0314             sw $11, 788($29)
2140	1E80  3C0B0000             lui $11, 0
2141	1E84  356B0000             ori $11, $11, 0
2142	1E88  01800011             mthi $12
2143	1E8C  00006010             mfhi $12
2144	1E90  AFAC0318             sw $12, 792($29)
2145	1E94  3C0C0000             lui $12, 0
2146	1E98  358C0000             ori $12, $12, 0
2147	1E9C  01A00011             mthi $13
2148	1EA0  00006810             mfhi $13
2149	1EA4  AFAD031C             sw $13, 796($29)
2150	1EA8  3C0D0000             lui $13, 0
2151	1EAC  35AD0000             ori $13, $13, 0
2152	1EB0  01C00011             mthi $14
2153	1EB4  00007010             mfhi $14
2154	1EB8  AFAE0320             sw $14, 800($29)
2155	1EBC  3C0E0000             lui $14, 0
2156	1EC0  35CE0000             ori $14, $14, 0
2157	1EC4  01E00011             mthi $15
2158	1EC8  00007810             mfhi $15
2159	1ECC  AFAF0324             sw $15, 804($29)
2160	1ED0  3C0F0000             lui $15, 0
2161	1ED4  35EF0000             ori $15, $15, 0
2162	1ED8  02000011             mthi $16
2163	1EDC  00008010             mfhi $16
2164	1EE0  AFB00328             sw $16, 808($29)
2165	1EE4  3C100000             lui $16, 0
2166	1EE8  36100000             ori $16, $16, 0
2167	1EEC  02200011             mthi $17
2168	1EF0  00008810             mfhi $17
2169	1EF4  AFB1032C             sw $17, 812($29)
2170	1EF8  3C110000             lui $17, 0
2171	1EFC  36310000             ori $17, $17, 0
2172	1F00  02400011             mthi $18
2173	1F04  00009010             mfhi $18
2174	1F08  AFB20330             sw $18, 816($29)
2175	1F0C  3C120000             lui $18, 0
2176	1F10  36520000             ori $18, $18, 0
2177	1F14  02600011             mthi $19
2178	1F18  00009810             mfhi $19
2179	1F1C  AFB30334             sw $19, 820($29)
2180	1F20  3C130000             lui $19, 0
2181	1F24  36730000             ori $19, $19, 0
2182	1F28  02800011             mthi $20
2183	1F2C  0000A010             mfhi $20
2184	1F30  AFB40338             sw $20, 824($29)
2185	1F34  3C140000             lui $20, 0
2186	1F38  36940000             ori $20, $20, 0
2187	1F3C  02A00011             mthi $21
2188	1F40  0000A810             mfhi $21
2189	1F44  AFB5033C             sw $21, 828($29)
2190	1F48  3C150000             lui $21, 0
2191	1F4C  36B50000             ori $21, $21, 0
2192	1F50  02C00011             mthi $22
2193	1F54  0000B010             mfhi $22
2194	1F58  AFB60340             sw $22, 832($29)
2195	1F5C  3C160000             lui $22, 0
2196	1F60  36D60000             ori $22, $22, 0
2197	1F64  02E00011             mthi $23
2198	1F68  0000B810             mfhi $23
2199	1F6C  AFB70344             sw $23, 836($29)
2200	1F70  3C170000             lui $23, 0
2201	1F74  36F70000             ori $23, $23, 0
2202	1F78  03000011             mthi $24
2203	1F7C  0000C010             mfhi $24
2204	1F80  AFB80348             sw $24, 840($29)
2205	1F84  3C180000             lui $24, 0
2206	1F88  37180000             ori $24, $24, 0
2207	1F8C  03200011             mthi $25
2208	1F90  0000C810             mfhi $25
2209	1F94  AFB9034C             sw $25, 844($29)
2210	1F98  3C190000             lui $25, 0
2211	1F9C  37390000             ori $25, $25, 0
2212	1FA0  03400011             mthi $26
2213	1FA4  0000D010             mfhi $26
2214	1FA8  AFBA0350             sw $26, 848($29)
2215	1FAC  3C1A0000             lui $26, 0
2216	1FB0  375A0000             ori $26, $26, 0
2217	1FB4  03600011             mthi $27
2218	1FB8  0000D810             mfhi $27
2219	1FBC  AFBB0354             sw $27, 852($29)
2220	1FC0  3C1B0000             lui $27, 0
2221	1FC4  377B0000             ori $27, $27, 0
2222	1FC8  03800011             mthi $28
2223	1FCC  0000E010             mfhi $28
2224	1FD0  AFBC0358             sw $28, 856($29)
2225	1FD4  3C1C0000             lui $28, 0
2226	1FD8  379C0000             ori $28, $28, 0
2227	1FDC  03C00011             mthi $30
2228	1FE0  0000F010             mfhi $30
2229	1FE4  AFBE035C             sw $30, 860($29)
2230	1FE8  3C1E0000             lui $30, 0
2231	1FEC  37DE0000             ori $30, $30, 0
2232	1FF0  03E00008             jr $31
2233	                          
2234	                          hi_downward_1:
2235	1FF4  00000011             mthi $0
2236	1FF8  00000010             mfhi $0
2237	1FFC  AFA00360             sw $0, 864($29)
2238	2000  3C00FFFF             lui $0, 65535
2239	2004  3400FFFF             ori $0, $0, 65535
2240	2008  00000011             mthi $0
2241	200C  00000010             mfhi $0
2242	2010  AFA00364             sw $0, 868($29)
2243	2014  03C00011             mthi $30
2244	2018  0000F010             mfhi $30
2245	201C  AFBE0368             sw $30, 872($29)
2246	2020  3C1EFFFF             lui $30, 65535
2247	2024  37DEFFFF             ori $30, $30, 65535
2248	2028  03C00011             mthi $30
2249	202C  0000F010             mfhi $30
2250	2030  AFBE036C             sw $30, 876($29)
2251	2034  03800011             mthi $28
2252	2038  0000E010             mfhi $28
2253	203C  AFBC0370             sw $28, 880($29)
2254	2040  3C1CFFFF             lui $28, 65535
2255	2044  379CFFFF             ori $28, $28, 65535
2256	2048  03800011             mthi $28
2257	204C  0000E010             mfhi $28
2258	2050  AFBC0374             sw $28, 884($29)
2259	2054  03600011             mthi $27
2260	2058  0000D810             mfhi $27
2261	205C  AFBB0378             sw $27, 888($29)
2262	2060  3C1BFFFF             lui $27, 65535
2263	2064  377BFFFF             ori $27, $27, 65535
2264	2068  03600011             mthi $27
2265	206C  0000D810             mfhi $27
2266	2070  AFBB037C             sw $27, 892($29)
2267	2074  03400011             mthi $26
2268	2078  0000D010             mfhi $26
2269	207C  AFBA0380             sw $26, 896($29)
2270	2080  3C1AFFFF             lui $26, 65535
2271	2084  375AFFFF             ori $26, $26, 65535
2272	2088  03400011             mthi $26
2273	208C  0000D010             mfhi $26
2274	2090  AFBA0384             sw $26, 900($29)
2275	2094  03200011             mthi $25
2276	2098  0000C810             mfhi $25
2277	209C  AFB90388             sw $25, 904($29)
2278	20A0  3C19FFFF             lui $25, 65535
2279	20A4  3739FFFF             ori $25, $25, 65535
2280	20A8  03200011             mthi $25
2281	20AC  0000C810             mfhi $25
2282	20B0  AFB9038C             sw $25, 908($29)
2283	20B4  03000011             mthi $24
2284	20B8  0000C010             mfhi $24
2285	20BC  AFB80390             sw $24, 912($29)
2286	20C0  3C18FFFF             lui $24, 65535
2287	20C4  3718FFFF             ori $24, $24, 65535
2288	20C8  03000011             mthi $24
2289	20CC  0000C010             mfhi $24
2290	20D0  AFB80394             sw $24, 916($29)
2291	20D4  02E00011             mthi $23
2292	20D8  0000B810             mfhi $23
2293	20DC  AFB70398             sw $23, 920($29)
2294	20E0  3C17FFFF             lui $23, 65535
2295	20E4  36F7FFFF             ori $23, $23, 65535
2296	20E8  02E00011             mthi $23
2297	20EC  0000B810             mfhi $23
2298	20F0  AFB7039C             sw $23, 924($29)
2299	20F4  02C00011             mthi $22
2300	20F8  0000B010             mfhi $22
2301	20FC  AFB603A0             sw $22, 928($29)
2302	2100  3C16FFFF             lui $22, 65535
2303	2104  36D6FFFF             ori $22, $22, 65535
2304	2108  02C00011             mthi $22
2305	210C  0000B010             mfhi $22
2306	2110  AFB603A4             sw $22, 932($29)
2307	2114  02A00011             mthi $21
2308	2118  0000A810             mfhi $21
2309	211C  AFB503A8             sw $21, 936($29)
2310	2120  3C15FFFF             lui $21, 65535
2311	2124  36B5FFFF             ori $21, $21, 65535
2312	2128  02A00011             mthi $21
2313	212C  0000A810             mfhi $21
2314	2130  AFB503AC             sw $21, 940($29)
2315	2134  02800011             mthi $20
2316	2138  0000A010             mfhi $20
2317	213C  AFB403B0             sw $20, 944($29)
2318	2140  3C14FFFF             lui $20, 65535
2319	2144  3694FFFF             ori $20, $20, 65535
2320	2148  02800011             mthi $20
2321	214C  0000A010             mfhi $20
2322	2150  AFB403B4             sw $20, 948($29)
2323	2154  02600011             mthi $19
2324	2158  00009810             mfhi $19
2325	215C  AFB303B8             sw $19, 952($29)
2326	2160  3C13FFFF             lui $19, 65535
2327	2164  3673FFFF             ori $19, $19, 65535
2328	2168  02600011             mthi $19
2329	216C  00009810             mfhi $19
2330	2170  AFB303BC             sw $19, 956($29)
2331	2174  02400011             mthi $18
2332	2178  00009010             mfhi $18
2333	217C  AFB203C0             sw $18, 960($29)
2334	2180  3C12FFFF             lui $18, 65535
2335	2184  3652FFFF             ori $18, $18, 65535
2336	2188  02400011             mthi $18
2337	218C  00009010             mfhi $18
2338	2190  AFB203C4             sw $18, 964($29)
2339	2194  02200011             mthi $17
2340	2198  00008810             mfhi $17
2341	219C  AFB103C8             sw $17, 968($29)
2342	21A0  3C11FFFF             lui $17, 65535
2343	21A4  3631FFFF             ori $17, $17, 65535
2344	21A8  02200011             mthi $17
2345	21AC  00008810             mfhi $17
2346	21B0  AFB103CC             sw $17, 972($29)
2347	21B4  02000011             mthi $16
2348	21B8  00008010             mfhi $16
2349	21BC  AFB003D0             sw $16, 976($29)
2350	21C0  3C10FFFF             lui $16, 65535
2351	21C4  3610FFFF             ori $16, $16, 65535
2352	21C8  02000011             mthi $16
2353	21CC  00008010             mfhi $16
2354	21D0  AFB003D4             sw $16, 980($29)
2355	21D4  01E00011             mthi $15
2356	21D8  00007810             mfhi $15
2357	21DC  AFAF03D8             sw $15, 984($29)
2358	21E0  3C0FFFFF             lui $15, 65535
2359	21E4  35EFFFFF             ori $15, $15, 65535
2360	21E8  01E00011             mthi $15
2361	21EC  00007810             mfhi $15
2362	21F0  AFAF03DC             sw $15, 988($29)
2363	21F4  01C00011             mthi $14
2364	21F8  00007010             mfhi $14
2365	21FC  AFAE03E0             sw $14, 992($29)
2366	2200  3C0EFFFF             lui $14, 65535
2367	2204  35CEFFFF             ori $14, $14, 65535
2368	2208  01C00011             mthi $14
2369	220C  00007010             mfhi $14
2370	2210  AFAE03E4             sw $14, 996($29)
2371	2214  01A00011             mthi $13
2372	2218  00006810             mfhi $13
2373	221C  AFAD03E8             sw $13, 1000($29)
2374	2220  3C0DFFFF             lui $13, 65535
2375	2224  35ADFFFF             ori $13, $13, 65535
2376	2228  01A00011             mthi $13
2377	222C  00006810             mfhi $13
2378	2230  AFAD03EC             sw $13, 1004($29)
2379	2234  01800011             mthi $12
2380	2238  00006010             mfhi $12
2381	223C  AFAC03F0             sw $12, 1008($29)
2382	2240  3C0CFFFF             lui $12, 65535
2383	2244  358CFFFF             ori $12, $12, 65535
2384	2248  01800011             mthi $12
2385	224C  00006010             mfhi $12
2386	2250  AFAC03F4             sw $12, 1012($29)
2387	2254  01600011             mthi $11
2388	2258  00005810             mfhi $11
2389	225C  AFAB03F8             sw $11, 1016($29)
2390	2260  3C0BFFFF             lui $11, 65535
2391	2264  356BFFFF             ori $11, $11, 65535
2392	2268  01600011             mthi $11
2393	226C  00005810             mfhi $11
2394	2270  AFAB03FC             sw $11, 1020($29)
2395	2274  01400011             mthi $10
2396	2278  00005010             mfhi $10
2397	227C  AFAA0400             sw $10, 1024($29)
2398	2280  3C0AFFFF             lui $10, 65535
2399	2284  354AFFFF             ori $10, $10, 65535
2400	2288  01400011             mthi $10
2401	228C  00005010             mfhi $10
2402	2290  AFAA0404             sw $10, 1028($29)
2403	2294  01200011             mthi $9
2404	2298  00004810             mfhi $9
2405	229C  AFA90408             sw $9, 1032($29)
2406	22A0  3C09FFFF             lui $9, 65535
2407	22A4  3529FFFF             ori $9, $9, 65535
2408	22A8  01200011             mthi $9
2409	22AC  00004810             mfhi $9
2410	22B0  AFA9040C             sw $9, 1036($29)
2411	22B4  01000011             mthi $8
2412	22B8  00004010             mfhi $8
2413	22BC  AFA80410             sw $8, 1040($29)
2414	22C0  3C08FFFF             lui $8, 65535
2415	22C4  3508FFFF             ori $8, $8, 65535
2416	22C8  01000011             mthi $8
2417	22CC  00004010             mfhi $8
2418	22D0  AFA80414             sw $8, 1044($29)
2419	22D4  00E00011             mthi $7
2420	22D8  00003810             mfhi $7
2421	22DC  AFA70418             sw $7, 1048($29)
2422	22E0  3C07FFFF             lui $7, 65535
2423	22E4  34E7FFFF             ori $7, $7, 65535
2424	22E8  00E00011             mthi $7
2425	22EC  00003810             mfhi $7
2426	22F0  AFA7041C             sw $7, 1052($29)
2427	22F4  00C00011             mthi $6
2428	22F8  00003010             mfhi $6
2429	22FC  AFA60420             sw $6, 1056($29)
2430	2300  3C06FFFF             lui $6, 65535
2431	2304  34C6FFFF             ori $6, $6, 65535
2432	2308  00C00011             mthi $6
2433	230C  00003010             mfhi $6
2434	2310  AFA60424             sw $6, 1060($29)
2435	2314  00A00011             mthi $5
2436	2318  00002810             mfhi $5
2437	231C  AFA50428             sw $5, 1064($29)
2438	2320  3C05FFFF             lui $5, 65535
2439	2324  34A5FFFF             ori $5, $5, 65535
2440	2328  00A00011             mthi $5
2441	232C  00002810             mfhi $5
2442	2330  AFA5042C             sw $5, 1068($29)
2443	2334  00800011             mthi $4
2444	2338  00002010             mfhi $4
2445	233C  AFA40430             sw $4, 1072($29)
2446	2340  3C04FFFF             lui $4, 65535
2447	2344  3484FFFF             ori $4, $4, 65535
2448	2348  00800011             mthi $4
2449	234C  00002010             mfhi $4
2450	2350  AFA40434             sw $4, 1076($29)
2451	2354  00600011             mthi $3
2452	2358  00001810             mfhi $3
2453	235C  AFA30438             sw $3, 1080($29)
2454	2360  3C03FFFF             lui $3, 65535
2455	2364  3463FFFF             ori $3, $3, 65535
2456	2368  00600011             mthi $3
2457	236C  00001810             mfhi $3
2458	2370  AFA3043C             sw $3, 1084($29)
2459	2374  00400011             mthi $2
2460	2378  00001010             mfhi $2
2461	237C  AFA20440             sw $2, 1088($29)
2462	2380  3C02FFFF             lui $2, 65535
2463	2384  3442FFFF             ori $2, $2, 65535
2464	2388  00400011             mthi $2
2465	238C  00001010             mfhi $2
2466	2390  AFA20444             sw $2, 1092($29)
2467	2394  00200011             mthi $1
2468	2398  00000810             mfhi $1
2469	239C  AFA10448             sw $1, 1096($29)
2470	23A0  3C01FFFF             lui $1, 65535
2471	23A4  3421FFFF             ori $1, $1, 65535
2472	23A8  00200011             mthi $1
2473	23AC  00000810             mfhi $1
2474	23B0  AFA1044C             sw $1, 1100($29)
2475	23B4  03E00008             jr $31
2476	                          
2477	                          lo_upward_0:
2478	23B8  00000013             mtlo $0
2479	23BC  00000012             mflo $0
2480	23C0  AFA00450             sw $0, 1104($29)
2481	23C4  3C000000             lui $0, 0
2482	23C8  34000000             ori $0, $0, 0
2483	23CC  00200013             mtlo $1
2484	23D0  00000812             mflo $1
2485	23D4  AFA10454             sw $1, 1108($29)
2486	23D8  3C010000             lui $1, 0
2487	23DC  34210000             ori $1, $1, 0
2488	23E0  00400013             mtlo $2
2489	23E4  00001012             mflo $2
2490	23E8  AFA20458             sw $2, 1112($29)
2491	23EC  3C020000             lui $2, 0
2492	23F0  34420000             ori $2, $2, 0
2493	23F4  00600013             mtlo $3
2494	23F8  00001812             mflo $3
2495	23FC  AFA3045C             sw $3, 1116($29)
2496	2400  3C030000             lui $3, 0
2497	2404  34630000             ori $3, $3, 0
2498	2408  00800013             mtlo $4
2499	240C  00002012             mflo $4
2500	2410  AFA40460             sw $4, 1120($29)
2501	2414  3C040000             lui $4, 0
2502	2418  34840000             ori $4, $4, 0
2503	241C  00A00013             mtlo $5
2504	2420  00002812             mflo $5
2505	2424  AFA50464             sw $5, 1124($29)
2506	2428  3C050000             lui $5, 0
2507	242C  34A50000             ori $5, $5, 0
2508	2430  00C00013             mtlo $6
2509	2434  00003012             mflo $6
2510	2438  AFA60468             sw $6, 1128($29)
2511	243C  3C060000             lui $6, 0
2512	2440  34C60000             ori $6, $6, 0
2513	2444  00E00013             mtlo $7
2514	2448  00003812             mflo $7
2515	244C  AFA7046C             sw $7, 1132($29)
2516	2450  3C070000             lui $7, 0
2517	2454  34E70000             ori $7, $7, 0
2518	2458  01000013             mtlo $8
2519	245C  00004012             mflo $8
2520	2460  AFA80470             sw $8, 1136($29)
2521	2464  3C080000             lui $8, 0
2522	2468  35080000             ori $8, $8, 0
2523	246C  01200013             mtlo $9
2524	2470  00004812             mflo $9
2525	2474  AFA90474             sw $9, 1140($29)
2526	2478  3C090000             lui $9, 0
2527	247C  35290000             ori $9, $9, 0
2528	2480  01400013             mtlo $10
2529	2484  00005012             mflo $10
2530	2488  AFAA0478             sw $10, 1144($29)
2531	248C  3C0A0000             lui $10, 0
2532	2490  354A0000             ori $10, $10, 0
2533	2494  01600013             mtlo $11
2534	2498  00005812             mflo $11
2535	249C  AFAB047C             sw $11, 1148($29)
2536	24A0  3C0B0000             lui $11, 0
2537	24A4  356B0000             ori $11, $11, 0
2538	24A8  01800013             mtlo $12
2539	24AC  00006012             mflo $12
2540	24B0  AFAC0480             sw $12, 1152($29)
2541	24B4  3C0C0000             lui $12, 0
2542	24B8  358C0000             ori $12, $12, 0
2543	24BC  01A00013             mtlo $13
2544	24C0  00006812             mflo $13
2545	24C4  AFAD0484             sw $13, 1156($29)
2546	24C8  3C0D0000             lui $13, 0
2547	24CC  35AD0000             ori $13, $13, 0
2548	24D0  01C00013             mtlo $14
2549	24D4  00007012             mflo $14
2550	24D8  AFAE0488             sw $14, 1160($29)
2551	24DC  3C0E0000             lui $14, 0
2552	24E0  35CE0000             ori $14, $14, 0
2553	24E4  01E00013             mtlo $15
2554	24E8  00007812             mflo $15
2555	24EC  AFAF048C             sw $15, 1164($29)
2556	24F0  3C0F0000             lui $15, 0
2557	24F4  35EF0000             ori $15, $15, 0
2558	24F8  02000013             mtlo $16
2559	24FC  00008012             mflo $16
2560	2500  AFB00490             sw $16, 1168($29)
2561	2504  3C100000             lui $16, 0
2562	2508  36100000             ori $16, $16, 0
2563	250C  02200013             mtlo $17
2564	2510  00008812             mflo $17
2565	2514  AFB10494             sw $17, 1172($29)
2566	2518  3C110000             lui $17, 0
2567	251C  36310000             ori $17, $17, 0
2568	2520  02400013             mtlo $18
2569	2524  00009012             mflo $18
2570	2528  AFB20498             sw $18, 1176($29)
2571	252C  3C120000             lui $18, 0
2572	2530  36520000             ori $18, $18, 0
2573	2534  02600013             mtlo $19
2574	2538  00009812             mflo $19
2575	253C  AFB3049C             sw $19, 1180($29)
2576	2540  3C130000             lui $19, 0
2577	2544  36730000             ori $19, $19, 0
2578	2548  02800013             mtlo $20
2579	254C  0000A012             mflo $20
2580	2550  AFB404A0             sw $20, 1184($29)
2581	2554  3C140000             lui $20, 0
2582	2558  36940000             ori $20, $20, 0
2583	255C  02A00013             mtlo $21
2584	2560  0000A812             mflo $21
2585	2564  AFB504A4             sw $21, 1188($29)
2586	2568  3C150000             lui $21, 0
2587	256C  36B50000             ori $21, $21, 0
2588	2570  02C00013             mtlo $22
2589	2574  0000B012             mflo $22
2590	2578  AFB604A8             sw $22, 1192($29)
2591	257C  3C160000             lui $22, 0
2592	2580  36D60000             ori $22, $22, 0
2593	2584  02E00013             mtlo $23
2594	2588  0000B812             mflo $23
2595	258C  AFB704AC             sw $23, 1196($29)
2596	2590  3C170000             lui $23, 0
2597	2594  36F70000             ori $23, $23, 0
2598	2598  03000013             mtlo $24
2599	259C  0000C012             mflo $24
2600	25A0  AFB804B0             sw $24, 1200($29)
2601	25A4  3C180000             lui $24, 0
2602	25A8  37180000             ori $24, $24, 0
2603	25AC  03200013             mtlo $25
2604	25B0  0000C812             mflo $25
2605	25B4  AFB904B4             sw $25, 1204($29)
2606	25B8  3C190000             lui $25, 0
2607	25BC  37390000             ori $25, $25, 0
2608	25C0  03400013             mtlo $26
2609	25C4  0000D012             mflo $26
2610	25C8  AFBA04B8             sw $26, 1208($29)
2611	25CC  3C1A0000             lui $26, 0
2612	25D0  375A0000             ori $26, $26, 0
2613	25D4  03600013             mtlo $27
2614	25D8  0000D812             mflo $27
2615	25DC  AFBB04BC             sw $27, 1212($29)
2616	25E0  3C1B0000             lui $27, 0
2617	25E4  377B0000             ori $27, $27, 0
2618	25E8  03800013             mtlo $28
2619	25EC  0000E012             mflo $28
2620	25F0  AFBC04C0             sw $28, 1216($29)
2621	25F4  3C1C0000             lui $28, 0
2622	25F8  379C0000             ori $28, $28, 0
2623	25FC  03C00013             mtlo $30
2624	2600  0000F012             mflo $30
2625	2604  AFBE04C4             sw $30, 1220($29)
2626	2608  3C1E0000             lui $30, 0
2627	260C  37DE0000             ori $30, $30, 0
2628	2610  03E00008             jr $31
2629	                          
2630	                          lo_downward_1:
2631	2614  00000013             mtlo $0
2632	2618  00000012             mflo $0
2633	261C  AFA004C8             sw $0, 1224($29)
2634	2620  3C00FFFF             lui $0, 65535
2635	2624  3400FFFF             ori $0, $0, 65535
2636	2628  00000013             mtlo $0
2637	262C  00000012             mflo $0
2638	2630  AFA004CC             sw $0, 1228($29)
2639	2634  03C00013             mtlo $30
2640	2638  0000F012             mflo $30
2641	263C  AFBE04D0             sw $30, 1232($29)
2642	2640  3C1EFFFF             lui $30, 65535
2643	2644  37DEFFFF             ori $30, $30, 65535
2644	2648  03C00013             mtlo $30
2645	264C  0000F012             mflo $30
2646	2650  AFBE04D4             sw $30, 1236($29)
2647	2654  03800013             mtlo $28
2648	2658  0000E012             mflo $28
2649	265C  AFBC04D8             sw $28, 1240($29)
2650	2660  3C1CFFFF             lui $28, 65535
2651	2664  379CFFFF             ori $28, $28, 65535
2652	2668  03800013             mtlo $28
2653	266C  0000E012             mflo $28
2654	2670  AFBC04DC             sw $28, 1244($29)
2655	2674  03600013             mtlo $27
2656	2678  0000D812             mflo $27
2657	267C  AFBB04E0             sw $27, 1248($29)
2658	2680  3C1BFFFF             lui $27, 65535
2659	2684  377BFFFF             ori $27, $27, 65535
2660	2688  03600013             mtlo $27
2661	268C  0000D812             mflo $27
2662	2690  AFBB04E4             sw $27, 1252($29)
2663	2694  03400013             mtlo $26
2664	2698  0000D012             mflo $26
2665	269C  AFBA04E8             sw $26, 1256($29)
2666	26A0  3C1AFFFF             lui $26, 65535
2667	26A4  375AFFFF             ori $26, $26, 65535
2668	26A8  03400013             mtlo $26
2669	26AC  0000D012             mflo $26
2670	26B0  AFBA04EC             sw $26, 1260($29)
2671	26B4  03200013             mtlo $25
2672	26B8  0000C812             mflo $25
2673	26BC  AFB904F0             sw $25, 1264($29)
2674	26C0  3C19FFFF             lui $25, 65535
2675	26C4  3739FFFF             ori $25, $25, 65535
2676	26C8  03200013             mtlo $25
2677	26CC  0000C812             mflo $25
2678	26D0  AFB904F4             sw $25, 1268($29)
2679	26D4  03000013             mtlo $24
2680	26D8  0000C012             mflo $24
2681	26DC  AFB804F8             sw $24, 1272($29)
2682	26E0  3C18FFFF             lui $24, 65535
2683	26E4  3718FFFF             ori $24, $24, 65535
2684	26E8  03000013             mtlo $24
2685	26EC  0000C012             mflo $24
2686	26F0  AFB804FC             sw $24, 1276($29)
2687	26F4  02E00013             mtlo $23
2688	26F8  0000B812             mflo $23
2689	26FC  AFB70500             sw $23, 1280($29)
2690	2700  3C17FFFF             lui $23, 65535
2691	2704  36F7FFFF             ori $23, $23, 65535
2692	2708  02E00013             mtlo $23
2693	270C  0000B812             mflo $23
2694	2710  AFB70504             sw $23, 1284($29)
2695	2714  02C00013             mtlo $22
2696	2718  0000B012             mflo $22
2697	271C  AFB60508             sw $22, 1288($29)
2698	2720  3C16FFFF             lui $22, 65535
2699	2724  36D6FFFF             ori $22, $22, 65535
2700	2728  02C00013             mtlo $22
2701	272C  0000B012             mflo $22
2702	2730  AFB6050C             sw $22, 1292($29)
2703	2734  02A00013             mtlo $21
2704	2738  0000A812             mflo $21
2705	273C  AFB50510             sw $21, 1296($29)
2706	2740  3C15FFFF             lui $21, 65535
2707	2744  36B5FFFF             ori $21, $21, 65535
2708	2748  02A00013             mtlo $21
2709	274C  0000A812             mflo $21
2710	2750  AFB50514             sw $21, 1300($29)
2711	2754  02800013             mtlo $20
2712	2758  0000A012             mflo $20
2713	275C  AFB40518             sw $20, 1304($29)
2714	2760  3C14FFFF             lui $20, 65535
2715	2764  3694FFFF             ori $20, $20, 65535
2716	2768  02800013             mtlo $20
2717	276C  0000A012             mflo $20
2718	2770  AFB4051C             sw $20, 1308($29)
2719	2774  02600013             mtlo $19
2720	2778  00009812             mflo $19
2721	277C  AFB30520             sw $19, 1312($29)
2722	2780  3C13FFFF             lui $19, 65535
2723	2784  3673FFFF             ori $19, $19, 65535
2724	2788  02600013             mtlo $19
2725	278C  00009812             mflo $19
2726	2790  AFB30524             sw $19, 1316($29)
2727	2794  02400013             mtlo $18
2728	2798  00009012             mflo $18
2729	279C  AFB20528             sw $18, 1320($29)
2730	27A0  3C12FFFF             lui $18, 65535
2731	27A4  3652FFFF             ori $18, $18, 65535
2732	27A8  02400013             mtlo $18
2733	27AC  00009012             mflo $18
2734	27B0  AFB2052C             sw $18, 1324($29)
2735	27B4  02200013             mtlo $17
2736	27B8  00008812             mflo $17
2737	27BC  AFB10530             sw $17, 1328($29)
2738	27C0  3C11FFFF             lui $17, 65535
2739	27C4  3631FFFF             ori $17, $17, 65535
2740	27C8  02200013             mtlo $17
2741	27CC  00008812             mflo $17
2742	27D0  AFB10534             sw $17, 1332($29)
2743	27D4  02000013             mtlo $16
2744	27D8  00008012             mflo $16
2745	27DC  AFB00538             sw $16, 1336($29)
2746	27E0  3C10FFFF             lui $16, 65535
2747	27E4  3610FFFF             ori $16, $16, 65535
2748	27E8  02000013             mtlo $16
2749	27EC  00008012             mflo $16
2750	27F0  AFB0053C             sw $16, 1340($29)
2751	27F4  01E00013             mtlo $15
2752	27F8  00007812             mflo $15
2753	27FC  AFAF0540             sw $15, 1344($29)
2754	2800  3C0FFFFF             lui $15, 65535
2755	2804  35EFFFFF             ori $15, $15, 65535
2756	2808  01E00013             mtlo $15
2757	280C  00007812             mflo $15
2758	2810  AFAF0544             sw $15, 1348($29)
2759	2814  01C00013             mtlo $14
2760	2818  00007012             mflo $14
2761	281C  AFAE0548             sw $14, 1352($29)
2762	2820  3C0EFFFF             lui $14, 65535
2763	2824  35CEFFFF             ori $14, $14, 65535
2764	2828  01C00013             mtlo $14
2765	282C  00007012             mflo $14
2766	2830  AFAE054C             sw $14, 1356($29)
2767	2834  01A00013             mtlo $13
2768	2838  00006812             mflo $13
2769	283C  AFAD0550             sw $13, 1360($29)
2770	2840  3C0DFFFF             lui $13, 65535
2771	2844  35ADFFFF             ori $13, $13, 65535
2772	2848  01A00013             mtlo $13
2773	284C  00006812             mflo $13
2774	2850  AFAD0554             sw $13, 1364($29)
2775	2854  01800013             mtlo $12
2776	2858  00006012             mflo $12
2777	285C  AFAC0558             sw $12, 1368($29)
2778	2860  3C0CFFFF             lui $12, 65535
2779	2864  358CFFFF             ori $12, $12, 65535
2780	2868  01800013             mtlo $12
2781	286C  00006012             mflo $12
2782	2870  AFAC055C             sw $12, 1372($29)
2783	2874  01600013             mtlo $11
2784	2878  00005812             mflo $11
2785	287C  AFAB0560             sw $11, 1376($29)
2786	2880  3C0BFFFF             lui $11, 65535
2787	2884  356BFFFF             ori $11, $11, 65535
2788	2888  01600013             mtlo $11
2789	288C  00005812             mflo $11
2790	2890  AFAB0564             sw $11, 1380($29)
2791	2894  01400013             mtlo $10
2792	2898  00005012             mflo $10
2793	289C  AFAA0568             sw $10, 1384($29)
2794	28A0  3C0AFFFF             lui $10, 65535
2795	28A4  354AFFFF             ori $10, $10, 65535
2796	28A8  01400013             mtlo $10
2797	28AC  00005012             mflo $10
2798	28B0  AFAA056C             sw $10, 1388($29)
2799	28B4  01200013             mtlo $9
2800	28B8  00004812             mflo $9
2801	28BC  AFA90570             sw $9, 1392($29)
2802	28C0  3C09FFFF             lui $9, 65535
2803	28C4  3529FFFF             ori $9, $9, 65535
2804	28C8  01200013             mtlo $9
2805	28CC  00004812             mflo $9
2806	28D0  AFA90574             sw $9, 1396($29)
2807	28D4  01000013             mtlo $8
2808	28D8  00004012             mflo $8
2809	28DC  AFA80578             sw $8, 1400($29)
2810	28E0  3C08FFFF             lui $8, 65535
2811	28E4  3508FFFF             ori $8, $8, 65535
2812	28E8  01000013             mtlo $8
2813	28EC  00004012             mflo $8
2814	28F0  AFA8057C             sw $8, 1404($29)
2815	28F4  00E00013             mtlo $7
2816	28F8  00003812             mflo $7
2817	28FC  AFA70580             sw $7, 1408($29)
2818	2900  3C07FFFF             lui $7, 65535
2819	2904  34E7FFFF             ori $7, $7, 65535
2820	2908  00E00013             mtlo $7
2821	290C  00003812             mflo $7
2822	2910  AFA70584             sw $7, 1412($29)
2823	2914  00C00013             mtlo $6
2824	2918  00003012             mflo $6
2825	291C  AFA60588             sw $6, 1416($29)
2826	2920  3C06FFFF             lui $6, 65535
2827	2924  34C6FFFF             ori $6, $6, 65535
2828	2928  00C00013             mtlo $6
2829	292C  00003012             mflo $6
2830	2930  AFA6058C             sw $6, 1420($29)
2831	2934  00A00013             mtlo $5
2832	2938  00002812             mflo $5
2833	293C  AFA50590             sw $5, 1424($29)
2834	2940  3C05FFFF             lui $5, 65535
2835	2944  34A5FFFF             ori $5, $5, 65535
2836	2948  00A00013             mtlo $5
2837	294C  00002812             mflo $5
2838	2950  AFA50594             sw $5, 1428($29)
2839	2954  00800013             mtlo $4
2840	2958  00002012             mflo $4
2841	295C  AFA40598             sw $4, 1432($29)
2842	2960  3C04FFFF             lui $4, 65535
2843	2964  3484FFFF             ori $4, $4, 65535
2844	2968  00800013             mtlo $4
2845	296C  00002012             mflo $4
2846	2970  AFA4059C             sw $4, 1436($29)
2847	2974  00600013             mtlo $3
2848	2978  00001812             mflo $3
2849	297C  AFA305A0             sw $3, 1440($29)
2850	2980  3C03FFFF             lui $3, 65535
2851	2984  3463FFFF             ori $3, $3, 65535
2852	2988  00600013             mtlo $3
2853	298C  00001812             mflo $3
2854	2990  AFA305A4             sw $3, 1444($29)
2855	2994  00400013             mtlo $2
2856	2998  00001012             mflo $2
2857	299C  AFA205A8             sw $2, 1448($29)
2858	29A0  3C02FFFF             lui $2, 65535
2859	29A4  3442FFFF             ori $2, $2, 65535
2860	29A8  00400013             mtlo $2
2861	29AC  00001012             mflo $2
2862	29B0  AFA205AC             sw $2, 1452($29)
2863	29B4  00200013             mtlo $1
2864	29B8  00000812             mflo $1
2865	29BC  AFA105B0             sw $1, 1456($29)
2866	29C0  3C01FFFF             lui $1, 65535
2867	29C4  3421FFFF             ori $1, $1, 65535
2868	29C8  00200013             mtlo $1
2869	29CC  00000812             mflo $1
2870	29D0  AFA105B4             sw $1, 1460($29)
2871	29D4  03E00008             jr $31
2872	                          
2873	                          hi_upward_1:
2874	29D8  00000011             mthi $0
2875	29DC  00000010             mfhi $0
2876	29E0  AFA005B8             sw $0, 1464($29)
2877	29E4  3C00FFFF             lui $0, 65535
2878	29E8  3400FFFF             ori $0, $0, 65535
2879	29EC  00200011             mthi $1
2880	29F0  00000810             mfhi $1
2881	29F4  AFA105BC             sw $1, 1468($29)
2882	29F8  3C01FFFF             lui $1, 65535
2883	29FC  3421FFFF             ori $1, $1, 65535
2884	2A00  00400011             mthi $2
2885	2A04  00001010             mfhi $2
2886	2A08  AFA205C0             sw $2, 1472($29)
2887	2A0C  3C02FFFF             lui $2, 65535
2888	2A10  3442FFFF             ori $2, $2, 65535
2889	2A14  00600011             mthi $3
2890	2A18  00001810             mfhi $3
2891	2A1C  AFA305C4             sw $3, 1476($29)
2892	2A20  3C03FFFF             lui $3, 65535
2893	2A24  3463FFFF             ori $3, $3, 65535
2894	2A28  00800011             mthi $4
2895	2A2C  00002010             mfhi $4
2896	2A30  AFA405C8             sw $4, 1480($29)
2897	2A34  3C04FFFF             lui $4, 65535
2898	2A38  3484FFFF             ori $4, $4, 65535
2899	2A3C  00A00011             mthi $5
2900	2A40  00002810             mfhi $5
2901	2A44  AFA505CC             sw $5, 1484($29)
2902	2A48  3C05FFFF             lui $5, 65535
2903	2A4C  34A5FFFF             ori $5, $5, 65535
2904	2A50  00C00011             mthi $6
2905	2A54  00003010             mfhi $6
2906	2A58  AFA605D0             sw $6, 1488($29)
2907	2A5C  3C06FFFF             lui $6, 65535
2908	2A60  34C6FFFF             ori $6, $6, 65535
2909	2A64  00E00011             mthi $7
2910	2A68  00003810             mfhi $7
2911	2A6C  AFA705D4             sw $7, 1492($29)
2912	2A70  3C07FFFF             lui $7, 65535
2913	2A74  34E7FFFF             ori $7, $7, 65535
2914	2A78  01000011             mthi $8
2915	2A7C  00004010             mfhi $8
2916	2A80  AFA805D8             sw $8, 1496($29)
2917	2A84  3C08FFFF             lui $8, 65535
2918	2A88  3508FFFF             ori $8, $8, 65535
2919	2A8C  01200011             mthi $9
2920	2A90  00004810             mfhi $9
2921	2A94  AFA905DC             sw $9, 1500($29)
2922	2A98  3C09FFFF             lui $9, 65535
2923	2A9C  3529FFFF             ori $9, $9, 65535
2924	2AA0  01400011             mthi $10
2925	2AA4  00005010             mfhi $10
2926	2AA8  AFAA05E0             sw $10, 1504($29)
2927	2AAC  3C0AFFFF             lui $10, 65535
2928	2AB0  354AFFFF             ori $10, $10, 65535
2929	2AB4  01600011             mthi $11
2930	2AB8  00005810             mfhi $11
2931	2ABC  AFAB05E4             sw $11, 1508($29)
2932	2AC0  3C0BFFFF             lui $11, 65535
2933	2AC4  356BFFFF             ori $11, $11, 65535
2934	2AC8  01800011             mthi $12
2935	2ACC  00006010             mfhi $12
2936	2AD0  AFAC05E8             sw $12, 1512($29)
2937	2AD4  3C0CFFFF             lui $12, 65535
2938	2AD8  358CFFFF             ori $12, $12, 65535
2939	2ADC  01A00011             mthi $13
2940	2AE0  00006810             mfhi $13
2941	2AE4  AFAD05EC             sw $13, 1516($29)
2942	2AE8  3C0DFFFF             lui $13, 65535
2943	2AEC  35ADFFFF             ori $13, $13, 65535
2944	2AF0  01C00011             mthi $14
2945	2AF4  00007010             mfhi $14
2946	2AF8  AFAE05F0             sw $14, 1520($29)
2947	2AFC  3C0EFFFF             lui $14, 65535
2948	2B00  35CEFFFF             ori $14, $14, 65535
2949	2B04  01E00011             mthi $15
2950	2B08  00007810             mfhi $15
2951	2B0C  AFAF05F4             sw $15, 1524($29)
2952	2B10  3C0FFFFF             lui $15, 65535
2953	2B14  35EFFFFF             ori $15, $15, 65535
2954	2B18  02000011             mthi $16
2955	2B1C  00008010             mfhi $16
2956	2B20  AFB005F8             sw $16, 1528($29)
2957	2B24  3C10FFFF             lui $16, 65535
2958	2B28  3610FFFF             ori $16, $16, 65535
2959	2B2C  02200011             mthi $17
2960	2B30  00008810             mfhi $17
2961	2B34  AFB105FC             sw $17, 1532($29)
2962	2B38  3C11FFFF             lui $17, 65535
2963	2B3C  3631FFFF             ori $17, $17, 65535
2964	2B40  02400011             mthi $18
2965	2B44  00009010             mfhi $18
2966	2B48  AFB20600             sw $18, 1536($29)
2967	2B4C  3C12FFFF             lui $18, 65535
2968	2B50  3652FFFF             ori $18, $18, 65535
2969	2B54  02600011             mthi $19
2970	2B58  00009810             mfhi $19
2971	2B5C  AFB30604             sw $19, 1540($29)
2972	2B60  3C13FFFF             lui $19, 65535
2973	2B64  3673FFFF             ori $19, $19, 65535
2974	2B68  02800011             mthi $20
2975	2B6C  0000A010             mfhi $20
2976	2B70  AFB40608             sw $20, 1544($29)
2977	2B74  3C14FFFF             lui $20, 65535
2978	2B78  3694FFFF             ori $20, $20, 65535
2979	2B7C  02A00011             mthi $21
2980	2B80  0000A810             mfhi $21
2981	2B84  AFB5060C             sw $21, 1548($29)
2982	2B88  3C15FFFF             lui $21, 65535
2983	2B8C  36B5FFFF             ori $21, $21, 65535
2984	2B90  02C00011             mthi $22
2985	2B94  0000B010             mfhi $22
2986	2B98  AFB60610             sw $22, 1552($29)
2987	2B9C  3C16FFFF             lui $22, 65535
2988	2BA0  36D6FFFF             ori $22, $22, 65535
2989	2BA4  02E00011             mthi $23
2990	2BA8  0000B810             mfhi $23
2991	2BAC  AFB70614             sw $23, 1556($29)
2992	2BB0  3C17FFFF             lui $23, 65535
2993	2BB4  36F7FFFF             ori $23, $23, 65535
2994	2BB8  03000011             mthi $24
2995	2BBC  0000C010             mfhi $24
2996	2BC0  AFB80618             sw $24, 1560($29)
2997	2BC4  3C18FFFF             lui $24, 65535
2998	2BC8  3718FFFF             ori $24, $24, 65535
2999	2BCC  03200011             mthi $25
3000	2BD0  0000C810             mfhi $25
3001	2BD4  AFB9061C             sw $25, 1564($29)
3002	2BD8  3C19FFFF             lui $25, 65535
3003	2BDC  3739FFFF             ori $25, $25, 65535
3004	2BE0  03400011             mthi $26
3005	2BE4  0000D010             mfhi $26
3006	2BE8  AFBA0620             sw $26, 1568($29)
3007	2BEC  3C1AFFFF             lui $26, 65535
3008	2BF0  375AFFFF             ori $26, $26, 65535
3009	2BF4  03600011             mthi $27
3010	2BF8  0000D810             mfhi $27
3011	2BFC  AFBB0624             sw $27, 1572($29)
3012	2C00  3C1BFFFF             lui $27, 65535
3013	2C04  377BFFFF             ori $27, $27, 65535
3014	2C08  03800011             mthi $28
3015	2C0C  0000E010             mfhi $28
3016	2C10  AFBC0628             sw $28, 1576($29)
3017	2C14  3C1CFFFF             lui $28, 65535
3018	2C18  379CFFFF             ori $28, $28, 65535
3019	2C1C  03C00011             mthi $30
3020	2C20  0000F010             mfhi $30
3021	2C24  AFBE062C             sw $30, 1580($29)
3022	2C28  3C1EFFFF             lui $30, 65535
3023	2C2C  37DEFFFF             ori $30, $30, 65535
3024	2C30  03E00008             jr $31
3025	                          
3026	                          hi_downward_0:
3027	2C34  00000011             mthi $0
3028	2C38  00000010             mfhi $0
3029	2C3C  AFA00630             sw $0, 1584($29)
3030	2C40  3C000000             lui $0, 0
3031	2C44  34000000             ori $0, $0, 0
3032	2C48  00000011             mthi $0
3033	2C4C  00000010             mfhi $0
3034	2C50  AFA00634             sw $0, 1588($29)
3035	2C54  03C00011             mthi $30
3036	2C58  0000F010             mfhi $30
3037	2C5C  AFBE0638             sw $30, 1592($29)
3038	2C60  3C1E0000             lui $30, 0
3039	2C64  37DE0000             ori $30, $30, 0
3040	2C68  03C00011             mthi $30
3041	2C6C  0000F010             mfhi $30
3042	2C70  AFBE063C             sw $30, 1596($29)
3043	2C74  03800011             mthi $28
3044	2C78  0000E010             mfhi $28
3045	2C7C  AFBC0640             sw $28, 1600($29)
3046	2C80  3C1C0000             lui $28, 0
3047	2C84  379C0000             ori $28, $28, 0
3048	2C88  03800011             mthi $28
3049	2C8C  0000E010             mfhi $28
3050	2C90  AFBC0644             sw $28, 1604($29)
3051	2C94  03600011             mthi $27
3052	2C98  0000D810             mfhi $27
3053	2C9C  AFBB0648             sw $27, 1608($29)
3054	2CA0  3C1B0000             lui $27, 0
3055	2CA4  377B0000             ori $27, $27, 0
3056	2CA8  03600011             mthi $27
3057	2CAC  0000D810             mfhi $27
3058	2CB0  AFBB064C             sw $27, 1612($29)
3059	2CB4  03400011             mthi $26
3060	2CB8  0000D010             mfhi $26
3061	2CBC  AFBA0650             sw $26, 1616($29)
3062	2CC0  3C1A0000             lui $26, 0
3063	2CC4  375A0000             ori $26, $26, 0
3064	2CC8  03400011             mthi $26
3065	2CCC  0000D010             mfhi $26
3066	2CD0  AFBA0654             sw $26, 1620($29)
3067	2CD4  03200011             mthi $25
3068	2CD8  0000C810             mfhi $25
3069	2CDC  AFB90658             sw $25, 1624($29)
3070	2CE0  3C190000             lui $25, 0
3071	2CE4  37390000             ori $25, $25, 0
3072	2CE8  03200011             mthi $25
3073	2CEC  0000C810             mfhi $25
3074	2CF0  AFB9065C             sw $25, 1628($29)
3075	2CF4  03000011             mthi $24
3076	2CF8  0000C010             mfhi $24
3077	2CFC  AFB80660             sw $24, 1632($29)
3078	2D00  3C180000             lui $24, 0
3079	2D04  37180000             ori $24, $24, 0
3080	2D08  03000011             mthi $24
3081	2D0C  0000C010             mfhi $24
3082	2D10  AFB80664             sw $24, 1636($29)
3083	2D14  02E00011             mthi $23
3084	2D18  0000B810             mfhi $23
3085	2D1C  AFB70668             sw $23, 1640($29)
3086	2D20  3C170000             lui $23, 0
3087	2D24  36F70000             ori $23, $23, 0
3088	2D28  02E00011             mthi $23
3089	2D2C  0000B810             mfhi $23
3090	2D30  AFB7066C             sw $23, 1644($29)
3091	2D34  02C00011             mthi $22
3092	2D38  0000B010             mfhi $22
3093	2D3C  AFB60670             sw $22, 1648($29)
3094	2D40  3C160000             lui $22, 0
3095	2D44  36D60000             ori $22, $22, 0
3096	2D48  02C00011             mthi $22
3097	2D4C  0000B010             mfhi $22
3098	2D50  AFB60674             sw $22, 1652($29)
3099	2D54  02A00011             mthi $21
3100	2D58  0000A810             mfhi $21
3101	2D5C  AFB50678             sw $21, 1656($29)
3102	2D60  3C150000             lui $21, 0
3103	2D64  36B50000             ori $21, $21, 0
3104	2D68  02A00011             mthi $21
3105	2D6C  0000A810             mfhi $21
3106	2D70  AFB5067C             sw $21, 1660($29)
3107	2D74  02800011             mthi $20
3108	2D78  0000A010             mfhi $20
3109	2D7C  AFB40680             sw $20, 1664($29)
3110	2D80  3C140000             lui $20, 0
3111	2D84  36940000             ori $20, $20, 0
3112	2D88  02800011             mthi $20
3113	2D8C  0000A010             mfhi $20
3114	2D90  AFB40684             sw $20, 1668($29)
3115	2D94  02600011             mthi $19
3116	2D98  00009810             mfhi $19
3117	2D9C  AFB30688             sw $19, 1672($29)
3118	2DA0  3C130000             lui $19, 0
3119	2DA4  36730000             ori $19, $19, 0
3120	2DA8  02600011             mthi $19
3121	2DAC  00009810             mfhi $19
3122	2DB0  AFB3068C             sw $19, 1676($29)
3123	2DB4  02400011             mthi $18
3124	2DB8  00009010             mfhi $18
3125	2DBC  AFB20690             sw $18, 1680($29)
3126	2DC0  3C120000             lui $18, 0
3127	2DC4  36520000             ori $18, $18, 0
3128	2DC8  02400011             mthi $18
3129	2DCC  00009010             mfhi $18
3130	2DD0  AFB20694             sw $18, 1684($29)
3131	2DD4  02200011             mthi $17
3132	2DD8  00008810             mfhi $17
3133	2DDC  AFB10698             sw $17, 1688($29)
3134	2DE0  3C110000             lui $17, 0
3135	2DE4  36310000             ori $17, $17, 0
3136	2DE8  02200011             mthi $17
3137	2DEC  00008810             mfhi $17
3138	2DF0  AFB1069C             sw $17, 1692($29)
3139	2DF4  02000011             mthi $16
3140	2DF8  00008010             mfhi $16
3141	2DFC  AFB006A0             sw $16, 1696($29)
3142	2E00  3C100000             lui $16, 0
3143	2E04  36100000             ori $16, $16, 0
3144	2E08  02000011             mthi $16
3145	2E0C  00008010             mfhi $16
3146	2E10  AFB006A4             sw $16, 1700($29)
3147	2E14  01E00011             mthi $15
3148	2E18  00007810             mfhi $15
3149	2E1C  AFAF06A8             sw $15, 1704($29)
3150	2E20  3C0F0000             lui $15, 0
3151	2E24  35EF0000             ori $15, $15, 0
3152	2E28  01E00011             mthi $15
3153	2E2C  00007810             mfhi $15
3154	2E30  AFAF06AC             sw $15, 1708($29)
3155	2E34  01C00011             mthi $14
3156	2E38  00007010             mfhi $14
3157	2E3C  AFAE06B0             sw $14, 1712($29)
3158	2E40  3C0E0000             lui $14, 0
3159	2E44  35CE0000             ori $14, $14, 0
3160	2E48  01C00011             mthi $14
3161	2E4C  00007010             mfhi $14
3162	2E50  AFAE06B4             sw $14, 1716($29)
3163	2E54  01A00011             mthi $13
3164	2E58  00006810             mfhi $13
3165	2E5C  AFAD06B8             sw $13, 1720($29)
3166	2E60  3C0D0000             lui $13, 0
3167	2E64  35AD0000             ori $13, $13, 0
3168	2E68  01A00011             mthi $13
3169	2E6C  00006810             mfhi $13
3170	2E70  AFAD06BC             sw $13, 1724($29)
3171	2E74  01800011             mthi $12
3172	2E78  00006010             mfhi $12
3173	2E7C  AFAC06C0             sw $12, 1728($29)
3174	2E80  3C0C0000             lui $12, 0
3175	2E84  358C0000             ori $12, $12, 0
3176	2E88  01800011             mthi $12
3177	2E8C  00006010             mfhi $12
3178	2E90  AFAC06C4             sw $12, 1732($29)
3179	2E94  01600011             mthi $11
3180	2E98  00005810             mfhi $11
3181	2E9C  AFAB06C8             sw $11, 1736($29)
3182	2EA0  3C0B0000             lui $11, 0
3183	2EA4  356B0000             ori $11, $11, 0
3184	2EA8  01600011             mthi $11
3185	2EAC  00005810             mfhi $11
3186	2EB0  AFAB06CC             sw $11, 1740($29)
3187	2EB4  01400011             mthi $10
3188	2EB8  00005010             mfhi $10
3189	2EBC  AFAA06D0             sw $10, 1744($29)
3190	2EC0  3C0A0000             lui $10, 0
3191	2EC4  354A0000             ori $10, $10, 0
3192	2EC8  01400011             mthi $10
3193	2ECC  00005010             mfhi $10
3194	2ED0  AFAA06D4             sw $10, 1748($29)
3195	2ED4  01200011             mthi $9
3196	2ED8  00004810             mfhi $9
3197	2EDC  AFA906D8             sw $9, 1752($29)
3198	2EE0  3C090000             lui $9, 0
3199	2EE4  35290000             ori $9, $9, 0
3200	2EE8  01200011             mthi $9
3201	2EEC  00004810             mfhi $9
3202	2EF0  AFA906DC             sw $9, 1756($29)
3203	2EF4  01000011             mthi $8
3204	2EF8  00004010             mfhi $8
3205	2EFC  AFA806E0             sw $8, 1760($29)
3206	2F00  3C080000             lui $8, 0
3207	2F04  35080000             ori $8, $8, 0
3208	2F08  01000011             mthi $8
3209	2F0C  00004010             mfhi $8
3210	2F10  AFA806E4             sw $8, 1764($29)
3211	2F14  00E00011             mthi $7
3212	2F18  00003810             mfhi $7
3213	2F1C  AFA706E8             sw $7, 1768($29)
3214	2F20  3C070000             lui $7, 0
3215	2F24  34E70000             ori $7, $7, 0
3216	2F28  00E00011             mthi $7
3217	2F2C  00003810             mfhi $7
3218	2F30  AFA706EC             sw $7, 1772($29)
3219	2F34  00C00011             mthi $6
3220	2F38  00003010             mfhi $6
3221	2F3C  AFA606F0             sw $6, 1776($29)
3222	2F40  3C060000             lui $6, 0
3223	2F44  34C60000             ori $6, $6, 0
3224	2F48  00C00011             mthi $6
3225	2F4C  00003010             mfhi $6
3226	2F50  AFA606F4             sw $6, 1780($29)
3227	2F54  00A00011             mthi $5
3228	2F58  00002810             mfhi $5
3229	2F5C  AFA506F8             sw $5, 1784($29)
3230	2F60  3C050000             lui $5, 0
3231	2F64  34A50000             ori $5, $5, 0
3232	2F68  00A00011             mthi $5
3233	2F6C  00002810             mfhi $5
3234	2F70  AFA506FC             sw $5, 1788($29)
3235	2F74  00800011             mthi $4
3236	2F78  00002010             mfhi $4
3237	2F7C  AFA40700             sw $4, 1792($29)
3238	2F80  3C040000             lui $4, 0
3239	2F84  34840000             ori $4, $4, 0
3240	2F88  00800011             mthi $4
3241	2F8C  00002010             mfhi $4
3242	2F90  AFA40704             sw $4, 1796($29)
3243	2F94  00600011             mthi $3
3244	2F98  00001810             mfhi $3
3245	2F9C  AFA30708             sw $3, 1800($29)
3246	2FA0  3C030000             lui $3, 0
3247	2FA4  34630000             ori $3, $3, 0
3248	2FA8  00600011             mthi $3
3249	2FAC  00001810             mfhi $3
3250	2FB0  AFA3070C             sw $3, 1804($29)
3251	2FB4  00400011             mthi $2
3252	2FB8  00001010             mfhi $2
3253	2FBC  AFA20710             sw $2, 1808($29)
3254	2FC0  3C020000             lui $2, 0
3255	2FC4  34420000             ori $2, $2, 0
3256	2FC8  00400011             mthi $2
3257	2FCC  00001010             mfhi $2
3258	2FD0  AFA20714             sw $2, 1812($29)
3259	2FD4  00200011             mthi $1
3260	2FD8  00000810             mfhi $1
3261	2FDC  AFA10718             sw $1, 1816($29)
3262	2FE0  3C010000             lui $1, 0
3263	2FE4  34210000             ori $1, $1, 0
3264	2FE8  00200011             mthi $1
3265	2FEC  00000810             mfhi $1
3266	2FF0  AFA1071C             sw $1, 1820($29)
3267	2FF4  03E00008             jr $31
3268	                          
3269	                          lo_upward_1:
3270	2FF8  00000013             mtlo $0
3271	2FFC  00000012             mflo $0
3272	3000  AFA00720             sw $0, 1824($29)
3273	3004  3C00FFFF             lui $0, 65535
3274	3008  3400FFFF             ori $0, $0, 65535
3275	300C  00200013             mtlo $1
3276	3010  00000812             mflo $1
3277	3014  AFA10724             sw $1, 1828($29)
3278	3018  3C01FFFF             lui $1, 65535
3279	301C  3421FFFF             ori $1, $1, 65535
3280	3020  00400013             mtlo $2
3281	3024  00001012             mflo $2
3282	3028  AFA20728             sw $2, 1832($29)
3283	302C  3C02FFFF             lui $2, 65535
3284	3030  3442FFFF             ori $2, $2, 65535
3285	3034  00600013             mtlo $3
3286	3038  00001812             mflo $3
3287	303C  AFA3072C             sw $3, 1836($29)
3288	3040  3C03FFFF             lui $3, 65535
3289	3044  3463FFFF             ori $3, $3, 65535
3290	3048  00800013             mtlo $4
3291	304C  00002012             mflo $4
3292	3050  AFA40730             sw $4, 1840($29)
3293	3054  3C04FFFF             lui $4, 65535
3294	3058  3484FFFF             ori $4, $4, 65535
3295	305C  00A00013             mtlo $5
3296	3060  00002812             mflo $5
3297	3064  AFA50734             sw $5, 1844($29)
3298	3068  3C05FFFF             lui $5, 65535
3299	306C  34A5FFFF             ori $5, $5, 65535
3300	3070  00C00013             mtlo $6
3301	3074  00003012             mflo $6
3302	3078  AFA60738             sw $6, 1848($29)
3303	307C  3C06FFFF             lui $6, 65535
3304	3080  34C6FFFF             ori $6, $6, 65535
3305	3084  00E00013             mtlo $7
3306	3088  00003812             mflo $7
3307	308C  AFA7073C             sw $7, 1852($29)
3308	3090  3C07FFFF             lui $7, 65535
3309	3094  34E7FFFF             ori $7, $7, 65535
3310	3098  01000013             mtlo $8
3311	309C  00004012             mflo $8
3312	30A0  AFA80740             sw $8, 1856($29)
3313	30A4  3C08FFFF             lui $8, 65535
3314	30A8  3508FFFF             ori $8, $8, 65535
3315	30AC  01200013             mtlo $9
3316	30B0  00004812             mflo $9
3317	30B4  AFA90744             sw $9, 1860($29)
3318	30B8  3C09FFFF             lui $9, 65535
3319	30BC  3529FFFF             ori $9, $9, 65535
3320	30C0  01400013             mtlo $10
3321	30C4  00005012             mflo $10
3322	30C8  AFAA0748             sw $10, 1864($29)
3323	30CC  3C0AFFFF             lui $10, 65535
3324	30D0  354AFFFF             ori $10, $10, 65535
3325	30D4  01600013             mtlo $11
3326	30D8  00005812             mflo $11
3327	30DC  AFAB074C             sw $11, 1868($29)
3328	30E0  3C0BFFFF             lui $11, 65535
3329	30E4  356BFFFF             ori $11, $11, 65535
3330	30E8  01800013             mtlo $12
3331	30EC  00006012             mflo $12
3332	30F0  AFAC0750             sw $12, 1872($29)
3333	30F4  3C0CFFFF             lui $12, 65535
3334	30F8  358CFFFF             ori $12, $12, 65535
3335	30FC  01A00013             mtlo $13
3336	3100  00006812             mflo $13
3337	3104  AFAD0754             sw $13, 1876($29)
3338	3108  3C0DFFFF             lui $13, 65535
3339	310C  35ADFFFF             ori $13, $13, 65535
3340	3110  01C00013             mtlo $14
3341	3114  00007012             mflo $14
3342	3118  AFAE0758             sw $14, 1880($29)
3343	311C  3C0EFFFF             lui $14, 65535
3344	3120  35CEFFFF             ori $14, $14, 65535
3345	3124  01E00013             mtlo $15
3346	3128  00007812             mflo $15
3347	312C  AFAF075C             sw $15, 1884($29)
3348	3130  3C0FFFFF             lui $15, 65535
3349	3134  35EFFFFF             ori $15, $15, 65535
3350	3138  02000013             mtlo $16
3351	313C  00008012             mflo $16
3352	3140  AFB00760             sw $16, 1888($29)
3353	3144  3C10FFFF             lui $16, 65535
3354	3148  3610FFFF             ori $16, $16, 65535
3355	314C  02200013             mtlo $17
3356	3150  00008812             mflo $17
3357	3154  AFB10764             sw $17, 1892($29)
3358	3158  3C11FFFF             lui $17, 65535
3359	315C  3631FFFF             ori $17, $17, 65535
3360	3160  02400013             mtlo $18
3361	3164  00009012             mflo $18
3362	3168  AFB20768             sw $18, 1896($29)
3363	316C  3C12FFFF             lui $18, 65535
3364	3170  3652FFFF             ori $18, $18, 65535
3365	3174  02600013             mtlo $19
3366	3178  00009812             mflo $19
3367	317C  AFB3076C             sw $19, 1900($29)
3368	3180  3C13FFFF             lui $19, 65535
3369	3184  3673FFFF             ori $19, $19, 65535
3370	3188  02800013             mtlo $20
3371	318C  0000A012             mflo $20
3372	3190  AFB40770             sw $20, 1904($29)
3373	3194  3C14FFFF             lui $20, 65535
3374	3198  3694FFFF             ori $20, $20, 65535
3375	319C  02A00013             mtlo $21
3376	31A0  0000A812             mflo $21
3377	31A4  AFB50774             sw $21, 1908($29)
3378	31A8  3C15FFFF             lui $21, 65535
3379	31AC  36B5FFFF             ori $21, $21, 65535
3380	31B0  02C00013             mtlo $22
3381	31B4  0000B012             mflo $22
3382	31B8  AFB60778             sw $22, 1912($29)
3383	31BC  3C16FFFF             lui $22, 65535
3384	31C0  36D6FFFF             ori $22, $22, 65535
3385	31C4  02E00013             mtlo $23
3386	31C8  0000B812             mflo $23
3387	31CC  AFB7077C             sw $23, 1916($29)
3388	31D0  3C17FFFF             lui $23, 65535
3389	31D4  36F7FFFF             ori $23, $23, 65535
3390	31D8  03000013             mtlo $24
3391	31DC  0000C012             mflo $24
3392	31E0  AFB80780             sw $24, 1920($29)
3393	31E4  3C18FFFF             lui $24, 65535
3394	31E8  3718FFFF             ori $24, $24, 65535
3395	31EC  03200013             mtlo $25
3396	31F0  0000C812             mflo $25
3397	31F4  AFB90784             sw $25, 1924($29)
3398	31F8  3C19FFFF             lui $25, 65535
3399	31FC  3739FFFF             ori $25, $25, 65535
3400	3200  03400013             mtlo $26
3401	3204  0000D012             mflo $26
3402	3208  AFBA0788             sw $26, 1928($29)
3403	320C  3C1AFFFF             lui $26, 65535
3404	3210  375AFFFF             ori $26, $26, 65535
3405	3214  03600013             mtlo $27
3406	3218  0000D812             mflo $27
3407	321C  AFBB078C             sw $27, 1932($29)
3408	3220  3C1BFFFF             lui $27, 65535
3409	3224  377BFFFF             ori $27, $27, 65535
3410	3228  03800013             mtlo $28
3411	322C  0000E012             mflo $28
3412	3230  AFBC0790             sw $28, 1936($29)
3413	3234  3C1CFFFF             lui $28, 65535
3414	3238  379CFFFF             ori $28, $28, 65535
3415	323C  03C00013             mtlo $30
3416	3240  0000F012             mflo $30
3417	3244  AFBE0794             sw $30, 1940($29)
3418	3248  3C1EFFFF             lui $30, 65535
3419	324C  37DEFFFF             ori $30, $30, 65535
3420	3250  03E00008             jr $31
3421	                          
3422	                          lo_downward_0:
3423	3254  00000013             mtlo $0
3424	3258  00000012             mflo $0
3425	325C  AFA00798             sw $0, 1944($29)
3426	3260  3C000000             lui $0, 0
3427	3264  34000000             ori $0, $0, 0
3428	3268  00000013             mtlo $0
3429	326C  00000012             mflo $0
3430	3270  AFA0079C             sw $0, 1948($29)
3431	3274  03C00013             mtlo $30
3432	3278  0000F012             mflo $30
3433	327C  AFBE07A0             sw $30, 1952($29)
3434	3280  3C1E0000             lui $30, 0
3435	3284  37DE0000             ori $30, $30, 0
3436	3288  03C00013             mtlo $30
3437	328C  0000F012             mflo $30
3438	3290  AFBE07A4             sw $30, 1956($29)
3439	3294  03800013             mtlo $28
3440	3298  0000E012             mflo $28
3441	329C  AFBC07A8             sw $28, 1960($29)
3442	32A0  3C1C0000             lui $28, 0
3443	32A4  379C0000             ori $28, $28, 0
3444	32A8  03800013             mtlo $28
3445	32AC  0000E012             mflo $28
3446	32B0  AFBC07AC             sw $28, 1964($29)
3447	32B4  03600013             mtlo $27
3448	32B8  0000D812             mflo $27
3449	32BC  AFBB07B0             sw $27, 1968($29)
3450	32C0  3C1B0000             lui $27, 0
3451	32C4  377B0000             ori $27, $27, 0
3452	32C8  03600013             mtlo $27
3453	32CC  0000D812             mflo $27
3454	32D0  AFBB07B4             sw $27, 1972($29)
3455	32D4  03400013             mtlo $26
3456	32D8  0000D012             mflo $26
3457	32DC  AFBA07B8             sw $26, 1976($29)
3458	32E0  3C1A0000             lui $26, 0
3459	32E4  375A0000             ori $26, $26, 0
3460	32E8  03400013             mtlo $26
3461	32EC  0000D012             mflo $26
3462	32F0  AFBA07BC             sw $26, 1980($29)
3463	32F4  03200013             mtlo $25
3464	32F8  0000C812             mflo $25
3465	32FC  AFB907C0             sw $25, 1984($29)
3466	3300  3C190000             lui $25, 0
3467	3304  37390000             ori $25, $25, 0
3468	3308  03200013             mtlo $25
3469	330C  0000C812             mflo $25
3470	3310  AFB907C4             sw $25, 1988($29)
3471	3314  03000013             mtlo $24
3472	3318  0000C012             mflo $24
3473	331C  AFB807C8             sw $24, 1992($29)
3474	3320  3C180000             lui $24, 0
3475	3324  37180000             ori $24, $24, 0
3476	3328  03000013             mtlo $24
3477	332C  0000C012             mflo $24
3478	3330  AFB807CC             sw $24, 1996($29)
3479	3334  02E00013             mtlo $23
3480	3338  0000B812             mflo $23
3481	333C  AFB707D0             sw $23, 2000($29)
3482	3340  3C170000             lui $23, 0
3483	3344  36F70000             ori $23, $23, 0
3484	3348  02E00013             mtlo $23
3485	334C  0000B812             mflo $23
3486	3350  AFB707D4             sw $23, 2004($29)
3487	3354  02C00013             mtlo $22
3488	3358  0000B012             mflo $22
3489	335C  AFB607D8             sw $22, 2008($29)
3490	3360  3C160000             lui $22, 0
3491	3364  36D60000             ori $22, $22, 0
3492	3368  02C00013             mtlo $22
3493	336C  0000B012             mflo $22
3494	3370  AFB607DC             sw $22, 2012($29)
3495	3374  02A00013             mtlo $21
3496	3378  0000A812             mflo $21
3497	337C  AFB507E0             sw $21, 2016($29)
3498	3380  3C150000             lui $21, 0
3499	3384  36B50000             ori $21, $21, 0
3500	3388  02A00013             mtlo $21
3501	338C  0000A812             mflo $21
3502	3390  AFB507E4             sw $21, 2020($29)
3503	3394  02800013             mtlo $20
3504	3398  0000A012             mflo $20
3505	339C  AFB407E8             sw $20, 2024($29)
3506	33A0  3C140000             lui $20, 0
3507	33A4  36940000             ori $20, $20, 0
3508	33A8  02800013             mtlo $20
3509	33AC  0000A012             mflo $20
3510	33B0  AFB407EC             sw $20, 2028($29)
3511	33B4  02600013             mtlo $19
3512	33B8  00009812             mflo $19
3513	33BC  AFB307F0             sw $19, 2032($29)
3514	33C0  3C130000             lui $19, 0
3515	33C4  36730000             ori $19, $19, 0
3516	33C8  02600013             mtlo $19
3517	33CC  00009812             mflo $19
3518	33D0  AFB307F4             sw $19, 2036($29)
3519	33D4  02400013             mtlo $18
3520	33D8  00009012             mflo $18
3521	33DC  AFB207F8             sw $18, 2040($29)
3522	33E0  3C120000             lui $18, 0
3523	33E4  36520000             ori $18, $18, 0
3524	33E8  02400013             mtlo $18
3525	33EC  00009012             mflo $18
3526	33F0  AFB207FC             sw $18, 2044($29)
3527	33F4  02200013             mtlo $17
3528	33F8  00008812             mflo $17
3529	33FC  AFB10800             sw $17, 2048($29)
3530	3400  3C110000             lui $17, 0
3531	3404  36310000             ori $17, $17, 0
3532	3408  02200013             mtlo $17
3533	340C  00008812             mflo $17
3534	3410  AFB10804             sw $17, 2052($29)
3535	3414  02000013             mtlo $16
3536	3418  00008012             mflo $16
3537	341C  AFB00808             sw $16, 2056($29)
3538	3420  3C100000             lui $16, 0
3539	3424  36100000             ori $16, $16, 0
3540	3428  02000013             mtlo $16
3541	342C  00008012             mflo $16
3542	3430  AFB0080C             sw $16, 2060($29)
3543	3434  01E00013             mtlo $15
3544	3438  00007812             mflo $15
3545	343C  AFAF0810             sw $15, 2064($29)
3546	3440  3C0F0000             lui $15, 0
3547	3444  35EF0000             ori $15, $15, 0
3548	3448  01E00013             mtlo $15
3549	344C  00007812             mflo $15
3550	3450  AFAF0814             sw $15, 2068($29)
3551	3454  01C00013             mtlo $14
3552	3458  00007012             mflo $14
3553	345C  AFAE0818             sw $14, 2072($29)
3554	3460  3C0E0000             lui $14, 0
3555	3464  35CE0000             ori $14, $14, 0
3556	3468  01C00013             mtlo $14
3557	346C  00007012             mflo $14
3558	3470  AFAE081C             sw $14, 2076($29)
3559	3474  01A00013             mtlo $13
3560	3478  00006812             mflo $13
3561	347C  AFAD0820             sw $13, 2080($29)
3562	3480  3C0D0000             lui $13, 0
3563	3484  35AD0000             ori $13, $13, 0
3564	3488  01A00013             mtlo $13
3565	348C  00006812             mflo $13
3566	3490  AFAD0824             sw $13, 2084($29)
3567	3494  01800013             mtlo $12
3568	3498  00006012             mflo $12
3569	349C  AFAC0828             sw $12, 2088($29)
3570	34A0  3C0C0000             lui $12, 0
3571	34A4  358C0000             ori $12, $12, 0
3572	34A8  01800013             mtlo $12
3573	34AC  00006012             mflo $12
3574	34B0  AFAC082C             sw $12, 2092($29)
3575	34B4  01600013             mtlo $11
3576	34B8  00005812             mflo $11
3577	34BC  AFAB0830             sw $11, 2096($29)
3578	34C0  3C0B0000             lui $11, 0
3579	34C4  356B0000             ori $11, $11, 0
3580	34C8  01600013             mtlo $11
3581	34CC  00005812             mflo $11
3582	34D0  AFAB0834             sw $11, 2100($29)
3583	34D4  01400013             mtlo $10
3584	34D8  00005012             mflo $10
3585	34DC  AFAA0838             sw $10, 2104($29)
3586	34E0  3C0A0000             lui $10, 0
3587	34E4  354A0000             ori $10, $10, 0
3588	34E8  01400013             mtlo $10
3589	34EC  00005012             mflo $10
3590	34F0  AFAA083C             sw $10, 2108($29)
3591	34F4  01200013             mtlo $9
3592	34F8  00004812             mflo $9
3593	34FC  AFA90840             sw $9, 2112($29)
3594	3500  3C090000             lui $9, 0
3595	3504  35290000             ori $9, $9, 0
3596	3508  01200013             mtlo $9
3597	350C  00004812             mflo $9
3598	3510  AFA90844             sw $9, 2116($29)
3599	3514  01000013             mtlo $8
3600	3518  00004012             mflo $8
3601	351C  AFA80848             sw $8, 2120($29)
3602	3520  3C080000             lui $8, 0
3603	3524  35080000             ori $8, $8, 0
3604	3528  01000013             mtlo $8
3605	352C  00004012             mflo $8
3606	3530  AFA8084C             sw $8, 2124($29)
3607	3534  00E00013             mtlo $7
3608	3538  00003812             mflo $7
3609	353C  AFA70850             sw $7, 2128($29)
3610	3540  3C070000             lui $7, 0
3611	3544  34E70000             ori $7, $7, 0
3612	3548  00E00013             mtlo $7
3613	354C  00003812             mflo $7
3614	3550  AFA70854             sw $7, 2132($29)
3615	3554  00C00013             mtlo $6
3616	3558  00003012             mflo $6
3617	355C  AFA60858             sw $6, 2136($29)
3618	3560  3C060000             lui $6, 0
3619	3564  34C60000             ori $6, $6, 0
3620	3568  00C00013             mtlo $6
3621	356C  00003012             mflo $6
3622	3570  AFA6085C             sw $6, 2140($29)
3623	3574  00A00013             mtlo $5
3624	3578  00002812             mflo $5
3625	357C  AFA50860             sw $5, 2144($29)
3626	3580  3C050000             lui $5, 0
3627	3584  34A50000             ori $5, $5, 0
3628	3588  00A00013             mtlo $5
3629	358C  00002812             mflo $5
3630	3590  AFA50864             sw $5, 2148($29)
3631	3594  00800013             mtlo $4
3632	3598  00002012             mflo $4
3633	359C  AFA40868             sw $4, 2152($29)
3634	35A0  3C040000             lui $4, 0
3635	35A4  34840000             ori $4, $4, 0
3636	35A8  00800013             mtlo $4
3637	35AC  00002012             mflo $4
3638	35B0  AFA4086C             sw $4, 2156($29)
3639	35B4  00600013             mtlo $3
3640	35B8  00001812             mflo $3
3641	35BC  AFA30870             sw $3, 2160($29)
3642	35C0  3C030000             lui $3, 0
3643	35C4  34630000             ori $3, $3, 0
3644	35C8  00600013             mtlo $3
3645	35CC  00001812             mflo $3
3646	35D0  AFA30874             sw $3, 2164($29)
3647	35D4  00400013             mtlo $2
3648	35D8  00001012             mflo $2
3649	35DC  AFA20878             sw $2, 2168($29)
3650	35E0  3C020000             lui $2, 0
3651	35E4  34420000             ori $2, $2, 0
3652	35E8  00400013             mtlo $2
3653	35EC  00001012             mflo $2
3654	35F0  AFA2087C             sw $2, 2172($29)
3655	35F4  00200013             mtlo $1
3656	35F8  00000812             mflo $1
3657	35FC  AFA10880             sw $1, 2176($29)
3658	3600  3C010000             lui $1, 0
3659	3604  34210000             ori $1, $1, 0
3660	3608  00200013             mtlo $1
3661	360C  00000812             mflo $1
3662	3610  AFA10884             sw $1, 2180($29)
3663	3614  03E00008             jr $31
3664	                          
3665	                          ;..........memory_initialization..........;
3666	                          init_patterns:
3667	3618  3C089E35             lui $8, 40501
3668	361C  35080588             ori $8, $8, 1416
3669	3620  AFC80000             sw $8, 0($30)
3670	3624  3C097ADB             lui $9, 31451
3671	3628  3529C9F5             ori $9, $9, 51701
3672	362C  AFC90004             sw $9, 4($30)
3673	3630  3C0A538F             lui $10, 21391
3674	3634  354A1A25             ori $10, $10, 6693
3675	3638  AFCA0008             sw $10, 8($30)
3676	363C  3C0BE404             lui $11, 58372
3677	3640  356B3471             ori $11, $11, 13425
3678	3644  AFCB000C             sw $11, 12($30)
3679	3648  3C0CA1FD             lui $12, 41469
3680	364C  358CC9BC             ori $12, $12, 51644
3681	3650  AFCC0010             sw $12, 16($30)
3682	3654  3C0D6F54             lui $13, 28500
3683	3658  35AD10BD             ori $13, $13, 4285
3684	365C  AFCD0014             sw $13, 20($30)
3685	3660  3C0EC079             lui $14, 49273
3686	3664  35CEFADF             ori $14, $14, 64223
3687	3668  AFCE0018             sw $14, 24($30)
3688	366C  3C0FC301             lui $15, 49921
3689	3670  35EFB496             ori $15, $15, 46230
3690	3674  AFCF001C             sw $15, 28($30)
3691	3678  3C08CC5E             lui $8, 52318
3692	367C  3508732E             ori $8, $8, 29486
3693	3680  AFC80020             sw $8, 32($30)
3694	3684  3C0906F1             lui $9, 1777
3695	3688  35295773             ori $9, $9, 22387
3696	368C  AFC90024             sw $9, 36($30)
3697	3690  3C0A7B1B             lui $10, 31515
3698	3694  354A94C0             ori $10, $10, 38080
3699	3698  AFCA0028             sw $10, 40($30)
3700	369C  3C0B6411             lui $11, 25617
3701	36A0  356B496F             ori $11, $11, 18799
3702	36A4  AFCB002C             sw $11, 44($30)
3703	36A8  3C0CA212             lui $12, 41490
3704	36AC  358C7B62             ori $12, $12, 31586
3705	36B0  AFCC0030             sw $12, 48($30)
3706	36B4  3C0DB0BB             lui $13, 45243
3707	36B8  35ADC2E1             ori $13, $13, 49889
3708	36BC  AFCD0034             sw $13, 52($30)
3709	36C0  3C0EAA71             lui $14, 43633
3710	36C4  35CEBF37             ori $14, $14, 48951
3711	36C8  AFCE0038             sw $14, 56($30)
3712	36CC  3C0F5641             lui $15, 22081
3713	36D0  35EF8CB7             ori $15, $15, 36023
3714	36D4  AFCF003C             sw $15, 60($30)
3715	36D8  3C0877F7             lui $8, 30711
3716	36DC  35087F7A             ori $8, $8, 32634
3717	36E0  AFC80040             sw $8, 64($30)
3718	36E4  3C09BF8E             lui $9, 49038
3719	36E8  3529356A             ori $9, $9, 13674
3720	36EC  AFC90044             sw $9, 68($30)
3721	36F0  3C0A7665             lui $10, 30309
3722	36F4  354A003F             ori $10, $10, 63
3723	36F8  AFCA0048             sw $10, 72($30)
3724	36FC  3C0B00A0             lui $11, 160
3725	3700  356BEEC1             ori $11, $11, 61121
3726	3704  AFCB004C             sw $11, 76($30)
3727	3708  3C0C1B9A             lui $12, 7066
3728	370C  358C7178             ori $12, $12, 29048
3729	3710  AFCC0050             sw $12, 80($30)
3730	3714  3C0D2633             lui $13, 9779
3731	3718  35AD24B1             ori $13, $13, 9393
3732	371C  AFCD0054             sw $13, 84($30)
3733	3720  3C0E59CE             lui $14, 22990
3734	3724  35CE2847             ori $14, $14, 10311
3735	3728  AFCE0058             sw $14, 88($30)
3736	372C  3C0F88C0             lui $15, 35008
3737	3730  35EF2838             ori $15, $15, 10296
3738	3734  AFCF005C             sw $15, 92($30)
3739	3738  3C08D5DF             lui $8, 54751
3740	373C  3508DF1F             ori $8, $8, 57119
3741	3740  AFC80060             sw $8, 96($30)
3742	3744  3C0976E1             lui $9, 30433
3743	3748  35295531             ori $9, $9, 21809
3744	374C  AFC90064             sw $9, 100($30)
3745	3750  3C0A0B16             lui $10, 2838
3746	3754  354A73DD             ori $10, $10, 29661
3747	3758  AFCA0068             sw $10, 104($30)
3748	375C  3C0BFA87             lui $11, 64135
3749	3760  356B20C3             ori $11, $11, 8387
3750	3764  AFCB006C             sw $11, 108($30)
3751	3768  3C0C5424             lui $12, 21540
3752	376C  358CFEE6             ori $12, $12, 65254
3753	3770  AFCC0070             sw $12, 112($30)
3754	3774  3C0DBC04             lui $13, 48132
3755	3778  35AD7CDD             ori $13, $13, 31965
3756	377C  AFCD0074             sw $13, 116($30)
3757	3780  3C0E2102             lui $14, 8450
3758	3784  35CE01D2             ori $14, $14, 466
3759	3788  AFCE0078             sw $14, 120($30)
3760	378C  3C0FF437             lui $15, 62519
3761	3790  35EF766A             ori $15, $15, 30314
3762	3794  AFCF007C             sw $15, 124($30)
3763	3798  3C0824EF             lui $8, 9455
3764	379C  35080321             ori $8, $8, 801
3765	37A0  AFC80080             sw $8, 128($30)
3766	37A4  3C090D00             lui $9, 3328
3767	37A8  3529E5EC             ori $9, $9, 58860
3768	37AC  AFC90084             sw $9, 132($30)
3769	37B0  3C0AF3F9             lui $10, 62457
3770	37B4  354AB2CF             ori $10, $10, 45775
3771	37B8  AFCA0088             sw $10, 136($30)
3772	37BC  3C0BEFAB             lui $11, 61355
3773	37C0  356BFD41             ori $11, $11, 64833
3774	37C4  AFCB008C             sw $11, 140($30)
3775	37C8  3C0CEA9A             lui $12, 60058
3776	37CC  358C781F             ori $12, $12, 30751
3777	37D0  AFCC0090             sw $12, 144($30)
3778	37D4  3C0D89FA             lui $13, 35322
3779	37D8  35AD0238             ori $13, $13, 568
3780	37DC  AFCD0094             sw $13, 148($30)
3781	37E0  3C0E7F57             lui $14, 32599
3782	37E4  35CE2F59             ori $14, $14, 12121
3783	37E8  AFCE0098             sw $14, 152($30)
3784	37EC  3C0F9F58             lui $15, 40792
3785	37F0  35EFC8FE             ori $15, $15, 51454
3786	37F4  AFCF009C             sw $15, 156($30)
3787	37F8  3C0808DB             lui $8, 2267
3788	37FC  35088620             ori $8, $8, 34336
3789	3800  AFC800A0             sw $8, 160($30)
3790	3804  3C09BD2F             lui $9, 48431
3791	3808  35297FCF             ori $9, $9, 32719
3792	380C  AFC900A4             sw $9, 164($30)
3793	3810  3C0A617A             lui $10, 24954
3794	3814  354A4C7C             ori $10, $10, 19580
3795	3818  AFCA00A8             sw $10, 168($30)
3796	381C  3C0B8184             lui $11, 33156
3797	3820  356B4CC2             ori $11, $11, 19650
3798	3824  AFCB00AC             sw $11, 172($30)
3799	3828  3C0CA421             lui $12, 42017
3800	382C  358C1E8E             ori $12, $12, 7822
3801	3830  AFCC00B0             sw $12, 176($30)
3802	3834  3C0D9B1F             lui $13, 39711
3803	3838  35ADA8D0             ori $13, $13, 43216
3804	383C  AFCD00B4             sw $13, 180($30)
3805	3840  3C0E7B7A             lui $14, 31610
3806	3844  35CE539C             ori $14, $14, 21404
3807	3848  AFCE00B8             sw $14, 184($30)
3808	384C  3C0F3CDA             lui $15, 15578
3809	3850  35EF8748             ori $15, $15, 34632
3810	3854  AFCF00BC             sw $15, 188($30)
3811	3858  3C08C2F3             lui $8, 49907
3812	385C  350837EE             ori $8, $8, 14318
3813	3860  AFC800C0             sw $8, 192($30)
3814	3864  3C0913B1             lui $9, 5041
3815	3868  3529999C             ori $9, $9, 39324
3816	386C  AFC900C4             sw $9, 196($30)
3817	3870  3C0A492E             lui $10, 18734
3818	3874  354A1559             ori $10, $10, 5465
3819	3878  AFCA00C8             sw $10, 200($30)
3820	387C  3C0B7DC3             lui $11, 32195
3821	3880  356BD796             ori $11, $11, 55190
3822	3884  AFCB00CC             sw $11, 204($30)
3823	3888  3C0C630F             lui $12, 25359
3824	388C  358C88A4             ori $12, $12, 34980
3825	3890  AFCC00D0             sw $12, 208($30)
3826	3894  3C0D4A1D             lui $13, 18973
3827	3898  35ADCC26             ori $13, $13, 52262
3828	389C  AFCD00D4             sw $13, 212($30)
3829	38A0  3C0E69BD             lui $14, 27069
3830	38A4  35CE4BF1             ori $14, $14, 19441
3831	38A8  AFCE00D8             sw $14, 216($30)
3832	38AC  3C0FF539             lui $15, 62777
3833	38B0  35EF4B2C             ori $15, $15, 19244
3834	38B4  AFCF00DC             sw $15, 220($30)
3835	38B8  3C08E66F             lui $8, 58991
3836	38BC  35089FFF             ori $8, $8, 40959
3837	38C0  AFC800E0             sw $8, 224($30)
3838	38C4  3C093A52             lui $9, 14930
3839	38C8  3529B336             ori $9, $9, 45878
3840	38CC  AFC900E4             sw $9, 228($30)
3841	38D0  3C0A6E36             lui $10, 28214
3842	38D4  354AE63B             ori $10, $10, 58939
3843	38D8  AFCA00E8             sw $10, 232($30)
3844	38DC  3C0BA54A             lui $11, 42314
3845	38E0  356B2A22             ori $11, $11, 10786
3846	38E4  AFCB00EC             sw $11, 236($30)
3847	38E8  3C0C5DE3             lui $12, 24035
3848	38EC  358CC87D             ori $12, $12, 51325
3849	38F0  AFCC00F0             sw $12, 240($30)
3850	38F4  3C0DFAFF             lui $13, 64255
3851	38F8  35AD57D7             ori $13, $13, 22487
3852	38FC  AFCD00F4             sw $13, 244($30)
3853	3900  3C0EF5EE             lui $14, 62958
3854	3904  35CECBB9             ori $14, $14, 52153
3855	3908  AFCE00F8             sw $14, 248($30)
3856	390C  3C0F23DA             lui $15, 9178
3857	3910  35EF9FFE             ori $15, $15, 40958
3858	3914  AFCF00FC             sw $15, 252($30)
3859	3918  3C08C674             lui $8, 50804
3860	391C  3508B7A1             ori $8, $8, 47009
3861	3920  AFC80100             sw $8, 256($30)
3862	3924  3C09DEC6             lui $9, 57030
3863	3928  352938A4             ori $9, $9, 14500
3864	392C  AFC90104             sw $9, 260($30)
3865	3930  3C0A320C             lui $10, 12812
3866	3934  354A3E08             ori $10, $10, 15880
3867	3938  AFCA0108             sw $10, 264($30)
3868	393C  3C0B5FF3             lui $11, 24563
3869	3940  356B69E2             ori $11, $11, 27106
3870	3944  AFCB010C             sw $11, 268($30)
3871	3948  3C0C444A             lui $12, 17482
3872	394C  358CD9E0             ori $12, $12, 55776
3873	3950  AFCC0110             sw $12, 272($30)
3874	3954  3C0D9AEC             lui $13, 39660
3875	3958  35AD481D             ori $13, $13, 18461
3876	395C  AFCD0114             sw $13, 276($30)
3877	3960  3C0E92CC             lui $14, 37580
3878	3964  35CEA7AB             ori $14, $14, 42923
3879	3968  AFCE0118             sw $14, 280($30)
3880	396C  3C0F2F48             lui $15, 12104
3881	3970  35EF4987             ori $15, $15, 18823
3882	3974  AFCF011C             sw $15, 284($30)
3883	3978  3C08CA01             lui $8, 51713
3884	397C  35081305             ori $8, $8, 4869
3885	3980  AFC80120             sw $8, 288($30)
3886	3984  3C090400             lui $9, 1024
3887	3988  35297A49             ori $9, $9, 31305
3888	398C  AFC90124             sw $9, 292($30)
3889	3990  3C0A7AED             lui $10, 31469
3890	3994  354ABC3C             ori $10, $10, 48188
3891	3998  AFCA0128             sw $10, 296($30)
3892	399C  3C0B040C             lui $11, 1036
3893	39A0  356BAF83             ori $11, $11, 44931
3894	39A4  AFCB012C             sw $11, 300($30)
3895	39A8  3C0CD049             lui $12, 53321
3896	39AC  358C3BE2             ori $12, $12, 15330
3897	39B0  AFCC0130             sw $12, 304($30)
3898	39B4  3C0D6BB4             lui $13, 27572
3899	39B8  35ADA2DF             ori $13, $13, 41695
3900	39BC  AFCD0134             sw $13, 308($30)
3901	39C0  3C0E360F             lui $14, 13839
3902	39C4  35CE5FD4             ori $14, $14, 24532
3903	39C8  AFCE0138             sw $14, 312($30)
3904	39CC  3C0F44C0             lui $15, 17600
3905	39D0  35EF02AD             ori $15, $15, 685
3906	39D4  AFCF013C             sw $15, 316($30)
3907	39D8  3C085A73             lui $8, 23155
3908	39DC  3508B333             ori $8, $8, 45875
3909	39E0  AFC80140             sw $8, 320($30)
3910	39E4  3C09A601             lui $9, 42497
3911	39E8  35295D70             ori $9, $9, 23920
3912	39EC  AFC90144             sw $9, 324($30)
3913	39F0  3C0A0030             lui $10, 48
3914	39F4  354AD5C7             ori $10, $10, 54727
3915	39F8  AFCA0148             sw $10, 328($30)
3916	39FC  3C0B8030             lui $11, 32816
3917	3A00  356B7410             ori $11, $11, 29712
3918	3A04  AFCB014C             sw $11, 332($30)
3919	3A08  3C0C1E54             lui $12, 7764
3920	3A0C  358C4D36             ori $12, $12, 19766
3921	3A10  AFCC0150             sw $12, 336($30)
3922	3A14  3C0DF688             lui $13, 63112
3923	3A18  35ADD17E             ori $13, $13, 53630
3924	3A1C  AFCD0154             sw $13, 340($30)
3925	3A20  3C0E6A0E             lui $14, 27150
3926	3A24  35CEEC25             ori $14, $14, 60453
3927	3A28  AFCE0158             sw $14, 344($30)
3928	3A2C  3C0FC774             lui $15, 51060
3929	3A30  35EFAB28             ori $15, $15, 43816
3930	3A34  AFCF015C             sw $15, 348($30)
3931	3A38  3C088467             lui $8, 33895
3932	3A3C  3508459B             ori $8, $8, 17819
3933	3A40  AFC80160             sw $8, 352($30)
3934	3A44  3C099458             lui $9, 37976
3935	3A48  3529A1AF             ori $9, $9, 41391
3936	3A4C  AFC90164             sw $9, 356($30)
3937	3A50  3C0AD3DA             lui $10, 54234
3938	3A54  354A60C3             ori $10, $10, 24771
3939	3A58  AFCA0168             sw $10, 360($30)
3940	3A5C  3C0BA915             lui $11, 43285
3941	3A60  356B1A1F             ori $11, $11, 6687
3942	3A64  AFCB016C             sw $11, 364($30)
3943	3A68  3C0C3345             lui $12, 13125
3944	3A6C  358C8640             ori $12, $12, 34368
3945	3A70  AFCC0170             sw $12, 368($30)
3946	3A74  3C0D6BF0             lui $13, 27632
3947	3A78  35AD2369             ori $13, $13, 9065
3948	3A7C  AFCD0174             sw $13, 372($30)
3949	3A80  3C0E7396             lui $14, 29590
3950	3A84  35CE77E7             ori $14, $14, 30695
3951	3A88  AFCE0178             sw $14, 376($30)
3952	3A8C  3C0F617B             lui $15, 24955
3953	3A90  35EFAFBE             ori $15, $15, 44990
3954	3A94  AFCF017C             sw $15, 380($30)
3955	3A98  3C08B17F             lui $8, 45439
3956	3A9C  35082CD7             ori $8, $8, 11479
3957	3AA0  AFC80180             sw $8, 384($30)
3958	3AA4  3C091E66             lui $9, 7782
3959	3AA8  35296877             ori $9, $9, 26743
3960	3AAC  AFC90184             sw $9, 388($30)
3961	3AB0  3C0A8F34             lui $10, 36660
3962	3AB4  354A2083             ori $10, $10, 8323
3963	3AB8  AFCA0188             sw $10, 392($30)
3964	3ABC  3C0B427E             lui $11, 17022
3965	3AC0  356BFBA0             ori $11, $11, 64416
3966	3AC4  AFCB018C             sw $11, 396($30)
3967	3AC8  3C0C366C             lui $12, 13932
3968	3ACC  358C3540             ori $12, $12, 13632
3969	3AD0  AFCC0190             sw $12, 400($30)
3970	3AD4  3C0DD154             lui $13, 53588
3971	3AD8  35ADCFF9             ori $13, $13, 53241
3972	3ADC  AFCD0194             sw $13, 404($30)
3973	3AE0  3C0EEC54             lui $14, 60500
3974	3AE4  35CEF3BF             ori $14, $14, 62399
3975	3AE8  AFCE0198             sw $14, 408($30)
3976	3AEC  3C0FEFBF             lui $15, 61375
3977	3AF0  35EFB14E             ori $15, $15, 45390
3978	3AF4  AFCF019C             sw $15, 412($30)
3979	3AF8  3C08D6FF             lui $8, 55039
3980	3AFC  350859FC             ori $8, $8, 23036
3981	3B00  AFC801A0             sw $8, 416($30)
3982	3B04  3C091136             lui $9, 4406
3983	3B08  35298ACC             ori $9, $9, 35532
3984	3B0C  AFC901A4             sw $9, 420($30)
3985	3B10  3C0A3904             lui $10, 14596
3986	3B14  354AD35F             ori $10, $10, 54111
3987	3B18  AFCA01A8             sw $10, 424($30)
3988	3B1C  3C0B3601             lui $11, 13825
3989	3B20  356B0159             ori $11, $11, 345
3990	3B24  AFCB01AC             sw $11, 428($30)
3991	3B28  3C0CAA39             lui $12, 43577
3992	3B2C  358CE3CD             ori $12, $12, 58317
3993	3B30  AFCC01B0             sw $12, 432($30)
3994	3B34  3C0DC052             lui $13, 49234
3995	3B38  35AD5882             ori $13, $13, 22658
3996	3B3C  AFCD01B4             sw $13, 436($30)
3997	3B40  3C0EE47B             lui $14, 58491
3998	3B44  35CE892D             ori $14, $14, 35117
3999	3B48  AFCE01B8             sw $14, 440($30)
4000	3B4C  3C0F93AD             lui $15, 37805
4001	3B50  35EF1EC8             ori $15, $15, 7880
4002	3B54  AFCF01BC             sw $15, 444($30)
4003	3B58  3C080C00             lui $8, 3072
4004	3B5C  3508D4D5             ori $8, $8, 54485
4005	3B60  AFC801C0             sw $8, 448($30)
4006	3B64  3C09ADB9             lui $9, 44473
4007	3B68  3529D51C             ori $9, $9, 54556
4008	3B6C  AFC901C4             sw $9, 452($30)
4009	3B70  3C0AF40D             lui $10, 62477
4010	3B74  354AFD03             ori $10, $10, 64771
4011	3B78  AFCA01C8             sw $10, 456($30)
4012	3B7C  3C0B2A32             lui $11, 10802
4013	3B80  356BC4E8             ori $11, $11, 50408
4014	3B84  AFCB01CC             sw $11, 460($30)
4015	3B88  3C0C934A             lui $12, 37706
4016	3B8C  358CB64F             ori $12, $12, 46671
4017	3B90  AFCC01D0             sw $12, 464($30)
4018	3B94  3C0DAC4B             lui $13, 44107
4019	3B98  35AD5CB0             ori $13, $13, 23728
4020	3B9C  AFCD01D4             sw $13, 468($30)
4021	3BA0  3C0EFCF0             lui $14, 64752
4022	3BA4  35CE96DF             ori $14, $14, 38623
4023	3BA8  AFCE01D8             sw $14, 472($30)
4024	3BAC  3C0FFA4D             lui $15, 64077
4025	3BB0  35EF06C5             ori $15, $15, 1733
4026	3BB4  AFCF01DC             sw $15, 476($30)
4027	3BB8  3C08DD04             lui $8, 56580
4028	3BBC  3508919A             ori $8, $8, 37274
4029	3BC0  AFC801E0             sw $8, 480($30)
4030	3BC4  3C09A2FB             lui $9, 41723
4031	3BC8  352987AA             ori $9, $9, 34730
4032	3BCC  AFC901E4             sw $9, 484($30)
4033	3BD0  3C0A4F66             lui $10, 20326
4034	3BD4  354A0934             ori $10, $10, 2356
4035	3BD8  AFCA01E8             sw $10, 488($30)
4036	3BDC  3C0B1DFD             lui $11, 7677
4037	3BE0  356BFAC3             ori $11, $11, 64195
4038	3BE4  AFCB01EC             sw $11, 492($30)
4039	3BE8  3C0CBB04             lui $12, 47876
4040	3BEC  358CDB2B             ori $12, $12, 56107
4041	3BF0  AFCC01F0             sw $12, 496($30)
4042	3BF4  3C0DFA6D             lui $13, 64109
4043	3BF8  35ADDB2C             ori $13, $13, 56108
4044	3BFC  AFCD01F4             sw $13, 500($30)
4045	3C00  3C0EFB7C             lui $14, 64380
4046	3C04  35CE3AE7             ori $14, $14, 15079
4047	3C08  AFCE01F8             sw $14, 504($30)
4048	3C0C  3C0F049E             lui $15, 1182
4049	3C10  35EFFC93             ori $15, $15, 64659
4050	3C14  AFCF01FC             sw $15, 508($30)
4051	3C18  03E00008             jr $31
4052	                          
4053	                          load_branch:
4054	3C1C  8FCF0200             lw $15, 512($30)
4055	3C20  8FD00204             lw $16, 516($30)
4056	3C24  03E00008             jr $31
4057	                          
4058	                          ;..........branch_memory_initialization..........;
4059	                          init_branch:
4060	3C28  3C08FFFF             lui $8, 65535
4061	3C2C  3508FFFF             ori $8, $8, 65535
4062	3C30  AFC80200             sw $8, 512($30)
4063	3C34  3C09FFFF             lui $9, 65535
4064	3C38  3529FFFF             ori $9, $9, 65535
4065	3C3C  AFC90204             sw $9, 516($30)
4066	3C40  3C0A7FFF             lui $10, 32767
4067	3C44  354AFFFF             ori $10, $10, 65535
4068	3C48  AFCA0208             sw $10, 520($30)
4069	3C4C  3C0BFFFF             lui $11, 65535
4070	3C50  356BFFFF             ori $11, $11, 65535
4071	3C54  AFCB020C             sw $11, 524($30)
4072	3C58  3C0CBFFF             lui $12, 49151
4073	3C5C  358CFFFF             ori $12, $12, 65535
4074	3C60  AFCC0210             sw $12, 528($30)
4075	3C64  3C0DFFFF             lui $13, 65535
4076	3C68  35ADFFFF             ori $13, $13, 65535
4077	3C6C  AFCD0214             sw $13, 532($30)
4078	3C70  3C0EDFFF             lui $14, 57343
4079	3C74  35CEFFFF             ori $14, $14, 65535
4080	3C78  AFCE0218             sw $14, 536($30)
4081	3C7C  3C0FFFFF             lui $15, 65535
4082	3C80  35EFFFFF             ori $15, $15, 65535
4083	3C84  AFCF021C             sw $15, 540($30)
4084	3C88  3C08EFFF             lui $8, 61439
4085	3C8C  3508FFFF             ori $8, $8, 65535
4086	3C90  AFC80220             sw $8, 544($30)
4087	3C94  3C09FFFF             lui $9, 65535
4088	3C98  3529FFFF             ori $9, $9, 65535
4089	3C9C  AFC90224             sw $9, 548($30)
4090	3CA0  3C0AF7FF             lui $10, 63487
4091	3CA4  354AFFFF             ori $10, $10, 65535
4092	3CA8  AFCA0228             sw $10, 552($30)
4093	3CAC  3C0BFFFF             lui $11, 65535
4094	3CB0  356BFFFF             ori $11, $11, 65535
4095	3CB4  AFCB022C             sw $11, 556($30)
4096	3CB8  3C0C7BFF             lui $12, 31743
4097	3CBC  358CFFFF             ori $12, $12, 65535
4098	3CC0  AFCC0230             sw $12, 560($30)
4099	3CC4  3C0DFFFF             lui $13, 65535
4100	3CC8  35ADFFFF             ori $13, $13, 65535
4101	3CCC  AFCD0234             sw $13, 564($30)
4102	3CD0  3C0EFDFF             lui $14, 65023
4103	3CD4  35CEFFFF             ori $14, $14, 65535
4104	3CD8  AFCE0238             sw $14, 568($30)
4105	3CDC  3C0FFFFF             lui $15, 65535
4106	3CE0  35EFFFFF             ori $15, $15, 65535
4107	3CE4  AFCF023C             sw $15, 572($30)
4108	3CE8  3C08FEFF             lui $8, 65279
4109	3CEC  3508FFFF             ori $8, $8, 65535
4110	3CF0  AFC80240             sw $8, 576($30)
4111	3CF4  3C09FFFF             lui $9, 65535
4112	3CF8  3529FFFF             ori $9, $9, 65535
4113	3CFC  AFC90244             sw $9, 580($30)
4114	3D00  3C0AFF7F             lui $10, 65407
4115	3D04  354AFFFF             ori $10, $10, 65535
4116	3D08  AFCA0248             sw $10, 584($30)
4117	3D0C  3C0BFFFF             lui $11, 65535
4118	3D10  356BFFFF             ori $11, $11, 65535
4119	3D14  AFCB024C             sw $11, 588($30)
4120	3D18  3C0CFFBF             lui $12, 65471
4121	3D1C  358CFFFF             ori $12, $12, 65535
4122	3D20  AFCC0250             sw $12, 592($30)
4123	3D24  3C0DFFFF             lui $13, 65535
4124	3D28  35ADFFFF             ori $13, $13, 65535
4125	3D2C  AFCD0254             sw $13, 596($30)
4126	3D30  3C0EFFDF             lui $14, 65503
4127	3D34  35CEFFFF             ori $14, $14, 65535
4128	3D38  AFCE0258             sw $14, 600($30)
4129	3D3C  3C0FFFFF             lui $15, 65535
4130	3D40  35EFFFFF             ori $15, $15, 65535
4131	3D44  AFCF025C             sw $15, 604($30)
4132	3D48  3C08FFEF             lui $8, 65519
4133	3D4C  3508FFFF             ori $8, $8, 65535
4134	3D50  AFC80260             sw $8, 608($30)
4135	3D54  3C09FFFF             lui $9, 65535
4136	3D58  3529FFFF             ori $9, $9, 65535
4137	3D5C  AFC90264             sw $9, 612($30)
4138	3D60  3C0AFFF7             lui $10, 65527
4139	3D64  354AFFFF             ori $10, $10, 65535
4140	3D68  AFCA0268             sw $10, 616($30)
4141	3D6C  3C0BFFFF             lui $11, 65535
4142	3D70  356BFFFF             ori $11, $11, 65535
4143	3D74  AFCB026C             sw $11, 620($30)
4144	3D78  3C0CFFFB             lui $12, 65531
4145	3D7C  358CFFFF             ori $12, $12, 65535
4146	3D80  AFCC0270             sw $12, 624($30)
4147	3D84  3C0DFFFF             lui $13, 65535
4148	3D88  35ADFFFF             ori $13, $13, 65535
4149	3D8C  AFCD0274             sw $13, 628($30)
4150	3D90  3C0EFFFD             lui $14, 65533
4151	3D94  35CEFFFF             ori $14, $14, 65535
4152	3D98  AFCE0278             sw $14, 632($30)
4153	3D9C  3C0FFFFF             lui $15, 65535
4154	3DA0  35EFFFFF             ori $15, $15, 65535
4155	3DA4  AFCF027C             sw $15, 636($30)
4156	3DA8  3C08FFFE             lui $8, 65534
4157	3DAC  3508FFFF             ori $8, $8, 65535
4158	3DB0  AFC80280             sw $8, 640($30)
4159	3DB4  3C09FFFF             lui $9, 65535
4160	3DB8  3529FFFF             ori $9, $9, 65535
4161	3DBC  AFC90284             sw $9, 644($30)
4162	3DC0  3C0AFFFF             lui $10, 65535
4163	3DC4  354A7FFF             ori $10, $10, 32767
4164	3DC8  AFCA0288             sw $10, 648($30)
4165	3DCC  3C0BFFFF             lui $11, 65535
4166	3DD0  356BFFFF             ori $11, $11, 65535
4167	3DD4  AFCB028C             sw $11, 652($30)
4168	3DD8  3C0CFFFF             lui $12, 65535
4169	3DDC  358CBFFF             ori $12, $12, 49151
4170	3DE0  AFCC0290             sw $12, 656($30)
4171	3DE4  3C0DFFFF             lui $13, 65535
4172	3DE8  35ADFFFF             ori $13, $13, 65535
4173	3DEC  AFCD0294             sw $13, 660($30)
4174	3DF0  3C0EFFFF             lui $14, 65535
4175	3DF4  35CEDFFF             ori $14, $14, 57343
4176	3DF8  AFCE0298             sw $14, 664($30)
4177	3DFC  3C0FFFFF             lui $15, 65535
4178	3E00  35EFFFFF             ori $15, $15, 65535
4179	3E04  AFCF029C             sw $15, 668($30)
4180	3E08  3C08FFFF             lui $8, 65535
4181	3E0C  3508EFFF             ori $8, $8, 61439
4182	3E10  AFC802A0             sw $8, 672($30)
4183	3E14  3C09FFFF             lui $9, 65535
4184	3E18  3529FFFF             ori $9, $9, 65535
4185	3E1C  AFC902A4             sw $9, 676($30)
4186	3E20  3C0AFFFF             lui $10, 65535
4187	3E24  354AF7FF             ori $10, $10, 63487
4188	3E28  AFCA02A8             sw $10, 680($30)
4189	3E2C  3C0BFFFF             lui $11, 65535
4190	3E30  356BFFFF             ori $11, $11, 65535
4191	3E34  AFCB02AC             sw $11, 684($30)
4192	3E38  3C0CFFFF             lui $12, 65535
4193	3E3C  358CFBFF             ori $12, $12, 64511
4194	3E40  AFCC02B0             sw $12, 688($30)
4195	3E44  3C0DFFFF             lui $13, 65535
4196	3E48  35ADFFFF             ori $13, $13, 65535
4197	3E4C  AFCD02B4             sw $13, 692($30)
4198	3E50  3C0EFFFF             lui $14, 65535
4199	3E54  35CEFDFF             ori $14, $14, 65023
4200	3E58  AFCE02B8             sw $14, 696($30)
4201	3E5C  3C0FFFFF             lui $15, 65535
4202	3E60  35EFFFFF             ori $15, $15, 65535
4203	3E64  AFCF02BC             sw $15, 700($30)
4204	3E68  3C08FFFF             lui $8, 65535
4205	3E6C  3508FEFF             ori $8, $8, 65279
4206	3E70  AFC802C0             sw $8, 704($30)
4207	3E74  3C09FFFF             lui $9, 65535
4208	3E78  3529FFFF             ori $9, $9, 65535
4209	3E7C  AFC902C4             sw $9, 708($30)
4210	3E80  3C0AFFFF             lui $10, 65535
4211	3E84  354AFF7F             ori $10, $10, 65407
4212	3E88  AFCA02C8             sw $10, 712($30)
4213	3E8C  3C0BFFFF             lui $11, 65535
4214	3E90  356BFFFF             ori $11, $11, 65535
4215	3E94  AFCB02CC             sw $11, 716($30)
4216	3E98  3C0CFFFF             lui $12, 65535
4217	3E9C  358CFFBF             ori $12, $12, 65471
4218	3EA0  AFCC02D0             sw $12, 720($30)
4219	3EA4  3C0DFFFF             lui $13, 65535
4220	3EA8  35ADFFFF             ori $13, $13, 65535
4221	3EAC  AFCD02D4             sw $13, 724($30)
4222	3EB0  3C0EFFFF             lui $14, 65535
4223	3EB4  35CEFFDF             ori $14, $14, 65503
4224	3EB8  AFCE02D8             sw $14, 728($30)
4225	3EBC  3C0FFFFF             lui $15, 65535
4226	3EC0  35EFFFFF             ori $15, $15, 65535
4227	3EC4  AFCF02DC             sw $15, 732($30)
4228	3EC8  3C08FFFF             lui $8, 65535
4229	3ECC  3508FFEF             ori $8, $8, 65519
4230	3ED0  AFC802E0             sw $8, 736($30)
4231	3ED4  3C09FFFF             lui $9, 65535
4232	3ED8  3529FFFF             ori $9, $9, 65535
4233	3EDC  AFC902E4             sw $9, 740($30)
4234	3EE0  3C0AFFFF             lui $10, 65535
4235	3EE4  354AFFF7             ori $10, $10, 65527
4236	3EE8  AFCA02E8             sw $10, 744($30)
4237	3EEC  3C0BFFFF             lui $11, 65535
4238	3EF0  356BFFFF             ori $11, $11, 65535
4239	3EF4  AFCB02EC             sw $11, 748($30)
4240	3EF8  3C0CFFFF             lui $12, 65535
4241	3EFC  358CFFFB             ori $12, $12, 65531
4242	3F00  AFCC02F0             sw $12, 752($30)
4243	3F04  3C0DFFFF             lui $13, 65535
4244	3F08  35ADFFFF             ori $13, $13, 65535
4245	3F0C  AFCD02F4             sw $13, 756($30)
4246	3F10  3C0EFFFF             lui $14, 65535
4247	3F14  35CEFFFD             ori $14, $14, 65533
4248	3F18  AFCE02F8             sw $14, 760($30)
4249	3F1C  3C0FFFFF             lui $15, 65535
4250	3F20  35EFFFFF             ori $15, $15, 65535
4251	3F24  AFCF02FC             sw $15, 764($30)
4252	3F28  3C08FFFF             lui $8, 65535
4253	3F2C  3508FFFE             ori $8, $8, 65534
4254	3F30  AFC80300             sw $8, 768($30)
4255	3F34  3C09FFFF             lui $9, 65535
4256	3F38  3529FFFF             ori $9, $9, 65535
4257	3F3C  AFC90304             sw $9, 772($30)
4258	3F40  3C0AFFFF             lui $10, 65535
4259	3F44  354AFFFF             ori $10, $10, 65535
4260	3F48  AFCA0308             sw $10, 776($30)
4261	3F4C  3C0B7FFF             lui $11, 32767
4262	3F50  356BFFFF             ori $11, $11, 65535
4263	3F54  AFCB030C             sw $11, 780($30)
4264	3F58  3C0CFFFF             lui $12, 65535
4265	3F5C  358CFFFF             ori $12, $12, 65535
4266	3F60  AFCC0310             sw $12, 784($30)
4267	3F64  3C0DBFFF             lui $13, 49151
4268	3F68  35ADFFFF             ori $13, $13, 65535
4269	3F6C  AFCD0314             sw $13, 788($30)
4270	3F70  3C0EFFFF             lui $14, 65535
4271	3F74  35CEFFFF             ori $14, $14, 65535
4272	3F78  AFCE0318             sw $14, 792($30)
4273	3F7C  3C0FDFFF             lui $15, 57343
4274	3F80  35EFFFFF             ori $15, $15, 65535
4275	3F84  AFCF031C             sw $15, 796($30)
4276	3F88  3C08FFFF             lui $8, 65535
4277	3F8C  3508FFFF             ori $8, $8, 65535
4278	3F90  AFC80320             sw $8, 800($30)
4279	3F94  3C09EFFF             lui $9, 61439
4280	3F98  3529FFFF             ori $9, $9, 65535
4281	3F9C  AFC90324             sw $9, 804($30)
4282	3FA0  3C0AFFFF             lui $10, 65535
4283	3FA4  354AFFFF             ori $10, $10, 65535
4284	3FA8  AFCA0328             sw $10, 808($30)
4285	3FAC  3C0BF7FF             lui $11, 63487
4286	3FB0  356BFFFF             ori $11, $11, 65535
4287	3FB4  AFCB032C             sw $11, 812($30)
4288	3FB8  3C0CFFFF             lui $12, 65535
4289	3FBC  358CFFFF             ori $12, $12, 65535
4290	3FC0  AFCC0330             sw $12, 816($30)
4291	3FC4  3C0D7BFF             lui $13, 31743
4292	3FC8  35ADFFFF             ori $13, $13, 65535
4293	3FCC  AFCD0334             sw $13, 820($30)
4294	3FD0  3C0EFFFF             lui $14, 65535
4295	3FD4  35CEFFFF             ori $14, $14, 65535
4296	3FD8  AFCE0338             sw $14, 824($30)
4297	3FDC  3C0FFDFF             lui $15, 65023
4298	3FE0  35EFFFFF             ori $15, $15, 65535
4299	3FE4  AFCF033C             sw $15, 828($30)
4300	3FE8  3C08FFFF             lui $8, 65535
4301	3FEC  3508FFFF             ori $8, $8, 65535
4302	3FF0  AFC80340             sw $8, 832($30)
4303	3FF4  3C09FEFF             lui $9, 65279
4304	3FF8  3529FFFF             ori $9, $9, 65535
4305	3FFC  AFC90344             sw $9, 836($30)
4306	4000  3C0AFFFF             lui $10, 65535
4307	4004  354AFFFF             ori $10, $10, 65535
4308	4008  AFCA0348             sw $10, 840($30)
4309	400C  3C0BFF7F             lui $11, 65407
4310	4010  356BFFFF             ori $11, $11, 65535
4311	4014  AFCB034C             sw $11, 844($30)
4312	4018  3C0CFFFF             lui $12, 65535
4313	401C  358CFFFF             ori $12, $12, 65535
4314	4020  AFCC0350             sw $12, 848($30)
4315	4024  3C0DFFBF             lui $13, 65471
4316	4028  35ADFFFF             ori $13, $13, 65535
4317	402C  AFCD0354             sw $13, 852($30)
4318	4030  3C0EFFFF             lui $14, 65535
4319	4034  35CEFFFF             ori $14, $14, 65535
4320	4038  AFCE0358             sw $14, 856($30)
4321	403C  3C0FFFDF             lui $15, 65503
4322	4040  35EFFFFF             ori $15, $15, 65535
4323	4044  AFCF035C             sw $15, 860($30)
4324	4048  3C08FFFF             lui $8, 65535
4325	404C  3508FFFF             ori $8, $8, 65535
4326	4050  AFC80360             sw $8, 864($30)
4327	4054  3C09FFEF             lui $9, 65519
4328	4058  3529FFFF             ori $9, $9, 65535
4329	405C  AFC90364             sw $9, 868($30)
4330	4060  3C0AFFFF             lui $10, 65535
4331	4064  354AFFFF             ori $10, $10, 65535
4332	4068  AFCA0368             sw $10, 872($30)
4333	406C  3C0BFFF7             lui $11, 65527
4334	4070  356BFFFF             ori $11, $11, 65535
4335	4074  AFCB036C             sw $11, 876($30)
4336	4078  3C0CFFFF             lui $12, 65535
4337	407C  358CFFFF             ori $12, $12, 65535
4338	4080  AFCC0370             sw $12, 880($30)
4339	4084  3C0DFFFB             lui $13, 65531
4340	4088  35ADFFFF             ori $13, $13, 65535
4341	408C  AFCD0374             sw $13, 884($30)
4342	4090  3C0EFFFF             lui $14, 65535
4343	4094  35CEFFFF             ori $14, $14, 65535
4344	4098  AFCE0378             sw $14, 888($30)
4345	409C  3C0FFFFD             lui $15, 65533
4346	40A0  35EFFFFF             ori $15, $15, 65535
4347	40A4  AFCF037C             sw $15, 892($30)
4348	40A8  3C08FFFF             lui $8, 65535
4349	40AC  3508FFFF             ori $8, $8, 65535
4350	40B0  AFC80380             sw $8, 896($30)
4351	40B4  3C09FFFE             lui $9, 65534
4352	40B8  3529FFFF             ori $9, $9, 65535
4353	40BC  AFC90384             sw $9, 900($30)
4354	40C0  3C0AFFFF             lui $10, 65535
4355	40C4  354AFFFF             ori $10, $10, 65535
4356	40C8  AFCA0388             sw $10, 904($30)
4357	40CC  3C0BFFFF             lui $11, 65535
4358	40D0  356B7FFF             ori $11, $11, 32767
4359	40D4  AFCB038C             sw $11, 908($30)
4360	40D8  3C0CFFFF             lui $12, 65535
4361	40DC  358CFFFF             ori $12, $12, 65535
4362	40E0  AFCC0390             sw $12, 912($30)
4363	40E4  3C0DFFFF             lui $13, 65535
4364	40E8  35ADBFFF             ori $13, $13, 49151
4365	40EC  AFCD0394             sw $13, 916($30)
4366	40F0  3C0EFFFF             lui $14, 65535
4367	40F4  35CEFFFF             ori $14, $14, 65535
4368	40F8  AFCE0398             sw $14, 920($30)
4369	40FC  3C0FFFFF             lui $15, 65535
4370	4100  35EFDFFF             ori $15, $15, 57343
4371	4104  AFCF039C             sw $15, 924($30)
4372	4108  3C08FFFF             lui $8, 65535
4373	410C  3508FFFF             ori $8, $8, 65535
4374	4110  AFC803A0             sw $8, 928($30)
4375	4114  3C09FFFF             lui $9, 65535
4376	4118  3529EFFF             ori $9, $9, 61439
4377	411C  AFC903A4             sw $9, 932($30)
4378	4120  3C0AFFFF             lui $10, 65535
4379	4124  354AFFFF             ori $10, $10, 65535
4380	4128  AFCA03A8             sw $10, 936($30)
4381	412C  3C0BFFFF             lui $11, 65535
4382	4130  356BF7FF             ori $11, $11, 63487
4383	4134  AFCB03AC             sw $11, 940($30)
4384	4138  3C0CFFFF             lui $12, 65535
4385	413C  358CFFFF             ori $12, $12, 65535
4386	4140  AFCC03B0             sw $12, 944($30)
4387	4144  3C0DFFFF             lui $13, 65535
4388	4148  35ADFBFF             ori $13, $13, 64511
4389	414C  AFCD03B4             sw $13, 948($30)
4390	4150  3C0EFFFF             lui $14, 65535
4391	4154  35CEFFFF             ori $14, $14, 65535
4392	4158  AFCE03B8             sw $14, 952($30)
4393	415C  3C0FFFFF             lui $15, 65535
4394	4160  35EFFDFF             ori $15, $15, 65023
4395	4164  AFCF03BC             sw $15, 956($30)
4396	4168  3C08FFFF             lui $8, 65535
4397	416C  3508FFFF             ori $8, $8, 65535
4398	4170  AFC803C0             sw $8, 960($30)
4399	4174  3C09FFFF             lui $9, 65535
4400	4178  3529FEFF             ori $9, $9, 65279
4401	417C  AFC903C4             sw $9, 964($30)
4402	4180  3C0AFFFF             lui $10, 65535
4403	4184  354AFFFF             ori $10, $10, 65535
4404	4188  AFCA03C8             sw $10, 968($30)
4405	418C  3C0BFFFF             lui $11, 65535
4406	4190  356BFF7F             ori $11, $11, 65407
4407	4194  AFCB03CC             sw $11, 972($30)
4408	4198  3C0CFFFF             lui $12, 65535
4409	419C  358CFFFF             ori $12, $12, 65535
4410	41A0  AFCC03D0             sw $12, 976($30)
4411	41A4  3C0DFFFF             lui $13, 65535
4412	41A8  35ADFFBF             ori $13, $13, 65471
4413	41AC  AFCD03D4             sw $13, 980($30)
4414	41B0  3C0EFFFF             lui $14, 65535
4415	41B4  35CEFFFF             ori $14, $14, 65535
4416	41B8  AFCE03D8             sw $14, 984($30)
4417	41BC  3C0FFFFF             lui $15, 65535
4418	41C0  35EFFFDF             ori $15, $15, 65503
4419	41C4  AFCF03DC             sw $15, 988($30)
4420	41C8  3C08FFFF             lui $8, 65535
4421	41CC  3508FFFF             ori $8, $8, 65535
4422	41D0  AFC803E0             sw $8, 992($30)
4423	41D4  3C09FFFF             lui $9, 65535
4424	41D8  3529FFEF             ori $9, $9, 65519
4425	41DC  AFC903E4             sw $9, 996($30)
4426	41E0  3C0AFFFF             lui $10, 65535
4427	41E4  354AFFFF             ori $10, $10, 65535
4428	41E8  AFCA03E8             sw $10, 1000($30)
4429	41EC  3C0BFFFF             lui $11, 65535
4430	41F0  356BFFF7             ori $11, $11, 65527
4431	41F4  AFCB03EC             sw $11, 1004($30)
4432	41F8  3C0CFFFF             lui $12, 65535
4433	41FC  358CFFFF             ori $12, $12, 65535
4434	4200  AFCC03F0             sw $12, 1008($30)
4435	4204  3C0DFFFF             lui $13, 65535
4436	4208  35ADFFFB             ori $13, $13, 65531
4437	420C  AFCD03F4             sw $13, 1012($30)
4438	4210  3C0EFFFF             lui $14, 65535
4439	4214  35CEFFFF             ori $14, $14, 65535
4440	4218  AFCE03F8             sw $14, 1016($30)
4441	421C  3C0FFFFF             lui $15, 65535
4442	4220  35EFFFFD             ori $15, $15, 65533
4443	4224  AFCF03FC             sw $15, 1020($30)
4444	4228  3C08FFFF             lui $8, 65535
4445	422C  3508FFFF             ori $8, $8, 65535
4446	4230  AFC80400             sw $8, 1024($30)
4447	4234  3C09FFFF             lui $9, 65535
4448	4238  3529FFFE             ori $9, $9, 65534
4449	423C  AFC90404             sw $9, 1028($30)
4450	4240  3C0A7FFF             lui $10, 32767
4451	4244  354AFFFF             ori $10, $10, 65535
4452	4248  AFCA0408             sw $10, 1032($30)
4453	424C  3C0B7FFF             lui $11, 32767
4454	4250  356BFFFF             ori $11, $11, 65535
4455	4254  AFCB040C             sw $11, 1036($30)
4456	4258  3C0CBFFF             lui $12, 49151
4457	425C  358CFFFF             ori $12, $12, 65535
4458	4260  AFCC0410             sw $12, 1040($30)
4459	4264  3C0DBFFF             lui $13, 49151
4460	4268  35ADFFFF             ori $13, $13, 65535
4461	426C  AFCD0414             sw $13, 1044($30)
4462	4270  3C0EDFFF             lui $14, 57343
4463	4274  35CEFFFF             ori $14, $14, 65535
4464	4278  AFCE0418             sw $14, 1048($30)
4465	427C  3C0FDFFF             lui $15, 57343
4466	4280  35EFFFFF             ori $15, $15, 65535
4467	4284  AFCF041C             sw $15, 1052($30)
4468	4288  3C08EFFF             lui $8, 61439
4469	428C  3508FFFF             ori $8, $8, 65535
4470	4290  AFC80420             sw $8, 1056($30)
4471	4294  3C09EFFF             lui $9, 61439
4472	4298  3529FFFF             ori $9, $9, 65535
4473	429C  AFC90424             sw $9, 1060($30)
4474	42A0  3C0AF7FF             lui $10, 63487
4475	42A4  354AFFFF             ori $10, $10, 65535
4476	42A8  AFCA0428             sw $10, 1064($30)
4477	42AC  3C0BF7FF             lui $11, 63487
4478	42B0  356BFFFF             ori $11, $11, 65535
4479	42B4  AFCB042C             sw $11, 1068($30)
4480	42B8  3C0C7BFF             lui $12, 31743
4481	42BC  358CFFFF             ori $12, $12, 65535
4482	42C0  AFCC0430             sw $12, 1072($30)
4483	42C4  3C0D7BFF             lui $13, 31743
4484	42C8  35ADFFFF             ori $13, $13, 65535
4485	42CC  AFCD0434             sw $13, 1076($30)
4486	42D0  3C0EFDFF             lui $14, 65023
4487	42D4  35CEFFFF             ori $14, $14, 65535
4488	42D8  AFCE0438             sw $14, 1080($30)
4489	42DC  3C0FFDFF             lui $15, 65023
4490	42E0  35EFFFFF             ori $15, $15, 65535
4491	42E4  AFCF043C             sw $15, 1084($30)
4492	42E8  3C08FEFF             lui $8, 65279
4493	42EC  3508FFFF             ori $8, $8, 65535
4494	42F0  AFC80440             sw $8, 1088($30)
4495	42F4  3C09FEFF             lui $9, 65279
4496	42F8  3529FFFF             ori $9, $9, 65535
4497	42FC  AFC90444             sw $9, 1092($30)
4498	4300  3C0AFF7F             lui $10, 65407
4499	4304  354AFFFF             ori $10, $10, 65535
4500	4308  AFCA0448             sw $10, 1096($30)
4501	430C  3C0BFF7F             lui $11, 65407
4502	4310  356BFFFF             ori $11, $11, 65535
4503	4314  AFCB044C             sw $11, 1100($30)
4504	4318  3C0CFFBF             lui $12, 65471
4505	431C  358CFFFF             ori $12, $12, 65535
4506	4320  AFCC0450             sw $12, 1104($30)
4507	4324  3C0DFFBF             lui $13, 65471
4508	4328  35ADFFFF             ori $13, $13, 65535
4509	432C  AFCD0454             sw $13, 1108($30)
4510	4330  3C0EFFDF             lui $14, 65503
4511	4334  35CEFFFF             ori $14, $14, 65535
4512	4338  AFCE0458             sw $14, 1112($30)
4513	433C  3C0FFFDF             lui $15, 65503
4514	4340  35EFFFFF             ori $15, $15, 65535
4515	4344  AFCF045C             sw $15, 1116($30)
4516	4348  3C08FFEF             lui $8, 65519
4517	434C  3508FFFF             ori $8, $8, 65535
4518	4350  AFC80460             sw $8, 1120($30)
4519	4354  3C09FFEF             lui $9, 65519
4520	4358  3529FFFF             ori $9, $9, 65535
4521	435C  AFC90464             sw $9, 1124($30)
4522	4360  3C0AFFF7             lui $10, 65527
4523	4364  354AFFFF             ori $10, $10, 65535
4524	4368  AFCA0468             sw $10, 1128($30)
4525	436C  3C0BFFF7             lui $11, 65527
4526	4370  356BFFFF             ori $11, $11, 65535
4527	4374  AFCB046C             sw $11, 1132($30)
4528	4378  3C0CFFFB             lui $12, 65531
4529	437C  358CFFFF             ori $12, $12, 65535
4530	4380  AFCC0470             sw $12, 1136($30)
4531	4384  3C0DFFFB             lui $13, 65531
4532	4388  35ADFFFF             ori $13, $13, 65535
4533	438C  AFCD0474             sw $13, 1140($30)
4534	4390  3C0EFFFD             lui $14, 65533
4535	4394  35CEFFFF             ori $14, $14, 65535
4536	4398  AFCE0478             sw $14, 1144($30)
4537	439C  3C0FFFFD             lui $15, 65533
4538	43A0  35EFFFFF             ori $15, $15, 65535
4539	43A4  AFCF047C             sw $15, 1148($30)
4540	43A8  3C08FFFE             lui $8, 65534
4541	43AC  3508FFFF             ori $8, $8, 65535
4542	43B0  AFC80480             sw $8, 1152($30)
4543	43B4  3C09FFFE             lui $9, 65534
4544	43B8  3529FFFF             ori $9, $9, 65535
4545	43BC  AFC90484             sw $9, 1156($30)
4546	43C0  3C0AFFFF             lui $10, 65535
4547	43C4  354A7FFF             ori $10, $10, 32767
4548	43C8  AFCA0488             sw $10, 1160($30)
4549	43CC  3C0BFFFF             lui $11, 65535
4550	43D0  356B7FFF             ori $11, $11, 32767
4551	43D4  AFCB048C             sw $11, 1164($30)
4552	43D8  3C0CFFFF             lui $12, 65535
4553	43DC  358CBFFF             ori $12, $12, 49151
4554	43E0  AFCC0490             sw $12, 1168($30)
4555	43E4  3C0DFFFF             lui $13, 65535
4556	43E8  35ADBFFF             ori $13, $13, 49151
4557	43EC  AFCD0494             sw $13, 1172($30)
4558	43F0  3C0EFFFF             lui $14, 65535
4559	43F4  35CEDFFF             ori $14, $14, 57343
4560	43F8  AFCE0498             sw $14, 1176($30)
4561	43FC  3C0FFFFF             lui $15, 65535
4562	4400  35EFDFFF             ori $15, $15, 57343
4563	4404  AFCF049C             sw $15, 1180($30)
4564	4408  3C08FFFF             lui $8, 65535
4565	440C  3508EFFF             ori $8, $8, 61439
4566	4410  AFC804A0             sw $8, 1184($30)
4567	4414  3C09FFFF             lui $9, 65535
4568	4418  3529EFFF             ori $9, $9, 61439
4569	441C  AFC904A4             sw $9, 1188($30)
4570	4420  3C0AFFFF             lui $10, 65535
4571	4424  354AF7FF             ori $10, $10, 63487
4572	4428  AFCA04A8             sw $10, 1192($30)
4573	442C  3C0BFFFF             lui $11, 65535
4574	4430  356BF7FF             ori $11, $11, 63487
4575	4434  AFCB04AC             sw $11, 1196($30)
4576	4438  3C0CFFFF             lui $12, 65535
4577	443C  358CFBFF             ori $12, $12, 64511
4578	4440  AFCC04B0             sw $12, 1200($30)
4579	4444  3C0DFFFF             lui $13, 65535
4580	4448  35ADFBFF             ori $13, $13, 64511
4581	444C  AFCD04B4             sw $13, 1204($30)
4582	4450  3C0EFFFF             lui $14, 65535
4583	4454  35CEFDFF             ori $14, $14, 65023
4584	4458  AFCE04B8             sw $14, 1208($30)
4585	445C  3C0FFFFF             lui $15, 65535
4586	4460  35EFFDFF             ori $15, $15, 65023
4587	4464  AFCF04BC             sw $15, 1212($30)
4588	4468  3C08FFFF             lui $8, 65535
4589	446C  3508FEFF             ori $8, $8, 65279
4590	4470  AFC804C0             sw $8, 1216($30)
4591	4474  3C09FFFF             lui $9, 65535
4592	4478  3529FEFF             ori $9, $9, 65279
4593	447C  AFC904C4             sw $9, 1220($30)
4594	4480  3C0AFFFF             lui $10, 65535
4595	4484  354AFF7F             ori $10, $10, 65407
4596	4488  AFCA04C8             sw $10, 1224($30)
4597	448C  3C0BFFFF             lui $11, 65535
4598	4490  356BFF7F             ori $11, $11, 65407
4599	4494  AFCB04CC             sw $11, 1228($30)
4600	4498  3C0CFFFF             lui $12, 65535
4601	449C  358CFFBF             ori $12, $12, 65471
4602	44A0  AFCC04D0             sw $12, 1232($30)
4603	44A4  3C0DFFFF             lui $13, 65535
4604	44A8  35ADFFBF             ori $13, $13, 65471
4605	44AC  AFCD04D4             sw $13, 1236($30)
4606	44B0  3C0EFFFF             lui $14, 65535
4607	44B4  35CEFFDF             ori $14, $14, 65503
4608	44B8  AFCE04D8             sw $14, 1240($30)
4609	44BC  3C0FFFFF             lui $15, 65535
4610	44C0  35EFFFDF             ori $15, $15, 65503
4611	44C4  AFCF04DC             sw $15, 1244($30)
4612	44C8  3C08FFFF             lui $8, 65535
4613	44CC  3508FFEF             ori $8, $8, 65519
4614	44D0  AFC804E0             sw $8, 1248($30)
4615	44D4  3C09FFFF             lui $9, 65535
4616	44D8  3529FFEF             ori $9, $9, 65519
4617	44DC  AFC904E4             sw $9, 1252($30)
4618	44E0  3C0AFFFF             lui $10, 65535
4619	44E4  354AFFF7             ori $10, $10, 65527
4620	44E8  AFCA04E8             sw $10, 1256($30)
4621	44EC  3C0BFFFF             lui $11, 65535
4622	44F0  356BFFF7             ori $11, $11, 65527
4623	44F4  AFCB04EC             sw $11, 1260($30)
4624	44F8  3C0CFFFF             lui $12, 65535
4625	44FC  358CFFFB             ori $12, $12, 65531
4626	4500  AFCC04F0             sw $12, 1264($30)
4627	4504  3C0DFFFF             lui $13, 65535
4628	4508  35ADFFFB             ori $13, $13, 65531
4629	450C  AFCD04F4             sw $13, 1268($30)
4630	4510  3C0EFFFF             lui $14, 65535
4631	4514  35CEFFFD             ori $14, $14, 65533
4632	4518  AFCE04F8             sw $14, 1272($30)
4633	451C  3C0FFFFF             lui $15, 65535
4634	4520  35EFFFFD             ori $15, $15, 65533
4635	4524  AFCF04FC             sw $15, 1276($30)
4636	4528  3C08FFFF             lui $8, 65535
4637	452C  3508FFFE             ori $8, $8, 65534
4638	4530  AFC80500             sw $8, 1280($30)
4639	4534  3C09FFFF             lui $9, 65535
4640	4538  3529FFFE             ori $9, $9, 65534
4641	453C  AFC90504             sw $9, 1284($30)
4642	4540  03E00008             jr $31
4643	                          
4644	                          end:
4645	4544  08001151              j end
4646	                          
Table des tiquettes :
end	4544
init_branch	3C28
load_branch	3C1C
init_patterns	3618
lo_downward_0	3254
lo_upward_1	2FF8
hi_downward_0	2C34
hi_upward_1	29D8
lo_downward_1	2614
lo_upward_0	23B8
hi_downward_1	1FF4
hi_upward_0	1D98
init_upward_0	1CA4
init_upward_1	1BB0
branch_bltzal	1B9C
branch_bltz	1B88
branch_blez	1B74
branch_bgtz	1B60
branch_bgezal	1B4C
branch_bgez	1B38
branch_bne	1B24
branch_beq	1B10
init_cp	1AFC
store	1AF0
store_branch	1AE8
increment	1AE0
increment_immediate	1AD4
increment_offset	1AC4
reset_hi_lo	1AB8
reset_offsets	1AA4
load_patterns	1A98
hilo_register_operation	1A6C
breaks	1A60
syscalls	1A54
operation_multu_and_hi	1A2C
operation_multu_and_lo	1A04
cop0_register	17F0
continue	0F88
pipeline_operation	0C80
reg_special	00C8
main	00C8
_reset	0048
exception_handler	0008
